(dp1
S'access'
p2
(dp3
S'type'
p4
S'string'
p5
sS'sortable'
p6
I3
sS'sql'
p7
S'CHAR(512)'
p8
ssS'category'
p9
(dp10
g4
g5
sg6
I4
sg7
S'CHAR(512)'
p11
ssS'complaint_body'
p12
(dp13
g4
S'text'
p14
sg6
I5
sg7
S'TEXT'
p15
ssS'id'
p16
(dp17
g4
S'id'
p18
sg6
I1
sg7
S'INTEGER PRIMARY KEY AUTOINCREMENT'
p19
ssS'user_id'
p20
(dp21
g4
g5
sg6
I2
sg7
S'CHAR(512) UNIQUE'
p22
ss.