(dp1
S'output'
p2
S"<type 'exceptions.KeyError'> 'images'"
p3
sS'layer'
p4
S'C:\\Users\\bhanu\\Downloads\\Compressed\\web2py\\applications\\hostel\\models\\db.py'
p5
sS'code'
p6
S'# -*- coding: utf-8 -*-\n\n#########################################################################\n## This scaffolding model makes your app work on Google App Engine too\n## File is released under public domain and you can use without limitations\n#########################################################################\n\n## if SSL/HTTPS is properly configured and you want all HTTP requests to\n## be redirected to HTTPS, uncomment the line below:\n# request.requires_https()\n\nif not request.env.web2py_runtime_gae:\n    ## if NOT running on Google App Engine use SQLite or other DB\n    db = DAL(\'sqlite://storage.sqlite\')\nelse:\n    ## connect to Google BigTable (optional \'google:datastore://namespace\')\n    db = DAL(\'google:datastore\')\n    ## store sessions and tickets there\n    session.connect(request, response, db = db)\n    ## or store session in Memcache, Redis, etc.\n    ## from gluon.contrib.memdb import MEMDB\n    ## from google.appengine.api.memcache import Client\n    ## session.connect(request, response, db = MEMDB(Client()))\n\n## by default give a view/generic.extension to all actions from localhost\n## none otherwise. a pattern can be \'controller/function.extension\'\nresponse.generic_patterns = [\'*\'] if request.is_local else []\n## (optional) optimize handling of static files\n# response.optimize_css = \'concat,minify,inline\'\n# response.optimize_js = \'concat,minify,inline\'\n\n#########################################################################\n## Here is sample code if you need for\n## - email capabilities\n## - authentication (registration, login, logout, ... )\n## - authorization (role based authorization)\n## - services (xml, csv, json, xmlrpc, jsonrpc, amf, rss)\n## - old style crud actions\n## (more options discussed in gluon/tools.py)\n#########################################################################\n\nfrom gluon.tools import Auth, Crud, Service, PluginManager, prettydate\nauth = Auth(db, hmac_key=Auth.get_or_create_key())\ncrud, service, plugins = Crud(db), Service(), PluginManager()\n\n## create all tables needed by auth if not custom tables\n\n########################################\ndb.define_table(\'auth_user\',\n    Field(\'username\', type=\'string\',\n          label=T(\'Username\')),\n    Field(\'first_name\', type=\'string\',\n          label=T(\'First Name\')),\n    Field(\'last_name\', type=\'string\',\n          label=T(\'Last Name\')),\n    Field(\'email\', type=\'string\',\n          label=T(\'Email\')),\n    Field(\'password\', type=\'password\',\n          readable=False,\n          label=T(\'Password\')),\n    Field(\'created_on\',\'datetime\',default=request.now,\n          label=T(\'Created On\'),writable=False,readable=False),\n    Field(\'modified_on\',\'datetime\',default=request.now,\n          label=T(\'Modified On\'),writable=False,readable=False,\n          update=request.now),\n    Field(\'registration_key\',default=\'\',\n          writable=False,readable=False),\n    Field(\'reset_password_key\',default=\'\',\n          writable=False,readable=False),\n    Field(\'registration_id\',default=\'\',\n          writable=False,readable=False),\n    format=\'%(username)s\',\n    migrate=settings.migrate)\n\n\ndb.auth_user.first_name.requires = IS_NOT_EMPTY(error_message=auth.messages.is_empty)\ndb.auth_user.last_name.requires = IS_NOT_EMPTY(error_message=auth.messages.is_empty)\ndb.auth_user.password.requires = CRYPT(key=auth.settings.hmac_key)\ndb.auth_user.username.requires = IS_NOT_IN_DB(db, db.auth_user.username)\ndb.auth_user.email.requires = (IS_EMAIL(error_message=auth.messages.invalid_email),\n                               IS_NOT_IN_DB(db, db.auth_user.email))\nauth.define_tables(migrate = settings.migrate)\n\n## configure email\nmail=auth.settings.mailer\nmail.settings.server = \'logging\' or \'smtp.gmail.com:587\'\nmail.settings.sender = \'you@gmail.com\'\nmail.settings.login = \'username:password\'\n\n## configure auth policy\nauth.settings.registration_requires_verification = False\nauth.settings.registration_requires_approval = False\nauth.settings.reset_password_requires_verification = True\n\n## if you need to use OpenID, Facebook, MySpace, Twitter, Linkedin, etc.\n## register with janrain.com, write your domain:api_key in private/janrain.key\nfrom gluon.contrib.login_methods.rpx_account import use_janrain\nuse_janrain(auth,filename=\'private/janrain.key\')\n\n#########################################################################\n## Define your tables below (or better in another model file) for example\n##\n## >>> db.define_table(\'mytable\',Field(\'myfield\',\'string\'))\n##\n## Fields can be \'string\',\'text\',\'password\',\'integer\',\'double\',\'boolean\'\n##       \'date\',\'time\',\'datetime\',\'blob\',\'upload\', \'reference TABLENAME\'\n## There is an implicit \'id integer autoincrement\' field\n## Consult manual for more options, validators, etc.\n##\n## More API examples for controllers:\n##\n## >>> db.mytable.insert(myfield=\'value\')\n## >>> rows=db(db.mytable.myfield==\'value\').select(db.mytable.ALL)\n## >>> for row in rows: print row.id, row.myfield\n#########################################################################\n\n\nmail.settings.server = settings.email_server\nmail.settings.sender = settings.email_sender\nmail.settings.login = settings.email_login\n\ndb.define_table(\'complaint\',  \n   Field(\'User\',writable=False,readable=False),\n   Field(\'access\',requires=IS_IN_SET([\'Public\',\'Private\'])),\n   Field(\'category\',requires=IS_IN_SET([\'Carpenter\',\'Plumber\',\'Electrician\',\'Other\'])),\n   Field(\'complaint_body\', \'text\'),\n   Field(\'Date\',\'date\',writable=False,readable=False),\n   Field(\'Time\',\'time\',writable=False,readable=False),\n   Field(\'Flag\',\'integer\',writable=False,readable=False),\n   Field(\'Available_time\',\'time\')\n)\ndb.define_table(\'students\',\n    Field(\'name\'),\n    Field(\'roll_no\'),\n    Field(\'room_no\'),\n    Field(\'email\'),\n    Field(\'blood_grp\'),\n    Field(\'hostel\'),\n    Field(\'file\',\'upload\'),\n    Field(\'branch\',\'string\')\n    )\ndb.define_table(\'laptop\',\nField(\'roll_no\'),\nField(\'company\',requires=IS_IN_SET(["ACER","APPLE","Asus","COMPAQ","DELL","HP","IBM","LENOVO","SAMSUNG","SONY","TOSHIBHA"],zero=None)),\nField(\'service_tag\'))\n\ndb.define_table(\'laptop_out\',\nField(\'roll_no\'),\nField(\'out_time\',\'datetime\',default=request.now,writable=False,readable=False),\nField(\'reason\',requires=IS_IN_SET(["Library","Openlab","Class","outside campus"],zero=None)))\n\ndb.define_table(\'student_out\',\nField(\'roll_no\'),\nField(\'out_time\',\'datetime\',default=request.now,writable=False,readable=False),\nField(\'reason\',requires=IS_IN_SET(["Holidays","sick","Others"],zero=None)),Field(\'laptop_presence\',requires=IS_IN_SET(["present","NotPresent "],zero=None)))\n\ndb.define_table(\'news_feed\',\nField(\'flag\',\'integer\',readable=False,writable=False),\nField(\'Title\'),\nField(\'posted_by\',readable=False,writable=False),\nField(\'image\',\'upload\'),\nField(\'description\',\'text\'))\n\n\nif auth.is_logged_in():\n   db.news_feed.posted_by.default = auth.user.first_name +\' \' +auth.user.last_name\n\ndb.define_table(\'poll\',\nField(\'flag\',\'integer\',readable=False,writable=False),\n\nField(\'posted_by\',readable=False,writable=False),\nField(\'question\'),\nField(\'options_no\',\'integer\',readable=False,writable=False),\nField(\'counter\',\'integer\',readable=False,writable=False))\n\ndb.poll.counter.default=0\nif auth.is_logged_in():\n   db.poll.posted_by.default = auth.user.first_name +\' \' +auth.user.last_name\n\ndb.define_table(\'options\',\nField(\'option\'),\nField(\'qid\'),\nField(\'counter\',\'integer\'))\ndb.options.counter.default=0\n\ndb.define_table(\'vote\',\nField(\'voted_by\',\'string\'),\nField(\'qid\',\'integer\'))\n\nif auth.is_logged_in():\n   db.images.voted_by.default = auth.user.first_name +\' \' +auth.user.last_name\n'
p7
sS'snapshot'
p8
(dp9
S'exception'
p10
(dp11
S'__hash__'
p12
S"<method-wrapper '__hash__' of exceptions.KeyError object at 0x07392EB8>"
p13
sS'__setattr__'
p14
S"<method-wrapper '__setattr__' of exceptions.KeyError object at 0x07392EB8>"
p15
sS'__reduce_ex__'
p16
S'<built-in method __reduce_ex__ of exceptions.KeyError object at 0x07392EB8>'
p17
sS'__getslice__'
p18
S"<method-wrapper '__getslice__' of exceptions.KeyError object at 0x07392EB8>"
p19
sS'__getitem__'
p20
S"<method-wrapper '__getitem__' of exceptions.KeyError object at 0x07392EB8>"
p21
sS'__setstate__'
p22
S'<built-in method __setstate__ of exceptions.KeyError object at 0x07392EB8>'
p23
sS'__reduce__'
p24
S'<built-in method __reduce__ of exceptions.KeyError object at 0x07392EB8>'
p25
sS'__str__'
p26
S"<method-wrapper '__str__' of exceptions.KeyError object at 0x07392EB8>"
p27
sS'args'
p28
S"('images',)"
p29
sS'__getattribute__'
p30
S"<method-wrapper '__getattribute__' of exceptions.KeyError object at 0x07392EB8>"
p31
sS'__class__'
p32
S"<type 'exceptions.KeyError'>"
p33
sS'__delattr__'
p34
S"<method-wrapper '__delattr__' of exceptions.KeyError object at 0x07392EB8>"
p35
sS'__repr__'
p36
S"<method-wrapper '__repr__' of exceptions.KeyError object at 0x07392EB8>"
p37
sS'__dict__'
p38
S'{}'
p39
sS'__doc__'
p40
S"'Mapping key not found.'"
p41
sS'__init__'
p42
S"<method-wrapper '__init__' of exceptions.KeyError object at 0x07392EB8>"
p43
sS'__new__'
p44
S'<built-in method __new__ of type object at 0x1E1CDFB8>'
p45
ssS'evalue'
p46
S"'images'"
p47
sS'request'
p48
ccopy_reg
_reconstructor
p49
(cgluon.html
BEAUTIFY
p50
c__builtin__
object
p51
NtRp52
(dp53
S'attributes'
p54
(dp55
sS'components'
p56
(lp57
g49
(cgluon.html
TABLE
p58
g51
NtRp59
(dp60
g54
(dp61
S'level'
p62
I5
ssS'parent'
p63
Nsg56
(lp64
g49
(cgluon.html
TR
p65
g51
NtRp66
(dp67
g54
(dp68
sg63
g59
sg56
(lp69
g49
(cgluon.html
TD
p70
g51
NtRp71
(dp72
g54
(dp73
S'_style'
p74
S'font-weight:bold;vertical-align:top'
p75
ssg63
g66
sg56
(lp76
S'ajax'
p77
asbag49
(g70
g51
NtRp78
(dp79
g54
(dp80
S'_valign'
p81
S'top'
p82
ssg63
g66
sg56
(lp83
S':'
asbag49
(g70
g51
NtRp84
(dp85
g54
(dp86
sg63
g66
sg56
(lp87
g49
(g50
g51
NtRp88
(dp89
g54
(dp90
g62
I5
ssg63
g84
sg56
(lp91
S'False'
p92
asbasbasbag49
(g65
g51
NtRp93
(dp94
g54
(dp95
sg63
g59
sg56
(lp96
g49
(g70
g51
NtRp97
(dp98
g54
(dp99
g74
g75
ssg63
g93
sg56
(lp100
S'application'
p101
asbag49
(g70
g51
NtRp102
(dp103
g54
(dp104
g81
g82
ssg63
g93
sg56
(lp105
S':'
asbag49
(g70
g51
NtRp106
(dp107
g54
(dp108
sg63
g93
sg56
(lp109
g49
(g50
g51
NtRp110
(dp111
g54
(dp112
g62
I5
ssg63
g106
sg56
(lp113
S'hostel'
p114
asbasbasbag49
(g65
g51
NtRp115
(dp116
g54
(dp117
sg63
g59
sg56
(lp118
g49
(g70
g51
NtRp119
(dp120
g54
(dp121
g74
g75
ssg63
g115
sg56
(lp122
g28
asbag49
(g70
g51
NtRp123
(dp124
g54
(dp125
g81
g82
ssg63
g115
sg56
(lp126
S':'
asbag49
(g70
g51
NtRp127
(dp128
g54
(dp129
sg63
g115
sg56
(lp130
g49
(g50
g51
NtRp131
(dp132
g54
(dp133
g62
I5
ssg63
g127
sg56
(lp134
g49
(g58
g51
NtRp135
(dp136
g54
(dp137
g62
I4
ssg63
Nsg56
(lp138
g49
(g65
g51
NtRp139
(dp140
g54
(dp141
sg63
g135
sg56
(lp142
g49
(g70
g51
NtRp143
(dp144
g54
(dp145
sg63
g139
sg56
(lp146
g49
(g50
g51
NtRp147
(dp148
g54
(dp149
g62
I4
ssg63
g143
sg56
(lp150
S'logout'
p151
asbasbasbasbasbasbasbag49
(g65
g51
NtRp152
(dp153
g54
(dp154
sg63
g59
sg56
(lp155
g49
(g70
g51
NtRp156
(dp157
g54
(dp158
g74
g75
ssg63
g152
sg56
(lp159
S'body'
p160
asbag49
(g70
g51
NtRp161
(dp162
g54
(dp163
g81
g82
ssg63
g152
sg56
(lp164
S':'
asbag49
(g70
g51
NtRp165
(dp166
g54
(dp167
sg63
g152
sg56
(lp168
g49
(g50
g51
NtRp169
(dp170
g54
(dp171
g62
I5
ssg63
g165
sg56
(lp172
S'<cStringIO.StringO object at 0x06BA9D00>'
p173
asbasbasbag49
(g65
g51
NtRp174
(dp175
g54
(dp176
sg63
g59
sg56
(lp177
g49
(g70
g51
NtRp178
(dp179
g54
(dp180
g74
g75
ssg63
g174
sg56
(lp181
S'client'
p182
asbag49
(g70
g51
NtRp183
(dp184
g54
(dp185
g81
g82
ssg63
g174
sg56
(lp186
S':'
asbag49
(g70
g51
NtRp187
(dp188
g54
(dp189
sg63
g174
sg56
(lp190
g49
(g50
g51
NtRp191
(dp192
g54
(dp193
g62
I5
ssg63
g187
sg56
(lp194
S'127.0.0.1'
p195
asbasbasbag49
(g65
g51
NtRp196
(dp197
g54
(dp198
sg63
g59
sg56
(lp199
g49
(g70
g51
NtRp200
(dp201
g54
(dp202
g74
g75
ssg63
g196
sg56
(lp203
S'controller'
p204
asbag49
(g70
g51
NtRp205
(dp206
g54
(dp207
g81
g82
ssg63
g196
sg56
(lp208
S':'
asbag49
(g70
g51
NtRp209
(dp210
g54
(dp211
sg63
g196
sg56
(lp212
g49
(g50
g51
NtRp213
(dp214
g54
(dp215
g62
I5
ssg63
g209
sg56
(lp216
S'default'
p217
asbasbasbag49
(g65
g51
NtRp218
(dp219
g54
(dp220
sg63
g59
sg56
(lp221
g49
(g70
g51
NtRp222
(dp223
g54
(dp224
g74
g75
ssg63
g218
sg56
(lp225
S'cookies'
p226
asbag49
(g70
g51
NtRp227
(dp228
g54
(dp229
g81
g82
ssg63
g218
sg56
(lp230
S':'
asbag49
(g70
g51
NtRp231
(dp232
g54
(dp233
sg63
g218
sg56
(lp234
g49
(g50
g51
NtRp235
(dp236
g54
(dp237
g62
I5
ssg63
g231
sg56
(lp238
g49
(g58
g51
NtRp239
(dp240
g54
(dp241
g62
I4
ssg63
Nsg56
(lp242
g49
(g65
g51
NtRp243
(dp244
g54
(dp245
sg63
g239
sg56
(lp246
g49
(g70
g51
NtRp247
(dp248
g54
(dp249
g74
g75
ssg63
g243
sg56
(lp250
S'session_id_admin'
p251
asbag49
(g70
g51
NtRp252
(dp253
g54
(dp254
g81
g82
ssg63
g243
sg56
(lp255
S':'
asbag49
(g70
g51
NtRp256
(dp257
g54
(dp258
sg63
g243
sg56
(lp259
g49
(g50
g51
NtRp260
(dp261
g54
(dp262
g62
I4
ssg63
g256
sg56
(lp263
g49
(g58
g51
NtRp264
(dp265
g54
(dp266
g62
I3
ssg63
Nsg56
(lp267
g49
(g65
g51
NtRp268
(dp269
g54
(dp270
sg63
g264
sg56
(lp271
g49
(g70
g51
NtRp272
(dp273
g54
(dp274
g74
g75
ssg63
g268
sg56
(lp275
S'comment'
p276
asbag49
(g70
g51
NtRp277
(dp278
g54
(dp279
g81
g82
ssg63
g268
sg56
(lp280
S':'
asbag49
(g70
g51
NtRp281
(dp282
g54
(dp283
sg63
g268
sg56
(lp284
g49
(g50
g51
NtRp285
(dp286
g54
(dp287
g62
I3
ssg63
g281
sg56
(lp288
S''
asbasbasbag49
(g65
g51
NtRp289
(dp290
g54
(dp291
sg63
g264
sg56
(lp292
g49
(g70
g51
NtRp293
(dp294
g54
(dp295
g74
g75
ssg63
g289
sg56
(lp296
S'domain'
p297
asbag49
(g70
g51
NtRp298
(dp299
g54
(dp300
g81
g82
ssg63
g289
sg56
(lp301
S':'
asbag49
(g70
g51
NtRp302
(dp303
g54
(dp304
sg63
g289
sg56
(lp305
g49
(g50
g51
NtRp306
(dp307
g54
(dp308
g62
I3
ssg63
g302
sg56
(lp309
S''
asbasbasbag49
(g65
g51
NtRp310
(dp311
g54
(dp312
sg63
g264
sg56
(lp313
g49
(g70
g51
NtRp314
(dp315
g54
(dp316
g74
g75
ssg63
g310
sg56
(lp317
S'expires'
p318
asbag49
(g70
g51
NtRp319
(dp320
g54
(dp321
g81
g82
ssg63
g310
sg56
(lp322
S':'
asbag49
(g70
g51
NtRp323
(dp324
g54
(dp325
sg63
g310
sg56
(lp326
g49
(g50
g51
NtRp327
(dp328
g54
(dp329
g62
I3
ssg63
g323
sg56
(lp330
S''
asbasbasbag49
(g65
g51
NtRp331
(dp332
g54
(dp333
sg63
g264
sg56
(lp334
g49
(g70
g51
NtRp335
(dp336
g54
(dp337
g74
g75
ssg63
g331
sg56
(lp338
S'max-age'
p339
asbag49
(g70
g51
NtRp340
(dp341
g54
(dp342
g81
g82
ssg63
g331
sg56
(lp343
S':'
asbag49
(g70
g51
NtRp344
(dp345
g54
(dp346
sg63
g331
sg56
(lp347
g49
(g50
g51
NtRp348
(dp349
g54
(dp350
g62
I3
ssg63
g344
sg56
(lp351
S''
asbasbasbag49
(g65
g51
NtRp352
(dp353
g54
(dp354
sg63
g264
sg56
(lp355
g49
(g70
g51
NtRp356
(dp357
g54
(dp358
g74
g75
ssg63
g352
sg56
(lp359
S'path'
p360
asbag49
(g70
g51
NtRp361
(dp362
g54
(dp363
g81
g82
ssg63
g352
sg56
(lp364
S':'
asbag49
(g70
g51
NtRp365
(dp366
g54
(dp367
sg63
g352
sg56
(lp368
g49
(g50
g51
NtRp369
(dp370
g54
(dp371
g62
I3
ssg63
g365
sg56
(lp372
S''
asbasbasbag49
(g65
g51
NtRp373
(dp374
g54
(dp375
sg63
g264
sg56
(lp376
g49
(g70
g51
NtRp377
(dp378
g54
(dp379
g74
g75
ssg63
g373
sg56
(lp380
S'secure'
p381
asbag49
(g70
g51
NtRp382
(dp383
g54
(dp384
g81
g82
ssg63
g373
sg56
(lp385
S':'
asbag49
(g70
g51
NtRp386
(dp387
g54
(dp388
sg63
g373
sg56
(lp389
g49
(g50
g51
NtRp390
(dp391
g54
(dp392
g62
I3
ssg63
g386
sg56
(lp393
S''
asbasbasbag49
(g65
g51
NtRp394
(dp395
g54
(dp396
sg63
g264
sg56
(lp397
g49
(g70
g51
NtRp398
(dp399
g54
(dp400
g74
g75
ssg63
g394
sg56
(lp401
S'version'
p402
asbag49
(g70
g51
NtRp403
(dp404
g54
(dp405
g81
g82
ssg63
g394
sg56
(lp406
S':'
asbag49
(g70
g51
NtRp407
(dp408
g54
(dp409
sg63
g394
sg56
(lp410
g49
(g50
g51
NtRp411
(dp412
g54
(dp413
g62
I3
ssg63
g407
sg56
(lp414
S''
asbasbasbasbasbasbasbag49
(g65
g51
NtRp415
(dp416
g54
(dp417
sg63
g239
sg56
(lp418
g49
(g70
g51
NtRp419
(dp420
g54
(dp421
g74
g75
ssg63
g415
sg56
(lp422
S'session_id_hostel'
p423
asbag49
(g70
g51
NtRp424
(dp425
g54
(dp426
g81
g82
ssg63
g415
sg56
(lp427
S':'
asbag49
(g70
g51
NtRp428
(dp429
g54
(dp430
sg63
g415
sg56
(lp431
g49
(g50
g51
NtRp432
(dp433
g54
(dp434
g62
I4
ssg63
g428
sg56
(lp435
g49
(g58
g51
NtRp436
(dp437
g54
(dp438
g62
I3
ssg63
Nsg56
(lp439
g49
(g65
g51
NtRp440
(dp441
g54
(dp442
sg63
g436
sg56
(lp443
g49
(g70
g51
NtRp444
(dp445
g54
(dp446
g74
g75
ssg63
g440
sg56
(lp447
g276
asbag49
(g70
g51
NtRp448
(dp449
g54
(dp450
g81
g82
ssg63
g440
sg56
(lp451
S':'
asbag49
(g70
g51
NtRp452
(dp453
g54
(dp454
sg63
g440
sg56
(lp455
g49
(g50
g51
NtRp456
(dp457
g54
(dp458
g62
I3
ssg63
g452
sg56
(lp459
S''
asbasbasbag49
(g65
g51
NtRp460
(dp461
g54
(dp462
sg63
g436
sg56
(lp463
g49
(g70
g51
NtRp464
(dp465
g54
(dp466
g74
g75
ssg63
g460
sg56
(lp467
g297
asbag49
(g70
g51
NtRp468
(dp469
g54
(dp470
g81
g82
ssg63
g460
sg56
(lp471
S':'
asbag49
(g70
g51
NtRp472
(dp473
g54
(dp474
sg63
g460
sg56
(lp475
g49
(g50
g51
NtRp476
(dp477
g54
(dp478
g62
I3
ssg63
g472
sg56
(lp479
S''
asbasbasbag49
(g65
g51
NtRp480
(dp481
g54
(dp482
sg63
g436
sg56
(lp483
g49
(g70
g51
NtRp484
(dp485
g54
(dp486
g74
g75
ssg63
g480
sg56
(lp487
g318
asbag49
(g70
g51
NtRp488
(dp489
g54
(dp490
g81
g82
ssg63
g480
sg56
(lp491
S':'
asbag49
(g70
g51
NtRp492
(dp493
g54
(dp494
sg63
g480
sg56
(lp495
g49
(g50
g51
NtRp496
(dp497
g54
(dp498
g62
I3
ssg63
g492
sg56
(lp499
S''
asbasbasbag49
(g65
g51
NtRp500
(dp501
g54
(dp502
sg63
g436
sg56
(lp503
g49
(g70
g51
NtRp504
(dp505
g54
(dp506
g74
g75
ssg63
g500
sg56
(lp507
g339
asbag49
(g70
g51
NtRp508
(dp509
g54
(dp510
g81
g82
ssg63
g500
sg56
(lp511
S':'
asbag49
(g70
g51
NtRp512
(dp513
g54
(dp514
sg63
g500
sg56
(lp515
g49
(g50
g51
NtRp516
(dp517
g54
(dp518
g62
I3
ssg63
g512
sg56
(lp519
S''
asbasbasbag49
(g65
g51
NtRp520
(dp521
g54
(dp522
sg63
g436
sg56
(lp523
g49
(g70
g51
NtRp524
(dp525
g54
(dp526
g74
g75
ssg63
g520
sg56
(lp527
g360
asbag49
(g70
g51
NtRp528
(dp529
g54
(dp530
g81
g82
ssg63
g520
sg56
(lp531
S':'
asbag49
(g70
g51
NtRp532
(dp533
g54
(dp534
sg63
g520
sg56
(lp535
g49
(g50
g51
NtRp536
(dp537
g54
(dp538
g62
I3
ssg63
g532
sg56
(lp539
S''
asbasbasbag49
(g65
g51
NtRp540
(dp541
g54
(dp542
sg63
g436
sg56
(lp543
g49
(g70
g51
NtRp544
(dp545
g54
(dp546
g74
g75
ssg63
g540
sg56
(lp547
g381
asbag49
(g70
g51
NtRp548
(dp549
g54
(dp550
g81
g82
ssg63
g540
sg56
(lp551
S':'
asbag49
(g70
g51
NtRp552
(dp553
g54
(dp554
sg63
g540
sg56
(lp555
g49
(g50
g51
NtRp556
(dp557
g54
(dp558
g62
I3
ssg63
g552
sg56
(lp559
S''
asbasbasbag49
(g65
g51
NtRp560
(dp561
g54
(dp562
sg63
g436
sg56
(lp563
g49
(g70
g51
NtRp564
(dp565
g54
(dp566
g74
g75
ssg63
g560
sg56
(lp567
g402
asbag49
(g70
g51
NtRp568
(dp569
g54
(dp570
g81
g82
ssg63
g560
sg56
(lp571
S':'
asbag49
(g70
g51
NtRp572
(dp573
g54
(dp574
sg63
g560
sg56
(lp575
g49
(g50
g51
NtRp576
(dp577
g54
(dp578
g62
I3
ssg63
g572
sg56
(lp579
S''
asbasbasbasbasbasbasbag49
(g65
g51
NtRp580
(dp581
g54
(dp582
sg63
g239
sg56
(lp583
g49
(g70
g51
NtRp584
(dp585
g54
(dp586
g74
g75
ssg63
g580
sg56
(lp587
S'session_id_newhostel'
p588
asbag49
(g70
g51
NtRp589
(dp590
g54
(dp591
g81
g82
ssg63
g580
sg56
(lp592
S':'
asbag49
(g70
g51
NtRp593
(dp594
g54
(dp595
sg63
g580
sg56
(lp596
g49
(g50
g51
NtRp597
(dp598
g54
(dp599
g62
I4
ssg63
g593
sg56
(lp600
g49
(g58
g51
NtRp601
(dp602
g54
(dp603
g62
I3
ssg63
Nsg56
(lp604
g49
(g65
g51
NtRp605
(dp606
g54
(dp607
sg63
g601
sg56
(lp608
g49
(g70
g51
NtRp609
(dp610
g54
(dp611
g74
g75
ssg63
g605
sg56
(lp612
g276
asbag49
(g70
g51
NtRp613
(dp614
g54
(dp615
g81
g82
ssg63
g605
sg56
(lp616
S':'
asbag49
(g70
g51
NtRp617
(dp618
g54
(dp619
sg63
g605
sg56
(lp620
g49
(g50
g51
NtRp621
(dp622
g54
(dp623
g62
I3
ssg63
g617
sg56
(lp624
S''
asbasbasbag49
(g65
g51
NtRp625
(dp626
g54
(dp627
sg63
g601
sg56
(lp628
g49
(g70
g51
NtRp629
(dp630
g54
(dp631
g74
g75
ssg63
g625
sg56
(lp632
g297
asbag49
(g70
g51
NtRp633
(dp634
g54
(dp635
g81
g82
ssg63
g625
sg56
(lp636
S':'
asbag49
(g70
g51
NtRp637
(dp638
g54
(dp639
sg63
g625
sg56
(lp640
g49
(g50
g51
NtRp641
(dp642
g54
(dp643
g62
I3
ssg63
g637
sg56
(lp644
S''
asbasbasbag49
(g65
g51
NtRp645
(dp646
g54
(dp647
sg63
g601
sg56
(lp648
g49
(g70
g51
NtRp649
(dp650
g54
(dp651
g74
g75
ssg63
g645
sg56
(lp652
g318
asbag49
(g70
g51
NtRp653
(dp654
g54
(dp655
g81
g82
ssg63
g645
sg56
(lp656
S':'
asbag49
(g70
g51
NtRp657
(dp658
g54
(dp659
sg63
g645
sg56
(lp660
g49
(g50
g51
NtRp661
(dp662
g54
(dp663
g62
I3
ssg63
g657
sg56
(lp664
S''
asbasbasbag49
(g65
g51
NtRp665
(dp666
g54
(dp667
sg63
g601
sg56
(lp668
g49
(g70
g51
NtRp669
(dp670
g54
(dp671
g74
g75
ssg63
g665
sg56
(lp672
g339
asbag49
(g70
g51
NtRp673
(dp674
g54
(dp675
g81
g82
ssg63
g665
sg56
(lp676
S':'
asbag49
(g70
g51
NtRp677
(dp678
g54
(dp679
sg63
g665
sg56
(lp680
g49
(g50
g51
NtRp681
(dp682
g54
(dp683
g62
I3
ssg63
g677
sg56
(lp684
S''
asbasbasbag49
(g65
g51
NtRp685
(dp686
g54
(dp687
sg63
g601
sg56
(lp688
g49
(g70
g51
NtRp689
(dp690
g54
(dp691
g74
g75
ssg63
g685
sg56
(lp692
g360
asbag49
(g70
g51
NtRp693
(dp694
g54
(dp695
g81
g82
ssg63
g685
sg56
(lp696
S':'
asbag49
(g70
g51
NtRp697
(dp698
g54
(dp699
sg63
g685
sg56
(lp700
g49
(g50
g51
NtRp701
(dp702
g54
(dp703
g62
I3
ssg63
g697
sg56
(lp704
S''
asbasbasbag49
(g65
g51
NtRp705
(dp706
g54
(dp707
sg63
g601
sg56
(lp708
g49
(g70
g51
NtRp709
(dp710
g54
(dp711
g74
g75
ssg63
g705
sg56
(lp712
g381
asbag49
(g70
g51
NtRp713
(dp714
g54
(dp715
g81
g82
ssg63
g705
sg56
(lp716
S':'
asbag49
(g70
g51
NtRp717
(dp718
g54
(dp719
sg63
g705
sg56
(lp720
g49
(g50
g51
NtRp721
(dp722
g54
(dp723
g62
I3
ssg63
g717
sg56
(lp724
S''
asbasbasbag49
(g65
g51
NtRp725
(dp726
g54
(dp727
sg63
g601
sg56
(lp728
g49
(g70
g51
NtRp729
(dp730
g54
(dp731
g74
g75
ssg63
g725
sg56
(lp732
g402
asbag49
(g70
g51
NtRp733
(dp734
g54
(dp735
g81
g82
ssg63
g725
sg56
(lp736
S':'
asbag49
(g70
g51
NtRp737
(dp738
g54
(dp739
sg63
g725
sg56
(lp740
g49
(g50
g51
NtRp741
(dp742
g54
(dp743
g62
I3
ssg63
g737
sg56
(lp744
S''
asbasbasbasbasbasbasbag49
(g65
g51
NtRp745
(dp746
g54
(dp747
sg63
g239
sg56
(lp748
g49
(g70
g51
NtRp749
(dp750
g54
(dp751
g74
g75
ssg63
g745
sg56
(lp752
S'session_id_welcome'
p753
asbag49
(g70
g51
NtRp754
(dp755
g54
(dp756
g81
g82
ssg63
g745
sg56
(lp757
S':'
asbag49
(g70
g51
NtRp758
(dp759
g54
(dp760
sg63
g745
sg56
(lp761
g49
(g50
g51
NtRp762
(dp763
g54
(dp764
g62
I4
ssg63
g758
sg56
(lp765
g49
(g58
g51
NtRp766
(dp767
g54
(dp768
g62
I3
ssg63
Nsg56
(lp769
g49
(g65
g51
NtRp770
(dp771
g54
(dp772
sg63
g766
sg56
(lp773
g49
(g70
g51
NtRp774
(dp775
g54
(dp776
g74
g75
ssg63
g770
sg56
(lp777
g276
asbag49
(g70
g51
NtRp778
(dp779
g54
(dp780
g81
g82
ssg63
g770
sg56
(lp781
S':'
asbag49
(g70
g51
NtRp782
(dp783
g54
(dp784
sg63
g770
sg56
(lp785
g49
(g50
g51
NtRp786
(dp787
g54
(dp788
g62
I3
ssg63
g782
sg56
(lp789
S''
asbasbasbag49
(g65
g51
NtRp790
(dp791
g54
(dp792
sg63
g766
sg56
(lp793
g49
(g70
g51
NtRp794
(dp795
g54
(dp796
g74
g75
ssg63
g790
sg56
(lp797
g297
asbag49
(g70
g51
NtRp798
(dp799
g54
(dp800
g81
g82
ssg63
g790
sg56
(lp801
S':'
asbag49
(g70
g51
NtRp802
(dp803
g54
(dp804
sg63
g790
sg56
(lp805
g49
(g50
g51
NtRp806
(dp807
g54
(dp808
g62
I3
ssg63
g802
sg56
(lp809
S''
asbasbasbag49
(g65
g51
NtRp810
(dp811
g54
(dp812
sg63
g766
sg56
(lp813
g49
(g70
g51
NtRp814
(dp815
g54
(dp816
g74
g75
ssg63
g810
sg56
(lp817
g318
asbag49
(g70
g51
NtRp818
(dp819
g54
(dp820
g81
g82
ssg63
g810
sg56
(lp821
S':'
asbag49
(g70
g51
NtRp822
(dp823
g54
(dp824
sg63
g810
sg56
(lp825
g49
(g50
g51
NtRp826
(dp827
g54
(dp828
g62
I3
ssg63
g822
sg56
(lp829
S''
asbasbasbag49
(g65
g51
NtRp830
(dp831
g54
(dp832
sg63
g766
sg56
(lp833
g49
(g70
g51
NtRp834
(dp835
g54
(dp836
g74
g75
ssg63
g830
sg56
(lp837
g339
asbag49
(g70
g51
NtRp838
(dp839
g54
(dp840
g81
g82
ssg63
g830
sg56
(lp841
S':'
asbag49
(g70
g51
NtRp842
(dp843
g54
(dp844
sg63
g830
sg56
(lp845
g49
(g50
g51
NtRp846
(dp847
g54
(dp848
g62
I3
ssg63
g842
sg56
(lp849
S''
asbasbasbag49
(g65
g51
NtRp850
(dp851
g54
(dp852
sg63
g766
sg56
(lp853
g49
(g70
g51
NtRp854
(dp855
g54
(dp856
g74
g75
ssg63
g850
sg56
(lp857
g360
asbag49
(g70
g51
NtRp858
(dp859
g54
(dp860
g81
g82
ssg63
g850
sg56
(lp861
S':'
asbag49
(g70
g51
NtRp862
(dp863
g54
(dp864
sg63
g850
sg56
(lp865
g49
(g50
g51
NtRp866
(dp867
g54
(dp868
g62
I3
ssg63
g862
sg56
(lp869
S''
asbasbasbag49
(g65
g51
NtRp870
(dp871
g54
(dp872
sg63
g766
sg56
(lp873
g49
(g70
g51
NtRp874
(dp875
g54
(dp876
g74
g75
ssg63
g870
sg56
(lp877
g381
asbag49
(g70
g51
NtRp878
(dp879
g54
(dp880
g81
g82
ssg63
g870
sg56
(lp881
S':'
asbag49
(g70
g51
NtRp882
(dp883
g54
(dp884
sg63
g870
sg56
(lp885
g49
(g50
g51
NtRp886
(dp887
g54
(dp888
g62
I3
ssg63
g882
sg56
(lp889
S''
asbasbasbag49
(g65
g51
NtRp890
(dp891
g54
(dp892
sg63
g766
sg56
(lp893
g49
(g70
g51
NtRp894
(dp895
g54
(dp896
g74
g75
ssg63
g890
sg56
(lp897
g402
asbag49
(g70
g51
NtRp898
(dp899
g54
(dp900
g81
g82
ssg63
g890
sg56
(lp901
S':'
asbag49
(g70
g51
NtRp902
(dp903
g54
(dp904
sg63
g890
sg56
(lp905
g49
(g50
g51
NtRp906
(dp907
g54
(dp908
g62
I3
ssg63
g902
sg56
(lp909
S''
asbasbasbasbasbasbasbasbasbasbasbag49
(g65
g51
NtRp910
(dp911
g54
(dp912
sg63
g59
sg56
(lp913
g49
(g70
g51
NtRp914
(dp915
g54
(dp916
g74
g75
ssg63
g910
sg56
(lp917
S'env'
p918
asbag49
(g70
g51
NtRp919
(dp920
g54
(dp921
g81
g82
ssg63
g910
sg56
(lp922
S':'
asbag49
(g70
g51
NtRp923
(dp924
g54
(dp925
sg63
g910
sg56
(lp926
g49
(g50
g51
NtRp927
(dp928
g54
(dp929
g62
I5
ssg63
g923
sg56
(lp930
g49
(g58
g51
NtRp931
(dp932
g54
(dp933
g62
I4
ssg63
Nsg56
(lp934
g49
(g65
g51
NtRp935
(dp936
g54
(dp937
sg63
g931
sg56
(lp938
g49
(g70
g51
NtRp939
(dp940
g54
(dp941
g74
g75
ssg63
g935
sg56
(lp942
S'app_folders'
p943
asbag49
(g70
g51
NtRp944
(dp945
g54
(dp946
g81
g82
ssg63
g935
sg56
(lp947
S':'
asbag49
(g70
g51
NtRp948
(dp949
g54
(dp950
sg63
g935
sg56
(lp951
g49
(g50
g51
NtRp952
(dp953
g54
(dp954
g62
I4
ssg63
g948
sg56
(lp955
S"set(['C:\\\\Users\\\\bhanu\\\\Downloads\\\\Compressed\\\\web2py\\\\applications\\\\newhostel\\\\', 'C:\\\\Users\\\\bhanu\\\\Downloads\\\\Compressed\\\\web2py\\\\applications\\\\hostel\\\\', 'C:\\\\Users\\\\bhanu\\\\Downloads\\\\Compressed\\\\web2py\\\\applications\\\\admin\\\\', 'C:\\\\Users\\\\bhanu\\\\Downloads\\\\Compressed\\\\web2py\\\\applications\\\\welcome\\\\'])"
p956
asbasbasbag49
(g65
g51
NtRp957
(dp958
g54
(dp959
sg63
g931
sg56
(lp960
g49
(g70
g51
NtRp961
(dp962
g54
(dp963
g74
g75
ssg63
g957
sg56
(lp964
S'applications_parent'
p965
asbag49
(g70
g51
NtRp966
(dp967
g54
(dp968
g81
g82
ssg63
g957
sg56
(lp969
S':'
asbag49
(g70
g51
NtRp970
(dp971
g54
(dp972
sg63
g957
sg56
(lp973
g49
(g50
g51
NtRp974
(dp975
g54
(dp976
g62
I4
ssg63
g970
sg56
(lp977
S'C:\\Users\\bhanu\\Downloads\\Compressed\\web2py'
p978
asbasbasbag49
(g65
g51
NtRp979
(dp980
g54
(dp981
sg63
g931
sg56
(lp982
g49
(g70
g51
NtRp983
(dp984
g54
(dp985
g74
g75
ssg63
g979
sg56
(lp986
S'cmd_args'
p987
asbag49
(g70
g51
NtRp988
(dp989
g54
(dp990
g81
g82
ssg63
g979
sg56
(lp991
S':'
asbag49
(g70
g51
NtRp992
(dp993
g54
(dp994
sg63
g979
sg56
(lp995
g49
(g50
g51
NtRp996
(dp997
g54
(dp998
g62
I4
ssg63
g992
sg56
(lp999
g49
(g58
g51
NtRp1000
(dp1001
g54
(dp1002
g62
I3
ssg63
Nsg56
(lp1003
sbasbasbasbag49
(g65
g51
NtRp1004
(dp1005
g54
(dp1006
sg63
g931
sg56
(lp1007
g49
(g70
g51
NtRp1008
(dp1009
g54
(dp1010
g74
g75
ssg63
g1004
sg56
(lp1011
S'cmd_options'
p1012
asbag49
(g70
g51
NtRp1013
(dp1014
g54
(dp1015
g81
g82
ssg63
g1004
sg56
(lp1016
S':'
asbag49
(g70
g51
NtRp1017
(dp1018
g54
(dp1019
sg63
g1004
sg56
(lp1020
g49
(g50
g51
NtRp1021
(dp1022
g54
(dp1023
g62
I4
ssg63
g1017
sg56
(lp1024
S"<Values at 0x2f61f58: {'verbose': False, 'ip': '127.0.0.1', 'shutdown_timeout': 5, 'taskbar': False, 'nocron': False, 'pid_filename': 'httpserver.pid', 'maxthreads': None, 'softcron': False, 'server_name': 'bhanu-PC', 'bpython': False, 'nogui': False, 'port': 8000, 'extcron': False, 'debuglevel': 30, 'test': None, 'folder': 'C:\\\\Users\\\\bhanu\\\\Downloads\\\\Compressed\\\\web2py', 'config': '', 'import_models': False, 'winservice': '', 'shell': None, 'run': '', 'log_filename': 'httpserver.log', 'args': [''], 'socket_timeout': 5, 'ssl_ca_certificate': None, 'scheduler': None, 'profiler_filename': None, 'ssl_private_key': '', 'password': '<ask>', 'request_queue_size': 5, 'ssl_certificate': '', 'cronjob': False, 'numthreads': None, 'quiet': False, 'interfaces': None, 'minthreads': None, 'timeout': 10, 'plain': False, 'nobanner': False}>"
p1025
asbasbasbag49
(g65
g51
NtRp1026
(dp1027
g54
(dp1028
sg63
g931
sg56
(lp1029
g49
(g70
g51
NtRp1030
(dp1031
g54
(dp1032
g74
g75
ssg63
g1026
sg56
(lp1033
S'db_sessions'
p1034
asbag49
(g70
g51
NtRp1035
(dp1036
g54
(dp1037
g81
g82
ssg63
g1026
sg56
(lp1038
S':'
asbag49
(g70
g51
NtRp1039
(dp1040
g54
(dp1041
sg63
g1026
sg56
(lp1042
g49
(g50
g51
NtRp1043
(dp1044
g54
(dp1045
g62
I4
ssg63
g1039
sg56
(lp1046
S'set([])'
p1047
asbasbasbag49
(g65
g51
NtRp1048
(dp1049
g54
(dp1050
sg63
g931
sg56
(lp1051
g49
(g70
g51
NtRp1052
(dp1053
g54
(dp1054
g74
g75
ssg63
g1048
sg56
(lp1055
S'debugging'
p1056
asbag49
(g70
g51
NtRp1057
(dp1058
g54
(dp1059
g81
g82
ssg63
g1048
sg56
(lp1060
S':'
asbag49
(g70
g51
NtRp1061
(dp1062
g54
(dp1063
sg63
g1048
sg56
(lp1064
g49
(g50
g51
NtRp1065
(dp1066
g54
(dp1067
g62
I4
ssg63
g1061
sg56
(lp1068
g92
asbasbasbag49
(g65
g51
NtRp1069
(dp1070
g54
(dp1071
sg63
g931
sg56
(lp1072
g49
(g70
g51
NtRp1073
(dp1074
g54
(dp1075
g74
g75
ssg63
g1069
sg56
(lp1076
S'gluon_parent'
p1077
asbag49
(g70
g51
NtRp1078
(dp1079
g54
(dp1080
g81
g82
ssg63
g1069
sg56
(lp1081
S':'
asbag49
(g70
g51
NtRp1082
(dp1083
g54
(dp1084
sg63
g1069
sg56
(lp1085
g49
(g50
g51
NtRp1086
(dp1087
g54
(dp1088
g62
I4
ssg63
g1082
sg56
(lp1089
S'C:\\Users\\bhanu\\Downloads\\Compressed\\web2py'
p1090
asbasbasbag49
(g65
g51
NtRp1091
(dp1092
g54
(dp1093
sg63
g931
sg56
(lp1094
g49
(g70
g51
NtRp1095
(dp1096
g54
(dp1097
g74
g75
ssg63
g1091
sg56
(lp1098
S'http_accept'
p1099
asbag49
(g70
g51
NtRp1100
(dp1101
g54
(dp1102
g81
g82
ssg63
g1091
sg56
(lp1103
S':'
asbag49
(g70
g51
NtRp1104
(dp1105
g54
(dp1106
sg63
g1091
sg56
(lp1107
g49
(g50
g51
NtRp1108
(dp1109
g54
(dp1110
g62
I4
ssg63
g1104
sg56
(lp1111
S'text/html,application/xhtml+xml,application/xml;q=0.9,*/*;q=0.8'
p1112
asbasbasbag49
(g65
g51
NtRp1113
(dp1114
g54
(dp1115
sg63
g931
sg56
(lp1116
g49
(g70
g51
NtRp1117
(dp1118
g54
(dp1119
g74
g75
ssg63
g1113
sg56
(lp1120
S'http_accept_charset'
p1121
asbag49
(g70
g51
NtRp1122
(dp1123
g54
(dp1124
g81
g82
ssg63
g1113
sg56
(lp1125
S':'
asbag49
(g70
g51
NtRp1126
(dp1127
g54
(dp1128
sg63
g1113
sg56
(lp1129
g49
(g50
g51
NtRp1130
(dp1131
g54
(dp1132
g62
I4
ssg63
g1126
sg56
(lp1133
S'ISO-8859-1,utf-8;q=0.7,*;q=0.3'
p1134
asbasbasbag49
(g65
g51
NtRp1135
(dp1136
g54
(dp1137
sg63
g931
sg56
(lp1138
g49
(g70
g51
NtRp1139
(dp1140
g54
(dp1141
g74
g75
ssg63
g1135
sg56
(lp1142
S'http_accept_encoding'
p1143
asbag49
(g70
g51
NtRp1144
(dp1145
g54
(dp1146
g81
g82
ssg63
g1135
sg56
(lp1147
S':'
asbag49
(g70
g51
NtRp1148
(dp1149
g54
(dp1150
sg63
g1135
sg56
(lp1151
g49
(g50
g51
NtRp1152
(dp1153
g54
(dp1154
g62
I4
ssg63
g1148
sg56
(lp1155
S'gzip,deflate,sdch'
p1156
asbasbasbag49
(g65
g51
NtRp1157
(dp1158
g54
(dp1159
sg63
g931
sg56
(lp1160
g49
(g70
g51
NtRp1161
(dp1162
g54
(dp1163
g74
g75
ssg63
g1157
sg56
(lp1164
S'http_accept_language'
p1165
asbag49
(g70
g51
NtRp1166
(dp1167
g54
(dp1168
g81
g82
ssg63
g1157
sg56
(lp1169
S':'
asbag49
(g70
g51
NtRp1170
(dp1171
g54
(dp1172
sg63
g1157
sg56
(lp1173
g49
(g50
g51
NtRp1174
(dp1175
g54
(dp1176
g62
I4
ssg63
g1170
sg56
(lp1177
S'en-US,en;q=0.8'
p1178
asbasbasbag49
(g65
g51
NtRp1179
(dp1180
g54
(dp1181
sg63
g931
sg56
(lp1182
g49
(g70
g51
NtRp1183
(dp1184
g54
(dp1185
g74
g75
ssg63
g1179
sg56
(lp1186
S'http_connection'
p1187
asbag49
(g70
g51
NtRp1188
(dp1189
g54
(dp1190
g81
g82
ssg63
g1179
sg56
(lp1191
S':'
asbag49
(g70
g51
NtRp1192
(dp1193
g54
(dp1194
sg63
g1179
sg56
(lp1195
g49
(g50
g51
NtRp1196
(dp1197
g54
(dp1198
g62
I4
ssg63
g1192
sg56
(lp1199
S'keep-alive'
p1200
asbasbasbag49
(g65
g51
NtRp1201
(dp1202
g54
(dp1203
sg63
g931
sg56
(lp1204
g49
(g70
g51
NtRp1205
(dp1206
g54
(dp1207
g74
g75
ssg63
g1201
sg56
(lp1208
S'http_cookie'
p1209
asbag49
(g70
g51
NtRp1210
(dp1211
g54
(dp1212
g81
g82
ssg63
g1201
sg56
(lp1213
S':'
asbag49
(g70
g51
NtRp1214
(dp1215
g54
(dp1216
sg63
g1201
sg56
(lp1217
g49
(g50
g51
NtRp1218
(dp1219
g54
(dp1220
g62
I4
ssg63
g1214
sg56
(lp1221
S'session_id_welcome=127.0.0.1-902a0e8e-b588-414c-9683-d59cff60d1de; session_id_newhostel=127.0.0.1-90d9d6cd-44a6-4acf-a2b4-65790cdb3f37; session_id_hostel=127.0.0.1-ed44d367-493e-4df3-ad91-a87b2a17fcb8; session_id_admin=127.0.0.1-4165c481-7fce-4120-bac9-9a59cb8f627e'
p1222
asbasbasbag49
(g65
g51
NtRp1223
(dp1224
g54
(dp1225
sg63
g931
sg56
(lp1226
g49
(g70
g51
NtRp1227
(dp1228
g54
(dp1229
g74
g75
ssg63
g1223
sg56
(lp1230
S'http_host'
p1231
asbag49
(g70
g51
NtRp1232
(dp1233
g54
(dp1234
g81
g82
ssg63
g1223
sg56
(lp1235
S':'
asbag49
(g70
g51
NtRp1236
(dp1237
g54
(dp1238
sg63
g1223
sg56
(lp1239
g49
(g50
g51
NtRp1240
(dp1241
g54
(dp1242
g62
I4
ssg63
g1236
sg56
(lp1243
S'127.0.0.1:8000'
p1244
asbasbasbag49
(g65
g51
NtRp1245
(dp1246
g54
(dp1247
sg63
g931
sg56
(lp1248
g49
(g70
g51
NtRp1249
(dp1250
g54
(dp1251
g74
g75
ssg63
g1245
sg56
(lp1252
S'http_referer'
p1253
asbag49
(g70
g51
NtRp1254
(dp1255
g54
(dp1256
g81
g82
ssg63
g1245
sg56
(lp1257
S':'
asbag49
(g70
g51
NtRp1258
(dp1259
g54
(dp1260
sg63
g1245
sg56
(lp1261
g49
(g50
g51
NtRp1262
(dp1263
g54
(dp1264
g62
I4
ssg63
g1258
sg56
(lp1265
S'http://127.0.0.1:8000/hostel/default/staff'
p1266
asbasbasbag49
(g65
g51
NtRp1267
(dp1268
g54
(dp1269
sg63
g931
sg56
(lp1270
g49
(g70
g51
NtRp1271
(dp1272
g54
(dp1273
g74
g75
ssg63
g1267
sg56
(lp1274
S'http_user_agent'
p1275
asbag49
(g70
g51
NtRp1276
(dp1277
g54
(dp1278
g81
g82
ssg63
g1267
sg56
(lp1279
S':'
asbag49
(g70
g51
NtRp1280
(dp1281
g54
(dp1282
sg63
g1267
sg56
(lp1283
g49
(g50
g51
NtRp1284
(dp1285
g54
(dp1286
g62
I4
ssg63
g1280
sg56
(lp1287
S'Mozilla/5.0 (Windows NT 6.1; WOW64) AppleWebKit/537.4 (KHTML, like Gecko) Chrome/22.0.1229.94 Safari/537.4'
p1288
asbasbasbag49
(g65
g51
NtRp1289
(dp1290
g54
(dp1291
sg63
g931
sg56
(lp1292
g49
(g70
g51
NtRp1293
(dp1294
g54
(dp1295
g74
g75
ssg63
g1289
sg56
(lp1296
S'is_jython'
p1297
asbag49
(g70
g51
NtRp1298
(dp1299
g54
(dp1300
g81
g82
ssg63
g1289
sg56
(lp1301
S':'
asbag49
(g70
g51
NtRp1302
(dp1303
g54
(dp1304
sg63
g1289
sg56
(lp1305
g49
(g50
g51
NtRp1306
(dp1307
g54
(dp1308
g62
I4
ssg63
g1302
sg56
(lp1309
g92
asbasbasbag49
(g65
g51
NtRp1310
(dp1311
g54
(dp1312
sg63
g931
sg56
(lp1313
g49
(g70
g51
NtRp1314
(dp1315
g54
(dp1316
g74
g75
ssg63
g1310
sg56
(lp1317
S'is_pypy'
p1318
asbag49
(g70
g51
NtRp1319
(dp1320
g54
(dp1321
g81
g82
ssg63
g1310
sg56
(lp1322
S':'
asbag49
(g70
g51
NtRp1323
(dp1324
g54
(dp1325
sg63
g1310
sg56
(lp1326
g49
(g50
g51
NtRp1327
(dp1328
g54
(dp1329
g62
I4
ssg63
g1323
sg56
(lp1330
g92
asbasbasbag49
(g65
g51
NtRp1331
(dp1332
g54
(dp1333
sg63
g931
sg56
(lp1334
g49
(g70
g51
NtRp1335
(dp1336
g54
(dp1337
g74
g75
ssg63
g1331
sg56
(lp1338
S'path_info'
p1339
asbag49
(g70
g51
NtRp1340
(dp1341
g54
(dp1342
g81
g82
ssg63
g1331
sg56
(lp1343
S':'
asbag49
(g70
g51
NtRp1344
(dp1345
g54
(dp1346
sg63
g1331
sg56
(lp1347
g49
(g50
g51
NtRp1348
(dp1349
g54
(dp1350
g62
I4
ssg63
g1344
sg56
(lp1351
S'/hostel/default/user/logout'
p1352
asbasbasbag49
(g65
g51
NtRp1353
(dp1354
g54
(dp1355
sg63
g931
sg56
(lp1356
g49
(g70
g51
NtRp1357
(dp1358
g54
(dp1359
g74
g75
ssg63
g1353
sg56
(lp1360
S'query_string'
p1361
asbag49
(g70
g51
NtRp1362
(dp1363
g54
(dp1364
g81
g82
ssg63
g1353
sg56
(lp1365
S':'
asbag49
(g70
g51
NtRp1366
(dp1367
g54
(dp1368
sg63
g1353
sg56
(lp1369
g49
(g50
g51
NtRp1370
(dp1371
g54
(dp1372
g62
I4
ssg63
g1366
sg56
(lp1373
S'_next=/hostel/default/index'
p1374
asbasbasbag49
(g65
g51
NtRp1375
(dp1376
g54
(dp1377
sg63
g931
sg56
(lp1378
g49
(g70
g51
NtRp1379
(dp1380
g54
(dp1381
g74
g75
ssg63
g1375
sg56
(lp1382
S'remote_addr'
p1383
asbag49
(g70
g51
NtRp1384
(dp1385
g54
(dp1386
g81
g82
ssg63
g1375
sg56
(lp1387
S':'
asbag49
(g70
g51
NtRp1388
(dp1389
g54
(dp1390
sg63
g1375
sg56
(lp1391
g49
(g50
g51
NtRp1392
(dp1393
g54
(dp1394
g62
I4
ssg63
g1388
sg56
(lp1395
g195
asbasbasbag49
(g65
g51
NtRp1396
(dp1397
g54
(dp1398
sg63
g931
sg56
(lp1399
g49
(g70
g51
NtRp1400
(dp1401
g54
(dp1402
g74
g75
ssg63
g1396
sg56
(lp1403
S'remote_port'
p1404
asbag49
(g70
g51
NtRp1405
(dp1406
g54
(dp1407
g81
g82
ssg63
g1396
sg56
(lp1408
S':'
asbag49
(g70
g51
NtRp1409
(dp1410
g54
(dp1411
sg63
g1396
sg56
(lp1412
g49
(g50
g51
NtRp1413
(dp1414
g54
(dp1415
g62
I4
ssg63
g1409
sg56
(lp1416
S'49310'
p1417
asbasbasbag49
(g65
g51
NtRp1418
(dp1419
g54
(dp1420
sg63
g931
sg56
(lp1421
g49
(g70
g51
NtRp1422
(dp1423
g54
(dp1424
g74
g75
ssg63
g1418
sg56
(lp1425
S'request_method'
p1426
asbag49
(g70
g51
NtRp1427
(dp1428
g54
(dp1429
g81
g82
ssg63
g1418
sg56
(lp1430
S':'
asbag49
(g70
g51
NtRp1431
(dp1432
g54
(dp1433
sg63
g1418
sg56
(lp1434
g49
(g50
g51
NtRp1435
(dp1436
g54
(dp1437
g62
I4
ssg63
g1431
sg56
(lp1438
S'GET'
p1439
asbasbasbag49
(g65
g51
NtRp1440
(dp1441
g54
(dp1442
sg63
g931
sg56
(lp1443
g49
(g70
g51
NtRp1444
(dp1445
g54
(dp1446
g74
g75
ssg63
g1440
sg56
(lp1447
S'script_name'
p1448
asbag49
(g70
g51
NtRp1449
(dp1450
g54
(dp1451
g81
g82
ssg63
g1440
sg56
(lp1452
S':'
asbag49
(g70
g51
NtRp1453
(dp1454
g54
(dp1455
sg63
g1440
sg56
(lp1456
g49
(g50
g51
NtRp1457
(dp1458
g54
(dp1459
g62
I4
ssg63
g1453
sg56
(lp1460
S''
asbasbasbag49
(g65
g51
NtRp1461
(dp1462
g54
(dp1463
sg63
g931
sg56
(lp1464
g49
(g70
g51
NtRp1465
(dp1466
g54
(dp1467
g74
g75
ssg63
g1461
sg56
(lp1468
S'server_name'
p1469
asbag49
(g70
g51
NtRp1470
(dp1471
g54
(dp1472
g81
g82
ssg63
g1461
sg56
(lp1473
S':'
asbag49
(g70
g51
NtRp1474
(dp1475
g54
(dp1476
sg63
g1461
sg56
(lp1477
g49
(g50
g51
NtRp1478
(dp1479
g54
(dp1480
g62
I4
ssg63
g1474
sg56
(lp1481
S'bhanu-PC'
p1482
asbasbasbag49
(g65
g51
NtRp1483
(dp1484
g54
(dp1485
sg63
g931
sg56
(lp1486
g49
(g70
g51
NtRp1487
(dp1488
g54
(dp1489
g74
g75
ssg63
g1483
sg56
(lp1490
S'server_port'
p1491
asbag49
(g70
g51
NtRp1492
(dp1493
g54
(dp1494
g81
g82
ssg63
g1483
sg56
(lp1495
S':'
asbag49
(g70
g51
NtRp1496
(dp1497
g54
(dp1498
sg63
g1483
sg56
(lp1499
g49
(g50
g51
NtRp1500
(dp1501
g54
(dp1502
g62
I4
ssg63
g1496
sg56
(lp1503
S'8000'
p1504
asbasbasbag49
(g65
g51
NtRp1505
(dp1506
g54
(dp1507
sg63
g931
sg56
(lp1508
g49
(g70
g51
NtRp1509
(dp1510
g54
(dp1511
g74
g75
ssg63
g1505
sg56
(lp1512
S'server_protocol'
p1513
asbag49
(g70
g51
NtRp1514
(dp1515
g54
(dp1516
g81
g82
ssg63
g1505
sg56
(lp1517
S':'
asbag49
(g70
g51
NtRp1518
(dp1519
g54
(dp1520
sg63
g1505
sg56
(lp1521
g49
(g50
g51
NtRp1522
(dp1523
g54
(dp1524
g62
I4
ssg63
g1518
sg56
(lp1525
S'HTTP/1.1'
p1526
asbasbasbag49
(g65
g51
NtRp1527
(dp1528
g54
(dp1529
sg63
g931
sg56
(lp1530
g49
(g70
g51
NtRp1531
(dp1532
g54
(dp1533
g74
g75
ssg63
g1527
sg56
(lp1534
S'server_software'
p1535
asbag49
(g70
g51
NtRp1536
(dp1537
g54
(dp1538
g81
g82
ssg63
g1527
sg56
(lp1539
S':'
asbag49
(g70
g51
NtRp1540
(dp1541
g54
(dp1542
sg63
g1527
sg56
(lp1543
g49
(g50
g51
NtRp1544
(dp1545
g54
(dp1546
g62
I4
ssg63
g1540
sg56
(lp1547
S'Rocket 1.2.4'
p1548
asbasbasbag49
(g65
g51
NtRp1549
(dp1550
g54
(dp1551
sg63
g931
sg56
(lp1552
g49
(g70
g51
NtRp1553
(dp1554
g54
(dp1555
g74
g75
ssg63
g1549
sg56
(lp1556
S'web2py_crontype'
p1557
asbag49
(g70
g51
NtRp1558
(dp1559
g54
(dp1560
g81
g82
ssg63
g1549
sg56
(lp1561
S':'
asbag49
(g70
g51
NtRp1562
(dp1563
g54
(dp1564
sg63
g1549
sg56
(lp1565
g49
(g50
g51
NtRp1566
(dp1567
g54
(dp1568
g62
I4
ssg63
g1562
sg56
(lp1569
S'hard'
p1570
asbasbasbag49
(g65
g51
NtRp1571
(dp1572
g54
(dp1573
sg63
g931
sg56
(lp1574
g49
(g70
g51
NtRp1575
(dp1576
g54
(dp1577
g74
g75
ssg63
g1571
sg56
(lp1578
S'web2py_path'
p1579
asbag49
(g70
g51
NtRp1580
(dp1581
g54
(dp1582
g81
g82
ssg63
g1571
sg56
(lp1583
S':'
asbag49
(g70
g51
NtRp1584
(dp1585
g54
(dp1586
sg63
g1571
sg56
(lp1587
g49
(g50
g51
NtRp1588
(dp1589
g54
(dp1590
g62
I4
ssg63
g1584
sg56
(lp1591
g978
asbasbasbag49
(g65
g51
NtRp1592
(dp1593
g54
(dp1594
sg63
g931
sg56
(lp1595
g49
(g70
g51
NtRp1596
(dp1597
g54
(dp1598
g74
g75
ssg63
g1592
sg56
(lp1599
S'web2py_version'
p1600
asbag49
(g70
g51
NtRp1601
(dp1602
g54
(dp1603
g81
g82
ssg63
g1592
sg56
(lp1604
S':'
asbag49
(g70
g51
NtRp1605
(dp1606
g54
(dp1607
sg63
g1592
sg56
(lp1608
g49
(g50
g51
NtRp1609
(dp1610
g54
(dp1611
g62
I4
ssg63
g1605
sg56
(lp1612
g49
(g58
g51
NtRp1613
(dp1614
g54
(dp1615
g62
I3
ssg63
Nsg56
(lp1616
g49
(g65
g51
NtRp1617
(dp1618
g54
(dp1619
sg63
g1613
sg56
(lp1620
g49
(g70
g51
NtRp1621
(dp1622
g54
(dp1623
sg63
g1617
sg56
(lp1624
g49
(g50
g51
NtRp1625
(dp1626
g54
(dp1627
g62
I3
ssg63
g1621
sg56
(lp1628
S'1'
asbasbasbag49
(g65
g51
NtRp1629
(dp1630
g54
(dp1631
sg63
g1613
sg56
(lp1632
g49
(g70
g51
NtRp1633
(dp1634
g54
(dp1635
sg63
g1629
sg56
(lp1636
g49
(g50
g51
NtRp1637
(dp1638
g54
(dp1639
g62
I3
ssg63
g1633
sg56
(lp1640
S'99'
p1641
asbasbasbag49
(g65
g51
NtRp1642
(dp1643
g54
(dp1644
sg63
g1613
sg56
(lp1645
g49
(g70
g51
NtRp1646
(dp1647
g54
(dp1648
sg63
g1642
sg56
(lp1649
g49
(g50
g51
NtRp1650
(dp1651
g54
(dp1652
g62
I3
ssg63
g1646
sg56
(lp1653
S'7'
asbasbasbag49
(g65
g51
NtRp1654
(dp1655
g54
(dp1656
sg63
g1613
sg56
(lp1657
g49
(g70
g51
NtRp1658
(dp1659
g54
(dp1660
sg63
g1654
sg56
(lp1661
g49
(g50
g51
NtRp1662
(dp1663
g54
(dp1664
g62
I3
ssg63
g1658
sg56
(lp1665
S'datetime.datetime(2012, 3, 4, 22, 12, 8)'
p1666
asbasbasbag49
(g65
g51
NtRp1667
(dp1668
g54
(dp1669
sg63
g1613
sg56
(lp1670
g49
(g70
g51
NtRp1671
(dp1672
g54
(dp1673
sg63
g1667
sg56
(lp1674
g49
(g50
g51
NtRp1675
(dp1676
g54
(dp1677
g62
I3
ssg63
g1671
sg56
(lp1678
S'stable'
p1679
asbasbasbasbasbasbasbag49
(g65
g51
NtRp1680
(dp1681
g54
(dp1682
sg63
g931
sg56
(lp1683
g49
(g70
g51
NtRp1684
(dp1685
g54
(dp1686
g74
g75
ssg63
g1680
sg56
(lp1687
S'wsgi_errors'
p1688
asbag49
(g70
g51
NtRp1689
(dp1690
g54
(dp1691
g81
g82
ssg63
g1680
sg56
(lp1692
S':'
asbag49
(g70
g51
NtRp1693
(dp1694
g54
(dp1695
sg63
g1680
sg56
(lp1696
g49
(g50
g51
NtRp1697
(dp1698
g54
(dp1699
g62
I4
ssg63
g1693
sg56
(lp1700
S"<open file '<stderr>', mode 'w' at 0x01DD00B0>"
p1701
asbasbasbag49
(g65
g51
NtRp1702
(dp1703
g54
(dp1704
sg63
g931
sg56
(lp1705
g49
(g70
g51
NtRp1706
(dp1707
g54
(dp1708
g74
g75
ssg63
g1702
sg56
(lp1709
S'wsgi_file_wrapper'
p1710
asbag49
(g70
g51
NtRp1711
(dp1712
g54
(dp1713
g81
g82
ssg63
g1702
sg56
(lp1714
S':'
asbag49
(g70
g51
NtRp1715
(dp1716
g54
(dp1717
sg63
g1702
sg56
(lp1718
g49
(g50
g51
NtRp1719
(dp1720
g54
(dp1721
g62
I4
ssg63
g1715
sg56
(lp1722
S'<class wsgiref.util.FileWrapper at 0x02D06450>'
p1723
asbasbasbag49
(g65
g51
NtRp1724
(dp1725
g54
(dp1726
sg63
g931
sg56
(lp1727
g49
(g70
g51
NtRp1728
(dp1729
g54
(dp1730
g74
g75
ssg63
g1724
sg56
(lp1731
S'wsgi_input'
p1732
asbag49
(g70
g51
NtRp1733
(dp1734
g54
(dp1735
g81
g82
ssg63
g1724
sg56
(lp1736
S':'
asbag49
(g70
g51
NtRp1737
(dp1738
g54
(dp1739
sg63
g1724
sg56
(lp1740
g49
(g50
g51
NtRp1741
(dp1742
g54
(dp1743
g62
I4
ssg63
g1737
sg56
(lp1744
S'<socket._fileobject object at 0x07451330>'
p1745
asbasbasbag49
(g65
g51
NtRp1746
(dp1747
g54
(dp1748
sg63
g931
sg56
(lp1749
g49
(g70
g51
NtRp1750
(dp1751
g54
(dp1752
g74
g75
ssg63
g1746
sg56
(lp1753
S'wsgi_multiprocess'
p1754
asbag49
(g70
g51
NtRp1755
(dp1756
g54
(dp1757
g81
g82
ssg63
g1746
sg56
(lp1758
S':'
asbag49
(g70
g51
NtRp1759
(dp1760
g54
(dp1761
sg63
g1746
sg56
(lp1762
g49
(g50
g51
NtRp1763
(dp1764
g54
(dp1765
g62
I4
ssg63
g1759
sg56
(lp1766
g92
asbasbasbag49
(g65
g51
NtRp1767
(dp1768
g54
(dp1769
sg63
g931
sg56
(lp1770
g49
(g70
g51
NtRp1771
(dp1772
g54
(dp1773
g74
g75
ssg63
g1767
sg56
(lp1774
S'wsgi_multithread'
p1775
asbag49
(g70
g51
NtRp1776
(dp1777
g54
(dp1778
g81
g82
ssg63
g1767
sg56
(lp1779
S':'
asbag49
(g70
g51
NtRp1780
(dp1781
g54
(dp1782
sg63
g1767
sg56
(lp1783
g49
(g50
g51
NtRp1784
(dp1785
g54
(dp1786
g62
I4
ssg63
g1780
sg56
(lp1787
S'True'
p1788
asbasbasbag49
(g65
g51
NtRp1789
(dp1790
g54
(dp1791
sg63
g931
sg56
(lp1792
g49
(g70
g51
NtRp1793
(dp1794
g54
(dp1795
g74
g75
ssg63
g1789
sg56
(lp1796
S'wsgi_run_once'
p1797
asbag49
(g70
g51
NtRp1798
(dp1799
g54
(dp1800
g81
g82
ssg63
g1789
sg56
(lp1801
S':'
asbag49
(g70
g51
NtRp1802
(dp1803
g54
(dp1804
sg63
g1789
sg56
(lp1805
g49
(g50
g51
NtRp1806
(dp1807
g54
(dp1808
g62
I4
ssg63
g1802
sg56
(lp1809
g92
asbasbasbag49
(g65
g51
NtRp1810
(dp1811
g54
(dp1812
sg63
g931
sg56
(lp1813
g49
(g70
g51
NtRp1814
(dp1815
g54
(dp1816
g74
g75
ssg63
g1810
sg56
(lp1817
S'wsgi_url_scheme'
p1818
asbag49
(g70
g51
NtRp1819
(dp1820
g54
(dp1821
g81
g82
ssg63
g1810
sg56
(lp1822
S':'
asbag49
(g70
g51
NtRp1823
(dp1824
g54
(dp1825
sg63
g1810
sg56
(lp1826
g49
(g50
g51
NtRp1827
(dp1828
g54
(dp1829
g62
I4
ssg63
g1823
sg56
(lp1830
S'http'
p1831
asbasbasbag49
(g65
g51
NtRp1832
(dp1833
g54
(dp1834
sg63
g931
sg56
(lp1835
g49
(g70
g51
NtRp1836
(dp1837
g54
(dp1838
g74
g75
ssg63
g1832
sg56
(lp1839
S'wsgi_version'
p1840
asbag49
(g70
g51
NtRp1841
(dp1842
g54
(dp1843
g81
g82
ssg63
g1832
sg56
(lp1844
S':'
asbag49
(g70
g51
NtRp1845
(dp1846
g54
(dp1847
sg63
g1832
sg56
(lp1848
g49
(g50
g51
NtRp1849
(dp1850
g54
(dp1851
g62
I4
ssg63
g1845
sg56
(lp1852
g49
(g58
g51
NtRp1853
(dp1854
g54
(dp1855
g62
I3
ssg63
Nsg56
(lp1856
g49
(g65
g51
NtRp1857
(dp1858
g54
(dp1859
sg63
g1853
sg56
(lp1860
g49
(g70
g51
NtRp1861
(dp1862
g54
(dp1863
sg63
g1857
sg56
(lp1864
g49
(g50
g51
NtRp1865
(dp1866
g54
(dp1867
g62
I3
ssg63
g1861
sg56
(lp1868
S'1'
asbasbasbag49
(g65
g51
NtRp1869
(dp1870
g54
(dp1871
sg63
g1853
sg56
(lp1872
g49
(g70
g51
NtRp1873
(dp1874
g54
(dp1875
sg63
g1869
sg56
(lp1876
g49
(g50
g51
NtRp1877
(dp1878
g54
(dp1879
g62
I3
ssg63
g1873
sg56
(lp1880
S'0'
asbasbasbasbasbasbasbasbasbasbasbag49
(g65
g51
NtRp1881
(dp1882
g54
(dp1883
sg63
g59
sg56
(lp1884
g49
(g70
g51
NtRp1885
(dp1886
g54
(dp1887
g74
g75
ssg63
g1881
sg56
(lp1888
S'extension'
p1889
asbag49
(g70
g51
NtRp1890
(dp1891
g54
(dp1892
g81
g82
ssg63
g1881
sg56
(lp1893
S':'
asbag49
(g70
g51
NtRp1894
(dp1895
g54
(dp1896
sg63
g1881
sg56
(lp1897
g49
(g50
g51
NtRp1898
(dp1899
g54
(dp1900
g62
I5
ssg63
g1894
sg56
(lp1901
S'html'
p1902
asbasbasbag49
(g65
g51
NtRp1903
(dp1904
g54
(dp1905
sg63
g59
sg56
(lp1906
g49
(g70
g51
NtRp1907
(dp1908
g54
(dp1909
g74
g75
ssg63
g1903
sg56
(lp1910
S'folder'
p1911
asbag49
(g70
g51
NtRp1912
(dp1913
g54
(dp1914
g81
g82
ssg63
g1903
sg56
(lp1915
S':'
asbag49
(g70
g51
NtRp1916
(dp1917
g54
(dp1918
sg63
g1903
sg56
(lp1919
g49
(g50
g51
NtRp1920
(dp1921
g54
(dp1922
g62
I5
ssg63
g1916
sg56
(lp1923
S'C:\\Users\\bhanu\\Downloads\\Compressed\\web2py\\applications\\hostel\\'
p1924
asbasbasbag49
(g65
g51
NtRp1925
(dp1926
g54
(dp1927
sg63
g59
sg56
(lp1928
g49
(g70
g51
NtRp1929
(dp1930
g54
(dp1931
g74
g75
ssg63
g1925
sg56
(lp1932
S'function'
p1933
asbag49
(g70
g51
NtRp1934
(dp1935
g54
(dp1936
g81
g82
ssg63
g1925
sg56
(lp1937
S':'
asbag49
(g70
g51
NtRp1938
(dp1939
g54
(dp1940
sg63
g1925
sg56
(lp1941
g49
(g50
g51
NtRp1942
(dp1943
g54
(dp1944
g62
I5
ssg63
g1938
sg56
(lp1945
S'user'
p1946
asbasbasbag49
(g65
g51
NtRp1947
(dp1948
g54
(dp1949
sg63
g59
sg56
(lp1950
g49
(g70
g51
NtRp1951
(dp1952
g54
(dp1953
g74
g75
ssg63
g1947
sg56
(lp1954
S'get_vars'
p1955
asbag49
(g70
g51
NtRp1956
(dp1957
g54
(dp1958
g81
g82
ssg63
g1947
sg56
(lp1959
S':'
asbag49
(g70
g51
NtRp1960
(dp1961
g54
(dp1962
sg63
g1947
sg56
(lp1963
g49
(g50
g51
NtRp1964
(dp1965
g54
(dp1966
g62
I5
ssg63
g1960
sg56
(lp1967
g49
(g58
g51
NtRp1968
(dp1969
g54
(dp1970
g62
I4
ssg63
Nsg56
(lp1971
sbasbasbasbag49
(g65
g51
NtRp1972
(dp1973
g54
(dp1974
sg63
g59
sg56
(lp1975
g49
(g70
g51
NtRp1976
(dp1977
g54
(dp1978
g74
g75
ssg63
g1972
sg56
(lp1979
S'global_settings'
p1980
asbag49
(g70
g51
NtRp1981
(dp1982
g54
(dp1983
g81
g82
ssg63
g1972
sg56
(lp1984
S':'
asbag49
(g70
g51
NtRp1985
(dp1986
g54
(dp1987
sg63
g1972
sg56
(lp1988
g49
(g50
g51
NtRp1989
(dp1990
g54
(dp1991
g62
I5
ssg63
g1985
sg56
(lp1992
g49
(g58
g51
NtRp1993
(dp1994
g54
(dp1995
g62
I4
ssg63
Nsg56
(lp1996
g49
(g65
g51
NtRp1997
(dp1998
g54
(dp1999
sg63
g1993
sg56
(lp2000
g49
(g70
g51
NtRp2001
(dp2002
g54
(dp2003
g74
g75
ssg63
g1997
sg56
(lp2004
g943
asbag49
(g70
g51
NtRp2005
(dp2006
g54
(dp2007
g81
g82
ssg63
g1997
sg56
(lp2008
S':'
asbag49
(g70
g51
NtRp2009
(dp2010
g54
(dp2011
sg63
g1997
sg56
(lp2012
g49
(g50
g51
NtRp2013
(dp2014
g54
(dp2015
g62
I4
ssg63
g2009
sg56
(lp2016
S"set(['C:\\\\Users\\\\bhanu\\\\Downloads\\\\Compressed\\\\web2py\\\\applications\\\\newhostel\\\\', 'C:\\\\Users\\\\bhanu\\\\Downloads\\\\Compressed\\\\web2py\\\\applications\\\\hostel\\\\', 'C:\\\\Users\\\\bhanu\\\\Downloads\\\\Compressed\\\\web2py\\\\applications\\\\admin\\\\', 'C:\\\\Users\\\\bhanu\\\\Downloads\\\\Compressed\\\\web2py\\\\applications\\\\welcome\\\\'])"
p2017
asbasbasbag49
(g65
g51
NtRp2018
(dp2019
g54
(dp2020
sg63
g1993
sg56
(lp2021
g49
(g70
g51
NtRp2022
(dp2023
g54
(dp2024
g74
g75
ssg63
g2018
sg56
(lp2025
g965
asbag49
(g70
g51
NtRp2026
(dp2027
g54
(dp2028
g81
g82
ssg63
g2018
sg56
(lp2029
S':'
asbag49
(g70
g51
NtRp2030
(dp2031
g54
(dp2032
sg63
g2018
sg56
(lp2033
g49
(g50
g51
NtRp2034
(dp2035
g54
(dp2036
g62
I4
ssg63
g2030
sg56
(lp2037
g978
asbasbasbag49
(g65
g51
NtRp2038
(dp2039
g54
(dp2040
sg63
g1993
sg56
(lp2041
g49
(g70
g51
NtRp2042
(dp2043
g54
(dp2044
g74
g75
ssg63
g2038
sg56
(lp2045
g987
asbag49
(g70
g51
NtRp2046
(dp2047
g54
(dp2048
g81
g82
ssg63
g2038
sg56
(lp2049
S':'
asbag49
(g70
g51
NtRp2050
(dp2051
g54
(dp2052
sg63
g2038
sg56
(lp2053
g49
(g50
g51
NtRp2054
(dp2055
g54
(dp2056
g62
I4
ssg63
g2050
sg56
(lp2057
g49
(g58
g51
NtRp2058
(dp2059
g54
(dp2060
g62
I3
ssg63
Nsg56
(lp2061
sbasbasbasbag49
(g65
g51
NtRp2062
(dp2063
g54
(dp2064
sg63
g1993
sg56
(lp2065
g49
(g70
g51
NtRp2066
(dp2067
g54
(dp2068
g74
g75
ssg63
g2062
sg56
(lp2069
g1012
asbag49
(g70
g51
NtRp2070
(dp2071
g54
(dp2072
g81
g82
ssg63
g2062
sg56
(lp2073
S':'
asbag49
(g70
g51
NtRp2074
(dp2075
g54
(dp2076
sg63
g2062
sg56
(lp2077
g49
(g50
g51
NtRp2078
(dp2079
g54
(dp2080
g62
I4
ssg63
g2074
sg56
(lp2081
S"<Values at 0x2f61f58: {'verbose': False, 'ip': '127.0.0.1', 'shutdown_timeout': 5, 'taskbar': False, 'nocron': False, 'pid_filename': 'httpserver.pid', 'maxthreads': None, 'softcron': False, 'server_name': 'bhanu-PC', 'bpython': False, 'nogui': False, 'port': 8000, 'extcron': False, 'debuglevel': 30, 'test': None, 'folder': 'C:\\\\Users\\\\bhanu\\\\Downloads\\\\Compressed\\\\web2py', 'config': '', 'import_models': False, 'winservice': '', 'shell': None, 'run': '', 'log_filename': 'httpserver.log', 'args': [''], 'socket_timeout': 5, 'ssl_ca_certificate': None, 'scheduler': None, 'profiler_filename': None, 'ssl_private_key': '', 'password': '<ask>', 'request_queue_size': 5, 'ssl_certificate': '', 'cronjob': False, 'numthreads': None, 'quiet': False, 'interfaces': None, 'minthreads': None, 'timeout': 10, 'plain': False, 'nobanner': False}>"
p2082
asbasbasbag49
(g65
g51
NtRp2083
(dp2084
g54
(dp2085
sg63
g1993
sg56
(lp2086
g49
(g70
g51
NtRp2087
(dp2088
g54
(dp2089
g74
g75
ssg63
g2083
sg56
(lp2090
g1034
asbag49
(g70
g51
NtRp2091
(dp2092
g54
(dp2093
g81
g82
ssg63
g2083
sg56
(lp2094
S':'
asbag49
(g70
g51
NtRp2095
(dp2096
g54
(dp2097
sg63
g2083
sg56
(lp2098
g49
(g50
g51
NtRp2099
(dp2100
g54
(dp2101
g62
I4
ssg63
g2095
sg56
(lp2102
S'set([])'
p2103
asbasbasbag49
(g65
g51
NtRp2104
(dp2105
g54
(dp2106
sg63
g1993
sg56
(lp2107
g49
(g70
g51
NtRp2108
(dp2109
g54
(dp2110
g74
g75
ssg63
g2104
sg56
(lp2111
g1056
asbag49
(g70
g51
NtRp2112
(dp2113
g54
(dp2114
g81
g82
ssg63
g2104
sg56
(lp2115
S':'
asbag49
(g70
g51
NtRp2116
(dp2117
g54
(dp2118
sg63
g2104
sg56
(lp2119
g49
(g50
g51
NtRp2120
(dp2121
g54
(dp2122
g62
I4
ssg63
g2116
sg56
(lp2123
g92
asbasbasbag49
(g65
g51
NtRp2124
(dp2125
g54
(dp2126
sg63
g1993
sg56
(lp2127
g49
(g70
g51
NtRp2128
(dp2129
g54
(dp2130
g74
g75
ssg63
g2124
sg56
(lp2131
g1077
asbag49
(g70
g51
NtRp2132
(dp2133
g54
(dp2134
g81
g82
ssg63
g2124
sg56
(lp2135
S':'
asbag49
(g70
g51
NtRp2136
(dp2137
g54
(dp2138
sg63
g2124
sg56
(lp2139
g49
(g50
g51
NtRp2140
(dp2141
g54
(dp2142
g62
I4
ssg63
g2136
sg56
(lp2143
g1090
asbasbasbag49
(g65
g51
NtRp2144
(dp2145
g54
(dp2146
sg63
g1993
sg56
(lp2147
g49
(g70
g51
NtRp2148
(dp2149
g54
(dp2150
g74
g75
ssg63
g2144
sg56
(lp2151
g1297
asbag49
(g70
g51
NtRp2152
(dp2153
g54
(dp2154
g81
g82
ssg63
g2144
sg56
(lp2155
S':'
asbag49
(g70
g51
NtRp2156
(dp2157
g54
(dp2158
sg63
g2144
sg56
(lp2159
g49
(g50
g51
NtRp2160
(dp2161
g54
(dp2162
g62
I4
ssg63
g2156
sg56
(lp2163
g92
asbasbasbag49
(g65
g51
NtRp2164
(dp2165
g54
(dp2166
sg63
g1993
sg56
(lp2167
g49
(g70
g51
NtRp2168
(dp2169
g54
(dp2170
g74
g75
ssg63
g2164
sg56
(lp2171
g1318
asbag49
(g70
g51
NtRp2172
(dp2173
g54
(dp2174
g81
g82
ssg63
g2164
sg56
(lp2175
S':'
asbag49
(g70
g51
NtRp2176
(dp2177
g54
(dp2178
sg63
g2164
sg56
(lp2179
g49
(g50
g51
NtRp2180
(dp2181
g54
(dp2182
g62
I4
ssg63
g2176
sg56
(lp2183
g92
asbasbasbag49
(g65
g51
NtRp2184
(dp2185
g54
(dp2186
sg63
g1993
sg56
(lp2187
g49
(g70
g51
NtRp2188
(dp2189
g54
(dp2190
g74
g75
ssg63
g2184
sg56
(lp2191
g1557
asbag49
(g70
g51
NtRp2192
(dp2193
g54
(dp2194
g81
g82
ssg63
g2184
sg56
(lp2195
S':'
asbag49
(g70
g51
NtRp2196
(dp2197
g54
(dp2198
sg63
g2184
sg56
(lp2199
g49
(g50
g51
NtRp2200
(dp2201
g54
(dp2202
g62
I4
ssg63
g2196
sg56
(lp2203
g1570
asbasbasbag49
(g65
g51
NtRp2204
(dp2205
g54
(dp2206
sg63
g1993
sg56
(lp2207
g49
(g70
g51
NtRp2208
(dp2209
g54
(dp2210
g74
g75
ssg63
g2204
sg56
(lp2211
g1600
asbag49
(g70
g51
NtRp2212
(dp2213
g54
(dp2214
g81
g82
ssg63
g2204
sg56
(lp2215
S':'
asbag49
(g70
g51
NtRp2216
(dp2217
g54
(dp2218
sg63
g2204
sg56
(lp2219
g49
(g50
g51
NtRp2220
(dp2221
g54
(dp2222
g62
I4
ssg63
g2216
sg56
(lp2223
g49
(g58
g51
NtRp2224
(dp2225
g54
(dp2226
g62
I3
ssg63
Nsg56
(lp2227
g49
(g65
g51
NtRp2228
(dp2229
g54
(dp2230
sg63
g2224
sg56
(lp2231
g49
(g70
g51
NtRp2232
(dp2233
g54
(dp2234
sg63
g2228
sg56
(lp2235
g49
(g50
g51
NtRp2236
(dp2237
g54
(dp2238
g62
I3
ssg63
g2232
sg56
(lp2239
S'1'
asbasbasbag49
(g65
g51
NtRp2240
(dp2241
g54
(dp2242
sg63
g2224
sg56
(lp2243
g49
(g70
g51
NtRp2244
(dp2245
g54
(dp2246
sg63
g2240
sg56
(lp2247
g49
(g50
g51
NtRp2248
(dp2249
g54
(dp2250
g62
I3
ssg63
g2244
sg56
(lp2251
S'99'
p2252
asbasbasbag49
(g65
g51
NtRp2253
(dp2254
g54
(dp2255
sg63
g2224
sg56
(lp2256
g49
(g70
g51
NtRp2257
(dp2258
g54
(dp2259
sg63
g2253
sg56
(lp2260
g49
(g50
g51
NtRp2261
(dp2262
g54
(dp2263
g62
I3
ssg63
g2257
sg56
(lp2264
S'7'
asbasbasbag49
(g65
g51
NtRp2265
(dp2266
g54
(dp2267
sg63
g2224
sg56
(lp2268
g49
(g70
g51
NtRp2269
(dp2270
g54
(dp2271
sg63
g2265
sg56
(lp2272
g49
(g50
g51
NtRp2273
(dp2274
g54
(dp2275
g62
I3
ssg63
g2269
sg56
(lp2276
S'datetime.datetime(2012, 3, 4, 22, 12, 8)'
p2277
asbasbasbag49
(g65
g51
NtRp2278
(dp2279
g54
(dp2280
sg63
g2224
sg56
(lp2281
g49
(g70
g51
NtRp2282
(dp2283
g54
(dp2284
sg63
g2278
sg56
(lp2285
g49
(g50
g51
NtRp2286
(dp2287
g54
(dp2288
g62
I3
ssg63
g2282
sg56
(lp2289
g1679
asbasbasbasbasbasbasbasbasbasbasbag49
(g65
g51
NtRp2290
(dp2291
g54
(dp2292
sg63
g59
sg56
(lp2293
g49
(g70
g51
NtRp2294
(dp2295
g54
(dp2296
g74
g75
ssg63
g2290
sg56
(lp2297
S'is_https'
p2298
asbag49
(g70
g51
NtRp2299
(dp2300
g54
(dp2301
g81
g82
ssg63
g2290
sg56
(lp2302
S':'
asbag49
(g70
g51
NtRp2303
(dp2304
g54
(dp2305
sg63
g2290
sg56
(lp2306
g49
(g50
g51
NtRp2307
(dp2308
g54
(dp2309
g62
I5
ssg63
g2303
sg56
(lp2310
g92
asbasbasbag49
(g65
g51
NtRp2311
(dp2312
g54
(dp2313
sg63
g59
sg56
(lp2314
g49
(g70
g51
NtRp2315
(dp2316
g54
(dp2317
g74
g75
ssg63
g2311
sg56
(lp2318
S'is_local'
p2319
asbag49
(g70
g51
NtRp2320
(dp2321
g54
(dp2322
g81
g82
ssg63
g2311
sg56
(lp2323
S':'
asbag49
(g70
g51
NtRp2324
(dp2325
g54
(dp2326
sg63
g2311
sg56
(lp2327
g49
(g50
g51
NtRp2328
(dp2329
g54
(dp2330
g62
I5
ssg63
g2324
sg56
(lp2331
g1788
asbasbasbag49
(g65
g51
NtRp2332
(dp2333
g54
(dp2334
sg63
g59
sg56
(lp2335
g49
(g70
g51
NtRp2336
(dp2337
g54
(dp2338
g74
g75
ssg63
g2332
sg56
(lp2339
S'is_restful'
p2340
asbag49
(g70
g51
NtRp2341
(dp2342
g54
(dp2343
g81
g82
ssg63
g2332
sg56
(lp2344
S':'
asbag49
(g70
g51
NtRp2345
(dp2346
g54
(dp2347
sg63
g2332
sg56
(lp2348
g49
(g50
g51
NtRp2349
(dp2350
g54
(dp2351
g62
I5
ssg63
g2345
sg56
(lp2352
g92
asbasbasbag49
(g65
g51
NtRp2353
(dp2354
g54
(dp2355
sg63
g59
sg56
(lp2356
g49
(g70
g51
NtRp2357
(dp2358
g54
(dp2359
g74
g75
ssg63
g2353
sg56
(lp2360
S'now'
p2361
asbag49
(g70
g51
NtRp2362
(dp2363
g54
(dp2364
g81
g82
ssg63
g2353
sg56
(lp2365
S':'
asbag49
(g70
g51
NtRp2366
(dp2367
g54
(dp2368
sg63
g2353
sg56
(lp2369
g49
(g50
g51
NtRp2370
(dp2371
g54
(dp2372
g62
I5
ssg63
g2366
sg56
(lp2373
S'datetime.datetime(2012, 10, 17, 12, 21, 9, 750000)'
p2374
asbasbasbag49
(g65
g51
NtRp2375
(dp2376
g54
(dp2377
sg63
g59
sg56
(lp2378
g49
(g70
g51
NtRp2379
(dp2380
g54
(dp2381
g74
g75
ssg63
g2375
sg56
(lp2382
S'post_vars'
p2383
asbag49
(g70
g51
NtRp2384
(dp2385
g54
(dp2386
g81
g82
ssg63
g2375
sg56
(lp2387
S':'
asbag49
(g70
g51
NtRp2388
(dp2389
g54
(dp2390
sg63
g2375
sg56
(lp2391
g49
(g50
g51
NtRp2392
(dp2393
g54
(dp2394
g62
I5
ssg63
g2388
sg56
(lp2395
g49
(g58
g51
NtRp2396
(dp2397
g54
(dp2398
g62
I4
ssg63
Nsg56
(lp2399
sbasbasbasbag49
(g65
g51
NtRp2400
(dp2401
g54
(dp2402
sg63
g59
sg56
(lp2403
g49
(g70
g51
NtRp2404
(dp2405
g54
(dp2406
g74
g75
ssg63
g2400
sg56
(lp2407
S'raw_args'
p2408
asbag49
(g70
g51
NtRp2409
(dp2410
g54
(dp2411
g81
g82
ssg63
g2400
sg56
(lp2412
S':'
asbag49
(g70
g51
NtRp2413
(dp2414
g54
(dp2415
sg63
g2400
sg56
(lp2416
g49
(g50
g51
NtRp2417
(dp2418
g54
(dp2419
g62
I5
ssg63
g2413
sg56
(lp2420
S'logout'
p2421
asbasbasbag49
(g65
g51
NtRp2422
(dp2423
g54
(dp2424
sg63
g59
sg56
(lp2425
g49
(g70
g51
NtRp2426
(dp2427
g54
(dp2428
g74
g75
ssg63
g2422
sg56
(lp2429
S'url'
p2430
asbag49
(g70
g51
NtRp2431
(dp2432
g54
(dp2433
g81
g82
ssg63
g2422
sg56
(lp2434
S':'
asbag49
(g70
g51
NtRp2435
(dp2436
g54
(dp2437
sg63
g2422
sg56
(lp2438
g49
(g50
g51
NtRp2439
(dp2440
g54
(dp2441
g62
I5
ssg63
g2435
sg56
(lp2442
S'/hostel/default/user/logout'
p2443
asbasbasbag49
(g65
g51
NtRp2444
(dp2445
g54
(dp2446
sg63
g59
sg56
(lp2447
g49
(g70
g51
NtRp2448
(dp2449
g54
(dp2450
g74
g75
ssg63
g2444
sg56
(lp2451
S'utcnow'
p2452
asbag49
(g70
g51
NtRp2453
(dp2454
g54
(dp2455
g81
g82
ssg63
g2444
sg56
(lp2456
S':'
asbag49
(g70
g51
NtRp2457
(dp2458
g54
(dp2459
sg63
g2444
sg56
(lp2460
g49
(g50
g51
NtRp2461
(dp2462
g54
(dp2463
g62
I5
ssg63
g2457
sg56
(lp2464
S'datetime.datetime(2012, 10, 17, 6, 51, 9, 750000)'
p2465
asbasbasbag49
(g65
g51
NtRp2466
(dp2467
g54
(dp2468
sg63
g59
sg56
(lp2469
g49
(g70
g51
NtRp2470
(dp2471
g54
(dp2472
g74
g75
ssg63
g2466
sg56
(lp2473
S'uuid'
p2474
asbag49
(g70
g51
NtRp2475
(dp2476
g54
(dp2477
g81
g82
ssg63
g2466
sg56
(lp2478
S':'
asbag49
(g70
g51
NtRp2479
(dp2480
g54
(dp2481
sg63
g2466
sg56
(lp2482
g49
(g50
g51
NtRp2483
(dp2484
g54
(dp2485
g62
I5
ssg63
g2479
sg56
(lp2486
S'hostel/127.0.0.1.2012-10-17.12-21-09.0e0d8f0f-b390-415b-807b-10c27468999f'
p2487
asbasbasbag49
(g65
g51
NtRp2488
(dp2489
g54
(dp2490
sg63
g59
sg56
(lp2491
g49
(g70
g51
NtRp2492
(dp2493
g54
(dp2494
g74
g75
ssg63
g2488
sg56
(lp2495
S'vars'
p2496
asbag49
(g70
g51
NtRp2497
(dp2498
g54
(dp2499
g81
g82
ssg63
g2488
sg56
(lp2500
S':'
asbag49
(g70
g51
NtRp2501
(dp2502
g54
(dp2503
sg63
g2488
sg56
(lp2504
g49
(g50
g51
NtRp2505
(dp2506
g54
(dp2507
g62
I5
ssg63
g2501
sg56
(lp2508
g49
(g58
g51
NtRp2509
(dp2510
g54
(dp2511
g62
I4
ssg63
Nsg56
(lp2512
sbasbasbasbag49
(g65
g51
NtRp2513
(dp2514
g54
(dp2515
sg63
g59
sg56
(lp2516
g49
(g70
g51
NtRp2517
(dp2518
g54
(dp2519
g74
g75
ssg63
g2513
sg56
(lp2520
S'wsgi'
p2521
asbag49
(g70
g51
NtRp2522
(dp2523
g54
(dp2524
g81
g82
ssg63
g2513
sg56
(lp2525
S':'
asbag49
(g70
g51
NtRp2526
(dp2527
g54
(dp2528
sg63
g2513
sg56
(lp2529
g49
(g50
g51
NtRp2530
(dp2531
g54
(dp2532
g62
I5
ssg63
g2526
sg56
(lp2533
g49
(g58
g51
NtRp2534
(dp2535
g54
(dp2536
g62
I4
ssg63
Nsg56
(lp2537
g49
(g65
g51
NtRp2538
(dp2539
g54
(dp2540
sg63
g2534
sg56
(lp2541
g49
(g70
g51
NtRp2542
(dp2543
g54
(dp2544
g74
g75
ssg63
g2538
sg56
(lp2545
S'environ'
p2546
asbag49
(g70
g51
NtRp2547
(dp2548
g54
(dp2549
g81
g82
ssg63
g2538
sg56
(lp2550
S':'
asbag49
(g70
g51
NtRp2551
(dp2552
g54
(dp2553
sg63
g2538
sg56
(lp2554
g49
(g50
g51
NtRp2555
(dp2556
g54
(dp2557
g62
I4
ssg63
g2551
sg56
(lp2558
g49
(g58
g51
NtRp2559
(dp2560
g54
(dp2561
g62
I3
ssg63
Nsg56
(lp2562
g49
(g65
g51
NtRp2563
(dp2564
g54
(dp2565
sg63
g2559
sg56
(lp2566
g49
(g70
g51
NtRp2567
(dp2568
g54
(dp2569
g74
g75
ssg63
g2563
sg56
(lp2570
S'HTTP_ACCEPT'
p2571
asbag49
(g70
g51
NtRp2572
(dp2573
g54
(dp2574
g81
g82
ssg63
g2563
sg56
(lp2575
S':'
asbag49
(g70
g51
NtRp2576
(dp2577
g54
(dp2578
sg63
g2563
sg56
(lp2579
g49
(g50
g51
NtRp2580
(dp2581
g54
(dp2582
g62
I3
ssg63
g2576
sg56
(lp2583
g1112
asbasbasbag49
(g65
g51
NtRp2584
(dp2585
g54
(dp2586
sg63
g2559
sg56
(lp2587
g49
(g70
g51
NtRp2588
(dp2589
g54
(dp2590
g74
g75
ssg63
g2584
sg56
(lp2591
S'HTTP_ACCEPT_CHARSET'
p2592
asbag49
(g70
g51
NtRp2593
(dp2594
g54
(dp2595
g81
g82
ssg63
g2584
sg56
(lp2596
S':'
asbag49
(g70
g51
NtRp2597
(dp2598
g54
(dp2599
sg63
g2584
sg56
(lp2600
g49
(g50
g51
NtRp2601
(dp2602
g54
(dp2603
g62
I3
ssg63
g2597
sg56
(lp2604
g1134
asbasbasbag49
(g65
g51
NtRp2605
(dp2606
g54
(dp2607
sg63
g2559
sg56
(lp2608
g49
(g70
g51
NtRp2609
(dp2610
g54
(dp2611
g74
g75
ssg63
g2605
sg56
(lp2612
S'HTTP_ACCEPT_ENCODING'
p2613
asbag49
(g70
g51
NtRp2614
(dp2615
g54
(dp2616
g81
g82
ssg63
g2605
sg56
(lp2617
S':'
asbag49
(g70
g51
NtRp2618
(dp2619
g54
(dp2620
sg63
g2605
sg56
(lp2621
g49
(g50
g51
NtRp2622
(dp2623
g54
(dp2624
g62
I3
ssg63
g2618
sg56
(lp2625
g1156
asbasbasbag49
(g65
g51
NtRp2626
(dp2627
g54
(dp2628
sg63
g2559
sg56
(lp2629
g49
(g70
g51
NtRp2630
(dp2631
g54
(dp2632
g74
g75
ssg63
g2626
sg56
(lp2633
S'HTTP_ACCEPT_LANGUAGE'
p2634
asbag49
(g70
g51
NtRp2635
(dp2636
g54
(dp2637
g81
g82
ssg63
g2626
sg56
(lp2638
S':'
asbag49
(g70
g51
NtRp2639
(dp2640
g54
(dp2641
sg63
g2626
sg56
(lp2642
g49
(g50
g51
NtRp2643
(dp2644
g54
(dp2645
g62
I3
ssg63
g2639
sg56
(lp2646
g1178
asbasbasbag49
(g65
g51
NtRp2647
(dp2648
g54
(dp2649
sg63
g2559
sg56
(lp2650
g49
(g70
g51
NtRp2651
(dp2652
g54
(dp2653
g74
g75
ssg63
g2647
sg56
(lp2654
S'HTTP_CONNECTION'
p2655
asbag49
(g70
g51
NtRp2656
(dp2657
g54
(dp2658
g81
g82
ssg63
g2647
sg56
(lp2659
S':'
asbag49
(g70
g51
NtRp2660
(dp2661
g54
(dp2662
sg63
g2647
sg56
(lp2663
g49
(g50
g51
NtRp2664
(dp2665
g54
(dp2666
g62
I3
ssg63
g2660
sg56
(lp2667
g1200
asbasbasbag49
(g65
g51
NtRp2668
(dp2669
g54
(dp2670
sg63
g2559
sg56
(lp2671
g49
(g70
g51
NtRp2672
(dp2673
g54
(dp2674
g74
g75
ssg63
g2668
sg56
(lp2675
S'HTTP_COOKIE'
p2676
asbag49
(g70
g51
NtRp2677
(dp2678
g54
(dp2679
g81
g82
ssg63
g2668
sg56
(lp2680
S':'
asbag49
(g70
g51
NtRp2681
(dp2682
g54
(dp2683
sg63
g2668
sg56
(lp2684
g49
(g50
g51
NtRp2685
(dp2686
g54
(dp2687
g62
I3
ssg63
g2681
sg56
(lp2688
g1222
asbasbasbag49
(g65
g51
NtRp2689
(dp2690
g54
(dp2691
sg63
g2559
sg56
(lp2692
g49
(g70
g51
NtRp2693
(dp2694
g54
(dp2695
g74
g75
ssg63
g2689
sg56
(lp2696
S'HTTP_HOST'
p2697
asbag49
(g70
g51
NtRp2698
(dp2699
g54
(dp2700
g81
g82
ssg63
g2689
sg56
(lp2701
S':'
asbag49
(g70
g51
NtRp2702
(dp2703
g54
(dp2704
sg63
g2689
sg56
(lp2705
g49
(g50
g51
NtRp2706
(dp2707
g54
(dp2708
g62
I3
ssg63
g2702
sg56
(lp2709
g1244
asbasbasbag49
(g65
g51
NtRp2710
(dp2711
g54
(dp2712
sg63
g2559
sg56
(lp2713
g49
(g70
g51
NtRp2714
(dp2715
g54
(dp2716
g74
g75
ssg63
g2710
sg56
(lp2717
S'HTTP_REFERER'
p2718
asbag49
(g70
g51
NtRp2719
(dp2720
g54
(dp2721
g81
g82
ssg63
g2710
sg56
(lp2722
S':'
asbag49
(g70
g51
NtRp2723
(dp2724
g54
(dp2725
sg63
g2710
sg56
(lp2726
g49
(g50
g51
NtRp2727
(dp2728
g54
(dp2729
g62
I3
ssg63
g2723
sg56
(lp2730
g1266
asbasbasbag49
(g65
g51
NtRp2731
(dp2732
g54
(dp2733
sg63
g2559
sg56
(lp2734
g49
(g70
g51
NtRp2735
(dp2736
g54
(dp2737
g74
g75
ssg63
g2731
sg56
(lp2738
S'HTTP_USER_AGENT'
p2739
asbag49
(g70
g51
NtRp2740
(dp2741
g54
(dp2742
g81
g82
ssg63
g2731
sg56
(lp2743
S':'
asbag49
(g70
g51
NtRp2744
(dp2745
g54
(dp2746
sg63
g2731
sg56
(lp2747
g49
(g50
g51
NtRp2748
(dp2749
g54
(dp2750
g62
I3
ssg63
g2744
sg56
(lp2751
g1288
asbasbasbag49
(g65
g51
NtRp2752
(dp2753
g54
(dp2754
sg63
g2559
sg56
(lp2755
g49
(g70
g51
NtRp2756
(dp2757
g54
(dp2758
g74
g75
ssg63
g2752
sg56
(lp2759
S'PATH_INFO'
p2760
asbag49
(g70
g51
NtRp2761
(dp2762
g54
(dp2763
g81
g82
ssg63
g2752
sg56
(lp2764
S':'
asbag49
(g70
g51
NtRp2765
(dp2766
g54
(dp2767
sg63
g2752
sg56
(lp2768
g49
(g50
g51
NtRp2769
(dp2770
g54
(dp2771
g62
I3
ssg63
g2765
sg56
(lp2772
g1352
asbasbasbag49
(g65
g51
NtRp2773
(dp2774
g54
(dp2775
sg63
g2559
sg56
(lp2776
g49
(g70
g51
NtRp2777
(dp2778
g54
(dp2779
g74
g75
ssg63
g2773
sg56
(lp2780
S'QUERY_STRING'
p2781
asbag49
(g70
g51
NtRp2782
(dp2783
g54
(dp2784
g81
g82
ssg63
g2773
sg56
(lp2785
S':'
asbag49
(g70
g51
NtRp2786
(dp2787
g54
(dp2788
sg63
g2773
sg56
(lp2789
g49
(g50
g51
NtRp2790
(dp2791
g54
(dp2792
g62
I3
ssg63
g2786
sg56
(lp2793
g1374
asbasbasbag49
(g65
g51
NtRp2794
(dp2795
g54
(dp2796
sg63
g2559
sg56
(lp2797
g49
(g70
g51
NtRp2798
(dp2799
g54
(dp2800
g74
g75
ssg63
g2794
sg56
(lp2801
S'REMOTE_ADDR'
p2802
asbag49
(g70
g51
NtRp2803
(dp2804
g54
(dp2805
g81
g82
ssg63
g2794
sg56
(lp2806
S':'
asbag49
(g70
g51
NtRp2807
(dp2808
g54
(dp2809
sg63
g2794
sg56
(lp2810
g49
(g50
g51
NtRp2811
(dp2812
g54
(dp2813
g62
I3
ssg63
g2807
sg56
(lp2814
g195
asbasbasbag49
(g65
g51
NtRp2815
(dp2816
g54
(dp2817
sg63
g2559
sg56
(lp2818
g49
(g70
g51
NtRp2819
(dp2820
g54
(dp2821
g74
g75
ssg63
g2815
sg56
(lp2822
S'REMOTE_PORT'
p2823
asbag49
(g70
g51
NtRp2824
(dp2825
g54
(dp2826
g81
g82
ssg63
g2815
sg56
(lp2827
S':'
asbag49
(g70
g51
NtRp2828
(dp2829
g54
(dp2830
sg63
g2815
sg56
(lp2831
g49
(g50
g51
NtRp2832
(dp2833
g54
(dp2834
g62
I3
ssg63
g2828
sg56
(lp2835
g1417
asbasbasbag49
(g65
g51
NtRp2836
(dp2837
g54
(dp2838
sg63
g2559
sg56
(lp2839
g49
(g70
g51
NtRp2840
(dp2841
g54
(dp2842
g74
g75
ssg63
g2836
sg56
(lp2843
S'REQUEST_METHOD'
p2844
asbag49
(g70
g51
NtRp2845
(dp2846
g54
(dp2847
g81
g82
ssg63
g2836
sg56
(lp2848
S':'
asbag49
(g70
g51
NtRp2849
(dp2850
g54
(dp2851
sg63
g2836
sg56
(lp2852
g49
(g50
g51
NtRp2853
(dp2854
g54
(dp2855
g62
I3
ssg63
g2849
sg56
(lp2856
g1439
asbasbasbag49
(g65
g51
NtRp2857
(dp2858
g54
(dp2859
sg63
g2559
sg56
(lp2860
g49
(g70
g51
NtRp2861
(dp2862
g54
(dp2863
g74
g75
ssg63
g2857
sg56
(lp2864
S'SCRIPT_NAME'
p2865
asbag49
(g70
g51
NtRp2866
(dp2867
g54
(dp2868
g81
g82
ssg63
g2857
sg56
(lp2869
S':'
asbag49
(g70
g51
NtRp2870
(dp2871
g54
(dp2872
sg63
g2857
sg56
(lp2873
g49
(g50
g51
NtRp2874
(dp2875
g54
(dp2876
g62
I3
ssg63
g2870
sg56
(lp2877
S''
asbasbasbag49
(g65
g51
NtRp2878
(dp2879
g54
(dp2880
sg63
g2559
sg56
(lp2881
g49
(g70
g51
NtRp2882
(dp2883
g54
(dp2884
g74
g75
ssg63
g2878
sg56
(lp2885
S'SERVER_NAME'
p2886
asbag49
(g70
g51
NtRp2887
(dp2888
g54
(dp2889
g81
g82
ssg63
g2878
sg56
(lp2890
S':'
asbag49
(g70
g51
NtRp2891
(dp2892
g54
(dp2893
sg63
g2878
sg56
(lp2894
g49
(g50
g51
NtRp2895
(dp2896
g54
(dp2897
g62
I3
ssg63
g2891
sg56
(lp2898
g1482
asbasbasbag49
(g65
g51
NtRp2899
(dp2900
g54
(dp2901
sg63
g2559
sg56
(lp2902
g49
(g70
g51
NtRp2903
(dp2904
g54
(dp2905
g74
g75
ssg63
g2899
sg56
(lp2906
S'SERVER_PORT'
p2907
asbag49
(g70
g51
NtRp2908
(dp2909
g54
(dp2910
g81
g82
ssg63
g2899
sg56
(lp2911
S':'
asbag49
(g70
g51
NtRp2912
(dp2913
g54
(dp2914
sg63
g2899
sg56
(lp2915
g49
(g50
g51
NtRp2916
(dp2917
g54
(dp2918
g62
I3
ssg63
g2912
sg56
(lp2919
g1504
asbasbasbag49
(g65
g51
NtRp2920
(dp2921
g54
(dp2922
sg63
g2559
sg56
(lp2923
g49
(g70
g51
NtRp2924
(dp2925
g54
(dp2926
g74
g75
ssg63
g2920
sg56
(lp2927
S'SERVER_PROTOCOL'
p2928
asbag49
(g70
g51
NtRp2929
(dp2930
g54
(dp2931
g81
g82
ssg63
g2920
sg56
(lp2932
S':'
asbag49
(g70
g51
NtRp2933
(dp2934
g54
(dp2935
sg63
g2920
sg56
(lp2936
g49
(g50
g51
NtRp2937
(dp2938
g54
(dp2939
g62
I3
ssg63
g2933
sg56
(lp2940
g1526
asbasbasbag49
(g65
g51
NtRp2941
(dp2942
g54
(dp2943
sg63
g2559
sg56
(lp2944
g49
(g70
g51
NtRp2945
(dp2946
g54
(dp2947
g74
g75
ssg63
g2941
sg56
(lp2948
S'SERVER_SOFTWARE'
p2949
asbag49
(g70
g51
NtRp2950
(dp2951
g54
(dp2952
g81
g82
ssg63
g2941
sg56
(lp2953
S':'
asbag49
(g70
g51
NtRp2954
(dp2955
g54
(dp2956
sg63
g2941
sg56
(lp2957
g49
(g50
g51
NtRp2958
(dp2959
g54
(dp2960
g62
I3
ssg63
g2954
sg56
(lp2961
g1548
asbasbasbag49
(g65
g51
NtRp2962
(dp2963
g54
(dp2964
sg63
g2559
sg56
(lp2965
g49
(g70
g51
NtRp2966
(dp2967
g54
(dp2968
g74
g75
ssg63
g2962
sg56
(lp2969
S'wsgi.errors'
p2970
asbag49
(g70
g51
NtRp2971
(dp2972
g54
(dp2973
g81
g82
ssg63
g2962
sg56
(lp2974
S':'
asbag49
(g70
g51
NtRp2975
(dp2976
g54
(dp2977
sg63
g2962
sg56
(lp2978
g49
(g50
g51
NtRp2979
(dp2980
g54
(dp2981
g62
I3
ssg63
g2975
sg56
(lp2982
S"<open file '<stderr>', mode 'w' at 0x01DD00B0>"
p2983
asbasbasbag49
(g65
g51
NtRp2984
(dp2985
g54
(dp2986
sg63
g2559
sg56
(lp2987
g49
(g70
g51
NtRp2988
(dp2989
g54
(dp2990
g74
g75
ssg63
g2984
sg56
(lp2991
S'wsgi.file_wrapper'
p2992
asbag49
(g70
g51
NtRp2993
(dp2994
g54
(dp2995
g81
g82
ssg63
g2984
sg56
(lp2996
S':'
asbag49
(g70
g51
NtRp2997
(dp2998
g54
(dp2999
sg63
g2984
sg56
(lp3000
g49
(g50
g51
NtRp3001
(dp3002
g54
(dp3003
g62
I3
ssg63
g2997
sg56
(lp3004
S'<class wsgiref.util.FileWrapper at 0x02D06450>'
p3005
asbasbasbag49
(g65
g51
NtRp3006
(dp3007
g54
(dp3008
sg63
g2559
sg56
(lp3009
g49
(g70
g51
NtRp3010
(dp3011
g54
(dp3012
g74
g75
ssg63
g3006
sg56
(lp3013
S'wsgi.input'
p3014
asbag49
(g70
g51
NtRp3015
(dp3016
g54
(dp3017
g81
g82
ssg63
g3006
sg56
(lp3018
S':'
asbag49
(g70
g51
NtRp3019
(dp3020
g54
(dp3021
sg63
g3006
sg56
(lp3022
g49
(g50
g51
NtRp3023
(dp3024
g54
(dp3025
g62
I3
ssg63
g3019
sg56
(lp3026
S'<cStringIO.StringO object at 0x06BA9D00>'
p3027
asbasbasbag49
(g65
g51
NtRp3028
(dp3029
g54
(dp3030
sg63
g2559
sg56
(lp3031
g49
(g70
g51
NtRp3032
(dp3033
g54
(dp3034
g74
g75
ssg63
g3028
sg56
(lp3035
S'wsgi.multiprocess'
p3036
asbag49
(g70
g51
NtRp3037
(dp3038
g54
(dp3039
g81
g82
ssg63
g3028
sg56
(lp3040
S':'
asbag49
(g70
g51
NtRp3041
(dp3042
g54
(dp3043
sg63
g3028
sg56
(lp3044
g49
(g50
g51
NtRp3045
(dp3046
g54
(dp3047
g62
I3
ssg63
g3041
sg56
(lp3048
g92
asbasbasbag49
(g65
g51
NtRp3049
(dp3050
g54
(dp3051
sg63
g2559
sg56
(lp3052
g49
(g70
g51
NtRp3053
(dp3054
g54
(dp3055
g74
g75
ssg63
g3049
sg56
(lp3056
S'wsgi.multithread'
p3057
asbag49
(g70
g51
NtRp3058
(dp3059
g54
(dp3060
g81
g82
ssg63
g3049
sg56
(lp3061
S':'
asbag49
(g70
g51
NtRp3062
(dp3063
g54
(dp3064
sg63
g3049
sg56
(lp3065
g49
(g50
g51
NtRp3066
(dp3067
g54
(dp3068
g62
I3
ssg63
g3062
sg56
(lp3069
g1788
asbasbasbag49
(g65
g51
NtRp3070
(dp3071
g54
(dp3072
sg63
g2559
sg56
(lp3073
g49
(g70
g51
NtRp3074
(dp3075
g54
(dp3076
g74
g75
ssg63
g3070
sg56
(lp3077
S'wsgi.run_once'
p3078
asbag49
(g70
g51
NtRp3079
(dp3080
g54
(dp3081
g81
g82
ssg63
g3070
sg56
(lp3082
S':'
asbag49
(g70
g51
NtRp3083
(dp3084
g54
(dp3085
sg63
g3070
sg56
(lp3086
g49
(g50
g51
NtRp3087
(dp3088
g54
(dp3089
g62
I3
ssg63
g3083
sg56
(lp3090
g92
asbasbasbag49
(g65
g51
NtRp3091
(dp3092
g54
(dp3093
sg63
g2559
sg56
(lp3094
g49
(g70
g51
NtRp3095
(dp3096
g54
(dp3097
g74
g75
ssg63
g3091
sg56
(lp3098
S'wsgi.url_scheme'
p3099
asbag49
(g70
g51
NtRp3100
(dp3101
g54
(dp3102
g81
g82
ssg63
g3091
sg56
(lp3103
S':'
asbag49
(g70
g51
NtRp3104
(dp3105
g54
(dp3106
sg63
g3091
sg56
(lp3107
g49
(g50
g51
NtRp3108
(dp3109
g54
(dp3110
g62
I3
ssg63
g3104
sg56
(lp3111
g1831
asbasbasbag49
(g65
g51
NtRp3112
(dp3113
g54
(dp3114
sg63
g2559
sg56
(lp3115
g49
(g70
g51
NtRp3116
(dp3117
g54
(dp3118
g74
g75
ssg63
g3112
sg56
(lp3119
S'wsgi.version'
p3120
asbag49
(g70
g51
NtRp3121
(dp3122
g54
(dp3123
g81
g82
ssg63
g3112
sg56
(lp3124
S':'
asbag49
(g70
g51
NtRp3125
(dp3126
g54
(dp3127
sg63
g3112
sg56
(lp3128
g49
(g50
g51
NtRp3129
(dp3130
g54
(dp3131
g62
I3
ssg63
g3125
sg56
(lp3132
S'1'
asbasbasbasbasbasbasbasbasbasbasbasbasbsS'frames'
p3133
(lp3134
(dp3135
S'file'
p3136
S'C:\\Users\\bhanu\\Downloads\\Compressed\\web2py\\gluon\\restricted.py'
p3137
sS'dump'
p3138
(dp3139
sS'lnum'
p3140
I205
sS'lines'
p3141
(dp3142
sS'call'
p3143
S'(code="# -*- coding: utf-8 -*-\\n\\n#######################...= auth.user.first_name +\' \' +auth.user.last_name\\n", environment={\'A\': <class \'gluon.html.A\'>, \'Auth\': <class \'gluon.tools.Auth\'>, \'B\': <class \'gluon.html.B\'>, \'BEAUTIFY\': <class \'gluon.html.BEAUTIFY\'>, \'BODY\': <class \'gluon.html.BODY\'>, \'BR\': <class \'gluon.html.BR\'>, \'BUTTON\': <class \'gluon.html.BUTTON\'>, \'CAT\': <class \'gluon.html.CAT\'>, \'CENTER\': <class \'gluon.html.CENTER\'>, \'CLEANUP\': <class \'gluon.validators.CLEANUP\'>, ...}, layer=r\'C:\\Users\\bhanu\\Downloads\\Compressed\\web2py\\applications\\hostel\\models\\db.py\')'
p3144
sS'func'
p3145
S'restricted'
p3146
sa(dp3147
g3136
S'C:\\Users\\bhanu\\Downloads\\Compressed\\web2py\\applications\\hostel\\models\\db.py'
p3148
sg3138
(dp3149
sg3140
I191
sg3141
(dp3150
I182
S"Field('qid'),"
p3151
sI183
S"Field('counter','integer'))"
p3152
sI184
S'db.options.counter.default=0'
p3153
sI185
S''
sI186
S"db.define_table('vote',"
p3154
sI187
S"Field('voted_by','string'),"
p3155
sI188
S"Field('qid','integer'))"
p3156
sI189
S''
sI190
S'if auth.is_logged_in():'
p3157
sI191
S"   db.images.voted_by.default = auth.user.first_name +' ' +auth.user.last_name"
p3158
ssg3143
S'()'
p3159
sg3145
S'<module>'
p3160
sa(dp3161
g3136
S'C:\\Users\\bhanu\\Downloads\\Compressed\\web2py\\gluon\\dal.py'
p3162
sg3138
(dp3163
sg3140
I6343
sg3141
(dp3164
sg3143
S"(self=<DAL {'auth_event': <Table {'origin': <gluon.dal... 'id': <gluon.dal.Field object at 0x0736C670>}>}>, key='images')"
p3165
sg3145
S'__getattr__'
p3166
sa(dp3167
g3136
S'C:\\Users\\bhanu\\Downloads\\Compressed\\web2py\\gluon\\dal.py'
p3168
sg3138
(dp3169
sg3140
I6337
sg3141
(dp3170
sg3143
S"(self=<DAL {'auth_event': <Table {'origin': <gluon.dal... 'id': <gluon.dal.Field object at 0x0736C670>}>}>, key='images')"
p3171
sg3145
g20
sasS'pyver'
p3172
S'Python 2.5.4: C:\\Users\\bhanu\\Downloads\\Compressed\\web2py\\web2py.exe'
p3173
sS'session'
p3174
g49
(g50
g51
NtRp3175
(dp3176
g54
(dp3177
sg56
(lp3178
g49
(g58
g51
NtRp3179
(dp3180
g54
(dp3181
g62
I5
ssg63
Nsg56
(lp3182
g49
(g65
g51
NtRp3183
(dp3184
g54
(dp3185
sg63
g3179
sg56
(lp3186
g49
(g70
g51
NtRp3187
(dp3188
g54
(dp3189
g74
g75
ssg63
g3183
sg56
(lp3190
S'auth'
p3191
asbag49
(g70
g51
NtRp3192
(dp3193
g54
(dp3194
g81
g82
ssg63
g3183
sg56
(lp3195
S':'
asbag49
(g70
g51
NtRp3196
(dp3197
g54
(dp3198
sg63
g3183
sg56
(lp3199
g49
(g50
g51
NtRp3200
(dp3201
g54
(dp3202
g62
I5
ssg63
g3196
sg56
(lp3203
g49
(g58
g51
NtRp3204
(dp3205
g54
(dp3206
g62
I4
ssg63
Nsg56
(lp3207
g49
(g65
g51
NtRp3208
(dp3209
g54
(dp3210
sg63
g3204
sg56
(lp3211
g49
(g70
g51
NtRp3212
(dp3213
g54
(dp3214
g74
g75
ssg63
g3208
sg56
(lp3215
S'expiration'
p3216
asbag49
(g70
g51
NtRp3217
(dp3218
g54
(dp3219
g81
g82
ssg63
g3208
sg56
(lp3220
S':'
asbag49
(g70
g51
NtRp3221
(dp3222
g54
(dp3223
sg63
g3208
sg56
(lp3224
g49
(g50
g51
NtRp3225
(dp3226
g54
(dp3227
g62
I4
ssg63
g3221
sg56
(lp3228
S'3600'
p3229
asbasbasbag49
(g65
g51
NtRp3230
(dp3231
g54
(dp3232
sg63
g3204
sg56
(lp3233
g49
(g70
g51
NtRp3234
(dp3235
g54
(dp3236
g74
g75
ssg63
g3230
sg56
(lp3237
S'hmac_key'
p3238
asbag49
(g70
g51
NtRp3239
(dp3240
g54
(dp3241
g81
g82
ssg63
g3230
sg56
(lp3242
S':'
asbag49
(g70
g51
NtRp3243
(dp3244
g54
(dp3245
sg63
g3230
sg56
(lp3246
g49
(g50
g51
NtRp3247
(dp3248
g54
(dp3249
g62
I4
ssg63
g3243
sg56
(lp3250
S'c9d9e0f8-a8ec-4963-b776-e62748309c42'
p3251
asbasbasbag49
(g65
g51
NtRp3252
(dp3253
g54
(dp3254
sg63
g3204
sg56
(lp3255
g49
(g70
g51
NtRp3256
(dp3257
g54
(dp3258
g74
g75
ssg63
g3252
sg56
(lp3259
S'last_visit'
p3260
asbag49
(g70
g51
NtRp3261
(dp3262
g54
(dp3263
g81
g82
ssg63
g3252
sg56
(lp3264
S':'
asbag49
(g70
g51
NtRp3265
(dp3266
g54
(dp3267
sg63
g3252
sg56
(lp3268
g49
(g50
g51
NtRp3269
(dp3270
g54
(dp3271
g62
I4
ssg63
g3265
sg56
(lp3272
S'datetime.datetime(2012, 10, 17, 12, 21, 9, 750000)'
p3273
asbasbasbag49
(g65
g51
NtRp3274
(dp3275
g54
(dp3276
sg63
g3204
sg56
(lp3277
g49
(g70
g51
NtRp3278
(dp3279
g54
(dp3280
g74
g75
ssg63
g3274
sg56
(lp3281
S'remember'
p3282
asbag49
(g70
g51
NtRp3283
(dp3284
g54
(dp3285
g81
g82
ssg63
g3274
sg56
(lp3286
S':'
asbag49
(g70
g51
NtRp3287
(dp3288
g54
(dp3289
sg63
g3274
sg56
(lp3290
g49
(g50
g51
NtRp3291
(dp3292
g54
(dp3293
g62
I4
ssg63
g3287
sg56
(lp3294
g92
asbasbasbag49
(g65
g51
NtRp3295
(dp3296
g54
(dp3297
sg63
g3204
sg56
(lp3298
g49
(g70
g51
NtRp3299
(dp3300
g54
(dp3301
g74
g75
ssg63
g3295
sg56
(lp3302
S'user'
p3303
asbag49
(g70
g51
NtRp3304
(dp3305
g54
(dp3306
g81
g82
ssg63
g3295
sg56
(lp3307
S':'
asbag49
(g70
g51
NtRp3308
(dp3309
g54
(dp3310
sg63
g3295
sg56
(lp3311
g49
(g50
g51
NtRp3312
(dp3313
g54
(dp3314
g62
I4
ssg63
g3308
sg56
(lp3315
g49
(g58
g51
NtRp3316
(dp3317
g54
(dp3318
g62
I3
ssg63
Nsg56
(lp3319
g49
(g65
g51
NtRp3320
(dp3321
g54
(dp3322
sg63
g3316
sg56
(lp3323
g49
(g70
g51
NtRp3324
(dp3325
g54
(dp3326
g74
g75
ssg63
g3320
sg56
(lp3327
S'created_on'
p3328
asbag49
(g70
g51
NtRp3329
(dp3330
g54
(dp3331
g81
g82
ssg63
g3320
sg56
(lp3332
S':'
asbag49
(g70
g51
NtRp3333
(dp3334
g54
(dp3335
sg63
g3320
sg56
(lp3336
g49
(g50
g51
NtRp3337
(dp3338
g54
(dp3339
g62
I3
ssg63
g3333
sg56
(lp3340
S'datetime.datetime(2012, 10, 14, 19, 25, 18)'
p3341
asbasbasbag49
(g65
g51
NtRp3342
(dp3343
g54
(dp3344
sg63
g3316
sg56
(lp3345
g49
(g70
g51
NtRp3346
(dp3347
g54
(dp3348
g74
g75
ssg63
g3342
sg56
(lp3349
S'email'
p3350
asbag49
(g70
g51
NtRp3351
(dp3352
g54
(dp3353
g81
g82
ssg63
g3342
sg56
(lp3354
S':'
asbag49
(g70
g51
NtRp3355
(dp3356
g54
(dp3357
sg63
g3342
sg56
(lp3358
g49
(g50
g51
NtRp3359
(dp3360
g54
(dp3361
g62
I3
ssg63
g3355
sg56
(lp3362
S'student@s.com'
p3363
asbasbasbag49
(g65
g51
NtRp3364
(dp3365
g54
(dp3366
sg63
g3316
sg56
(lp3367
g49
(g70
g51
NtRp3368
(dp3369
g54
(dp3370
g74
g75
ssg63
g3364
sg56
(lp3371
S'first_name'
p3372
asbag49
(g70
g51
NtRp3373
(dp3374
g54
(dp3375
g81
g82
ssg63
g3364
sg56
(lp3376
S':'
asbag49
(g70
g51
NtRp3377
(dp3378
g54
(dp3379
sg63
g3364
sg56
(lp3380
g49
(g50
g51
NtRp3381
(dp3382
g54
(dp3383
g62
I3
ssg63
g3377
sg56
(lp3384
S'normal'
p3385
asbasbasbag49
(g65
g51
NtRp3386
(dp3387
g54
(dp3388
sg63
g3316
sg56
(lp3389
g49
(g70
g51
NtRp3390
(dp3391
g54
(dp3392
g74
g75
ssg63
g3386
sg56
(lp3393
S'id'
p3394
asbag49
(g70
g51
NtRp3395
(dp3396
g54
(dp3397
g81
g82
ssg63
g3386
sg56
(lp3398
S':'
asbag49
(g70
g51
NtRp3399
(dp3400
g54
(dp3401
sg63
g3386
sg56
(lp3402
g49
(g50
g51
NtRp3403
(dp3404
g54
(dp3405
g62
I3
ssg63
g3399
sg56
(lp3406
S'15'
p3407
asbasbasbag49
(g65
g51
NtRp3408
(dp3409
g54
(dp3410
sg63
g3316
sg56
(lp3411
g49
(g70
g51
NtRp3412
(dp3413
g54
(dp3414
g74
g75
ssg63
g3408
sg56
(lp3415
S'last_name'
p3416
asbag49
(g70
g51
NtRp3417
(dp3418
g54
(dp3419
g81
g82
ssg63
g3408
sg56
(lp3420
S':'
asbag49
(g70
g51
NtRp3421
(dp3422
g54
(dp3423
sg63
g3408
sg56
(lp3424
g49
(g50
g51
NtRp3425
(dp3426
g54
(dp3427
g62
I3
ssg63
g3421
sg56
(lp3428
S'user'
p3429
asbasbasbag49
(g65
g51
NtRp3430
(dp3431
g54
(dp3432
sg63
g3316
sg56
(lp3433
g49
(g70
g51
NtRp3434
(dp3435
g54
(dp3436
g74
g75
ssg63
g3430
sg56
(lp3437
S'modified_on'
p3438
asbag49
(g70
g51
NtRp3439
(dp3440
g54
(dp3441
g81
g82
ssg63
g3430
sg56
(lp3442
S':'
asbag49
(g70
g51
NtRp3443
(dp3444
g54
(dp3445
sg63
g3430
sg56
(lp3446
g49
(g50
g51
NtRp3447
(dp3448
g54
(dp3449
g62
I3
ssg63
g3443
sg56
(lp3450
S'datetime.datetime(2012, 10, 14, 19, 25, 18)'
p3451
asbasbasbag49
(g65
g51
NtRp3452
(dp3453
g54
(dp3454
sg63
g3316
sg56
(lp3455
g49
(g70
g51
NtRp3456
(dp3457
g54
(dp3458
g74
g75
ssg63
g3452
sg56
(lp3459
S'password'
p3460
asbag49
(g70
g51
NtRp3461
(dp3462
g54
(dp3463
g81
g82
ssg63
g3452
sg56
(lp3464
S':'
asbag49
(g70
g51
NtRp3465
(dp3466
g54
(dp3467
sg63
g3452
sg56
(lp3468
g49
(g50
g51
NtRp3469
(dp3470
g54
(dp3471
g62
I3
ssg63
g3465
sg56
(lp3472
S'5f677a0dbfa92fe4954cb89c91fa39ce'
p3473
asbasbasbag49
(g65
g51
NtRp3474
(dp3475
g54
(dp3476
sg63
g3316
sg56
(lp3477
g49
(g70
g51
NtRp3478
(dp3479
g54
(dp3480
g74
g75
ssg63
g3474
sg56
(lp3481
S'registration_id'
p3482
asbag49
(g70
g51
NtRp3483
(dp3484
g54
(dp3485
g81
g82
ssg63
g3474
sg56
(lp3486
S':'
asbag49
(g70
g51
NtRp3487
(dp3488
g54
(dp3489
sg63
g3474
sg56
(lp3490
g49
(g50
g51
NtRp3491
(dp3492
g54
(dp3493
g62
I3
ssg63
g3487
sg56
(lp3494
S''
asbasbasbag49
(g65
g51
NtRp3495
(dp3496
g54
(dp3497
sg63
g3316
sg56
(lp3498
g49
(g70
g51
NtRp3499
(dp3500
g54
(dp3501
g74
g75
ssg63
g3495
sg56
(lp3502
S'registration_key'
p3503
asbag49
(g70
g51
NtRp3504
(dp3505
g54
(dp3506
g81
g82
ssg63
g3495
sg56
(lp3507
S':'
asbag49
(g70
g51
NtRp3508
(dp3509
g54
(dp3510
sg63
g3495
sg56
(lp3511
g49
(g50
g51
NtRp3512
(dp3513
g54
(dp3514
g62
I3
ssg63
g3508
sg56
(lp3515
S''
asbasbasbag49
(g65
g51
NtRp3516
(dp3517
g54
(dp3518
sg63
g3316
sg56
(lp3519
g49
(g70
g51
NtRp3520
(dp3521
g54
(dp3522
g74
g75
ssg63
g3516
sg56
(lp3523
S'reset_password_key'
p3524
asbag49
(g70
g51
NtRp3525
(dp3526
g54
(dp3527
g81
g82
ssg63
g3516
sg56
(lp3528
S':'
asbag49
(g70
g51
NtRp3529
(dp3530
g54
(dp3531
sg63
g3516
sg56
(lp3532
g49
(g50
g51
NtRp3533
(dp3534
g54
(dp3535
g62
I3
ssg63
g3529
sg56
(lp3536
S''
asbasbasbag49
(g65
g51
NtRp3537
(dp3538
g54
(dp3539
sg63
g3316
sg56
(lp3540
g49
(g70
g51
NtRp3541
(dp3542
g54
(dp3543
g74
g75
ssg63
g3537
sg56
(lp3544
S'username'
p3545
asbag49
(g70
g51
NtRp3546
(dp3547
g54
(dp3548
g81
g82
ssg63
g3537
sg56
(lp3549
S':'
asbag49
(g70
g51
NtRp3550
(dp3551
g54
(dp3552
sg63
g3537
sg56
(lp3553
g49
(g50
g51
NtRp3554
(dp3555
g54
(dp3556
g62
I3
ssg63
g3550
sg56
(lp3557
S'Student'
p3558
asbasbasbasbasbasbasbag49
(g65
g51
NtRp3559
(dp3560
g54
(dp3561
sg63
g3204
sg56
(lp3562
g49
(g70
g51
NtRp3563
(dp3564
g54
(dp3565
g74
g75
ssg63
g3559
sg56
(lp3566
S'user_groups'
p3567
asbag49
(g70
g51
NtRp3568
(dp3569
g54
(dp3570
g81
g82
ssg63
g3559
sg56
(lp3571
S':'
asbag49
(g70
g51
NtRp3572
(dp3573
g54
(dp3574
sg63
g3559
sg56
(lp3575
g49
(g50
g51
NtRp3576
(dp3577
g54
(dp3578
g62
I4
ssg63
g3572
sg56
(lp3579
g49
(g58
g51
NtRp3580
(dp3581
g54
(dp3582
g62
I3
ssg63
Nsg56
(lp3583
g49
(g65
g51
NtRp3584
(dp3585
g54
(dp3586
sg63
g3580
sg56
(lp3587
g49
(g70
g51
NtRp3588
(dp3589
g54
(dp3590
g74
g75
ssg63
g3584
sg56
(lp3591
S'5'
asbag49
(g70
g51
NtRp3592
(dp3593
g54
(dp3594
g81
g82
ssg63
g3584
sg56
(lp3595
S':'
asbag49
(g70
g51
NtRp3596
(dp3597
g54
(dp3598
sg63
g3584
sg56
(lp3599
g49
(g50
g51
NtRp3600
(dp3601
g54
(dp3602
g62
I3
ssg63
g3596
sg56
(lp3603
S'students'
p3604
asbasbasbasbasbasbasbasbasbasbasbag49
(g65
g51
NtRp3605
(dp3606
g54
(dp3607
sg63
g3179
sg56
(lp3608
g49
(g70
g51
NtRp3609
(dp3610
g54
(dp3611
g74
g75
ssg63
g3605
sg56
(lp3612
S'flash'
p3613
asbag49
(g70
g51
NtRp3614
(dp3615
g54
(dp3616
g81
g82
ssg63
g3605
sg56
(lp3617
S':'
asbag49
(g70
g51
NtRp3618
(dp3619
g54
(dp3620
sg63
g3605
sg56
(lp3621
g49
(g50
g51
NtRp3622
(dp3623
g54
(dp3624
g62
I5
ssg63
g3618
sg56
(lp3625
S''
asbasbasbasbasbsS'etype'
p3626
S"<type 'exceptions.KeyError'>"
p3627
sS'date'
p3628
S'Wed Oct 17 12:21:09 2012'
p3629
sS'response'
p3630
g49
(g50
g51
NtRp3631
(dp3632
g54
(dp3633
sg56
(lp3634
g49
(g58
g51
NtRp3635
(dp3636
g54
(dp3637
g62
I5
ssg63
Nsg56
(lp3638
g49
(g65
g51
NtRp3639
(dp3640
g54
(dp3641
sg63
g3635
sg56
(lp3642
g49
(g70
g51
NtRp3643
(dp3644
g54
(dp3645
g74
g75
ssg63
g3639
sg56
(lp3646
g160
asbag49
(g70
g51
NtRp3647
(dp3648
g54
(dp3649
g81
g82
ssg63
g3639
sg56
(lp3650
S':'
asbag49
(g70
g51
NtRp3651
(dp3652
g54
(dp3653
sg63
g3639
sg56
(lp3654
g49
(g50
g51
NtRp3655
(dp3656
g54
(dp3657
g62
I5
ssg63
g3651
sg56
(lp3658
S'<cStringIO.StringO object at 0x06BBC820>'
p3659
asbasbasbag49
(g65
g51
NtRp3660
(dp3661
g54
(dp3662
sg63
g3635
sg56
(lp3663
g49
(g70
g51
NtRp3664
(dp3665
g54
(dp3666
g74
g75
ssg63
g3660
sg56
(lp3667
g226
asbag49
(g70
g51
NtRp3668
(dp3669
g54
(dp3670
g81
g82
ssg63
g3660
sg56
(lp3671
S':'
asbag49
(g70
g51
NtRp3672
(dp3673
g54
(dp3674
sg63
g3660
sg56
(lp3675
g49
(g50
g51
NtRp3676
(dp3677
g54
(dp3678
g62
I5
ssg63
g3672
sg56
(lp3679
g49
(g58
g51
NtRp3680
(dp3681
g54
(dp3682
g62
I4
ssg63
Nsg56
(lp3683
g49
(g65
g51
NtRp3684
(dp3685
g54
(dp3686
sg63
g3680
sg56
(lp3687
g49
(g70
g51
NtRp3688
(dp3689
g54
(dp3690
g74
g75
ssg63
g3684
sg56
(lp3691
S'session_id_hostel'
p3692
asbag49
(g70
g51
NtRp3693
(dp3694
g54
(dp3695
g81
g82
ssg63
g3684
sg56
(lp3696
S':'
asbag49
(g70
g51
NtRp3697
(dp3698
g54
(dp3699
sg63
g3684
sg56
(lp3700
g49
(g50
g51
NtRp3701
(dp3702
g54
(dp3703
g62
I4
ssg63
g3697
sg56
(lp3704
g49
(g58
g51
NtRp3705
(dp3706
g54
(dp3707
g62
I3
ssg63
Nsg56
(lp3708
g49
(g65
g51
NtRp3709
(dp3710
g54
(dp3711
sg63
g3705
sg56
(lp3712
g49
(g70
g51
NtRp3713
(dp3714
g54
(dp3715
g74
g75
ssg63
g3709
sg56
(lp3716
g276
asbag49
(g70
g51
NtRp3717
(dp3718
g54
(dp3719
g81
g82
ssg63
g3709
sg56
(lp3720
S':'
asbag49
(g70
g51
NtRp3721
(dp3722
g54
(dp3723
sg63
g3709
sg56
(lp3724
g49
(g50
g51
NtRp3725
(dp3726
g54
(dp3727
g62
I3
ssg63
g3721
sg56
(lp3728
S''
asbasbasbag49
(g65
g51
NtRp3729
(dp3730
g54
(dp3731
sg63
g3705
sg56
(lp3732
g49
(g70
g51
NtRp3733
(dp3734
g54
(dp3735
g74
g75
ssg63
g3729
sg56
(lp3736
g297
asbag49
(g70
g51
NtRp3737
(dp3738
g54
(dp3739
g81
g82
ssg63
g3729
sg56
(lp3740
S':'
asbag49
(g70
g51
NtRp3741
(dp3742
g54
(dp3743
sg63
g3729
sg56
(lp3744
g49
(g50
g51
NtRp3745
(dp3746
g54
(dp3747
g62
I3
ssg63
g3741
sg56
(lp3748
S''
asbasbasbag49
(g65
g51
NtRp3749
(dp3750
g54
(dp3751
sg63
g3705
sg56
(lp3752
g49
(g70
g51
NtRp3753
(dp3754
g54
(dp3755
g74
g75
ssg63
g3749
sg56
(lp3756
g318
asbag49
(g70
g51
NtRp3757
(dp3758
g54
(dp3759
g81
g82
ssg63
g3749
sg56
(lp3760
S':'
asbag49
(g70
g51
NtRp3761
(dp3762
g54
(dp3763
sg63
g3749
sg56
(lp3764
g49
(g50
g51
NtRp3765
(dp3766
g54
(dp3767
g62
I3
ssg63
g3761
sg56
(lp3768
S''
asbasbasbag49
(g65
g51
NtRp3769
(dp3770
g54
(dp3771
sg63
g3705
sg56
(lp3772
g49
(g70
g51
NtRp3773
(dp3774
g54
(dp3775
g74
g75
ssg63
g3769
sg56
(lp3776
g339
asbag49
(g70
g51
NtRp3777
(dp3778
g54
(dp3779
g81
g82
ssg63
g3769
sg56
(lp3780
S':'
asbag49
(g70
g51
NtRp3781
(dp3782
g54
(dp3783
sg63
g3769
sg56
(lp3784
g49
(g50
g51
NtRp3785
(dp3786
g54
(dp3787
g62
I3
ssg63
g3781
sg56
(lp3788
S''
asbasbasbag49
(g65
g51
NtRp3789
(dp3790
g54
(dp3791
sg63
g3705
sg56
(lp3792
g49
(g70
g51
NtRp3793
(dp3794
g54
(dp3795
g74
g75
ssg63
g3789
sg56
(lp3796
g360
asbag49
(g70
g51
NtRp3797
(dp3798
g54
(dp3799
g81
g82
ssg63
g3789
sg56
(lp3800
S':'
asbag49
(g70
g51
NtRp3801
(dp3802
g54
(dp3803
sg63
g3789
sg56
(lp3804
g49
(g50
g51
NtRp3805
(dp3806
g54
(dp3807
g62
I3
ssg63
g3801
sg56
(lp3808
S'/'
asbasbasbag49
(g65
g51
NtRp3809
(dp3810
g54
(dp3811
sg63
g3705
sg56
(lp3812
g49
(g70
g51
NtRp3813
(dp3814
g54
(dp3815
g74
g75
ssg63
g3809
sg56
(lp3816
g381
asbag49
(g70
g51
NtRp3817
(dp3818
g54
(dp3819
g81
g82
ssg63
g3809
sg56
(lp3820
S':'
asbag49
(g70
g51
NtRp3821
(dp3822
g54
(dp3823
sg63
g3809
sg56
(lp3824
g49
(g50
g51
NtRp3825
(dp3826
g54
(dp3827
g62
I3
ssg63
g3821
sg56
(lp3828
S''
asbasbasbag49
(g65
g51
NtRp3829
(dp3830
g54
(dp3831
sg63
g3705
sg56
(lp3832
g49
(g70
g51
NtRp3833
(dp3834
g54
(dp3835
g74
g75
ssg63
g3829
sg56
(lp3836
g402
asbag49
(g70
g51
NtRp3837
(dp3838
g54
(dp3839
g81
g82
ssg63
g3829
sg56
(lp3840
S':'
asbag49
(g70
g51
NtRp3841
(dp3842
g54
(dp3843
sg63
g3829
sg56
(lp3844
g49
(g50
g51
NtRp3845
(dp3846
g54
(dp3847
g62
I3
ssg63
g3841
sg56
(lp3848
S''
asbasbasbasbasbasbasbasbasbasbasbag49
(g65
g51
NtRp3849
(dp3850
g54
(dp3851
sg63
g3635
sg56
(lp3852
g49
(g70
g51
NtRp3853
(dp3854
g54
(dp3855
g74
g75
ssg63
g3849
sg56
(lp3856
S'delimiters'
p3857
asbag49
(g70
g51
NtRp3858
(dp3859
g54
(dp3860
g81
g82
ssg63
g3849
sg56
(lp3861
S':'
asbag49
(g70
g51
NtRp3862
(dp3863
g54
(dp3864
sg63
g3849
sg56
(lp3865
g49
(g50
g51
NtRp3866
(dp3867
g54
(dp3868
g62
I5
ssg63
g3862
sg56
(lp3869
g49
(g58
g51
NtRp3870
(dp3871
g54
(dp3872
g62
I4
ssg63
Nsg56
(lp3873
g49
(g65
g51
NtRp3874
(dp3875
g54
(dp3876
sg63
g3870
sg56
(lp3877
g49
(g70
g51
NtRp3878
(dp3879
g54
(dp3880
sg63
g3874
sg56
(lp3881
g49
(g50
g51
NtRp3882
(dp3883
g54
(dp3884
g62
I4
ssg63
g3878
sg56
(lp3885
S'{{'
p3886
asbasbasbag49
(g65
g51
NtRp3887
(dp3888
g54
(dp3889
sg63
g3870
sg56
(lp3890
g49
(g70
g51
NtRp3891
(dp3892
g54
(dp3893
sg63
g3887
sg56
(lp3894
g49
(g50
g51
NtRp3895
(dp3896
g54
(dp3897
g62
I4
ssg63
g3891
sg56
(lp3898
S'}}'
p3899
asbasbasbasbasbasbasbag49
(g65
g51
NtRp3900
(dp3901
g54
(dp3902
sg63
g3635
sg56
(lp3903
g49
(g70
g51
NtRp3904
(dp3905
g54
(dp3906
g74
g75
ssg63
g3900
sg56
(lp3907
S'files'
p3908
asbag49
(g70
g51
NtRp3909
(dp3910
g54
(dp3911
g81
g82
ssg63
g3900
sg56
(lp3912
S':'
asbag49
(g70
g51
NtRp3913
(dp3914
g54
(dp3915
sg63
g3900
sg56
(lp3916
g49
(g50
g51
NtRp3917
(dp3918
g54
(dp3919
g62
I5
ssg63
g3913
sg56
(lp3920
g49
(g58
g51
NtRp3921
(dp3922
g54
(dp3923
g62
I4
ssg63
Nsg56
(lp3924
sbasbasbasbag49
(g65
g51
NtRp3925
(dp3926
g54
(dp3927
sg63
g3635
sg56
(lp3928
g49
(g70
g51
NtRp3929
(dp3930
g54
(dp3931
g74
g75
ssg63
g3925
sg56
(lp3932
S'flash'
p3933
asbag49
(g70
g51
NtRp3934
(dp3935
g54
(dp3936
g81
g82
ssg63
g3925
sg56
(lp3937
S':'
asbag49
(g70
g51
NtRp3938
(dp3939
g54
(dp3940
sg63
g3925
sg56
(lp3941
g49
(g50
g51
NtRp3942
(dp3943
g54
(dp3944
g62
I5
ssg63
g3938
sg56
(lp3945
S''
asbasbasbag49
(g65
g51
NtRp3946
(dp3947
g54
(dp3948
sg63
g3635
sg56
(lp3949
g49
(g70
g51
NtRp3950
(dp3951
g54
(dp3952
g74
g75
ssg63
g3946
sg56
(lp3953
S'generic_patterns'
p3954
asbag49
(g70
g51
NtRp3955
(dp3956
g54
(dp3957
g81
g82
ssg63
g3946
sg56
(lp3958
S':'
asbag49
(g70
g51
NtRp3959
(dp3960
g54
(dp3961
sg63
g3946
sg56
(lp3962
g49
(g50
g51
NtRp3963
(dp3964
g54
(dp3965
g62
I5
ssg63
g3959
sg56
(lp3966
g49
(g58
g51
NtRp3967
(dp3968
g54
(dp3969
g62
I4
ssg63
Nsg56
(lp3970
g49
(g65
g51
NtRp3971
(dp3972
g54
(dp3973
sg63
g3967
sg56
(lp3974
g49
(g70
g51
NtRp3975
(dp3976
g54
(dp3977
sg63
g3971
sg56
(lp3978
g49
(g50
g51
NtRp3979
(dp3980
g54
(dp3981
g62
I4
ssg63
g3975
sg56
(lp3982
S'*'
asbasbasbasbasbasbasbag49
(g65
g51
NtRp3983
(dp3984
g54
(dp3985
sg63
g3635
sg56
(lp3986
g49
(g70
g51
NtRp3987
(dp3988
g54
(dp3989
g74
g75
ssg63
g3983
sg56
(lp3990
S'headers'
p3991
asbag49
(g70
g51
NtRp3992
(dp3993
g54
(dp3994
g81
g82
ssg63
g3983
sg56
(lp3995
S':'
asbag49
(g70
g51
NtRp3996
(dp3997
g54
(dp3998
sg63
g3983
sg56
(lp3999
g49
(g50
g51
NtRp4000
(dp4001
g54
(dp4002
g62
I5
ssg63
g3996
sg56
(lp4003
g49
(g58
g51
NtRp4004
(dp4005
g54
(dp4006
g62
I4
ssg63
Nsg56
(lp4007
g49
(g65
g51
NtRp4008
(dp4009
g54
(dp4010
sg63
g4004
sg56
(lp4011
g49
(g70
g51
NtRp4012
(dp4013
g54
(dp4014
g74
g75
ssg63
g4008
sg56
(lp4015
S'Cache-Control'
p4016
asbag49
(g70
g51
NtRp4017
(dp4018
g54
(dp4019
g81
g82
ssg63
g4008
sg56
(lp4020
S':'
asbag49
(g70
g51
NtRp4021
(dp4022
g54
(dp4023
sg63
g4008
sg56
(lp4024
g49
(g50
g51
NtRp4025
(dp4026
g54
(dp4027
g62
I4
ssg63
g4021
sg56
(lp4028
S'no-store, no-cache, must-revalidate, post-check=0, pre-check=0'
p4029
asbasbasbag49
(g65
g51
NtRp4030
(dp4031
g54
(dp4032
sg63
g4004
sg56
(lp4033
g49
(g70
g51
NtRp4034
(dp4035
g54
(dp4036
g74
g75
ssg63
g4030
sg56
(lp4037
S'Content-Type'
p4038
asbag49
(g70
g51
NtRp4039
(dp4040
g54
(dp4041
g81
g82
ssg63
g4030
sg56
(lp4042
S':'
asbag49
(g70
g51
NtRp4043
(dp4044
g54
(dp4045
sg63
g4030
sg56
(lp4046
g49
(g50
g51
NtRp4047
(dp4048
g54
(dp4049
g62
I4
ssg63
g4043
sg56
(lp4050
S'text/html; charset=utf-8'
p4051
asbasbasbag49
(g65
g51
NtRp4052
(dp4053
g54
(dp4054
sg63
g4004
sg56
(lp4055
g49
(g70
g51
NtRp4056
(dp4057
g54
(dp4058
g74
g75
ssg63
g4052
sg56
(lp4059
S'Expires'
p4060
asbag49
(g70
g51
NtRp4061
(dp4062
g54
(dp4063
g81
g82
ssg63
g4052
sg56
(lp4064
S':'
asbag49
(g70
g51
NtRp4065
(dp4066
g54
(dp4067
sg63
g4052
sg56
(lp4068
g49
(g50
g51
NtRp4069
(dp4070
g54
(dp4071
g62
I4
ssg63
g4065
sg56
(lp4072
S'Wed, 17 Oct 2012 06:51:09 GMT'
p4073
asbasbasbag49
(g65
g51
NtRp4074
(dp4075
g54
(dp4076
sg63
g4004
sg56
(lp4077
g49
(g70
g51
NtRp4078
(dp4079
g54
(dp4080
g74
g75
ssg63
g4074
sg56
(lp4081
S'Pragma'
p4082
asbag49
(g70
g51
NtRp4083
(dp4084
g54
(dp4085
g81
g82
ssg63
g4074
sg56
(lp4086
S':'
asbag49
(g70
g51
NtRp4087
(dp4088
g54
(dp4089
sg63
g4074
sg56
(lp4090
g49
(g50
g51
NtRp4091
(dp4092
g54
(dp4093
g62
I4
ssg63
g4087
sg56
(lp4094
S'no-cache'
p4095
asbasbasbag49
(g65
g51
NtRp4096
(dp4097
g54
(dp4098
sg63
g4004
sg56
(lp4099
g49
(g70
g51
NtRp4100
(dp4101
g54
(dp4102
g74
g75
ssg63
g4096
sg56
(lp4103
S'X-Powered-By'
p4104
asbag49
(g70
g51
NtRp4105
(dp4106
g54
(dp4107
g81
g82
ssg63
g4096
sg56
(lp4108
S':'
asbag49
(g70
g51
NtRp4109
(dp4110
g54
(dp4111
sg63
g4096
sg56
(lp4112
g49
(g50
g51
NtRp4113
(dp4114
g54
(dp4115
g62
I4
ssg63
g4109
sg56
(lp4116
S'web2py'
p4117
asbasbasbasbasbasbasbag49
(g65
g51
NtRp4118
(dp4119
g54
(dp4120
sg63
g3635
sg56
(lp4121
g49
(g70
g51
NtRp4122
(dp4123
g54
(dp4124
g74
g75
ssg63
g4118
sg56
(lp4125
S'menu'
p4126
asbag49
(g70
g51
NtRp4127
(dp4128
g54
(dp4129
g81
g82
ssg63
g4118
sg56
(lp4130
S':'
asbag49
(g70
g51
NtRp4131
(dp4132
g54
(dp4133
sg63
g4118
sg56
(lp4134
g49
(g50
g51
NtRp4135
(dp4136
g54
(dp4137
g62
I5
ssg63
g4131
sg56
(lp4138
g49
(g58
g51
NtRp4139
(dp4140
g54
(dp4141
g62
I4
ssg63
Nsg56
(lp4142
sbasbasbasbag49
(g65
g51
NtRp4143
(dp4144
g54
(dp4145
sg63
g3635
sg56
(lp4146
g49
(g70
g51
NtRp4147
(dp4148
g54
(dp4149
g74
g75
ssg63
g4143
sg56
(lp4150
S'meta'
p4151
asbag49
(g70
g51
NtRp4152
(dp4153
g54
(dp4154
g81
g82
ssg63
g4143
sg56
(lp4155
S':'
asbag49
(g70
g51
NtRp4156
(dp4157
g54
(dp4158
sg63
g4143
sg56
(lp4159
g49
(g50
g51
NtRp4160
(dp4161
g54
(dp4162
g62
I5
ssg63
g4156
sg56
(lp4163
g49
(g58
g51
NtRp4164
(dp4165
g54
(dp4166
g62
I4
ssg63
Nsg56
(lp4167
sbasbasbasbag49
(g65
g51
NtRp4168
(dp4169
g54
(dp4170
sg63
g3635
sg56
(lp4171
g49
(g70
g51
NtRp4172
(dp4173
g54
(dp4174
g74
g75
ssg63
g4168
sg56
(lp4175
S'postprocessing'
p4176
asbag49
(g70
g51
NtRp4177
(dp4178
g54
(dp4179
g81
g82
ssg63
g4168
sg56
(lp4180
S':'
asbag49
(g70
g51
NtRp4181
(dp4182
g54
(dp4183
sg63
g4168
sg56
(lp4184
g49
(g50
g51
NtRp4185
(dp4186
g54
(dp4187
g62
I5
ssg63
g4181
sg56
(lp4188
g49
(g58
g51
NtRp4189
(dp4190
g54
(dp4191
g62
I4
ssg63
Nsg56
(lp4192
sbasbasbasbag49
(g65
g51
NtRp4193
(dp4194
g54
(dp4195
sg63
g3635
sg56
(lp4196
g49
(g70
g51
NtRp4197
(dp4198
g54
(dp4199
g74
g75
ssg63
g4193
sg56
(lp4200
S'session_file'
p4201
asbag49
(g70
g51
NtRp4202
(dp4203
g54
(dp4204
g81
g82
ssg63
g4193
sg56
(lp4205
S':'
asbag49
(g70
g51
NtRp4206
(dp4207
g54
(dp4208
sg63
g4193
sg56
(lp4209
g49
(g50
g51
NtRp4210
(dp4211
g54
(dp4212
g62
I5
ssg63
g4206
sg56
(lp4213
S"<open file 'C:\\Users\\bhanu\\Downloads\\Compressed\\web2py\\applications\\hostel\\sessions\\127.0.0.1-ed44d367-493e-4df3-ad91-a87b2a17fcb8', mode 'rb+' at 0x07254698>"
p4214
asbasbasbag49
(g65
g51
NtRp4215
(dp4216
g54
(dp4217
sg63
g3635
sg56
(lp4218
g49
(g70
g51
NtRp4219
(dp4220
g54
(dp4221
g74
g75
ssg63
g4215
sg56
(lp4222
S'session_filename'
p4223
asbag49
(g70
g51
NtRp4224
(dp4225
g54
(dp4226
g81
g82
ssg63
g4215
sg56
(lp4227
S':'
asbag49
(g70
g51
NtRp4228
(dp4229
g54
(dp4230
sg63
g4215
sg56
(lp4231
g49
(g50
g51
NtRp4232
(dp4233
g54
(dp4234
g62
I5
ssg63
g4228
sg56
(lp4235
S'C:\\Users\\bhanu\\Downloads\\Compressed\\web2py\\applications\\hostel\\sessions\\127.0.0.1-ed44d367-493e-4df3-ad91-a87b2a17fcb8'
p4236
asbasbasbag49
(g65
g51
NtRp4237
(dp4238
g54
(dp4239
sg63
g3635
sg56
(lp4240
g49
(g70
g51
NtRp4241
(dp4242
g54
(dp4243
g74
g75
ssg63
g4237
sg56
(lp4244
S'session_id'
p4245
asbag49
(g70
g51
NtRp4246
(dp4247
g54
(dp4248
g81
g82
ssg63
g4237
sg56
(lp4249
S':'
asbag49
(g70
g51
NtRp4250
(dp4251
g54
(dp4252
sg63
g4237
sg56
(lp4253
g49
(g50
g51
NtRp4254
(dp4255
g54
(dp4256
g62
I5
ssg63
g4250
sg56
(lp4257
S'127.0.0.1-ed44d367-493e-4df3-ad91-a87b2a17fcb8'
p4258
asbasbasbag49
(g65
g51
NtRp4259
(dp4260
g54
(dp4261
sg63
g3635
sg56
(lp4262
g49
(g70
g51
NtRp4263
(dp4264
g54
(dp4265
g74
g75
ssg63
g4259
sg56
(lp4266
S'session_id_name'
p4267
asbag49
(g70
g51
NtRp4268
(dp4269
g54
(dp4270
g81
g82
ssg63
g4259
sg56
(lp4271
S':'
asbag49
(g70
g51
NtRp4272
(dp4273
g54
(dp4274
sg63
g4259
sg56
(lp4275
g49
(g50
g51
NtRp4276
(dp4277
g54
(dp4278
g62
I5
ssg63
g4272
sg56
(lp4279
g3692
asbasbasbag49
(g65
g51
NtRp4280
(dp4281
g54
(dp4282
sg63
g3635
sg56
(lp4283
g49
(g70
g51
NtRp4284
(dp4285
g54
(dp4286
g74
g75
ssg63
g4280
sg56
(lp4287
S'session_locked'
p4288
asbag49
(g70
g51
NtRp4289
(dp4290
g54
(dp4291
g81
g82
ssg63
g4280
sg56
(lp4292
S':'
asbag49
(g70
g51
NtRp4293
(dp4294
g54
(dp4295
sg63
g4280
sg56
(lp4296
g49
(g50
g51
NtRp4297
(dp4298
g54
(dp4299
g62
I5
ssg63
g4293
sg56
(lp4300
g1788
asbasbasbag49
(g65
g51
NtRp4301
(dp4302
g54
(dp4303
sg63
g3635
sg56
(lp4304
g49
(g70
g51
NtRp4305
(dp4306
g54
(dp4307
g74
g75
ssg63
g4301
sg56
(lp4308
S'session_new'
p4309
asbag49
(g70
g51
NtRp4310
(dp4311
g54
(dp4312
g81
g82
ssg63
g4301
sg56
(lp4313
S':'
asbag49
(g70
g51
NtRp4314
(dp4315
g54
(dp4316
sg63
g4301
sg56
(lp4317
g49
(g50
g51
NtRp4318
(dp4319
g54
(dp4320
g62
I5
ssg63
g4314
sg56
(lp4321
g92
asbasbasbag49
(g65
g51
NtRp4322
(dp4323
g54
(dp4324
sg63
g3635
sg56
(lp4325
g49
(g70
g51
NtRp4326
(dp4327
g54
(dp4328
g74
g75
ssg63
g4322
sg56
(lp4329
S'status'
p4330
asbag49
(g70
g51
NtRp4331
(dp4332
g54
(dp4333
g81
g82
ssg63
g4322
sg56
(lp4334
S':'
asbag49
(g70
g51
NtRp4335
(dp4336
g54
(dp4337
sg63
g4322
sg56
(lp4338
g49
(g50
g51
NtRp4339
(dp4340
g54
(dp4341
g62
I5
ssg63
g4335
sg56
(lp4342
S'200'
p4343
asbasbasbag49
(g65
g51
NtRp4344
(dp4345
g54
(dp4346
sg63
g3635
sg56
(lp4347
g49
(g70
g51
NtRp4348
(dp4349
g54
(dp4350
g74
g75
ssg63
g4344
sg56
(lp4351
g2474
asbag49
(g70
g51
NtRp4352
(dp4353
g54
(dp4354
g81
g82
ssg63
g4344
sg56
(lp4355
S':'
asbag49
(g70
g51
NtRp4356
(dp4357
g54
(dp4358
sg63
g4344
sg56
(lp4359
g49
(g50
g51
NtRp4360
(dp4361
g54
(dp4362
g62
I5
ssg63
g4356
sg56
(lp4363
g2487
asbasbasbag49
(g65
g51
NtRp4364
(dp4365
g54
(dp4366
sg63
g3635
sg56
(lp4367
g49
(g70
g51
NtRp4368
(dp4369
g54
(dp4370
g74
g75
ssg63
g4364
sg56
(lp4371
S'view'
p4372
asbag49
(g70
g51
NtRp4373
(dp4374
g54
(dp4375
g81
g82
ssg63
g4364
sg56
(lp4376
S':'
asbag49
(g70
g51
NtRp4377
(dp4378
g54
(dp4379
sg63
g4364
sg56
(lp4380
g49
(g50
g51
NtRp4381
(dp4382
g54
(dp4383
g62
I5
ssg63
g4377
sg56
(lp4384
S'default/user.html'
p4385
asbasbasbasbasbsS'locals'
p4386
(dp4387
S'self'
p4388
S"<DAL {'auth_event': <Table {'origin': <gluon.dal... 'id': <gluon.dal.Field object at 0x0736C670>}>}>"
p4389
sS'key'
p4390
S"'images'"
p4391
sssS'traceback'
p4392
S'Traceback (most recent call last):\n  File "gluon/restricted.py", line 205, in restricted\n  File "C:\\Users\\bhanu\\Downloads\\Compressed\\web2py\\applications\\hostel\\models\\db.py", line 191, in <module>\n  File "gluon/dal.py", line 6343, in __getattr__\n  File "gluon/dal.py", line 6337, in __getitem__\nKeyError: \'images\'\n'
p4393
s.