(dp1
S'output'
p2
S'missing "pass" in view'
p3
sS'layer'
p4
S'ParserContainer'
p5
sS'code'
p6
S'response.write(\'<!DOCTYPE html PUBLIC "-//W3C//DTD XHTML 1.0 Strict//EN" "http://www.w3.org/TR/xhtml1/DTD/xhtml1-strict.dtd">\\n<!--\\n\\nDesign by Free CSS Templates\\nhttp://www.freecsstemplates.org\\nReleased for free under a Creative Commons Attribution 2.5 License\\n\\nTitle      : Interlude\\nVersion    : 1.0\\nReleased   : 20080903\\nDescription: A multi-column, fixed-width design for 800x600 resolutions.\\n\\n-->\\n<html xmlns="http://www.w3.org/1999/xhtml">\\n <head>\\n  <title>\\n   \', escape=False)\nresponse.write(response.title or request.application)\nresponse.write(\'\\n  </title>\\n  \', escape=False)\nresponse.files.append(URL(request.application,\'static\',\'plugin_layouts/layouts/Interlude/default.css\'))\nresponse.write(\'\\n  \', escape=False)\nresponse.files.append(URL(\'static\',\'plugin_layouts/superfish.js\'))\nresponse.write(\'\\n  \', escape=False)\nresponse.write(\'<script type="text/javascript"><!--\\n    // These variables are used by the web2py_ajax_init function in web2py_ajax.js (which is loaded below).\\n    var w2p_ajax_confirm_message = "\', escape=False)\nresponse.write(T(\'Are you sure you want to delete this object?\'))\nresponse.write(\'";\\n    var w2p_ajax_date_format = "\', escape=False)\nresponse.write(T(\'%Y-%m-%d\'))\nresponse.write(\'";\\n    var w2p_ajax_datetime_format = "\', escape=False)\nresponse.write(T(\'%Y-%m-%d %H:%M:%S\'))\nresponse.write(\'";\\n    //--></script>\\n\', escape=False)\nresponse.files.insert(0,URL(\'static\',\'js/jquery.js\'))\nresponse.files.insert(1,URL(\'static\',\'css/calendar.css\'))\nresponse.files.insert(2,URL(\'static\',\'js/calendar.js\'))\nresponse.files.insert(3,URL(\'static\',\'js/web2py.js\'))\nresponse.include_meta()\nresponse.include_files()\nresponse.write(\'\\n\\t<link rel="shortcut icon" type="images/ico" href="http://courses.iiit.ac.in/EdgeNet/favicon.ico">\\n\', escape=False)\nresponse.write(\'\\n  <style>\\nul.web2py-menu-vertical { width: 150px; position: relative; top:1em; left:1em;  z-index:30; border:0; margin:0; padding: 0; list-style: none; text-decoration: none;}\\nul.web2py-menu-vertical li { margin:0; padding:0; border:0; width: 150px; background: black; text-align:left;}\\nul.web2py-menu-vertical li a { margin:0; padding: 1px 3px 1px 3px; border:0; width: 144px; color: white; font-size:12px;}\\ndiv.flash { position: fixed; float: right; padding: 10px; top: 10px; right: 30px; opacity: 0.75; margin: 10px 10px 10px 10px; text-align: center; clear: both; color: #fff; font-size: 11pt; text-align: center; vertical-align: middle; cursor: pointer; background: black; border: 2px solid #fff; -moz-border-radius: 5px; -webkit-border-radius: 5px; z-index: 2; }\\ndiv.error { background-color: red; color: white; padding: 3px; }\\n.auth_navbar { text-align:right; z-index:20; position: absolute; top: 2px; right:30px; border:0; padding:0 }\\n  </style>\\n </head>\\n <body>\\n  <!-- start header -->\\n\\n  <!-- start header -->\\n  <div id="header">\\n   <div id="logo">\\n    <h1>\\n     \', escape=False)\n#=response.title or reque\nresponse.write(\'\\n     hostel portal\\n    </h1>\\n    <p>\\n    \\n         \', escape=False)\n#     &nbsp;&nbsp;&nbsp;&nbsp;&nbsp;&nbsp;&nbsp;&nbsp;&nbsp;&nbsp;&nbsp;&nbsp;&nbsp;&nbsp;&nbsp;&nbsp;&nbsp;&nbsp;&nbsp;&nbsp;&nbsp;&nbsp;&nbsp;&nbsp;welcomes you\nresponse.write(\'\\n \\n    </p>\\n   </div>\\n   <div id="menu">\\n    \', escape=False)\nresponse.write(MENU(response.menu,_class=\'web2py-menu\'))\nresponse.write(\'\\n    <script>\\n      jQuery(document).ready(function(){jQuery(\\\'ul.web2py-menu\\\').superfish({delay:400});});\\n    </script>\\n   </div>\\n  </div>\\n  <hr />\\n  <!-- end header -->\\n  <!-- start page -->\\n  <div id="wrapper">\\n   <div id="page">\\n    <!-- start content -->\\n    <div id="content">\\n     <div class="flash">\', escape=False)\nresponse.write(response.flash or \'\')\nresponse.write(\'</div>\\n     \\n     \', escape=False)\nresponse.write(\'\\n<form style="display:inline" >\\n    Number of Records to be shown: <input  size="1" type="text" name="number" value="\', escape=False)\nresponse.write(number)\nresponse.write(\'" /> <input type="submit" value="submit"/> </form>\\n<br /><br />\\n<table border="1"  width="80%" style="text-align:center">\\n    <tr>    <th>Sr.No</th>     <th>Roll No</th><th>Company</th> <th> ServiceTag</th> <th>Time</th> <th>Reason</th>      <tr/>\\n    \', escape=False)\ni=0\nresponse.write(\'   \', escape=False)\nfor f in form:\n    response.write(\'     \', escape=False)\n    i=i+1\n    response.write(\'   \', escape=False)\n    tag=db(db.laptop.roll_no==f.roll_no).select(db.laptop.ALL)\n    response.write(\'\\n    <tr>    <td> \', escape=False)\n    response.write(i)\n    response.write(\'.</td>  <td>\', escape=False)\n    response.write(f.roll_no)\n    response.write(\'</td>\', escape=False)\n    for t in tag:\n        response.write(t.company)\n        response.write(\'<td> </td> <td>\', escape=False)\n        for t in tag:\n            response.write(t.service_tag)\n            response.write(\' &nbsp;\', escape=False)\n            pass\n        response.write(\'</td>            <td>\', escape=False)\n        response.write(f.out_time)\n        response.write(\'</td>  <td>\', escape=False)\n        response.write(f.reason)\n        response.write(\'</td>      </tr>\\n    \', escape=False)\n        pass\n    response.write(\'\\n</table>\\n\', escape=False)\n    response.write(\'\\n        \', escape=False)\n    #chetta\n    response.write(\'\\n        \\n        \\n        \\n        \', escape=False)\n    #chetta\n    response.write(\'\\n       \\n    </div>\\n    <!-- end content -->\\n    <!-- start sidebar -->\\n    \\n    <br style="clear: both;" />\\n   </div>\\n  </div>\\n  <!-- end page -->\\n<!--chetta-->>\\n \\n \\n \\n </body>\\n</html>\\n\', escape=False)'
p7
sS'snapshot'
p8
(dp9
S'exception'
p10
(dp11
S'__module__'
p12
S"'gluon.rocket'"
p13
sS'__getslice__'
p14
S"<method-wrapper '__getslice__' of SocketTimeout object>"
p15
sS'__str__'
p16
S"<method-wrapper '__str__' of SocketTimeout object>"
p17
sS'__reduce__'
p18
S'<built-in method __reduce__ of SocketTimeout object>'
p19
sS'__dict__'
p20
S'{}'
p21
sS'__sizeof__'
p22
S'<built-in method __sizeof__ of SocketTimeout object>'
p23
sS'__weakref__'
p24
S'None'
p25
sS'__init__'
p26
S"<method-wrapper '__init__' of SocketTimeout object>"
p27
sS'__setattr__'
p28
S"<method-wrapper '__setattr__' of SocketTimeout object>"
p29
sS'__reduce_ex__'
p30
S'<built-in method __reduce_ex__ of SocketTimeout object>'
p31
sS'__new__'
p32
S'<built-in method __new__ of type object>'
p33
sS'__format__'
p34
S'<built-in method __format__ of SocketTimeout object>'
p35
sS'__class__'
p36
S"<class 'gluon.rocket.SocketTimeout'>"
p37
sS'__doc__'
p38
S"'Exception for when a socket times out between requests.'"
p39
sS'__getitem__'
p40
S"<method-wrapper '__getitem__' of SocketTimeout object>"
p41
sS'__setstate__'
p42
S'<built-in method __setstate__ of SocketTimeout object>'
p43
sS'__getattribute__'
p44
S"<method-wrapper '__getattribute__' of SocketTimeout object>"
p45
sS'args'
p46
S"('Socket timed out before request.',)"
p47
sS'__subclasshook__'
p48
S'<built-in method __subclasshook__ of type object>'
p49
sS'__unicode__'
p50
S'<built-in method __unicode__ of SocketTimeout object>'
p51
sS'__delattr__'
p52
S"<method-wrapper '__delattr__' of SocketTimeout object>"
p53
sS'__repr__'
p54
S"<method-wrapper '__repr__' of SocketTimeout object>"
p55
sS'__hash__'
p56
S"<method-wrapper '__hash__' of SocketTimeout object>"
p57
ssS'evalue'
p58
S'Socket timed out before request.'
p59
sS'frames'
p60
(lp61
(dp62
S'file'
p63
S'/home/bhanu/web2py/gluon/rocket.py'
p64
sS'dump'
p65
(dp66
S'self'
p67
S'<WSGIWorker(Thread-4, started daemon 139674945316608)>'
p68
sS'conn'
p69
S'<gluon.rocket.Connection object>'
p70
sS'self.run_app'
p71
S'<bound method WSGIWorker.run_app of <WSGIWorker(Thread-4, started daemon 139674945316608)>>'
p72
ssS'lnum'
p73
I1318
sS'lines'
p74
(dp75
I1313
S'            # Enter connection serve loop'
p76
sI1314
S'            while True:'
p77
sI1315
S'                if __debug__:'
p78
sI1316
S"                    self.err_log.debug('Serving a request')"
p79
sI1317
S'                try:'
p80
sI1318
S'                    self.run_app(conn)'
p81
sI1319
S'                    log_info = dict(client_ip=conn.client_addr,'
p82
sI1320
S"                                    time=datetime.now().strftime('%c'),"
p83
sI1321
S"                                    status=self.status.split(' ')[0],"
p84
sI1322
S'                                    size=self.size,'
p85
ssS'call'
p86
S'(self=<WSGIWorker(Thread-4, started daemon 139674945316608)>)'
p87
sS'func'
p88
S'run'
p89
sa(dp90
g63
S'/home/bhanu/web2py/gluon/rocket.py'
p91
sg65
(dp92
S'self'
p93
S'<WSGIWorker(Thread-4, started daemon 139674945316608)>'
p94
sS'self.environ'
p95
S"{'HTTP_ACCEPT': 'text/html,application/xhtml+xml,application/xml;q=0.9,*/*;q=0.8', 'HTTP_ACCEPT_ENCODING': 'gzip, deflate', 'HTTP_ACCEPT_LANGUAGE': 'en-US,en;q=0.5', 'HTTP_CACHE_CONTROL': 'max-age=0', 'HTTP_CONNECTION': 'keep-alive', 'HTTP_COOKIE': 'session_id_welcome=127.0.0.1-592b6acb-f999-4052-...sa=127.0.0.1-9b36cc6c-2fd4-4c52-b58e-04370f3af8ee', 'HTTP_HOST': '127.0.0.1:8000', 'HTTP_REFERER': 'http://127.0.0.1:8000/sss/default/staff', 'HTTP_USER_AGENT': 'Mozilla/5.0 (X11; Ubuntu; Linux x86_64; rv:16.0) Gecko/20100101 Firefox/16.0', 'PATH_INFO': '/sss/default/view_laptop_out_details', ...}"
p96
sS'sock_file'
p97
S'<socket._fileobject object>'
p98
sS'environ'
p99
S'undefined'
p100
sS'self.build_environ'
p101
S'<bound method WSGIWorker.build_environ of <WSGIWorker(Thread-4, started daemon 139674945316608)>>'
p102
sS'conn'
p103
S'<gluon.rocket.Connection object>'
p104
ssg73
I1815
sg74
(dp105
I1810
S'        else:'
p106
sI1811
S'            sock_file = conn.makefile(BUF_SIZE)'
p107
sI1812
S''
sI1813
S'        try:'
p108
sI1814
S'            # Read the headers and build our WSGI environment'
p109
sI1815
S'            self.environ = environ = self.build_environ(sock_file, conn)'
p110
sI1816
S''
sI1817
S'            # Handle 100 Continue'
p111
sI1818
S"            if environ.get('HTTP_EXPECT', '') == '100-continue':"
p112
sI1819
S"                res = environ['SERVER_PROTOCOL'] + ' 100 Continue\\r\\n\\r\\n'"
p113
ssg86
S'(self=<WSGIWorker(Thread-4, started daemon 139674945316608)>, conn=<gluon.rocket.Connection object>)'
p114
sg88
S'run_app'
p115
sa(dp116
g63
S'/home/bhanu/web2py/gluon/rocket.py'
p117
sg65
(dp118
S'sock_file'
p119
S'<socket._fileobject object>'
p120
sS'self.read_request_line'
p121
S'<bound method WSGIWorker.read_request_line of <W...orker(Thread-4, started daemon 139674945316608)>>'
p122
sS'self'
p123
S'<WSGIWorker(Thread-4, started daemon 139674945316608)>'
p124
sS'request'
p125
g100
ssg73
I1637
sg74
(dp126
I1632
S'                                      "wsgiorg.futures": executor.futures})'
p127
sI1633
S''
sI1634
S'    def build_environ(self, sock_file, conn):'
p128
sI1635
S'        """ Build the execution environment. """'
p129
sI1636
S'        # Grab the request line'
p130
sI1637
S'        request = self.read_request_line(sock_file)'
p131
sI1638
S''
sI1639
S'        # Copy the Base Environment'
p132
sI1640
S'        environ = self.base_environ.copy()'
p133
sI1641
S''
ssg86
S'(self=<WSGIWorker(Thread-4, started daemon 139674945316608)>, sock_file=<socket._fileobject object>, conn=<gluon.rocket.Connection object>)'
p134
sg88
S'build_environ'
p135
sa(dp136
g63
S'/home/bhanu/web2py/gluon/rocket.py'
p137
sg65
(dp138
S'global SocketTimeout'
p139
S"<class 'gluon.rocket.SocketTimeout'>"
p140
ssg73
I1399
sg74
(dp141
I1394
S''
sI1395
S'                d = sock_file.readline()'
p142
sI1396
S'                if PY3K:'
p143
sI1397
S"                    d = d.decode('ISO-8859-1')"
p144
sI1398
S'        except socket.timeout:'
p145
sI1399
S'            raise SocketTimeout("Socket timed out before request.")'
p146
sI1400
S'        except TypeError:'
p147
sI1401
S'            raise SocketClosed('
p148
sI1402
S'                "ssl bug caused closer of socket, upgrade to python 2.7")'
p149
sI1403
S''
ssg86
S'(self=<WSGIWorker(Thread-4, started daemon 139674945316608)>, sock_file=<socket._fileobject object>)'
p150
sg88
S'read_request_line'
p151
sasS'pyver'
p152
S'Python 2.7.3: /usr/bin/python'
p153
sS'etype'
p154
S"<class 'gluon.rocket.SocketTimeout'>"
p155
sS'date'
p156
S'Thu Nov 15 01:08:33 2012'
p157
sS'locals'
p158
(dp159
S'sock_file'
p160
S'<socket._fileobject object>'
p161
sS'self'
p162
S'<WSGIWorker(Thread-4, started daemon 139674945316608)>'
p163
sssS'traceback'
p164
S'Traceback (most recent call last):\n  File "/home/bhanu/web2py/gluon/rocket.py", line 1318, in run\n    self.run_app(conn)\n  File "/home/bhanu/web2py/gluon/rocket.py", line 1815, in run_app\n    self.environ = environ = self.build_environ(sock_file, conn)\n  File "/home/bhanu/web2py/gluon/rocket.py", line 1637, in build_environ\n    request = self.read_request_line(sock_file)\n  File "/home/bhanu/web2py/gluon/rocket.py", line 1399, in read_request_line\n    raise SocketTimeout("Socket timed out before request.")\nSocketTimeout: Socket timed out before request.\n'
p165
s.