(dp1
S'output'
p2
S"<type 'exceptions.TypeError'> __call__() takes at least 2 arguments (1 given)"
p3
sS'layer'
p4
S'C:\\Users\\bhanu\\Downloads\\Compressed\\web2py\\applications\\hostel\\controllers/default.py'
p5
sS'code'
p6
S'# -*- coding: utf-8 -*-\n### required - do no delete\n\ndef user(): return dict(form=auth())\ndef download(): return response.download(request,db)\ndef call(): return service()\n### end requires\n@auth.requires_login()\n\ndef poll():\n    return dict()\n@auth.requires_login()\ndef sr():\n    l=len(request.args)\n    db.poll.insert(question=request.args(0),options_no=l-1)\n    q=db(db.poll.question==request.args(0)).select(db.poll.ALL)\n    pid=q[0].id\n    i=1\n    while i<l :\n        i=i+1\n        db.options.insert(option=request.args(i),qid=pid)\n    a=db(auth.user_id==db.auth_membership.user_id).select(db.auth_membership.ALL)\n     \n    if a[0].group_id==7:\n        db(db.poll.id==pid).update(flag=1)    \n        session.flash="New Poll Created"\n    else:\n        db(db.poll.id==pid).update(flag=0)    \n        session.flash="Your request has been sent"\n    #redirect(URL(r=request,f=\'index\'))\n    return dict(a=request.args(),l=l)\n\n@auth.requires_login()\n\ndef index():\n    session.flash=response.flash\n    a=db(auth.user_id==db.auth_membership.user_id).select(db.auth_membership.ALL)\n    if a[0].group_id==5:\n        redirect(URL(r=request,f=\'student\'))\n    if a[0].group_id==6:\n        redirect(URL(r=request,f=\'staff\'))\n    if a[0].group_id==7:\n        redirect(URL(r=request,f=\'puser\'))\n    if a[0].group_id==8:\n        redirect(URL(r=request,f=\'admin\'))    \n \ndef requests():\n    poll=db(db.poll.flag==0).select(db.poll.ALL)\n    newsfeed=db(db.news_feed.flag==0).select(db.news_feed.ALL)\n    #newsfeed=SQLFORM.smartgrid(newsfeed=newsfeed)\n    #gr=SQLFORM.smartgrid(poll=poll)\n    \n   # form2=SQLFORM.grid(db.news_feed,constraints2)\n    return dict(form=poll,form2=newsfeed)\n    \ndef add_news_feed():\n    a=db(auth.user_id==db.auth_membership.user_id).select(db.auth_membership.ALL)\n    form=SQLFORM(db.news_feed);\n    if a[0].group_id==7:\n            form.vars.flag=1\n    else:\n            form.vars.flag=0\n    if form.accepts(request.vars,session):\n        if a[0].group_id==7:\n            session.flash="Newsfeed Added"\n\n        else:\n            session.flash="Your request has been sent"\n\n        redirect(URL(r=request,f=\'index\'))\n    return dict(form=form)\n      \n\ndef student():\n    if request.vars.option!=None:\n        k=request.vars.option\n        l=db(db.options.id==k).select(db.options.ALL)\n        la=l[0].qid\n        l=l[0].counter\n        db(db.options.id==k).update(counter=l+1)\n        l2=db(db.poll.id==la).select(db.poll.ALL)\n        l2=l2[0].counter\n        db(db.poll.id==la).update(counter=l2+1)\n    newsfeed=db().select(db.news_feed.ALL,orderby=~db.news_feed.id)\n    polls=db().select(db.poll.ALL,orderby=~db.poll.id)\n    return dict(newsfeed=newsfeed,polls=polls)\n   \ndef staff():\n    return dict()\n \ndef one(): \n    return dict()\n\ndef puser():\n    if request.vars.option!=None:\n        k=request.vars.option\n        l=db(db.options.id==k).select(db.options.ALL)\n        \n        la=l[0].qid\n        l=l[0].counter\n        db(db.options.id==k).update(counter=l+1)\n        l2=db(db.poll.id==la).select(db.poll.ALL)\n        l2=l2[0].counter\n        db(db.poll.id==la).update(counter=l2+1)\n    newsfeed=db().select(db.news_feed.ALL,orderby=~db.news_feed.id)\n    polls=db().select(db.poll.ALL,orderby=~db.poll.id)\n    return dict(newsfeed=newsfeed,polls=polls)\n\ndef admin():\n    return dict()   \n         \ndef error():\n    return dict()\n    \nimport datetime\nimport time\ndef enter_laptop_details():\n    form=SQLFORM(db.laptop)\n    if form.accepts(request.vars,session):\n        session.flash = T(\'laptop details entered\')\n        redirect(URL(r=request,f=\'index\'))\n\n    return dict(form=form)\ndef laptop_out_details():\n    form=SQLFORM(db.laptop_out)\n    if form.accepts(request.vars,session):\n        session.flash="Laptop Details Entered"\n        redirect(URL(r=request,f=\'show_laptop_details\',args=form.vars.roll_no))\n    return dict(form=form)\ndef student_out_details():\n    form=SQLFORM(db.student_out)\n    if form.accepts(request.vars,session):\n        session.flash="student Details Entered"\n        if form.vars.laptop_presence=="present":\n            db.laptop_out.insert(roll_no=form.vars.roll_no,reason="outside campus")\n            redirect(URL(r=request,f=\'show_laptop_details\',args=form.vars.roll_no))\n        else:\n            redirect(URL(r=request,f=\'index\'))\n    return dict(form=form)\ndef show_laptop_details():\n    i=request.args\n    \n    laptop=db(db.laptop.roll_no==i[0]).select(db.laptop.ALL)\n    if not laptop:\n        session.flash="No Record Found Enter Details"\n        redirect(URL(r=request,f= enter_laptop_details))\n    name=db(db.students.roll_no==i[0]).select(db.students.name)\n    return dict(form=laptop)\n    \ndef regcomplaint():\n    now = time.localtime(time.time())\n    year, month, day, hour, minute, second, weekday, yearday, daylight = now\n    \n    db.complaint.User.default=auth.user.username\n    db.complaint.Date.default=datetime.datetime.today()\n    db.complaint.Time.default="%02d:%02d:%02d" % (hour, minute, second)\n    db.complaint.Flag.default=1\n    form = SQLFORM(db.complaint)\n    if form.process().accepted:\n        response.flash = \'your complaint is registered\'\n        redirect(URL(r=request,f=\'index\'))\n    return dict(form=form)\n@auth.requires_login()\ndef complaint():\n    return dict()\ndef showcomplaint():\n    return dict()\ndef viewprivate():\n    query=(db.complaint.User==auth.user.username) & (db.complaint.Flag==1)\n    set=db(query)\n    complaints=set.select()\n    return dict(complaints=complaints)\ndef delcomplaint():\n    remove = db(db.complaint.id==request.args(0)).delete()\n    if remove:\n        response.flash=\'complaint deleted succesfully\'\n        redirect(URL(\'viewprivate\'))\n    else:\n        response.flash=\'image deletion failed\'\ndef viewpublic():\n    query=(db.complaint.access!="Private") & (db.complaint.Flag!=0)\n    set=db(query)\n    complaints=set.select()\n    return dict(complaints=complaints)\ndef metcomplaint():\n    db(db.complaint.id==request.args(0)).update(Flag=0)\n    response.flash=\'Removed the complaint succesfully\'\n    redirect(URL(\'viewprivate\'))\ndef search():\n    return dict()\ndef byname():\n    return dict()\ndef byroll():\n    return dict()\ndef byroom():\n    return dict()\ndef searchbyroll():\n    roll=request.vars.roll\n    query=(db.students.roll_no==roll)\n    set=db(query)\n    result=set.select()\n    return dict(result=result)\n\ndef searchbyroom():\n    room=request.vars.room\n    query=(db.students.room_no==room)\n    set=db(query)\n    result=set.select()\n    return dict(result=result)\n\ndef searchbyname():\n    name=request.vars.name.lower()\n    query=db.students.name.lower().startswith(name)\n    set=db(query)\n    result=set.select()\n    return dict(result=result)\n\ndef viewprofile():\n    query=(db.students.roll_no==request.args(0))\n    set=db(query)\n    prof=set.select()\n    return dict(prof=prof)\n\nresponse._vars=response._caller(sr)\n'
p7
sS'snapshot'
p8
(dp9
S'exception'
p10
(dp11
S'__hash__'
p12
S"<method-wrapper '__hash__' of exceptions.TypeError object at 0x071FD3A0>"
p13
sS'__setattr__'
p14
S"<method-wrapper '__setattr__' of exceptions.TypeError object at 0x071FD3A0>"
p15
sS'__reduce_ex__'
p16
S'<built-in method __reduce_ex__ of exceptions.TypeError object at 0x071FD3A0>'
p17
sS'__getslice__'
p18
S"<method-wrapper '__getslice__' of exceptions.TypeError object at 0x071FD3A0>"
p19
sS'__getitem__'
p20
S"<method-wrapper '__getitem__' of exceptions.TypeError object at 0x071FD3A0>"
p21
sS'__setstate__'
p22
S'<built-in method __setstate__ of exceptions.TypeError object at 0x071FD3A0>'
p23
sS'__reduce__'
p24
S'<built-in method __reduce__ of exceptions.TypeError object at 0x071FD3A0>'
p25
sS'__str__'
p26
S"<method-wrapper '__str__' of exceptions.TypeError object at 0x071FD3A0>"
p27
sS'args'
p28
S"('__call__() takes at least 2 arguments (1 given)',)"
p29
sS'__getattribute__'
p30
S"<method-wrapper '__getattribute__' of exceptions.TypeError object at 0x071FD3A0>"
p31
sS'__class__'
p32
S"<type 'exceptions.TypeError'>"
p33
sS'__delattr__'
p34
S"<method-wrapper '__delattr__' of exceptions.TypeError object at 0x071FD3A0>"
p35
sS'__repr__'
p36
S"<method-wrapper '__repr__' of exceptions.TypeError object at 0x071FD3A0>"
p37
sS'__dict__'
p38
S'{}'
p39
sS'__doc__'
p40
S"'Inappropriate argument type.'"
p41
sS'__init__'
p42
S"<method-wrapper '__init__' of exceptions.TypeError object at 0x071FD3A0>"
p43
sS'__new__'
p44
S'<built-in method __new__ of type object at 0x1E1CCD78>'
p45
ssS'evalue'
p46
S'__call__() takes at least 2 arguments (1 given)'
p47
sS'request'
p48
ccopy_reg
_reconstructor
p49
(cgluon.html
BEAUTIFY
p50
c__builtin__
object
p51
NtRp52
(dp53
S'attributes'
p54
(dp55
sS'components'
p56
(lp57
g49
(cgluon.html
TABLE
p58
g51
NtRp59
(dp60
g54
(dp61
S'level'
p62
I5
ssS'parent'
p63
Nsg56
(lp64
g49
(cgluon.html
TR
p65
g51
NtRp66
(dp67
g54
(dp68
sg63
g59
sg56
(lp69
g49
(cgluon.html
TD
p70
g51
NtRp71
(dp72
g54
(dp73
S'_style'
p74
S'font-weight:bold;vertical-align:top'
p75
ssg63
g66
sg56
(lp76
S'ajax'
p77
asbag49
(g70
g51
NtRp78
(dp79
g54
(dp80
S'_valign'
p81
S'top'
p82
ssg63
g66
sg56
(lp83
S':'
asbag49
(g70
g51
NtRp84
(dp85
g54
(dp86
sg63
g66
sg56
(lp87
g49
(g50
g51
NtRp88
(dp89
g54
(dp90
g62
I5
ssg63
g84
sg56
(lp91
S'False'
p92
asbasbasbag49
(g65
g51
NtRp93
(dp94
g54
(dp95
sg63
g59
sg56
(lp96
g49
(g70
g51
NtRp97
(dp98
g54
(dp99
g74
g75
ssg63
g93
sg56
(lp100
S'application'
p101
asbag49
(g70
g51
NtRp102
(dp103
g54
(dp104
g81
g82
ssg63
g93
sg56
(lp105
S':'
asbag49
(g70
g51
NtRp106
(dp107
g54
(dp108
sg63
g93
sg56
(lp109
g49
(g50
g51
NtRp110
(dp111
g54
(dp112
g62
I5
ssg63
g106
sg56
(lp113
S'hostel'
p114
asbasbasbag49
(g65
g51
NtRp115
(dp116
g54
(dp117
sg63
g59
sg56
(lp118
g49
(g70
g51
NtRp119
(dp120
g54
(dp121
g74
g75
ssg63
g115
sg56
(lp122
g28
asbag49
(g70
g51
NtRp123
(dp124
g54
(dp125
g81
g82
ssg63
g115
sg56
(lp126
S':'
asbag49
(g70
g51
NtRp127
(dp128
g54
(dp129
sg63
g115
sg56
(lp130
g49
(g50
g51
NtRp131
(dp132
g54
(dp133
g62
I5
ssg63
g127
sg56
(lp134
g49
(g58
g51
NtRp135
(dp136
g54
(dp137
g62
I4
ssg63
Nsg56
(lp138
g49
(g65
g51
NtRp139
(dp140
g54
(dp141
sg63
g135
sg56
(lp142
g49
(g70
g51
NtRp143
(dp144
g54
(dp145
sg63
g139
sg56
(lp146
g49
(g50
g51
NtRp147
(dp148
g54
(dp149
g62
I4
ssg63
g143
sg56
(lp150
S'cccccccccdsccccccccccccdddddddddddddddssssssssss'
p151
asbasbasbag49
(g65
g51
NtRp152
(dp153
g54
(dp154
sg63
g135
sg56
(lp155
g49
(g70
g51
NtRp156
(dp157
g54
(dp158
sg63
g152
sg56
(lp159
g49
(g50
g51
NtRp160
(dp161
g54
(dp162
g62
I4
ssg63
g156
sg56
(lp163
S'jjjjjjjjjjjjjjjjjjjjjj'
p164
asbasbasbag49
(g65
g51
NtRp165
(dp166
g54
(dp167
sg63
g135
sg56
(lp168
g49
(g70
g51
NtRp169
(dp170
g54
(dp171
sg63
g165
sg56
(lp172
g49
(g50
g51
NtRp173
(dp174
g54
(dp175
g62
I4
ssg63
g169
sg56
(lp176
S'mkkkkkkkkkkkkkmmmmmmmmmmmm'
p177
asbasbasbasbasbasbasbag49
(g65
g51
NtRp178
(dp179
g54
(dp180
sg63
g59
sg56
(lp181
g49
(g70
g51
NtRp182
(dp183
g54
(dp184
g74
g75
ssg63
g178
sg56
(lp185
S'body'
p186
asbag49
(g70
g51
NtRp187
(dp188
g54
(dp189
g81
g82
ssg63
g178
sg56
(lp190
S':'
asbag49
(g70
g51
NtRp191
(dp192
g54
(dp193
sg63
g178
sg56
(lp194
g49
(g50
g51
NtRp195
(dp196
g54
(dp197
g62
I5
ssg63
g191
sg56
(lp198
S'<cStringIO.StringO object at 0x07B906C0>'
p199
asbasbasbag49
(g65
g51
NtRp200
(dp201
g54
(dp202
sg63
g59
sg56
(lp203
g49
(g70
g51
NtRp204
(dp205
g54
(dp206
g74
g75
ssg63
g200
sg56
(lp207
S'client'
p208
asbag49
(g70
g51
NtRp209
(dp210
g54
(dp211
g81
g82
ssg63
g200
sg56
(lp212
S':'
asbag49
(g70
g51
NtRp213
(dp214
g54
(dp215
sg63
g200
sg56
(lp216
g49
(g50
g51
NtRp217
(dp218
g54
(dp219
g62
I5
ssg63
g213
sg56
(lp220
S'127.0.0.1'
p221
asbasbasbag49
(g65
g51
NtRp222
(dp223
g54
(dp224
sg63
g59
sg56
(lp225
g49
(g70
g51
NtRp226
(dp227
g54
(dp228
g74
g75
ssg63
g222
sg56
(lp229
S'controller'
p230
asbag49
(g70
g51
NtRp231
(dp232
g54
(dp233
g81
g82
ssg63
g222
sg56
(lp234
S':'
asbag49
(g70
g51
NtRp235
(dp236
g54
(dp237
sg63
g222
sg56
(lp238
g49
(g50
g51
NtRp239
(dp240
g54
(dp241
g62
I5
ssg63
g235
sg56
(lp242
S'default'
p243
asbasbasbag49
(g65
g51
NtRp244
(dp245
g54
(dp246
sg63
g59
sg56
(lp247
g49
(g70
g51
NtRp248
(dp249
g54
(dp250
g74
g75
ssg63
g244
sg56
(lp251
S'cookies'
p252
asbag49
(g70
g51
NtRp253
(dp254
g54
(dp255
g81
g82
ssg63
g244
sg56
(lp256
S':'
asbag49
(g70
g51
NtRp257
(dp258
g54
(dp259
sg63
g244
sg56
(lp260
g49
(g50
g51
NtRp261
(dp262
g54
(dp263
g62
I5
ssg63
g257
sg56
(lp264
g49
(g58
g51
NtRp265
(dp266
g54
(dp267
g62
I4
ssg63
Nsg56
(lp268
g49
(g65
g51
NtRp269
(dp270
g54
(dp271
sg63
g265
sg56
(lp272
g49
(g70
g51
NtRp273
(dp274
g54
(dp275
g74
g75
ssg63
g269
sg56
(lp276
S'session_id_admin'
p277
asbag49
(g70
g51
NtRp278
(dp279
g54
(dp280
g81
g82
ssg63
g269
sg56
(lp281
S':'
asbag49
(g70
g51
NtRp282
(dp283
g54
(dp284
sg63
g269
sg56
(lp285
g49
(g50
g51
NtRp286
(dp287
g54
(dp288
g62
I4
ssg63
g282
sg56
(lp289
g49
(g58
g51
NtRp290
(dp291
g54
(dp292
g62
I3
ssg63
Nsg56
(lp293
g49
(g65
g51
NtRp294
(dp295
g54
(dp296
sg63
g290
sg56
(lp297
g49
(g70
g51
NtRp298
(dp299
g54
(dp300
g74
g75
ssg63
g294
sg56
(lp301
S'comment'
p302
asbag49
(g70
g51
NtRp303
(dp304
g54
(dp305
g81
g82
ssg63
g294
sg56
(lp306
S':'
asbag49
(g70
g51
NtRp307
(dp308
g54
(dp309
sg63
g294
sg56
(lp310
g49
(g50
g51
NtRp311
(dp312
g54
(dp313
g62
I3
ssg63
g307
sg56
(lp314
S''
asbasbasbag49
(g65
g51
NtRp315
(dp316
g54
(dp317
sg63
g290
sg56
(lp318
g49
(g70
g51
NtRp319
(dp320
g54
(dp321
g74
g75
ssg63
g315
sg56
(lp322
S'domain'
p323
asbag49
(g70
g51
NtRp324
(dp325
g54
(dp326
g81
g82
ssg63
g315
sg56
(lp327
S':'
asbag49
(g70
g51
NtRp328
(dp329
g54
(dp330
sg63
g315
sg56
(lp331
g49
(g50
g51
NtRp332
(dp333
g54
(dp334
g62
I3
ssg63
g328
sg56
(lp335
S''
asbasbasbag49
(g65
g51
NtRp336
(dp337
g54
(dp338
sg63
g290
sg56
(lp339
g49
(g70
g51
NtRp340
(dp341
g54
(dp342
g74
g75
ssg63
g336
sg56
(lp343
S'expires'
p344
asbag49
(g70
g51
NtRp345
(dp346
g54
(dp347
g81
g82
ssg63
g336
sg56
(lp348
S':'
asbag49
(g70
g51
NtRp349
(dp350
g54
(dp351
sg63
g336
sg56
(lp352
g49
(g50
g51
NtRp353
(dp354
g54
(dp355
g62
I3
ssg63
g349
sg56
(lp356
S''
asbasbasbag49
(g65
g51
NtRp357
(dp358
g54
(dp359
sg63
g290
sg56
(lp360
g49
(g70
g51
NtRp361
(dp362
g54
(dp363
g74
g75
ssg63
g357
sg56
(lp364
S'max-age'
p365
asbag49
(g70
g51
NtRp366
(dp367
g54
(dp368
g81
g82
ssg63
g357
sg56
(lp369
S':'
asbag49
(g70
g51
NtRp370
(dp371
g54
(dp372
sg63
g357
sg56
(lp373
g49
(g50
g51
NtRp374
(dp375
g54
(dp376
g62
I3
ssg63
g370
sg56
(lp377
S''
asbasbasbag49
(g65
g51
NtRp378
(dp379
g54
(dp380
sg63
g290
sg56
(lp381
g49
(g70
g51
NtRp382
(dp383
g54
(dp384
g74
g75
ssg63
g378
sg56
(lp385
S'path'
p386
asbag49
(g70
g51
NtRp387
(dp388
g54
(dp389
g81
g82
ssg63
g378
sg56
(lp390
S':'
asbag49
(g70
g51
NtRp391
(dp392
g54
(dp393
sg63
g378
sg56
(lp394
g49
(g50
g51
NtRp395
(dp396
g54
(dp397
g62
I3
ssg63
g391
sg56
(lp398
S''
asbasbasbag49
(g65
g51
NtRp399
(dp400
g54
(dp401
sg63
g290
sg56
(lp402
g49
(g70
g51
NtRp403
(dp404
g54
(dp405
g74
g75
ssg63
g399
sg56
(lp406
S'secure'
p407
asbag49
(g70
g51
NtRp408
(dp409
g54
(dp410
g81
g82
ssg63
g399
sg56
(lp411
S':'
asbag49
(g70
g51
NtRp412
(dp413
g54
(dp414
sg63
g399
sg56
(lp415
g49
(g50
g51
NtRp416
(dp417
g54
(dp418
g62
I3
ssg63
g412
sg56
(lp419
S''
asbasbasbag49
(g65
g51
NtRp420
(dp421
g54
(dp422
sg63
g290
sg56
(lp423
g49
(g70
g51
NtRp424
(dp425
g54
(dp426
g74
g75
ssg63
g420
sg56
(lp427
S'version'
p428
asbag49
(g70
g51
NtRp429
(dp430
g54
(dp431
g81
g82
ssg63
g420
sg56
(lp432
S':'
asbag49
(g70
g51
NtRp433
(dp434
g54
(dp435
sg63
g420
sg56
(lp436
g49
(g50
g51
NtRp437
(dp438
g54
(dp439
g62
I3
ssg63
g433
sg56
(lp440
S''
asbasbasbasbasbasbasbag49
(g65
g51
NtRp441
(dp442
g54
(dp443
sg63
g265
sg56
(lp444
g49
(g70
g51
NtRp445
(dp446
g54
(dp447
g74
g75
ssg63
g441
sg56
(lp448
S'session_id_hostel'
p449
asbag49
(g70
g51
NtRp450
(dp451
g54
(dp452
g81
g82
ssg63
g441
sg56
(lp453
S':'
asbag49
(g70
g51
NtRp454
(dp455
g54
(dp456
sg63
g441
sg56
(lp457
g49
(g50
g51
NtRp458
(dp459
g54
(dp460
g62
I4
ssg63
g454
sg56
(lp461
g49
(g58
g51
NtRp462
(dp463
g54
(dp464
g62
I3
ssg63
Nsg56
(lp465
g49
(g65
g51
NtRp466
(dp467
g54
(dp468
sg63
g462
sg56
(lp469
g49
(g70
g51
NtRp470
(dp471
g54
(dp472
g74
g75
ssg63
g466
sg56
(lp473
g302
asbag49
(g70
g51
NtRp474
(dp475
g54
(dp476
g81
g82
ssg63
g466
sg56
(lp477
S':'
asbag49
(g70
g51
NtRp478
(dp479
g54
(dp480
sg63
g466
sg56
(lp481
g49
(g50
g51
NtRp482
(dp483
g54
(dp484
g62
I3
ssg63
g478
sg56
(lp485
S''
asbasbasbag49
(g65
g51
NtRp486
(dp487
g54
(dp488
sg63
g462
sg56
(lp489
g49
(g70
g51
NtRp490
(dp491
g54
(dp492
g74
g75
ssg63
g486
sg56
(lp493
g323
asbag49
(g70
g51
NtRp494
(dp495
g54
(dp496
g81
g82
ssg63
g486
sg56
(lp497
S':'
asbag49
(g70
g51
NtRp498
(dp499
g54
(dp500
sg63
g486
sg56
(lp501
g49
(g50
g51
NtRp502
(dp503
g54
(dp504
g62
I3
ssg63
g498
sg56
(lp505
S''
asbasbasbag49
(g65
g51
NtRp506
(dp507
g54
(dp508
sg63
g462
sg56
(lp509
g49
(g70
g51
NtRp510
(dp511
g54
(dp512
g74
g75
ssg63
g506
sg56
(lp513
g344
asbag49
(g70
g51
NtRp514
(dp515
g54
(dp516
g81
g82
ssg63
g506
sg56
(lp517
S':'
asbag49
(g70
g51
NtRp518
(dp519
g54
(dp520
sg63
g506
sg56
(lp521
g49
(g50
g51
NtRp522
(dp523
g54
(dp524
g62
I3
ssg63
g518
sg56
(lp525
S''
asbasbasbag49
(g65
g51
NtRp526
(dp527
g54
(dp528
sg63
g462
sg56
(lp529
g49
(g70
g51
NtRp530
(dp531
g54
(dp532
g74
g75
ssg63
g526
sg56
(lp533
g365
asbag49
(g70
g51
NtRp534
(dp535
g54
(dp536
g81
g82
ssg63
g526
sg56
(lp537
S':'
asbag49
(g70
g51
NtRp538
(dp539
g54
(dp540
sg63
g526
sg56
(lp541
g49
(g50
g51
NtRp542
(dp543
g54
(dp544
g62
I3
ssg63
g538
sg56
(lp545
S''
asbasbasbag49
(g65
g51
NtRp546
(dp547
g54
(dp548
sg63
g462
sg56
(lp549
g49
(g70
g51
NtRp550
(dp551
g54
(dp552
g74
g75
ssg63
g546
sg56
(lp553
g386
asbag49
(g70
g51
NtRp554
(dp555
g54
(dp556
g81
g82
ssg63
g546
sg56
(lp557
S':'
asbag49
(g70
g51
NtRp558
(dp559
g54
(dp560
sg63
g546
sg56
(lp561
g49
(g50
g51
NtRp562
(dp563
g54
(dp564
g62
I3
ssg63
g558
sg56
(lp565
S''
asbasbasbag49
(g65
g51
NtRp566
(dp567
g54
(dp568
sg63
g462
sg56
(lp569
g49
(g70
g51
NtRp570
(dp571
g54
(dp572
g74
g75
ssg63
g566
sg56
(lp573
g407
asbag49
(g70
g51
NtRp574
(dp575
g54
(dp576
g81
g82
ssg63
g566
sg56
(lp577
S':'
asbag49
(g70
g51
NtRp578
(dp579
g54
(dp580
sg63
g566
sg56
(lp581
g49
(g50
g51
NtRp582
(dp583
g54
(dp584
g62
I3
ssg63
g578
sg56
(lp585
S''
asbasbasbag49
(g65
g51
NtRp586
(dp587
g54
(dp588
sg63
g462
sg56
(lp589
g49
(g70
g51
NtRp590
(dp591
g54
(dp592
g74
g75
ssg63
g586
sg56
(lp593
g428
asbag49
(g70
g51
NtRp594
(dp595
g54
(dp596
g81
g82
ssg63
g586
sg56
(lp597
S':'
asbag49
(g70
g51
NtRp598
(dp599
g54
(dp600
sg63
g586
sg56
(lp601
g49
(g50
g51
NtRp602
(dp603
g54
(dp604
g62
I3
ssg63
g598
sg56
(lp605
S''
asbasbasbasbasbasbasbag49
(g65
g51
NtRp606
(dp607
g54
(dp608
sg63
g265
sg56
(lp609
g49
(g70
g51
NtRp610
(dp611
g54
(dp612
g74
g75
ssg63
g606
sg56
(lp613
S'session_id_welcome'
p614
asbag49
(g70
g51
NtRp615
(dp616
g54
(dp617
g81
g82
ssg63
g606
sg56
(lp618
S':'
asbag49
(g70
g51
NtRp619
(dp620
g54
(dp621
sg63
g606
sg56
(lp622
g49
(g50
g51
NtRp623
(dp624
g54
(dp625
g62
I4
ssg63
g619
sg56
(lp626
g49
(g58
g51
NtRp627
(dp628
g54
(dp629
g62
I3
ssg63
Nsg56
(lp630
g49
(g65
g51
NtRp631
(dp632
g54
(dp633
sg63
g627
sg56
(lp634
g49
(g70
g51
NtRp635
(dp636
g54
(dp637
g74
g75
ssg63
g631
sg56
(lp638
g302
asbag49
(g70
g51
NtRp639
(dp640
g54
(dp641
g81
g82
ssg63
g631
sg56
(lp642
S':'
asbag49
(g70
g51
NtRp643
(dp644
g54
(dp645
sg63
g631
sg56
(lp646
g49
(g50
g51
NtRp647
(dp648
g54
(dp649
g62
I3
ssg63
g643
sg56
(lp650
S''
asbasbasbag49
(g65
g51
NtRp651
(dp652
g54
(dp653
sg63
g627
sg56
(lp654
g49
(g70
g51
NtRp655
(dp656
g54
(dp657
g74
g75
ssg63
g651
sg56
(lp658
g323
asbag49
(g70
g51
NtRp659
(dp660
g54
(dp661
g81
g82
ssg63
g651
sg56
(lp662
S':'
asbag49
(g70
g51
NtRp663
(dp664
g54
(dp665
sg63
g651
sg56
(lp666
g49
(g50
g51
NtRp667
(dp668
g54
(dp669
g62
I3
ssg63
g663
sg56
(lp670
S''
asbasbasbag49
(g65
g51
NtRp671
(dp672
g54
(dp673
sg63
g627
sg56
(lp674
g49
(g70
g51
NtRp675
(dp676
g54
(dp677
g74
g75
ssg63
g671
sg56
(lp678
g344
asbag49
(g70
g51
NtRp679
(dp680
g54
(dp681
g81
g82
ssg63
g671
sg56
(lp682
S':'
asbag49
(g70
g51
NtRp683
(dp684
g54
(dp685
sg63
g671
sg56
(lp686
g49
(g50
g51
NtRp687
(dp688
g54
(dp689
g62
I3
ssg63
g683
sg56
(lp690
S''
asbasbasbag49
(g65
g51
NtRp691
(dp692
g54
(dp693
sg63
g627
sg56
(lp694
g49
(g70
g51
NtRp695
(dp696
g54
(dp697
g74
g75
ssg63
g691
sg56
(lp698
g365
asbag49
(g70
g51
NtRp699
(dp700
g54
(dp701
g81
g82
ssg63
g691
sg56
(lp702
S':'
asbag49
(g70
g51
NtRp703
(dp704
g54
(dp705
sg63
g691
sg56
(lp706
g49
(g50
g51
NtRp707
(dp708
g54
(dp709
g62
I3
ssg63
g703
sg56
(lp710
S''
asbasbasbag49
(g65
g51
NtRp711
(dp712
g54
(dp713
sg63
g627
sg56
(lp714
g49
(g70
g51
NtRp715
(dp716
g54
(dp717
g74
g75
ssg63
g711
sg56
(lp718
g386
asbag49
(g70
g51
NtRp719
(dp720
g54
(dp721
g81
g82
ssg63
g711
sg56
(lp722
S':'
asbag49
(g70
g51
NtRp723
(dp724
g54
(dp725
sg63
g711
sg56
(lp726
g49
(g50
g51
NtRp727
(dp728
g54
(dp729
g62
I3
ssg63
g723
sg56
(lp730
S''
asbasbasbag49
(g65
g51
NtRp731
(dp732
g54
(dp733
sg63
g627
sg56
(lp734
g49
(g70
g51
NtRp735
(dp736
g54
(dp737
g74
g75
ssg63
g731
sg56
(lp738
g407
asbag49
(g70
g51
NtRp739
(dp740
g54
(dp741
g81
g82
ssg63
g731
sg56
(lp742
S':'
asbag49
(g70
g51
NtRp743
(dp744
g54
(dp745
sg63
g731
sg56
(lp746
g49
(g50
g51
NtRp747
(dp748
g54
(dp749
g62
I3
ssg63
g743
sg56
(lp750
S''
asbasbasbag49
(g65
g51
NtRp751
(dp752
g54
(dp753
sg63
g627
sg56
(lp754
g49
(g70
g51
NtRp755
(dp756
g54
(dp757
g74
g75
ssg63
g751
sg56
(lp758
g428
asbag49
(g70
g51
NtRp759
(dp760
g54
(dp761
g81
g82
ssg63
g751
sg56
(lp762
S':'
asbag49
(g70
g51
NtRp763
(dp764
g54
(dp765
sg63
g751
sg56
(lp766
g49
(g50
g51
NtRp767
(dp768
g54
(dp769
g62
I3
ssg63
g763
sg56
(lp770
S''
asbasbasbasbasbasbasbasbasbasbasbag49
(g65
g51
NtRp771
(dp772
g54
(dp773
sg63
g59
sg56
(lp774
g49
(g70
g51
NtRp775
(dp776
g54
(dp777
g74
g75
ssg63
g771
sg56
(lp778
S'env'
p779
asbag49
(g70
g51
NtRp780
(dp781
g54
(dp782
g81
g82
ssg63
g771
sg56
(lp783
S':'
asbag49
(g70
g51
NtRp784
(dp785
g54
(dp786
sg63
g771
sg56
(lp787
g49
(g50
g51
NtRp788
(dp789
g54
(dp790
g62
I5
ssg63
g784
sg56
(lp791
g49
(g58
g51
NtRp792
(dp793
g54
(dp794
g62
I4
ssg63
Nsg56
(lp795
g49
(g65
g51
NtRp796
(dp797
g54
(dp798
sg63
g792
sg56
(lp799
g49
(g70
g51
NtRp800
(dp801
g54
(dp802
g74
g75
ssg63
g796
sg56
(lp803
S'app_folders'
p804
asbag49
(g70
g51
NtRp805
(dp806
g54
(dp807
g81
g82
ssg63
g796
sg56
(lp808
S':'
asbag49
(g70
g51
NtRp809
(dp810
g54
(dp811
sg63
g796
sg56
(lp812
g49
(g50
g51
NtRp813
(dp814
g54
(dp815
g62
I4
ssg63
g809
sg56
(lp816
S"set(['C:\\\\Users\\\\bhanu\\\\Downloads\\\\Compressed\\\\web2py\\\\applications\\\\hostel\\\\', 'C:\\\\Users\\\\bhanu\\\\Downloads\\\\Compressed\\\\web2py\\\\applications\\\\admin\\\\', 'C:\\\\Users\\\\bhanu\\\\Downloads\\\\Compressed\\\\web2py\\\\applications\\\\welcome\\\\'])"
p817
asbasbasbag49
(g65
g51
NtRp818
(dp819
g54
(dp820
sg63
g792
sg56
(lp821
g49
(g70
g51
NtRp822
(dp823
g54
(dp824
g74
g75
ssg63
g818
sg56
(lp825
S'applications_parent'
p826
asbag49
(g70
g51
NtRp827
(dp828
g54
(dp829
g81
g82
ssg63
g818
sg56
(lp830
S':'
asbag49
(g70
g51
NtRp831
(dp832
g54
(dp833
sg63
g818
sg56
(lp834
g49
(g50
g51
NtRp835
(dp836
g54
(dp837
g62
I4
ssg63
g831
sg56
(lp838
S'C:\\Users\\bhanu\\Downloads\\Compressed\\web2py'
p839
asbasbasbag49
(g65
g51
NtRp840
(dp841
g54
(dp842
sg63
g792
sg56
(lp843
g49
(g70
g51
NtRp844
(dp845
g54
(dp846
g74
g75
ssg63
g840
sg56
(lp847
S'cmd_args'
p848
asbag49
(g70
g51
NtRp849
(dp850
g54
(dp851
g81
g82
ssg63
g840
sg56
(lp852
S':'
asbag49
(g70
g51
NtRp853
(dp854
g54
(dp855
sg63
g840
sg56
(lp856
g49
(g50
g51
NtRp857
(dp858
g54
(dp859
g62
I4
ssg63
g853
sg56
(lp860
g49
(g58
g51
NtRp861
(dp862
g54
(dp863
g62
I3
ssg63
Nsg56
(lp864
sbasbasbasbag49
(g65
g51
NtRp865
(dp866
g54
(dp867
sg63
g792
sg56
(lp868
g49
(g70
g51
NtRp869
(dp870
g54
(dp871
g74
g75
ssg63
g865
sg56
(lp872
S'cmd_options'
p873
asbag49
(g70
g51
NtRp874
(dp875
g54
(dp876
g81
g82
ssg63
g865
sg56
(lp877
S':'
asbag49
(g70
g51
NtRp878
(dp879
g54
(dp880
sg63
g865
sg56
(lp881
g49
(g50
g51
NtRp882
(dp883
g54
(dp884
g62
I4
ssg63
g878
sg56
(lp885
S"<Values at 0x2f81f58: {'verbose': False, 'ip': '127.0.0.1', 'shutdown_timeout': 5, 'taskbar': False, 'nocron': False, 'pid_filename': 'httpserver.pid', 'maxthreads': None, 'softcron': False, 'server_name': 'bhanu-PC', 'bpython': False, 'nogui': False, 'port': 8000, 'extcron': False, 'debuglevel': 30, 'test': None, 'folder': 'C:\\\\Users\\\\bhanu\\\\Downloads\\\\Compressed\\\\web2py', 'config': '', 'import_models': False, 'winservice': '', 'shell': None, 'run': '', 'log_filename': 'httpserver.log', 'args': [''], 'socket_timeout': 5, 'ssl_ca_certificate': None, 'scheduler': None, 'profiler_filename': None, 'ssl_private_key': '', 'password': '<ask>', 'request_queue_size': 5, 'ssl_certificate': '', 'cronjob': False, 'numthreads': None, 'quiet': False, 'interfaces': None, 'minthreads': None, 'timeout': 10, 'plain': False, 'nobanner': False}>"
p886
asbasbasbag49
(g65
g51
NtRp887
(dp888
g54
(dp889
sg63
g792
sg56
(lp890
g49
(g70
g51
NtRp891
(dp892
g54
(dp893
g74
g75
ssg63
g887
sg56
(lp894
S'db_sessions'
p895
asbag49
(g70
g51
NtRp896
(dp897
g54
(dp898
g81
g82
ssg63
g887
sg56
(lp899
S':'
asbag49
(g70
g51
NtRp900
(dp901
g54
(dp902
sg63
g887
sg56
(lp903
g49
(g50
g51
NtRp904
(dp905
g54
(dp906
g62
I4
ssg63
g900
sg56
(lp907
S'set([])'
p908
asbasbasbag49
(g65
g51
NtRp909
(dp910
g54
(dp911
sg63
g792
sg56
(lp912
g49
(g70
g51
NtRp913
(dp914
g54
(dp915
g74
g75
ssg63
g909
sg56
(lp916
S'debugging'
p917
asbag49
(g70
g51
NtRp918
(dp919
g54
(dp920
g81
g82
ssg63
g909
sg56
(lp921
S':'
asbag49
(g70
g51
NtRp922
(dp923
g54
(dp924
sg63
g909
sg56
(lp925
g49
(g50
g51
NtRp926
(dp927
g54
(dp928
g62
I4
ssg63
g922
sg56
(lp929
g92
asbasbasbag49
(g65
g51
NtRp930
(dp931
g54
(dp932
sg63
g792
sg56
(lp933
g49
(g70
g51
NtRp934
(dp935
g54
(dp936
g74
g75
ssg63
g930
sg56
(lp937
S'gluon_parent'
p938
asbag49
(g70
g51
NtRp939
(dp940
g54
(dp941
g81
g82
ssg63
g930
sg56
(lp942
S':'
asbag49
(g70
g51
NtRp943
(dp944
g54
(dp945
sg63
g930
sg56
(lp946
g49
(g50
g51
NtRp947
(dp948
g54
(dp949
g62
I4
ssg63
g943
sg56
(lp950
S'C:\\Users\\bhanu\\Downloads\\Compressed\\web2py'
p951
asbasbasbag49
(g65
g51
NtRp952
(dp953
g54
(dp954
sg63
g792
sg56
(lp955
g49
(g70
g51
NtRp956
(dp957
g54
(dp958
g74
g75
ssg63
g952
sg56
(lp959
S'http_accept'
p960
asbag49
(g70
g51
NtRp961
(dp962
g54
(dp963
g81
g82
ssg63
g952
sg56
(lp964
S':'
asbag49
(g70
g51
NtRp965
(dp966
g54
(dp967
sg63
g952
sg56
(lp968
g49
(g50
g51
NtRp969
(dp970
g54
(dp971
g62
I4
ssg63
g965
sg56
(lp972
S'text/html,application/xhtml+xml,application/xml;q=0.9,*/*;q=0.8'
p973
asbasbasbag49
(g65
g51
NtRp974
(dp975
g54
(dp976
sg63
g792
sg56
(lp977
g49
(g70
g51
NtRp978
(dp979
g54
(dp980
g74
g75
ssg63
g974
sg56
(lp981
S'http_accept_charset'
p982
asbag49
(g70
g51
NtRp983
(dp984
g54
(dp985
g81
g82
ssg63
g974
sg56
(lp986
S':'
asbag49
(g70
g51
NtRp987
(dp988
g54
(dp989
sg63
g974
sg56
(lp990
g49
(g50
g51
NtRp991
(dp992
g54
(dp993
g62
I4
ssg63
g987
sg56
(lp994
S'ISO-8859-1,utf-8;q=0.7,*;q=0.3'
p995
asbasbasbag49
(g65
g51
NtRp996
(dp997
g54
(dp998
sg63
g792
sg56
(lp999
g49
(g70
g51
NtRp1000
(dp1001
g54
(dp1002
g74
g75
ssg63
g996
sg56
(lp1003
S'http_accept_encoding'
p1004
asbag49
(g70
g51
NtRp1005
(dp1006
g54
(dp1007
g81
g82
ssg63
g996
sg56
(lp1008
S':'
asbag49
(g70
g51
NtRp1009
(dp1010
g54
(dp1011
sg63
g996
sg56
(lp1012
g49
(g50
g51
NtRp1013
(dp1014
g54
(dp1015
g62
I4
ssg63
g1009
sg56
(lp1016
S'gzip,deflate,sdch'
p1017
asbasbasbag49
(g65
g51
NtRp1018
(dp1019
g54
(dp1020
sg63
g792
sg56
(lp1021
g49
(g70
g51
NtRp1022
(dp1023
g54
(dp1024
g74
g75
ssg63
g1018
sg56
(lp1025
S'http_accept_language'
p1026
asbag49
(g70
g51
NtRp1027
(dp1028
g54
(dp1029
g81
g82
ssg63
g1018
sg56
(lp1030
S':'
asbag49
(g70
g51
NtRp1031
(dp1032
g54
(dp1033
sg63
g1018
sg56
(lp1034
g49
(g50
g51
NtRp1035
(dp1036
g54
(dp1037
g62
I4
ssg63
g1031
sg56
(lp1038
S'en-US,en;q=0.8'
p1039
asbasbasbag49
(g65
g51
NtRp1040
(dp1041
g54
(dp1042
sg63
g792
sg56
(lp1043
g49
(g70
g51
NtRp1044
(dp1045
g54
(dp1046
g74
g75
ssg63
g1040
sg56
(lp1047
S'http_connection'
p1048
asbag49
(g70
g51
NtRp1049
(dp1050
g54
(dp1051
g81
g82
ssg63
g1040
sg56
(lp1052
S':'
asbag49
(g70
g51
NtRp1053
(dp1054
g54
(dp1055
sg63
g1040
sg56
(lp1056
g49
(g50
g51
NtRp1057
(dp1058
g54
(dp1059
g62
I4
ssg63
g1053
sg56
(lp1060
S'keep-alive'
p1061
asbasbasbag49
(g65
g51
NtRp1062
(dp1063
g54
(dp1064
sg63
g792
sg56
(lp1065
g49
(g70
g51
NtRp1066
(dp1067
g54
(dp1068
g74
g75
ssg63
g1062
sg56
(lp1069
S'http_cookie'
p1070
asbag49
(g70
g51
NtRp1071
(dp1072
g54
(dp1073
g81
g82
ssg63
g1062
sg56
(lp1074
S':'
asbag49
(g70
g51
NtRp1075
(dp1076
g54
(dp1077
sg63
g1062
sg56
(lp1078
g49
(g50
g51
NtRp1079
(dp1080
g54
(dp1081
g62
I4
ssg63
g1075
sg56
(lp1082
S'session_id_welcome=127.0.0.1-1df2ecc6-4c5c-494a-9562-cf77277c4342; session_id_hostel=127.0.0.1-e8b6af14-2ac7-4c34-a1cc-46c40671e8ad; session_id_admin=127.0.0.1-556cf3fd-dfbd-48d6-b851-222be9fb1c6b'
p1083
asbasbasbag49
(g65
g51
NtRp1084
(dp1085
g54
(dp1086
sg63
g792
sg56
(lp1087
g49
(g70
g51
NtRp1088
(dp1089
g54
(dp1090
g74
g75
ssg63
g1084
sg56
(lp1091
S'http_host'
p1092
asbag49
(g70
g51
NtRp1093
(dp1094
g54
(dp1095
g81
g82
ssg63
g1084
sg56
(lp1096
S':'
asbag49
(g70
g51
NtRp1097
(dp1098
g54
(dp1099
sg63
g1084
sg56
(lp1100
g49
(g50
g51
NtRp1101
(dp1102
g54
(dp1103
g62
I4
ssg63
g1097
sg56
(lp1104
S'127.0.0.1:8000'
p1105
asbasbasbag49
(g65
g51
NtRp1106
(dp1107
g54
(dp1108
sg63
g792
sg56
(lp1109
g49
(g70
g51
NtRp1110
(dp1111
g54
(dp1112
g74
g75
ssg63
g1106
sg56
(lp1113
S'http_referer'
p1114
asbag49
(g70
g51
NtRp1115
(dp1116
g54
(dp1117
g81
g82
ssg63
g1106
sg56
(lp1118
S':'
asbag49
(g70
g51
NtRp1119
(dp1120
g54
(dp1121
sg63
g1106
sg56
(lp1122
g49
(g50
g51
NtRp1123
(dp1124
g54
(dp1125
g62
I4
ssg63
g1119
sg56
(lp1126
S'http://127.0.0.1:8000/hostel/default/poll'
p1127
asbasbasbag49
(g65
g51
NtRp1128
(dp1129
g54
(dp1130
sg63
g792
sg56
(lp1131
g49
(g70
g51
NtRp1132
(dp1133
g54
(dp1134
g74
g75
ssg63
g1128
sg56
(lp1135
S'http_user_agent'
p1136
asbag49
(g70
g51
NtRp1137
(dp1138
g54
(dp1139
g81
g82
ssg63
g1128
sg56
(lp1140
S':'
asbag49
(g70
g51
NtRp1141
(dp1142
g54
(dp1143
sg63
g1128
sg56
(lp1144
g49
(g50
g51
NtRp1145
(dp1146
g54
(dp1147
g62
I4
ssg63
g1141
sg56
(lp1148
S'Mozilla/5.0 (Windows NT 6.1; WOW64) AppleWebKit/537.4 (KHTML, like Gecko) Chrome/22.0.1229.94 Safari/537.4'
p1149
asbasbasbag49
(g65
g51
NtRp1150
(dp1151
g54
(dp1152
sg63
g792
sg56
(lp1153
g49
(g70
g51
NtRp1154
(dp1155
g54
(dp1156
g74
g75
ssg63
g1150
sg56
(lp1157
S'is_jython'
p1158
asbag49
(g70
g51
NtRp1159
(dp1160
g54
(dp1161
g81
g82
ssg63
g1150
sg56
(lp1162
S':'
asbag49
(g70
g51
NtRp1163
(dp1164
g54
(dp1165
sg63
g1150
sg56
(lp1166
g49
(g50
g51
NtRp1167
(dp1168
g54
(dp1169
g62
I4
ssg63
g1163
sg56
(lp1170
g92
asbasbasbag49
(g65
g51
NtRp1171
(dp1172
g54
(dp1173
sg63
g792
sg56
(lp1174
g49
(g70
g51
NtRp1175
(dp1176
g54
(dp1177
g74
g75
ssg63
g1171
sg56
(lp1178
S'is_pypy'
p1179
asbag49
(g70
g51
NtRp1180
(dp1181
g54
(dp1182
g81
g82
ssg63
g1171
sg56
(lp1183
S':'
asbag49
(g70
g51
NtRp1184
(dp1185
g54
(dp1186
sg63
g1171
sg56
(lp1187
g49
(g50
g51
NtRp1188
(dp1189
g54
(dp1190
g62
I4
ssg63
g1184
sg56
(lp1191
g92
asbasbasbag49
(g65
g51
NtRp1192
(dp1193
g54
(dp1194
sg63
g792
sg56
(lp1195
g49
(g70
g51
NtRp1196
(dp1197
g54
(dp1198
g74
g75
ssg63
g1192
sg56
(lp1199
S'path_info'
p1200
asbag49
(g70
g51
NtRp1201
(dp1202
g54
(dp1203
g81
g82
ssg63
g1192
sg56
(lp1204
S':'
asbag49
(g70
g51
NtRp1205
(dp1206
g54
(dp1207
sg63
g1192
sg56
(lp1208
g49
(g50
g51
NtRp1209
(dp1210
g54
(dp1211
g62
I4
ssg63
g1205
sg56
(lp1212
S'/hostel/default/sr/cccccccccdsccccccccccccdddddddddddddddssssssssss/jjjjjjjjjjjjjjjjjjjjjj/mkkkkkkkkkkkkkmmmmmmmmmmmm'
p1213
asbasbasbag49
(g65
g51
NtRp1214
(dp1215
g54
(dp1216
sg63
g792
sg56
(lp1217
g49
(g70
g51
NtRp1218
(dp1219
g54
(dp1220
g74
g75
ssg63
g1214
sg56
(lp1221
S'query_string'
p1222
asbag49
(g70
g51
NtRp1223
(dp1224
g54
(dp1225
g81
g82
ssg63
g1214
sg56
(lp1226
S':'
asbag49
(g70
g51
NtRp1227
(dp1228
g54
(dp1229
sg63
g1214
sg56
(lp1230
g49
(g50
g51
NtRp1231
(dp1232
g54
(dp1233
g62
I4
ssg63
g1227
sg56
(lp1234
S''
asbasbasbag49
(g65
g51
NtRp1235
(dp1236
g54
(dp1237
sg63
g792
sg56
(lp1238
g49
(g70
g51
NtRp1239
(dp1240
g54
(dp1241
g74
g75
ssg63
g1235
sg56
(lp1242
S'remote_addr'
p1243
asbag49
(g70
g51
NtRp1244
(dp1245
g54
(dp1246
g81
g82
ssg63
g1235
sg56
(lp1247
S':'
asbag49
(g70
g51
NtRp1248
(dp1249
g54
(dp1250
sg63
g1235
sg56
(lp1251
g49
(g50
g51
NtRp1252
(dp1253
g54
(dp1254
g62
I4
ssg63
g1248
sg56
(lp1255
g221
asbasbasbag49
(g65
g51
NtRp1256
(dp1257
g54
(dp1258
sg63
g792
sg56
(lp1259
g49
(g70
g51
NtRp1260
(dp1261
g54
(dp1262
g74
g75
ssg63
g1256
sg56
(lp1263
S'remote_port'
p1264
asbag49
(g70
g51
NtRp1265
(dp1266
g54
(dp1267
g81
g82
ssg63
g1256
sg56
(lp1268
S':'
asbag49
(g70
g51
NtRp1269
(dp1270
g54
(dp1271
sg63
g1256
sg56
(lp1272
g49
(g50
g51
NtRp1273
(dp1274
g54
(dp1275
g62
I4
ssg63
g1269
sg56
(lp1276
S'50162'
p1277
asbasbasbag49
(g65
g51
NtRp1278
(dp1279
g54
(dp1280
sg63
g792
sg56
(lp1281
g49
(g70
g51
NtRp1282
(dp1283
g54
(dp1284
g74
g75
ssg63
g1278
sg56
(lp1285
S'request_method'
p1286
asbag49
(g70
g51
NtRp1287
(dp1288
g54
(dp1289
g81
g82
ssg63
g1278
sg56
(lp1290
S':'
asbag49
(g70
g51
NtRp1291
(dp1292
g54
(dp1293
sg63
g1278
sg56
(lp1294
g49
(g50
g51
NtRp1295
(dp1296
g54
(dp1297
g62
I4
ssg63
g1291
sg56
(lp1298
S'GET'
p1299
asbasbasbag49
(g65
g51
NtRp1300
(dp1301
g54
(dp1302
sg63
g792
sg56
(lp1303
g49
(g70
g51
NtRp1304
(dp1305
g54
(dp1306
g74
g75
ssg63
g1300
sg56
(lp1307
S'script_name'
p1308
asbag49
(g70
g51
NtRp1309
(dp1310
g54
(dp1311
g81
g82
ssg63
g1300
sg56
(lp1312
S':'
asbag49
(g70
g51
NtRp1313
(dp1314
g54
(dp1315
sg63
g1300
sg56
(lp1316
g49
(g50
g51
NtRp1317
(dp1318
g54
(dp1319
g62
I4
ssg63
g1313
sg56
(lp1320
S''
asbasbasbag49
(g65
g51
NtRp1321
(dp1322
g54
(dp1323
sg63
g792
sg56
(lp1324
g49
(g70
g51
NtRp1325
(dp1326
g54
(dp1327
g74
g75
ssg63
g1321
sg56
(lp1328
S'server_name'
p1329
asbag49
(g70
g51
NtRp1330
(dp1331
g54
(dp1332
g81
g82
ssg63
g1321
sg56
(lp1333
S':'
asbag49
(g70
g51
NtRp1334
(dp1335
g54
(dp1336
sg63
g1321
sg56
(lp1337
g49
(g50
g51
NtRp1338
(dp1339
g54
(dp1340
g62
I4
ssg63
g1334
sg56
(lp1341
S'bhanu-PC'
p1342
asbasbasbag49
(g65
g51
NtRp1343
(dp1344
g54
(dp1345
sg63
g792
sg56
(lp1346
g49
(g70
g51
NtRp1347
(dp1348
g54
(dp1349
g74
g75
ssg63
g1343
sg56
(lp1350
S'server_port'
p1351
asbag49
(g70
g51
NtRp1352
(dp1353
g54
(dp1354
g81
g82
ssg63
g1343
sg56
(lp1355
S':'
asbag49
(g70
g51
NtRp1356
(dp1357
g54
(dp1358
sg63
g1343
sg56
(lp1359
g49
(g50
g51
NtRp1360
(dp1361
g54
(dp1362
g62
I4
ssg63
g1356
sg56
(lp1363
S'8000'
p1364
asbasbasbag49
(g65
g51
NtRp1365
(dp1366
g54
(dp1367
sg63
g792
sg56
(lp1368
g49
(g70
g51
NtRp1369
(dp1370
g54
(dp1371
g74
g75
ssg63
g1365
sg56
(lp1372
S'server_protocol'
p1373
asbag49
(g70
g51
NtRp1374
(dp1375
g54
(dp1376
g81
g82
ssg63
g1365
sg56
(lp1377
S':'
asbag49
(g70
g51
NtRp1378
(dp1379
g54
(dp1380
sg63
g1365
sg56
(lp1381
g49
(g50
g51
NtRp1382
(dp1383
g54
(dp1384
g62
I4
ssg63
g1378
sg56
(lp1385
S'HTTP/1.1'
p1386
asbasbasbag49
(g65
g51
NtRp1387
(dp1388
g54
(dp1389
sg63
g792
sg56
(lp1390
g49
(g70
g51
NtRp1391
(dp1392
g54
(dp1393
g74
g75
ssg63
g1387
sg56
(lp1394
S'server_software'
p1395
asbag49
(g70
g51
NtRp1396
(dp1397
g54
(dp1398
g81
g82
ssg63
g1387
sg56
(lp1399
S':'
asbag49
(g70
g51
NtRp1400
(dp1401
g54
(dp1402
sg63
g1387
sg56
(lp1403
g49
(g50
g51
NtRp1404
(dp1405
g54
(dp1406
g62
I4
ssg63
g1400
sg56
(lp1407
S'Rocket 1.2.4'
p1408
asbasbasbag49
(g65
g51
NtRp1409
(dp1410
g54
(dp1411
sg63
g792
sg56
(lp1412
g49
(g70
g51
NtRp1413
(dp1414
g54
(dp1415
g74
g75
ssg63
g1409
sg56
(lp1416
S'web2py_crontype'
p1417
asbag49
(g70
g51
NtRp1418
(dp1419
g54
(dp1420
g81
g82
ssg63
g1409
sg56
(lp1421
S':'
asbag49
(g70
g51
NtRp1422
(dp1423
g54
(dp1424
sg63
g1409
sg56
(lp1425
g49
(g50
g51
NtRp1426
(dp1427
g54
(dp1428
g62
I4
ssg63
g1422
sg56
(lp1429
S'hard'
p1430
asbasbasbag49
(g65
g51
NtRp1431
(dp1432
g54
(dp1433
sg63
g792
sg56
(lp1434
g49
(g70
g51
NtRp1435
(dp1436
g54
(dp1437
g74
g75
ssg63
g1431
sg56
(lp1438
S'web2py_path'
p1439
asbag49
(g70
g51
NtRp1440
(dp1441
g54
(dp1442
g81
g82
ssg63
g1431
sg56
(lp1443
S':'
asbag49
(g70
g51
NtRp1444
(dp1445
g54
(dp1446
sg63
g1431
sg56
(lp1447
g49
(g50
g51
NtRp1448
(dp1449
g54
(dp1450
g62
I4
ssg63
g1444
sg56
(lp1451
g839
asbasbasbag49
(g65
g51
NtRp1452
(dp1453
g54
(dp1454
sg63
g792
sg56
(lp1455
g49
(g70
g51
NtRp1456
(dp1457
g54
(dp1458
g74
g75
ssg63
g1452
sg56
(lp1459
S'web2py_version'
p1460
asbag49
(g70
g51
NtRp1461
(dp1462
g54
(dp1463
g81
g82
ssg63
g1452
sg56
(lp1464
S':'
asbag49
(g70
g51
NtRp1465
(dp1466
g54
(dp1467
sg63
g1452
sg56
(lp1468
g49
(g50
g51
NtRp1469
(dp1470
g54
(dp1471
g62
I4
ssg63
g1465
sg56
(lp1472
g49
(g58
g51
NtRp1473
(dp1474
g54
(dp1475
g62
I3
ssg63
Nsg56
(lp1476
g49
(g65
g51
NtRp1477
(dp1478
g54
(dp1479
sg63
g1473
sg56
(lp1480
g49
(g70
g51
NtRp1481
(dp1482
g54
(dp1483
sg63
g1477
sg56
(lp1484
g49
(g50
g51
NtRp1485
(dp1486
g54
(dp1487
g62
I3
ssg63
g1481
sg56
(lp1488
S'1'
asbasbasbag49
(g65
g51
NtRp1489
(dp1490
g54
(dp1491
sg63
g1473
sg56
(lp1492
g49
(g70
g51
NtRp1493
(dp1494
g54
(dp1495
sg63
g1489
sg56
(lp1496
g49
(g50
g51
NtRp1497
(dp1498
g54
(dp1499
g62
I3
ssg63
g1493
sg56
(lp1500
S'99'
p1501
asbasbasbag49
(g65
g51
NtRp1502
(dp1503
g54
(dp1504
sg63
g1473
sg56
(lp1505
g49
(g70
g51
NtRp1506
(dp1507
g54
(dp1508
sg63
g1502
sg56
(lp1509
g49
(g50
g51
NtRp1510
(dp1511
g54
(dp1512
g62
I3
ssg63
g1506
sg56
(lp1513
S'7'
asbasbasbag49
(g65
g51
NtRp1514
(dp1515
g54
(dp1516
sg63
g1473
sg56
(lp1517
g49
(g70
g51
NtRp1518
(dp1519
g54
(dp1520
sg63
g1514
sg56
(lp1521
g49
(g50
g51
NtRp1522
(dp1523
g54
(dp1524
g62
I3
ssg63
g1518
sg56
(lp1525
S'datetime.datetime(2012, 3, 4, 22, 12, 8)'
p1526
asbasbasbag49
(g65
g51
NtRp1527
(dp1528
g54
(dp1529
sg63
g1473
sg56
(lp1530
g49
(g70
g51
NtRp1531
(dp1532
g54
(dp1533
sg63
g1527
sg56
(lp1534
g49
(g50
g51
NtRp1535
(dp1536
g54
(dp1537
g62
I3
ssg63
g1531
sg56
(lp1538
S'stable'
p1539
asbasbasbasbasbasbasbag49
(g65
g51
NtRp1540
(dp1541
g54
(dp1542
sg63
g792
sg56
(lp1543
g49
(g70
g51
NtRp1544
(dp1545
g54
(dp1546
g74
g75
ssg63
g1540
sg56
(lp1547
S'wsgi_errors'
p1548
asbag49
(g70
g51
NtRp1549
(dp1550
g54
(dp1551
g81
g82
ssg63
g1540
sg56
(lp1552
S':'
asbag49
(g70
g51
NtRp1553
(dp1554
g54
(dp1555
sg63
g1540
sg56
(lp1556
g49
(g50
g51
NtRp1557
(dp1558
g54
(dp1559
g62
I4
ssg63
g1553
sg56
(lp1560
S"<open file '<stderr>', mode 'w' at 0x01E400B0>"
p1561
asbasbasbag49
(g65
g51
NtRp1562
(dp1563
g54
(dp1564
sg63
g792
sg56
(lp1565
g49
(g70
g51
NtRp1566
(dp1567
g54
(dp1568
g74
g75
ssg63
g1562
sg56
(lp1569
S'wsgi_file_wrapper'
p1570
asbag49
(g70
g51
NtRp1571
(dp1572
g54
(dp1573
g81
g82
ssg63
g1562
sg56
(lp1574
S':'
asbag49
(g70
g51
NtRp1575
(dp1576
g54
(dp1577
sg63
g1562
sg56
(lp1578
g49
(g50
g51
NtRp1579
(dp1580
g54
(dp1581
g62
I4
ssg63
g1575
sg56
(lp1582
S'<class wsgiref.util.FileWrapper at 0x02D26450>'
p1583
asbasbasbag49
(g65
g51
NtRp1584
(dp1585
g54
(dp1586
sg63
g792
sg56
(lp1587
g49
(g70
g51
NtRp1588
(dp1589
g54
(dp1590
g74
g75
ssg63
g1584
sg56
(lp1591
S'wsgi_input'
p1592
asbag49
(g70
g51
NtRp1593
(dp1594
g54
(dp1595
g81
g82
ssg63
g1584
sg56
(lp1596
S':'
asbag49
(g70
g51
NtRp1597
(dp1598
g54
(dp1599
sg63
g1584
sg56
(lp1600
g49
(g50
g51
NtRp1601
(dp1602
g54
(dp1603
g62
I4
ssg63
g1597
sg56
(lp1604
S'<socket._fileobject object at 0x07BA4930>'
p1605
asbasbasbag49
(g65
g51
NtRp1606
(dp1607
g54
(dp1608
sg63
g792
sg56
(lp1609
g49
(g70
g51
NtRp1610
(dp1611
g54
(dp1612
g74
g75
ssg63
g1606
sg56
(lp1613
S'wsgi_multiprocess'
p1614
asbag49
(g70
g51
NtRp1615
(dp1616
g54
(dp1617
g81
g82
ssg63
g1606
sg56
(lp1618
S':'
asbag49
(g70
g51
NtRp1619
(dp1620
g54
(dp1621
sg63
g1606
sg56
(lp1622
g49
(g50
g51
NtRp1623
(dp1624
g54
(dp1625
g62
I4
ssg63
g1619
sg56
(lp1626
g92
asbasbasbag49
(g65
g51
NtRp1627
(dp1628
g54
(dp1629
sg63
g792
sg56
(lp1630
g49
(g70
g51
NtRp1631
(dp1632
g54
(dp1633
g74
g75
ssg63
g1627
sg56
(lp1634
S'wsgi_multithread'
p1635
asbag49
(g70
g51
NtRp1636
(dp1637
g54
(dp1638
g81
g82
ssg63
g1627
sg56
(lp1639
S':'
asbag49
(g70
g51
NtRp1640
(dp1641
g54
(dp1642
sg63
g1627
sg56
(lp1643
g49
(g50
g51
NtRp1644
(dp1645
g54
(dp1646
g62
I4
ssg63
g1640
sg56
(lp1647
S'True'
p1648
asbasbasbag49
(g65
g51
NtRp1649
(dp1650
g54
(dp1651
sg63
g792
sg56
(lp1652
g49
(g70
g51
NtRp1653
(dp1654
g54
(dp1655
g74
g75
ssg63
g1649
sg56
(lp1656
S'wsgi_run_once'
p1657
asbag49
(g70
g51
NtRp1658
(dp1659
g54
(dp1660
g81
g82
ssg63
g1649
sg56
(lp1661
S':'
asbag49
(g70
g51
NtRp1662
(dp1663
g54
(dp1664
sg63
g1649
sg56
(lp1665
g49
(g50
g51
NtRp1666
(dp1667
g54
(dp1668
g62
I4
ssg63
g1662
sg56
(lp1669
g92
asbasbasbag49
(g65
g51
NtRp1670
(dp1671
g54
(dp1672
sg63
g792
sg56
(lp1673
g49
(g70
g51
NtRp1674
(dp1675
g54
(dp1676
g74
g75
ssg63
g1670
sg56
(lp1677
S'wsgi_url_scheme'
p1678
asbag49
(g70
g51
NtRp1679
(dp1680
g54
(dp1681
g81
g82
ssg63
g1670
sg56
(lp1682
S':'
asbag49
(g70
g51
NtRp1683
(dp1684
g54
(dp1685
sg63
g1670
sg56
(lp1686
g49
(g50
g51
NtRp1687
(dp1688
g54
(dp1689
g62
I4
ssg63
g1683
sg56
(lp1690
S'http'
p1691
asbasbasbag49
(g65
g51
NtRp1692
(dp1693
g54
(dp1694
sg63
g792
sg56
(lp1695
g49
(g70
g51
NtRp1696
(dp1697
g54
(dp1698
g74
g75
ssg63
g1692
sg56
(lp1699
S'wsgi_version'
p1700
asbag49
(g70
g51
NtRp1701
(dp1702
g54
(dp1703
g81
g82
ssg63
g1692
sg56
(lp1704
S':'
asbag49
(g70
g51
NtRp1705
(dp1706
g54
(dp1707
sg63
g1692
sg56
(lp1708
g49
(g50
g51
NtRp1709
(dp1710
g54
(dp1711
g62
I4
ssg63
g1705
sg56
(lp1712
g49
(g58
g51
NtRp1713
(dp1714
g54
(dp1715
g62
I3
ssg63
Nsg56
(lp1716
g49
(g65
g51
NtRp1717
(dp1718
g54
(dp1719
sg63
g1713
sg56
(lp1720
g49
(g70
g51
NtRp1721
(dp1722
g54
(dp1723
sg63
g1717
sg56
(lp1724
g49
(g50
g51
NtRp1725
(dp1726
g54
(dp1727
g62
I3
ssg63
g1721
sg56
(lp1728
S'1'
asbasbasbag49
(g65
g51
NtRp1729
(dp1730
g54
(dp1731
sg63
g1713
sg56
(lp1732
g49
(g70
g51
NtRp1733
(dp1734
g54
(dp1735
sg63
g1729
sg56
(lp1736
g49
(g50
g51
NtRp1737
(dp1738
g54
(dp1739
g62
I3
ssg63
g1733
sg56
(lp1740
S'0'
asbasbasbasbasbasbasbasbasbasbasbag49
(g65
g51
NtRp1741
(dp1742
g54
(dp1743
sg63
g59
sg56
(lp1744
g49
(g70
g51
NtRp1745
(dp1746
g54
(dp1747
g74
g75
ssg63
g1741
sg56
(lp1748
S'extension'
p1749
asbag49
(g70
g51
NtRp1750
(dp1751
g54
(dp1752
g81
g82
ssg63
g1741
sg56
(lp1753
S':'
asbag49
(g70
g51
NtRp1754
(dp1755
g54
(dp1756
sg63
g1741
sg56
(lp1757
g49
(g50
g51
NtRp1758
(dp1759
g54
(dp1760
g62
I5
ssg63
g1754
sg56
(lp1761
S'html'
p1762
asbasbasbag49
(g65
g51
NtRp1763
(dp1764
g54
(dp1765
sg63
g59
sg56
(lp1766
g49
(g70
g51
NtRp1767
(dp1768
g54
(dp1769
g74
g75
ssg63
g1763
sg56
(lp1770
S'folder'
p1771
asbag49
(g70
g51
NtRp1772
(dp1773
g54
(dp1774
g81
g82
ssg63
g1763
sg56
(lp1775
S':'
asbag49
(g70
g51
NtRp1776
(dp1777
g54
(dp1778
sg63
g1763
sg56
(lp1779
g49
(g50
g51
NtRp1780
(dp1781
g54
(dp1782
g62
I5
ssg63
g1776
sg56
(lp1783
S'C:\\Users\\bhanu\\Downloads\\Compressed\\web2py\\applications\\hostel\\'
p1784
asbasbasbag49
(g65
g51
NtRp1785
(dp1786
g54
(dp1787
sg63
g59
sg56
(lp1788
g49
(g70
g51
NtRp1789
(dp1790
g54
(dp1791
g74
g75
ssg63
g1785
sg56
(lp1792
S'function'
p1793
asbag49
(g70
g51
NtRp1794
(dp1795
g54
(dp1796
g81
g82
ssg63
g1785
sg56
(lp1797
S':'
asbag49
(g70
g51
NtRp1798
(dp1799
g54
(dp1800
sg63
g1785
sg56
(lp1801
g49
(g50
g51
NtRp1802
(dp1803
g54
(dp1804
g62
I5
ssg63
g1798
sg56
(lp1805
S'sr'
p1806
asbasbasbag49
(g65
g51
NtRp1807
(dp1808
g54
(dp1809
sg63
g59
sg56
(lp1810
g49
(g70
g51
NtRp1811
(dp1812
g54
(dp1813
g74
g75
ssg63
g1807
sg56
(lp1814
S'get_vars'
p1815
asbag49
(g70
g51
NtRp1816
(dp1817
g54
(dp1818
g81
g82
ssg63
g1807
sg56
(lp1819
S':'
asbag49
(g70
g51
NtRp1820
(dp1821
g54
(dp1822
sg63
g1807
sg56
(lp1823
g49
(g50
g51
NtRp1824
(dp1825
g54
(dp1826
g62
I5
ssg63
g1820
sg56
(lp1827
g49
(g58
g51
NtRp1828
(dp1829
g54
(dp1830
g62
I4
ssg63
Nsg56
(lp1831
sbasbasbasbag49
(g65
g51
NtRp1832
(dp1833
g54
(dp1834
sg63
g59
sg56
(lp1835
g49
(g70
g51
NtRp1836
(dp1837
g54
(dp1838
g74
g75
ssg63
g1832
sg56
(lp1839
S'global_settings'
p1840
asbag49
(g70
g51
NtRp1841
(dp1842
g54
(dp1843
g81
g82
ssg63
g1832
sg56
(lp1844
S':'
asbag49
(g70
g51
NtRp1845
(dp1846
g54
(dp1847
sg63
g1832
sg56
(lp1848
g49
(g50
g51
NtRp1849
(dp1850
g54
(dp1851
g62
I5
ssg63
g1845
sg56
(lp1852
g49
(g58
g51
NtRp1853
(dp1854
g54
(dp1855
g62
I4
ssg63
Nsg56
(lp1856
g49
(g65
g51
NtRp1857
(dp1858
g54
(dp1859
sg63
g1853
sg56
(lp1860
g49
(g70
g51
NtRp1861
(dp1862
g54
(dp1863
g74
g75
ssg63
g1857
sg56
(lp1864
g804
asbag49
(g70
g51
NtRp1865
(dp1866
g54
(dp1867
g81
g82
ssg63
g1857
sg56
(lp1868
S':'
asbag49
(g70
g51
NtRp1869
(dp1870
g54
(dp1871
sg63
g1857
sg56
(lp1872
g49
(g50
g51
NtRp1873
(dp1874
g54
(dp1875
g62
I4
ssg63
g1869
sg56
(lp1876
S"set(['C:\\\\Users\\\\bhanu\\\\Downloads\\\\Compressed\\\\web2py\\\\applications\\\\hostel\\\\', 'C:\\\\Users\\\\bhanu\\\\Downloads\\\\Compressed\\\\web2py\\\\applications\\\\admin\\\\', 'C:\\\\Users\\\\bhanu\\\\Downloads\\\\Compressed\\\\web2py\\\\applications\\\\welcome\\\\'])"
p1877
asbasbasbag49
(g65
g51
NtRp1878
(dp1879
g54
(dp1880
sg63
g1853
sg56
(lp1881
g49
(g70
g51
NtRp1882
(dp1883
g54
(dp1884
g74
g75
ssg63
g1878
sg56
(lp1885
g826
asbag49
(g70
g51
NtRp1886
(dp1887
g54
(dp1888
g81
g82
ssg63
g1878
sg56
(lp1889
S':'
asbag49
(g70
g51
NtRp1890
(dp1891
g54
(dp1892
sg63
g1878
sg56
(lp1893
g49
(g50
g51
NtRp1894
(dp1895
g54
(dp1896
g62
I4
ssg63
g1890
sg56
(lp1897
g839
asbasbasbag49
(g65
g51
NtRp1898
(dp1899
g54
(dp1900
sg63
g1853
sg56
(lp1901
g49
(g70
g51
NtRp1902
(dp1903
g54
(dp1904
g74
g75
ssg63
g1898
sg56
(lp1905
g848
asbag49
(g70
g51
NtRp1906
(dp1907
g54
(dp1908
g81
g82
ssg63
g1898
sg56
(lp1909
S':'
asbag49
(g70
g51
NtRp1910
(dp1911
g54
(dp1912
sg63
g1898
sg56
(lp1913
g49
(g50
g51
NtRp1914
(dp1915
g54
(dp1916
g62
I4
ssg63
g1910
sg56
(lp1917
g49
(g58
g51
NtRp1918
(dp1919
g54
(dp1920
g62
I3
ssg63
Nsg56
(lp1921
sbasbasbasbag49
(g65
g51
NtRp1922
(dp1923
g54
(dp1924
sg63
g1853
sg56
(lp1925
g49
(g70
g51
NtRp1926
(dp1927
g54
(dp1928
g74
g75
ssg63
g1922
sg56
(lp1929
g873
asbag49
(g70
g51
NtRp1930
(dp1931
g54
(dp1932
g81
g82
ssg63
g1922
sg56
(lp1933
S':'
asbag49
(g70
g51
NtRp1934
(dp1935
g54
(dp1936
sg63
g1922
sg56
(lp1937
g49
(g50
g51
NtRp1938
(dp1939
g54
(dp1940
g62
I4
ssg63
g1934
sg56
(lp1941
S"<Values at 0x2f81f58: {'verbose': False, 'ip': '127.0.0.1', 'shutdown_timeout': 5, 'taskbar': False, 'nocron': False, 'pid_filename': 'httpserver.pid', 'maxthreads': None, 'softcron': False, 'server_name': 'bhanu-PC', 'bpython': False, 'nogui': False, 'port': 8000, 'extcron': False, 'debuglevel': 30, 'test': None, 'folder': 'C:\\\\Users\\\\bhanu\\\\Downloads\\\\Compressed\\\\web2py', 'config': '', 'import_models': False, 'winservice': '', 'shell': None, 'run': '', 'log_filename': 'httpserver.log', 'args': [''], 'socket_timeout': 5, 'ssl_ca_certificate': None, 'scheduler': None, 'profiler_filename': None, 'ssl_private_key': '', 'password': '<ask>', 'request_queue_size': 5, 'ssl_certificate': '', 'cronjob': False, 'numthreads': None, 'quiet': False, 'interfaces': None, 'minthreads': None, 'timeout': 10, 'plain': False, 'nobanner': False}>"
p1942
asbasbasbag49
(g65
g51
NtRp1943
(dp1944
g54
(dp1945
sg63
g1853
sg56
(lp1946
g49
(g70
g51
NtRp1947
(dp1948
g54
(dp1949
g74
g75
ssg63
g1943
sg56
(lp1950
g895
asbag49
(g70
g51
NtRp1951
(dp1952
g54
(dp1953
g81
g82
ssg63
g1943
sg56
(lp1954
S':'
asbag49
(g70
g51
NtRp1955
(dp1956
g54
(dp1957
sg63
g1943
sg56
(lp1958
g49
(g50
g51
NtRp1959
(dp1960
g54
(dp1961
g62
I4
ssg63
g1955
sg56
(lp1962
S'set([])'
p1963
asbasbasbag49
(g65
g51
NtRp1964
(dp1965
g54
(dp1966
sg63
g1853
sg56
(lp1967
g49
(g70
g51
NtRp1968
(dp1969
g54
(dp1970
g74
g75
ssg63
g1964
sg56
(lp1971
g917
asbag49
(g70
g51
NtRp1972
(dp1973
g54
(dp1974
g81
g82
ssg63
g1964
sg56
(lp1975
S':'
asbag49
(g70
g51
NtRp1976
(dp1977
g54
(dp1978
sg63
g1964
sg56
(lp1979
g49
(g50
g51
NtRp1980
(dp1981
g54
(dp1982
g62
I4
ssg63
g1976
sg56
(lp1983
g92
asbasbasbag49
(g65
g51
NtRp1984
(dp1985
g54
(dp1986
sg63
g1853
sg56
(lp1987
g49
(g70
g51
NtRp1988
(dp1989
g54
(dp1990
g74
g75
ssg63
g1984
sg56
(lp1991
g938
asbag49
(g70
g51
NtRp1992
(dp1993
g54
(dp1994
g81
g82
ssg63
g1984
sg56
(lp1995
S':'
asbag49
(g70
g51
NtRp1996
(dp1997
g54
(dp1998
sg63
g1984
sg56
(lp1999
g49
(g50
g51
NtRp2000
(dp2001
g54
(dp2002
g62
I4
ssg63
g1996
sg56
(lp2003
g951
asbasbasbag49
(g65
g51
NtRp2004
(dp2005
g54
(dp2006
sg63
g1853
sg56
(lp2007
g49
(g70
g51
NtRp2008
(dp2009
g54
(dp2010
g74
g75
ssg63
g2004
sg56
(lp2011
g1158
asbag49
(g70
g51
NtRp2012
(dp2013
g54
(dp2014
g81
g82
ssg63
g2004
sg56
(lp2015
S':'
asbag49
(g70
g51
NtRp2016
(dp2017
g54
(dp2018
sg63
g2004
sg56
(lp2019
g49
(g50
g51
NtRp2020
(dp2021
g54
(dp2022
g62
I4
ssg63
g2016
sg56
(lp2023
g92
asbasbasbag49
(g65
g51
NtRp2024
(dp2025
g54
(dp2026
sg63
g1853
sg56
(lp2027
g49
(g70
g51
NtRp2028
(dp2029
g54
(dp2030
g74
g75
ssg63
g2024
sg56
(lp2031
g1179
asbag49
(g70
g51
NtRp2032
(dp2033
g54
(dp2034
g81
g82
ssg63
g2024
sg56
(lp2035
S':'
asbag49
(g70
g51
NtRp2036
(dp2037
g54
(dp2038
sg63
g2024
sg56
(lp2039
g49
(g50
g51
NtRp2040
(dp2041
g54
(dp2042
g62
I4
ssg63
g2036
sg56
(lp2043
g92
asbasbasbag49
(g65
g51
NtRp2044
(dp2045
g54
(dp2046
sg63
g1853
sg56
(lp2047
g49
(g70
g51
NtRp2048
(dp2049
g54
(dp2050
g74
g75
ssg63
g2044
sg56
(lp2051
g1417
asbag49
(g70
g51
NtRp2052
(dp2053
g54
(dp2054
g81
g82
ssg63
g2044
sg56
(lp2055
S':'
asbag49
(g70
g51
NtRp2056
(dp2057
g54
(dp2058
sg63
g2044
sg56
(lp2059
g49
(g50
g51
NtRp2060
(dp2061
g54
(dp2062
g62
I4
ssg63
g2056
sg56
(lp2063
g1430
asbasbasbag49
(g65
g51
NtRp2064
(dp2065
g54
(dp2066
sg63
g1853
sg56
(lp2067
g49
(g70
g51
NtRp2068
(dp2069
g54
(dp2070
g74
g75
ssg63
g2064
sg56
(lp2071
g1460
asbag49
(g70
g51
NtRp2072
(dp2073
g54
(dp2074
g81
g82
ssg63
g2064
sg56
(lp2075
S':'
asbag49
(g70
g51
NtRp2076
(dp2077
g54
(dp2078
sg63
g2064
sg56
(lp2079
g49
(g50
g51
NtRp2080
(dp2081
g54
(dp2082
g62
I4
ssg63
g2076
sg56
(lp2083
g49
(g58
g51
NtRp2084
(dp2085
g54
(dp2086
g62
I3
ssg63
Nsg56
(lp2087
g49
(g65
g51
NtRp2088
(dp2089
g54
(dp2090
sg63
g2084
sg56
(lp2091
g49
(g70
g51
NtRp2092
(dp2093
g54
(dp2094
sg63
g2088
sg56
(lp2095
g49
(g50
g51
NtRp2096
(dp2097
g54
(dp2098
g62
I3
ssg63
g2092
sg56
(lp2099
S'1'
asbasbasbag49
(g65
g51
NtRp2100
(dp2101
g54
(dp2102
sg63
g2084
sg56
(lp2103
g49
(g70
g51
NtRp2104
(dp2105
g54
(dp2106
sg63
g2100
sg56
(lp2107
g49
(g50
g51
NtRp2108
(dp2109
g54
(dp2110
g62
I3
ssg63
g2104
sg56
(lp2111
S'99'
p2112
asbasbasbag49
(g65
g51
NtRp2113
(dp2114
g54
(dp2115
sg63
g2084
sg56
(lp2116
g49
(g70
g51
NtRp2117
(dp2118
g54
(dp2119
sg63
g2113
sg56
(lp2120
g49
(g50
g51
NtRp2121
(dp2122
g54
(dp2123
g62
I3
ssg63
g2117
sg56
(lp2124
S'7'
asbasbasbag49
(g65
g51
NtRp2125
(dp2126
g54
(dp2127
sg63
g2084
sg56
(lp2128
g49
(g70
g51
NtRp2129
(dp2130
g54
(dp2131
sg63
g2125
sg56
(lp2132
g49
(g50
g51
NtRp2133
(dp2134
g54
(dp2135
g62
I3
ssg63
g2129
sg56
(lp2136
S'datetime.datetime(2012, 3, 4, 22, 12, 8)'
p2137
asbasbasbag49
(g65
g51
NtRp2138
(dp2139
g54
(dp2140
sg63
g2084
sg56
(lp2141
g49
(g70
g51
NtRp2142
(dp2143
g54
(dp2144
sg63
g2138
sg56
(lp2145
g49
(g50
g51
NtRp2146
(dp2147
g54
(dp2148
g62
I3
ssg63
g2142
sg56
(lp2149
g1539
asbasbasbasbasbasbasbasbasbasbasbag49
(g65
g51
NtRp2150
(dp2151
g54
(dp2152
sg63
g59
sg56
(lp2153
g49
(g70
g51
NtRp2154
(dp2155
g54
(dp2156
g74
g75
ssg63
g2150
sg56
(lp2157
S'is_https'
p2158
asbag49
(g70
g51
NtRp2159
(dp2160
g54
(dp2161
g81
g82
ssg63
g2150
sg56
(lp2162
S':'
asbag49
(g70
g51
NtRp2163
(dp2164
g54
(dp2165
sg63
g2150
sg56
(lp2166
g49
(g50
g51
NtRp2167
(dp2168
g54
(dp2169
g62
I5
ssg63
g2163
sg56
(lp2170
g92
asbasbasbag49
(g65
g51
NtRp2171
(dp2172
g54
(dp2173
sg63
g59
sg56
(lp2174
g49
(g70
g51
NtRp2175
(dp2176
g54
(dp2177
g74
g75
ssg63
g2171
sg56
(lp2178
S'is_local'
p2179
asbag49
(g70
g51
NtRp2180
(dp2181
g54
(dp2182
g81
g82
ssg63
g2171
sg56
(lp2183
S':'
asbag49
(g70
g51
NtRp2184
(dp2185
g54
(dp2186
sg63
g2171
sg56
(lp2187
g49
(g50
g51
NtRp2188
(dp2189
g54
(dp2190
g62
I5
ssg63
g2184
sg56
(lp2191
g1648
asbasbasbag49
(g65
g51
NtRp2192
(dp2193
g54
(dp2194
sg63
g59
sg56
(lp2195
g49
(g70
g51
NtRp2196
(dp2197
g54
(dp2198
g74
g75
ssg63
g2192
sg56
(lp2199
S'is_restful'
p2200
asbag49
(g70
g51
NtRp2201
(dp2202
g54
(dp2203
g81
g82
ssg63
g2192
sg56
(lp2204
S':'
asbag49
(g70
g51
NtRp2205
(dp2206
g54
(dp2207
sg63
g2192
sg56
(lp2208
g49
(g50
g51
NtRp2209
(dp2210
g54
(dp2211
g62
I5
ssg63
g2205
sg56
(lp2212
g92
asbasbasbag49
(g65
g51
NtRp2213
(dp2214
g54
(dp2215
sg63
g59
sg56
(lp2216
g49
(g70
g51
NtRp2217
(dp2218
g54
(dp2219
g74
g75
ssg63
g2213
sg56
(lp2220
S'now'
p2221
asbag49
(g70
g51
NtRp2222
(dp2223
g54
(dp2224
g81
g82
ssg63
g2213
sg56
(lp2225
S':'
asbag49
(g70
g51
NtRp2226
(dp2227
g54
(dp2228
sg63
g2213
sg56
(lp2229
g49
(g50
g51
NtRp2230
(dp2231
g54
(dp2232
g62
I5
ssg63
g2226
sg56
(lp2233
S'datetime.datetime(2012, 10, 16, 21, 36, 48, 643000)'
p2234
asbasbasbag49
(g65
g51
NtRp2235
(dp2236
g54
(dp2237
sg63
g59
sg56
(lp2238
g49
(g70
g51
NtRp2239
(dp2240
g54
(dp2241
g74
g75
ssg63
g2235
sg56
(lp2242
S'post_vars'
p2243
asbag49
(g70
g51
NtRp2244
(dp2245
g54
(dp2246
g81
g82
ssg63
g2235
sg56
(lp2247
S':'
asbag49
(g70
g51
NtRp2248
(dp2249
g54
(dp2250
sg63
g2235
sg56
(lp2251
g49
(g50
g51
NtRp2252
(dp2253
g54
(dp2254
g62
I5
ssg63
g2248
sg56
(lp2255
g49
(g58
g51
NtRp2256
(dp2257
g54
(dp2258
g62
I4
ssg63
Nsg56
(lp2259
sbasbasbasbag49
(g65
g51
NtRp2260
(dp2261
g54
(dp2262
sg63
g59
sg56
(lp2263
g49
(g70
g51
NtRp2264
(dp2265
g54
(dp2266
g74
g75
ssg63
g2260
sg56
(lp2267
S'raw_args'
p2268
asbag49
(g70
g51
NtRp2269
(dp2270
g54
(dp2271
g81
g82
ssg63
g2260
sg56
(lp2272
S':'
asbag49
(g70
g51
NtRp2273
(dp2274
g54
(dp2275
sg63
g2260
sg56
(lp2276
g49
(g50
g51
NtRp2277
(dp2278
g54
(dp2279
g62
I5
ssg63
g2273
sg56
(lp2280
S'cccccccccdsccccccccccccdddddddddddddddssssssssss/jjjjjjjjjjjjjjjjjjjjjj/mkkkkkkkkkkkkkmmmmmmmmmmmm'
p2281
asbasbasbag49
(g65
g51
NtRp2282
(dp2283
g54
(dp2284
sg63
g59
sg56
(lp2285
g49
(g70
g51
NtRp2286
(dp2287
g54
(dp2288
g74
g75
ssg63
g2282
sg56
(lp2289
S'url'
p2290
asbag49
(g70
g51
NtRp2291
(dp2292
g54
(dp2293
g81
g82
ssg63
g2282
sg56
(lp2294
S':'
asbag49
(g70
g51
NtRp2295
(dp2296
g54
(dp2297
sg63
g2282
sg56
(lp2298
g49
(g50
g51
NtRp2299
(dp2300
g54
(dp2301
g62
I5
ssg63
g2295
sg56
(lp2302
S'/hostel/default/sr/cccccccccdsccccccccccccdddddddddddddddssssssssss/jjjjjjjjjjjjjjjjjjjjjj/mkkkkkkkkkkkkkmmmmmmmmmmmm'
p2303
asbasbasbag49
(g65
g51
NtRp2304
(dp2305
g54
(dp2306
sg63
g59
sg56
(lp2307
g49
(g70
g51
NtRp2308
(dp2309
g54
(dp2310
g74
g75
ssg63
g2304
sg56
(lp2311
S'utcnow'
p2312
asbag49
(g70
g51
NtRp2313
(dp2314
g54
(dp2315
g81
g82
ssg63
g2304
sg56
(lp2316
S':'
asbag49
(g70
g51
NtRp2317
(dp2318
g54
(dp2319
sg63
g2304
sg56
(lp2320
g49
(g50
g51
NtRp2321
(dp2322
g54
(dp2323
g62
I5
ssg63
g2317
sg56
(lp2324
S'datetime.datetime(2012, 10, 16, 16, 6, 48, 643000)'
p2325
asbasbasbag49
(g65
g51
NtRp2326
(dp2327
g54
(dp2328
sg63
g59
sg56
(lp2329
g49
(g70
g51
NtRp2330
(dp2331
g54
(dp2332
g74
g75
ssg63
g2326
sg56
(lp2333
S'uuid'
p2334
asbag49
(g70
g51
NtRp2335
(dp2336
g54
(dp2337
g81
g82
ssg63
g2326
sg56
(lp2338
S':'
asbag49
(g70
g51
NtRp2339
(dp2340
g54
(dp2341
sg63
g2326
sg56
(lp2342
g49
(g50
g51
NtRp2343
(dp2344
g54
(dp2345
g62
I5
ssg63
g2339
sg56
(lp2346
S'hostel/127.0.0.1.2012-10-16.21-36-48.1fd6daaf-012a-44f3-9cce-ce3d3a8853c2'
p2347
asbasbasbag49
(g65
g51
NtRp2348
(dp2349
g54
(dp2350
sg63
g59
sg56
(lp2351
g49
(g70
g51
NtRp2352
(dp2353
g54
(dp2354
g74
g75
ssg63
g2348
sg56
(lp2355
S'vars'
p2356
asbag49
(g70
g51
NtRp2357
(dp2358
g54
(dp2359
g81
g82
ssg63
g2348
sg56
(lp2360
S':'
asbag49
(g70
g51
NtRp2361
(dp2362
g54
(dp2363
sg63
g2348
sg56
(lp2364
g49
(g50
g51
NtRp2365
(dp2366
g54
(dp2367
g62
I5
ssg63
g2361
sg56
(lp2368
g49
(g58
g51
NtRp2369
(dp2370
g54
(dp2371
g62
I4
ssg63
Nsg56
(lp2372
sbasbasbasbag49
(g65
g51
NtRp2373
(dp2374
g54
(dp2375
sg63
g59
sg56
(lp2376
g49
(g70
g51
NtRp2377
(dp2378
g54
(dp2379
g74
g75
ssg63
g2373
sg56
(lp2380
S'wsgi'
p2381
asbag49
(g70
g51
NtRp2382
(dp2383
g54
(dp2384
g81
g82
ssg63
g2373
sg56
(lp2385
S':'
asbag49
(g70
g51
NtRp2386
(dp2387
g54
(dp2388
sg63
g2373
sg56
(lp2389
g49
(g50
g51
NtRp2390
(dp2391
g54
(dp2392
g62
I5
ssg63
g2386
sg56
(lp2393
g49
(g58
g51
NtRp2394
(dp2395
g54
(dp2396
g62
I4
ssg63
Nsg56
(lp2397
g49
(g65
g51
NtRp2398
(dp2399
g54
(dp2400
sg63
g2394
sg56
(lp2401
g49
(g70
g51
NtRp2402
(dp2403
g54
(dp2404
g74
g75
ssg63
g2398
sg56
(lp2405
S'environ'
p2406
asbag49
(g70
g51
NtRp2407
(dp2408
g54
(dp2409
g81
g82
ssg63
g2398
sg56
(lp2410
S':'
asbag49
(g70
g51
NtRp2411
(dp2412
g54
(dp2413
sg63
g2398
sg56
(lp2414
g49
(g50
g51
NtRp2415
(dp2416
g54
(dp2417
g62
I4
ssg63
g2411
sg56
(lp2418
g49
(g58
g51
NtRp2419
(dp2420
g54
(dp2421
g62
I3
ssg63
Nsg56
(lp2422
g49
(g65
g51
NtRp2423
(dp2424
g54
(dp2425
sg63
g2419
sg56
(lp2426
g49
(g70
g51
NtRp2427
(dp2428
g54
(dp2429
g74
g75
ssg63
g2423
sg56
(lp2430
S'HTTP_ACCEPT'
p2431
asbag49
(g70
g51
NtRp2432
(dp2433
g54
(dp2434
g81
g82
ssg63
g2423
sg56
(lp2435
S':'
asbag49
(g70
g51
NtRp2436
(dp2437
g54
(dp2438
sg63
g2423
sg56
(lp2439
g49
(g50
g51
NtRp2440
(dp2441
g54
(dp2442
g62
I3
ssg63
g2436
sg56
(lp2443
g973
asbasbasbag49
(g65
g51
NtRp2444
(dp2445
g54
(dp2446
sg63
g2419
sg56
(lp2447
g49
(g70
g51
NtRp2448
(dp2449
g54
(dp2450
g74
g75
ssg63
g2444
sg56
(lp2451
S'HTTP_ACCEPT_CHARSET'
p2452
asbag49
(g70
g51
NtRp2453
(dp2454
g54
(dp2455
g81
g82
ssg63
g2444
sg56
(lp2456
S':'
asbag49
(g70
g51
NtRp2457
(dp2458
g54
(dp2459
sg63
g2444
sg56
(lp2460
g49
(g50
g51
NtRp2461
(dp2462
g54
(dp2463
g62
I3
ssg63
g2457
sg56
(lp2464
g995
asbasbasbag49
(g65
g51
NtRp2465
(dp2466
g54
(dp2467
sg63
g2419
sg56
(lp2468
g49
(g70
g51
NtRp2469
(dp2470
g54
(dp2471
g74
g75
ssg63
g2465
sg56
(lp2472
S'HTTP_ACCEPT_ENCODING'
p2473
asbag49
(g70
g51
NtRp2474
(dp2475
g54
(dp2476
g81
g82
ssg63
g2465
sg56
(lp2477
S':'
asbag49
(g70
g51
NtRp2478
(dp2479
g54
(dp2480
sg63
g2465
sg56
(lp2481
g49
(g50
g51
NtRp2482
(dp2483
g54
(dp2484
g62
I3
ssg63
g2478
sg56
(lp2485
g1017
asbasbasbag49
(g65
g51
NtRp2486
(dp2487
g54
(dp2488
sg63
g2419
sg56
(lp2489
g49
(g70
g51
NtRp2490
(dp2491
g54
(dp2492
g74
g75
ssg63
g2486
sg56
(lp2493
S'HTTP_ACCEPT_LANGUAGE'
p2494
asbag49
(g70
g51
NtRp2495
(dp2496
g54
(dp2497
g81
g82
ssg63
g2486
sg56
(lp2498
S':'
asbag49
(g70
g51
NtRp2499
(dp2500
g54
(dp2501
sg63
g2486
sg56
(lp2502
g49
(g50
g51
NtRp2503
(dp2504
g54
(dp2505
g62
I3
ssg63
g2499
sg56
(lp2506
g1039
asbasbasbag49
(g65
g51
NtRp2507
(dp2508
g54
(dp2509
sg63
g2419
sg56
(lp2510
g49
(g70
g51
NtRp2511
(dp2512
g54
(dp2513
g74
g75
ssg63
g2507
sg56
(lp2514
S'HTTP_CONNECTION'
p2515
asbag49
(g70
g51
NtRp2516
(dp2517
g54
(dp2518
g81
g82
ssg63
g2507
sg56
(lp2519
S':'
asbag49
(g70
g51
NtRp2520
(dp2521
g54
(dp2522
sg63
g2507
sg56
(lp2523
g49
(g50
g51
NtRp2524
(dp2525
g54
(dp2526
g62
I3
ssg63
g2520
sg56
(lp2527
g1061
asbasbasbag49
(g65
g51
NtRp2528
(dp2529
g54
(dp2530
sg63
g2419
sg56
(lp2531
g49
(g70
g51
NtRp2532
(dp2533
g54
(dp2534
g74
g75
ssg63
g2528
sg56
(lp2535
S'HTTP_COOKIE'
p2536
asbag49
(g70
g51
NtRp2537
(dp2538
g54
(dp2539
g81
g82
ssg63
g2528
sg56
(lp2540
S':'
asbag49
(g70
g51
NtRp2541
(dp2542
g54
(dp2543
sg63
g2528
sg56
(lp2544
g49
(g50
g51
NtRp2545
(dp2546
g54
(dp2547
g62
I3
ssg63
g2541
sg56
(lp2548
g1083
asbasbasbag49
(g65
g51
NtRp2549
(dp2550
g54
(dp2551
sg63
g2419
sg56
(lp2552
g49
(g70
g51
NtRp2553
(dp2554
g54
(dp2555
g74
g75
ssg63
g2549
sg56
(lp2556
S'HTTP_HOST'
p2557
asbag49
(g70
g51
NtRp2558
(dp2559
g54
(dp2560
g81
g82
ssg63
g2549
sg56
(lp2561
S':'
asbag49
(g70
g51
NtRp2562
(dp2563
g54
(dp2564
sg63
g2549
sg56
(lp2565
g49
(g50
g51
NtRp2566
(dp2567
g54
(dp2568
g62
I3
ssg63
g2562
sg56
(lp2569
g1105
asbasbasbag49
(g65
g51
NtRp2570
(dp2571
g54
(dp2572
sg63
g2419
sg56
(lp2573
g49
(g70
g51
NtRp2574
(dp2575
g54
(dp2576
g74
g75
ssg63
g2570
sg56
(lp2577
S'HTTP_REFERER'
p2578
asbag49
(g70
g51
NtRp2579
(dp2580
g54
(dp2581
g81
g82
ssg63
g2570
sg56
(lp2582
S':'
asbag49
(g70
g51
NtRp2583
(dp2584
g54
(dp2585
sg63
g2570
sg56
(lp2586
g49
(g50
g51
NtRp2587
(dp2588
g54
(dp2589
g62
I3
ssg63
g2583
sg56
(lp2590
g1127
asbasbasbag49
(g65
g51
NtRp2591
(dp2592
g54
(dp2593
sg63
g2419
sg56
(lp2594
g49
(g70
g51
NtRp2595
(dp2596
g54
(dp2597
g74
g75
ssg63
g2591
sg56
(lp2598
S'HTTP_USER_AGENT'
p2599
asbag49
(g70
g51
NtRp2600
(dp2601
g54
(dp2602
g81
g82
ssg63
g2591
sg56
(lp2603
S':'
asbag49
(g70
g51
NtRp2604
(dp2605
g54
(dp2606
sg63
g2591
sg56
(lp2607
g49
(g50
g51
NtRp2608
(dp2609
g54
(dp2610
g62
I3
ssg63
g2604
sg56
(lp2611
g1149
asbasbasbag49
(g65
g51
NtRp2612
(dp2613
g54
(dp2614
sg63
g2419
sg56
(lp2615
g49
(g70
g51
NtRp2616
(dp2617
g54
(dp2618
g74
g75
ssg63
g2612
sg56
(lp2619
S'PATH_INFO'
p2620
asbag49
(g70
g51
NtRp2621
(dp2622
g54
(dp2623
g81
g82
ssg63
g2612
sg56
(lp2624
S':'
asbag49
(g70
g51
NtRp2625
(dp2626
g54
(dp2627
sg63
g2612
sg56
(lp2628
g49
(g50
g51
NtRp2629
(dp2630
g54
(dp2631
g62
I3
ssg63
g2625
sg56
(lp2632
g1213
asbasbasbag49
(g65
g51
NtRp2633
(dp2634
g54
(dp2635
sg63
g2419
sg56
(lp2636
g49
(g70
g51
NtRp2637
(dp2638
g54
(dp2639
g74
g75
ssg63
g2633
sg56
(lp2640
S'QUERY_STRING'
p2641
asbag49
(g70
g51
NtRp2642
(dp2643
g54
(dp2644
g81
g82
ssg63
g2633
sg56
(lp2645
S':'
asbag49
(g70
g51
NtRp2646
(dp2647
g54
(dp2648
sg63
g2633
sg56
(lp2649
g49
(g50
g51
NtRp2650
(dp2651
g54
(dp2652
g62
I3
ssg63
g2646
sg56
(lp2653
S''
asbasbasbag49
(g65
g51
NtRp2654
(dp2655
g54
(dp2656
sg63
g2419
sg56
(lp2657
g49
(g70
g51
NtRp2658
(dp2659
g54
(dp2660
g74
g75
ssg63
g2654
sg56
(lp2661
S'REMOTE_ADDR'
p2662
asbag49
(g70
g51
NtRp2663
(dp2664
g54
(dp2665
g81
g82
ssg63
g2654
sg56
(lp2666
S':'
asbag49
(g70
g51
NtRp2667
(dp2668
g54
(dp2669
sg63
g2654
sg56
(lp2670
g49
(g50
g51
NtRp2671
(dp2672
g54
(dp2673
g62
I3
ssg63
g2667
sg56
(lp2674
g221
asbasbasbag49
(g65
g51
NtRp2675
(dp2676
g54
(dp2677
sg63
g2419
sg56
(lp2678
g49
(g70
g51
NtRp2679
(dp2680
g54
(dp2681
g74
g75
ssg63
g2675
sg56
(lp2682
S'REMOTE_PORT'
p2683
asbag49
(g70
g51
NtRp2684
(dp2685
g54
(dp2686
g81
g82
ssg63
g2675
sg56
(lp2687
S':'
asbag49
(g70
g51
NtRp2688
(dp2689
g54
(dp2690
sg63
g2675
sg56
(lp2691
g49
(g50
g51
NtRp2692
(dp2693
g54
(dp2694
g62
I3
ssg63
g2688
sg56
(lp2695
g1277
asbasbasbag49
(g65
g51
NtRp2696
(dp2697
g54
(dp2698
sg63
g2419
sg56
(lp2699
g49
(g70
g51
NtRp2700
(dp2701
g54
(dp2702
g74
g75
ssg63
g2696
sg56
(lp2703
S'REQUEST_METHOD'
p2704
asbag49
(g70
g51
NtRp2705
(dp2706
g54
(dp2707
g81
g82
ssg63
g2696
sg56
(lp2708
S':'
asbag49
(g70
g51
NtRp2709
(dp2710
g54
(dp2711
sg63
g2696
sg56
(lp2712
g49
(g50
g51
NtRp2713
(dp2714
g54
(dp2715
g62
I3
ssg63
g2709
sg56
(lp2716
g1299
asbasbasbag49
(g65
g51
NtRp2717
(dp2718
g54
(dp2719
sg63
g2419
sg56
(lp2720
g49
(g70
g51
NtRp2721
(dp2722
g54
(dp2723
g74
g75
ssg63
g2717
sg56
(lp2724
S'SCRIPT_NAME'
p2725
asbag49
(g70
g51
NtRp2726
(dp2727
g54
(dp2728
g81
g82
ssg63
g2717
sg56
(lp2729
S':'
asbag49
(g70
g51
NtRp2730
(dp2731
g54
(dp2732
sg63
g2717
sg56
(lp2733
g49
(g50
g51
NtRp2734
(dp2735
g54
(dp2736
g62
I3
ssg63
g2730
sg56
(lp2737
S''
asbasbasbag49
(g65
g51
NtRp2738
(dp2739
g54
(dp2740
sg63
g2419
sg56
(lp2741
g49
(g70
g51
NtRp2742
(dp2743
g54
(dp2744
g74
g75
ssg63
g2738
sg56
(lp2745
S'SERVER_NAME'
p2746
asbag49
(g70
g51
NtRp2747
(dp2748
g54
(dp2749
g81
g82
ssg63
g2738
sg56
(lp2750
S':'
asbag49
(g70
g51
NtRp2751
(dp2752
g54
(dp2753
sg63
g2738
sg56
(lp2754
g49
(g50
g51
NtRp2755
(dp2756
g54
(dp2757
g62
I3
ssg63
g2751
sg56
(lp2758
g1342
asbasbasbag49
(g65
g51
NtRp2759
(dp2760
g54
(dp2761
sg63
g2419
sg56
(lp2762
g49
(g70
g51
NtRp2763
(dp2764
g54
(dp2765
g74
g75
ssg63
g2759
sg56
(lp2766
S'SERVER_PORT'
p2767
asbag49
(g70
g51
NtRp2768
(dp2769
g54
(dp2770
g81
g82
ssg63
g2759
sg56
(lp2771
S':'
asbag49
(g70
g51
NtRp2772
(dp2773
g54
(dp2774
sg63
g2759
sg56
(lp2775
g49
(g50
g51
NtRp2776
(dp2777
g54
(dp2778
g62
I3
ssg63
g2772
sg56
(lp2779
g1364
asbasbasbag49
(g65
g51
NtRp2780
(dp2781
g54
(dp2782
sg63
g2419
sg56
(lp2783
g49
(g70
g51
NtRp2784
(dp2785
g54
(dp2786
g74
g75
ssg63
g2780
sg56
(lp2787
S'SERVER_PROTOCOL'
p2788
asbag49
(g70
g51
NtRp2789
(dp2790
g54
(dp2791
g81
g82
ssg63
g2780
sg56
(lp2792
S':'
asbag49
(g70
g51
NtRp2793
(dp2794
g54
(dp2795
sg63
g2780
sg56
(lp2796
g49
(g50
g51
NtRp2797
(dp2798
g54
(dp2799
g62
I3
ssg63
g2793
sg56
(lp2800
g1386
asbasbasbag49
(g65
g51
NtRp2801
(dp2802
g54
(dp2803
sg63
g2419
sg56
(lp2804
g49
(g70
g51
NtRp2805
(dp2806
g54
(dp2807
g74
g75
ssg63
g2801
sg56
(lp2808
S'SERVER_SOFTWARE'
p2809
asbag49
(g70
g51
NtRp2810
(dp2811
g54
(dp2812
g81
g82
ssg63
g2801
sg56
(lp2813
S':'
asbag49
(g70
g51
NtRp2814
(dp2815
g54
(dp2816
sg63
g2801
sg56
(lp2817
g49
(g50
g51
NtRp2818
(dp2819
g54
(dp2820
g62
I3
ssg63
g2814
sg56
(lp2821
g1408
asbasbasbag49
(g65
g51
NtRp2822
(dp2823
g54
(dp2824
sg63
g2419
sg56
(lp2825
g49
(g70
g51
NtRp2826
(dp2827
g54
(dp2828
g74
g75
ssg63
g2822
sg56
(lp2829
S'wsgi.errors'
p2830
asbag49
(g70
g51
NtRp2831
(dp2832
g54
(dp2833
g81
g82
ssg63
g2822
sg56
(lp2834
S':'
asbag49
(g70
g51
NtRp2835
(dp2836
g54
(dp2837
sg63
g2822
sg56
(lp2838
g49
(g50
g51
NtRp2839
(dp2840
g54
(dp2841
g62
I3
ssg63
g2835
sg56
(lp2842
S"<open file '<stderr>', mode 'w' at 0x01E400B0>"
p2843
asbasbasbag49
(g65
g51
NtRp2844
(dp2845
g54
(dp2846
sg63
g2419
sg56
(lp2847
g49
(g70
g51
NtRp2848
(dp2849
g54
(dp2850
g74
g75
ssg63
g2844
sg56
(lp2851
S'wsgi.file_wrapper'
p2852
asbag49
(g70
g51
NtRp2853
(dp2854
g54
(dp2855
g81
g82
ssg63
g2844
sg56
(lp2856
S':'
asbag49
(g70
g51
NtRp2857
(dp2858
g54
(dp2859
sg63
g2844
sg56
(lp2860
g49
(g50
g51
NtRp2861
(dp2862
g54
(dp2863
g62
I3
ssg63
g2857
sg56
(lp2864
S'<class wsgiref.util.FileWrapper at 0x02D26450>'
p2865
asbasbasbag49
(g65
g51
NtRp2866
(dp2867
g54
(dp2868
sg63
g2419
sg56
(lp2869
g49
(g70
g51
NtRp2870
(dp2871
g54
(dp2872
g74
g75
ssg63
g2866
sg56
(lp2873
S'wsgi.input'
p2874
asbag49
(g70
g51
NtRp2875
(dp2876
g54
(dp2877
g81
g82
ssg63
g2866
sg56
(lp2878
S':'
asbag49
(g70
g51
NtRp2879
(dp2880
g54
(dp2881
sg63
g2866
sg56
(lp2882
g49
(g50
g51
NtRp2883
(dp2884
g54
(dp2885
g62
I3
ssg63
g2879
sg56
(lp2886
S'<cStringIO.StringO object at 0x07B906C0>'
p2887
asbasbasbag49
(g65
g51
NtRp2888
(dp2889
g54
(dp2890
sg63
g2419
sg56
(lp2891
g49
(g70
g51
NtRp2892
(dp2893
g54
(dp2894
g74
g75
ssg63
g2888
sg56
(lp2895
S'wsgi.multiprocess'
p2896
asbag49
(g70
g51
NtRp2897
(dp2898
g54
(dp2899
g81
g82
ssg63
g2888
sg56
(lp2900
S':'
asbag49
(g70
g51
NtRp2901
(dp2902
g54
(dp2903
sg63
g2888
sg56
(lp2904
g49
(g50
g51
NtRp2905
(dp2906
g54
(dp2907
g62
I3
ssg63
g2901
sg56
(lp2908
g92
asbasbasbag49
(g65
g51
NtRp2909
(dp2910
g54
(dp2911
sg63
g2419
sg56
(lp2912
g49
(g70
g51
NtRp2913
(dp2914
g54
(dp2915
g74
g75
ssg63
g2909
sg56
(lp2916
S'wsgi.multithread'
p2917
asbag49
(g70
g51
NtRp2918
(dp2919
g54
(dp2920
g81
g82
ssg63
g2909
sg56
(lp2921
S':'
asbag49
(g70
g51
NtRp2922
(dp2923
g54
(dp2924
sg63
g2909
sg56
(lp2925
g49
(g50
g51
NtRp2926
(dp2927
g54
(dp2928
g62
I3
ssg63
g2922
sg56
(lp2929
g1648
asbasbasbag49
(g65
g51
NtRp2930
(dp2931
g54
(dp2932
sg63
g2419
sg56
(lp2933
g49
(g70
g51
NtRp2934
(dp2935
g54
(dp2936
g74
g75
ssg63
g2930
sg56
(lp2937
S'wsgi.run_once'
p2938
asbag49
(g70
g51
NtRp2939
(dp2940
g54
(dp2941
g81
g82
ssg63
g2930
sg56
(lp2942
S':'
asbag49
(g70
g51
NtRp2943
(dp2944
g54
(dp2945
sg63
g2930
sg56
(lp2946
g49
(g50
g51
NtRp2947
(dp2948
g54
(dp2949
g62
I3
ssg63
g2943
sg56
(lp2950
g92
asbasbasbag49
(g65
g51
NtRp2951
(dp2952
g54
(dp2953
sg63
g2419
sg56
(lp2954
g49
(g70
g51
NtRp2955
(dp2956
g54
(dp2957
g74
g75
ssg63
g2951
sg56
(lp2958
S'wsgi.url_scheme'
p2959
asbag49
(g70
g51
NtRp2960
(dp2961
g54
(dp2962
g81
g82
ssg63
g2951
sg56
(lp2963
S':'
asbag49
(g70
g51
NtRp2964
(dp2965
g54
(dp2966
sg63
g2951
sg56
(lp2967
g49
(g50
g51
NtRp2968
(dp2969
g54
(dp2970
g62
I3
ssg63
g2964
sg56
(lp2971
g1691
asbasbasbag49
(g65
g51
NtRp2972
(dp2973
g54
(dp2974
sg63
g2419
sg56
(lp2975
g49
(g70
g51
NtRp2976
(dp2977
g54
(dp2978
g74
g75
ssg63
g2972
sg56
(lp2979
S'wsgi.version'
p2980
asbag49
(g70
g51
NtRp2981
(dp2982
g54
(dp2983
g81
g82
ssg63
g2972
sg56
(lp2984
S':'
asbag49
(g70
g51
NtRp2985
(dp2986
g54
(dp2987
sg63
g2972
sg56
(lp2988
g49
(g50
g51
NtRp2989
(dp2990
g54
(dp2991
g62
I3
ssg63
g2985
sg56
(lp2992
S'1'
asbasbasbasbasbasbasbasbasbasbasbasbasbsS'frames'
p2993
(lp2994
(dp2995
S'file'
p2996
S'C:\\Users\\bhanu\\Downloads\\Compressed\\web2py\\gluon\\restricted.py'
p2997
sS'dump'
p2998
(dp2999
sS'lnum'
p3000
I205
sS'lines'
p3001
(dp3002
sS'call'
p3003
S"(code='# -*- coding: utf-8 -*-\\n### required - do no del...(prof=prof)\\n\\nresponse._vars=response._caller(sr)\\n', environment={'A': <class 'gluon.html.A'>, 'Auth': <class 'gluon.tools.Auth'>, 'B': <class 'gluon.html.B'>, 'BEAUTIFY': <class 'gluon.html.BEAUTIFY'>, 'BODY': <class 'gluon.html.BODY'>, 'BR': <class 'gluon.html.BR'>, 'BUTTON': <class 'gluon.html.BUTTON'>, 'CAT': <class 'gluon.html.CAT'>, 'CENTER': <class 'gluon.html.CENTER'>, 'CLEANUP': <class 'gluon.validators.CLEANUP'>, ...}, layer=r'C:\\Users\\bhanu\\Downloads\\Compressed\\web2py\\applications\\hostel\\controllers/default.py')"
p3004
sS'func'
p3005
S'restricted'
p3006
sa(dp3007
g2996
S'C:\\Users\\bhanu\\Downloads\\Compressed\\web2py\\applications\\hostel\\controllers\\default.py'
p3008
sg2998
(dp3009
sg3000
I224
sg3001
(dp3010
I213
S'    query=db.students.name.lower().startswith(name)'
p3011
sI214
S'    set=db(query)'
p3012
sI215
S'    result=set.select()'
p3013
sI216
S'    return dict(result=result)'
p3014
sI217
S''
sI218
S'def viewprofile():'
p3015
sI219
S'    query=(db.students.roll_no==request.args(0))'
p3016
sI220
S'    set=db(query)'
p3017
sI221
S'    prof=set.select()'
p3018
sI222
S'    return dict(prof=prof)'
p3019
ssg3003
S'()'
p3020
sg3005
S'<module>'
p3021
sa(dp3022
g2996
S'C:\\Users\\bhanu\\Downloads\\Compressed\\web2py\\gluon\\globals.py'
p3023
sg2998
(dp3024
sg3000
I173
sg3001
(dp3025
sg3003
S'(f=<function sr at 0x07B00430>)'
p3026
sg3005
S'<lambda>'
p3027
sa(dp3028
g2996
S'C:\\Users\\bhanu\\Downloads\\Compressed\\web2py\\gluon\\tools.py'
p3029
sg2998
(dp3030
sg3000
I2575
sg3001
(dp3031
sg3003
S'(*a=(), **b={})'
p3032
sg3005
S'f'
sa(dp3033
g2996
S'C:\\Users\\bhanu\\Downloads\\Compressed\\web2py\\applications\\hostel\\controllers\\default.py'
p3034
sg2998
(dp3035
sg3000
I31
sg3001
(dp3036
I32
S''
sI33
S'@auth.requires_login()'
p3037
sI34
S''
sI35
S'def index():'
p3038
sI26
S'        session.flash="New Poll Created"'
p3039
sI27
S'    else:'
p3040
sI28
S'        db(db.poll.id==pid).update(flag=0)'
p3041
sI29
S'        session.flash="Your request has been sent"'
p3042
sI30
S"    #redirect(URL(r=request,f='index'))"
p3043
sI31
S'    return dict(a=request.args(),l=l)'
p3044
ssg3003
S'()'
p3045
sg3005
S'sr'
p3046
sasS'pyver'
p3047
S'Python 2.5.4: C:\\Users\\bhanu\\Downloads\\Compressed\\web2py\\web2py.exe'
p3048
sS'session'
p3049
g49
(g50
g51
NtRp3050
(dp3051
g54
(dp3052
sg56
(lp3053
g49
(g58
g51
NtRp3054
(dp3055
g54
(dp3056
g62
I5
ssg63
Nsg56
(lp3057
g49
(g65
g51
NtRp3058
(dp3059
g54
(dp3060
sg63
g3054
sg56
(lp3061
g49
(g70
g51
NtRp3062
(dp3063
g54
(dp3064
g74
g75
ssg63
g3058
sg56
(lp3065
S'auth'
p3066
asbag49
(g70
g51
NtRp3067
(dp3068
g54
(dp3069
g81
g82
ssg63
g3058
sg56
(lp3070
S':'
asbag49
(g70
g51
NtRp3071
(dp3072
g54
(dp3073
sg63
g3058
sg56
(lp3074
g49
(g50
g51
NtRp3075
(dp3076
g54
(dp3077
g62
I5
ssg63
g3071
sg56
(lp3078
g49
(g58
g51
NtRp3079
(dp3080
g54
(dp3081
g62
I4
ssg63
Nsg56
(lp3082
g49
(g65
g51
NtRp3083
(dp3084
g54
(dp3085
sg63
g3079
sg56
(lp3086
g49
(g70
g51
NtRp3087
(dp3088
g54
(dp3089
g74
g75
ssg63
g3083
sg56
(lp3090
S'expiration'
p3091
asbag49
(g70
g51
NtRp3092
(dp3093
g54
(dp3094
g81
g82
ssg63
g3083
sg56
(lp3095
S':'
asbag49
(g70
g51
NtRp3096
(dp3097
g54
(dp3098
sg63
g3083
sg56
(lp3099
g49
(g50
g51
NtRp3100
(dp3101
g54
(dp3102
g62
I4
ssg63
g3096
sg56
(lp3103
S'3600'
p3104
asbasbasbag49
(g65
g51
NtRp3105
(dp3106
g54
(dp3107
sg63
g3079
sg56
(lp3108
g49
(g70
g51
NtRp3109
(dp3110
g54
(dp3111
g74
g75
ssg63
g3105
sg56
(lp3112
S'hmac_key'
p3113
asbag49
(g70
g51
NtRp3114
(dp3115
g54
(dp3116
g81
g82
ssg63
g3105
sg56
(lp3117
S':'
asbag49
(g70
g51
NtRp3118
(dp3119
g54
(dp3120
sg63
g3105
sg56
(lp3121
g49
(g50
g51
NtRp3122
(dp3123
g54
(dp3124
g62
I4
ssg63
g3118
sg56
(lp3125
S'6b200233-1274-463e-9798-fe62295601ea'
p3126
asbasbasbag49
(g65
g51
NtRp3127
(dp3128
g54
(dp3129
sg63
g3079
sg56
(lp3130
g49
(g70
g51
NtRp3131
(dp3132
g54
(dp3133
g74
g75
ssg63
g3127
sg56
(lp3134
S'last_visit'
p3135
asbag49
(g70
g51
NtRp3136
(dp3137
g54
(dp3138
g81
g82
ssg63
g3127
sg56
(lp3139
S':'
asbag49
(g70
g51
NtRp3140
(dp3141
g54
(dp3142
sg63
g3127
sg56
(lp3143
g49
(g50
g51
NtRp3144
(dp3145
g54
(dp3146
g62
I4
ssg63
g3140
sg56
(lp3147
S'datetime.datetime(2012, 10, 16, 21, 33, 33, 608000)'
p3148
asbasbasbag49
(g65
g51
NtRp3149
(dp3150
g54
(dp3151
sg63
g3079
sg56
(lp3152
g49
(g70
g51
NtRp3153
(dp3154
g54
(dp3155
g74
g75
ssg63
g3149
sg56
(lp3156
S'remember'
p3157
asbag49
(g70
g51
NtRp3158
(dp3159
g54
(dp3160
g81
g82
ssg63
g3149
sg56
(lp3161
S':'
asbag49
(g70
g51
NtRp3162
(dp3163
g54
(dp3164
sg63
g3149
sg56
(lp3165
g49
(g50
g51
NtRp3166
(dp3167
g54
(dp3168
g62
I4
ssg63
g3162
sg56
(lp3169
g92
asbasbasbag49
(g65
g51
NtRp3170
(dp3171
g54
(dp3172
sg63
g3079
sg56
(lp3173
g49
(g70
g51
NtRp3174
(dp3175
g54
(dp3176
g74
g75
ssg63
g3170
sg56
(lp3177
S'user'
p3178
asbag49
(g70
g51
NtRp3179
(dp3180
g54
(dp3181
g81
g82
ssg63
g3170
sg56
(lp3182
S':'
asbag49
(g70
g51
NtRp3183
(dp3184
g54
(dp3185
sg63
g3170
sg56
(lp3186
g49
(g50
g51
NtRp3187
(dp3188
g54
(dp3189
g62
I4
ssg63
g3183
sg56
(lp3190
g49
(g58
g51
NtRp3191
(dp3192
g54
(dp3193
g62
I3
ssg63
Nsg56
(lp3194
g49
(g65
g51
NtRp3195
(dp3196
g54
(dp3197
sg63
g3191
sg56
(lp3198
g49
(g70
g51
NtRp3199
(dp3200
g54
(dp3201
g74
g75
ssg63
g3195
sg56
(lp3202
S'created_on'
p3203
asbag49
(g70
g51
NtRp3204
(dp3205
g54
(dp3206
g81
g82
ssg63
g3195
sg56
(lp3207
S':'
asbag49
(g70
g51
NtRp3208
(dp3209
g54
(dp3210
sg63
g3195
sg56
(lp3211
g49
(g50
g51
NtRp3212
(dp3213
g54
(dp3214
g62
I3
ssg63
g3208
sg56
(lp3215
S'datetime.datetime(2012, 10, 14, 19, 25, 49)'
p3216
asbasbasbag49
(g65
g51
NtRp3217
(dp3218
g54
(dp3219
sg63
g3191
sg56
(lp3220
g49
(g70
g51
NtRp3221
(dp3222
g54
(dp3223
g74
g75
ssg63
g3217
sg56
(lp3224
S'email'
p3225
asbag49
(g70
g51
NtRp3226
(dp3227
g54
(dp3228
g81
g82
ssg63
g3217
sg56
(lp3229
S':'
asbag49
(g70
g51
NtRp3230
(dp3231
g54
(dp3232
sg63
g3217
sg56
(lp3233
g49
(g50
g51
NtRp3234
(dp3235
g54
(dp3236
g62
I3
ssg63
g3230
sg56
(lp3237
S'puser@s.com'
p3238
asbasbasbag49
(g65
g51
NtRp3239
(dp3240
g54
(dp3241
sg63
g3191
sg56
(lp3242
g49
(g70
g51
NtRp3243
(dp3244
g54
(dp3245
g74
g75
ssg63
g3239
sg56
(lp3246
S'first_name'
p3247
asbag49
(g70
g51
NtRp3248
(dp3249
g54
(dp3250
g81
g82
ssg63
g3239
sg56
(lp3251
S':'
asbag49
(g70
g51
NtRp3252
(dp3253
g54
(dp3254
sg63
g3239
sg56
(lp3255
g49
(g50
g51
NtRp3256
(dp3257
g54
(dp3258
g62
I3
ssg63
g3252
sg56
(lp3259
S'p'
asbasbasbag49
(g65
g51
NtRp3260
(dp3261
g54
(dp3262
sg63
g3191
sg56
(lp3263
g49
(g70
g51
NtRp3264
(dp3265
g54
(dp3266
g74
g75
ssg63
g3260
sg56
(lp3267
S'id'
p3268
asbag49
(g70
g51
NtRp3269
(dp3270
g54
(dp3271
g81
g82
ssg63
g3260
sg56
(lp3272
S':'
asbag49
(g70
g51
NtRp3273
(dp3274
g54
(dp3275
sg63
g3260
sg56
(lp3276
g49
(g50
g51
NtRp3277
(dp3278
g54
(dp3279
g62
I3
ssg63
g3273
sg56
(lp3280
S'16'
p3281
asbasbasbag49
(g65
g51
NtRp3282
(dp3283
g54
(dp3284
sg63
g3191
sg56
(lp3285
g49
(g70
g51
NtRp3286
(dp3287
g54
(dp3288
g74
g75
ssg63
g3282
sg56
(lp3289
S'last_name'
p3290
asbag49
(g70
g51
NtRp3291
(dp3292
g54
(dp3293
g81
g82
ssg63
g3282
sg56
(lp3294
S':'
asbag49
(g70
g51
NtRp3295
(dp3296
g54
(dp3297
sg63
g3282
sg56
(lp3298
g49
(g50
g51
NtRp3299
(dp3300
g54
(dp3301
g62
I3
ssg63
g3295
sg56
(lp3302
S'user'
p3303
asbasbasbag49
(g65
g51
NtRp3304
(dp3305
g54
(dp3306
sg63
g3191
sg56
(lp3307
g49
(g70
g51
NtRp3308
(dp3309
g54
(dp3310
g74
g75
ssg63
g3304
sg56
(lp3311
S'modified_on'
p3312
asbag49
(g70
g51
NtRp3313
(dp3314
g54
(dp3315
g81
g82
ssg63
g3304
sg56
(lp3316
S':'
asbag49
(g70
g51
NtRp3317
(dp3318
g54
(dp3319
sg63
g3304
sg56
(lp3320
g49
(g50
g51
NtRp3321
(dp3322
g54
(dp3323
g62
I3
ssg63
g3317
sg56
(lp3324
S'datetime.datetime(2012, 10, 14, 19, 25, 49)'
p3325
asbasbasbag49
(g65
g51
NtRp3326
(dp3327
g54
(dp3328
sg63
g3191
sg56
(lp3329
g49
(g70
g51
NtRp3330
(dp3331
g54
(dp3332
g74
g75
ssg63
g3326
sg56
(lp3333
S'password'
p3334
asbag49
(g70
g51
NtRp3335
(dp3336
g54
(dp3337
g81
g82
ssg63
g3326
sg56
(lp3338
S':'
asbag49
(g70
g51
NtRp3339
(dp3340
g54
(dp3341
sg63
g3326
sg56
(lp3342
g49
(g50
g51
NtRp3343
(dp3344
g54
(dp3345
g62
I3
ssg63
g3339
sg56
(lp3346
S'5f677a0dbfa92fe4954cb89c91fa39ce'
p3347
asbasbasbag49
(g65
g51
NtRp3348
(dp3349
g54
(dp3350
sg63
g3191
sg56
(lp3351
g49
(g70
g51
NtRp3352
(dp3353
g54
(dp3354
g74
g75
ssg63
g3348
sg56
(lp3355
S'registration_id'
p3356
asbag49
(g70
g51
NtRp3357
(dp3358
g54
(dp3359
g81
g82
ssg63
g3348
sg56
(lp3360
S':'
asbag49
(g70
g51
NtRp3361
(dp3362
g54
(dp3363
sg63
g3348
sg56
(lp3364
g49
(g50
g51
NtRp3365
(dp3366
g54
(dp3367
g62
I3
ssg63
g3361
sg56
(lp3368
S''
asbasbasbag49
(g65
g51
NtRp3369
(dp3370
g54
(dp3371
sg63
g3191
sg56
(lp3372
g49
(g70
g51
NtRp3373
(dp3374
g54
(dp3375
g74
g75
ssg63
g3369
sg56
(lp3376
S'registration_key'
p3377
asbag49
(g70
g51
NtRp3378
(dp3379
g54
(dp3380
g81
g82
ssg63
g3369
sg56
(lp3381
S':'
asbag49
(g70
g51
NtRp3382
(dp3383
g54
(dp3384
sg63
g3369
sg56
(lp3385
g49
(g50
g51
NtRp3386
(dp3387
g54
(dp3388
g62
I3
ssg63
g3382
sg56
(lp3389
S''
asbasbasbag49
(g65
g51
NtRp3390
(dp3391
g54
(dp3392
sg63
g3191
sg56
(lp3393
g49
(g70
g51
NtRp3394
(dp3395
g54
(dp3396
g74
g75
ssg63
g3390
sg56
(lp3397
S'reset_password_key'
p3398
asbag49
(g70
g51
NtRp3399
(dp3400
g54
(dp3401
g81
g82
ssg63
g3390
sg56
(lp3402
S':'
asbag49
(g70
g51
NtRp3403
(dp3404
g54
(dp3405
sg63
g3390
sg56
(lp3406
g49
(g50
g51
NtRp3407
(dp3408
g54
(dp3409
g62
I3
ssg63
g3403
sg56
(lp3410
S''
asbasbasbag49
(g65
g51
NtRp3411
(dp3412
g54
(dp3413
sg63
g3191
sg56
(lp3414
g49
(g70
g51
NtRp3415
(dp3416
g54
(dp3417
g74
g75
ssg63
g3411
sg56
(lp3418
S'username'
p3419
asbag49
(g70
g51
NtRp3420
(dp3421
g54
(dp3422
g81
g82
ssg63
g3411
sg56
(lp3423
S':'
asbag49
(g70
g51
NtRp3424
(dp3425
g54
(dp3426
sg63
g3411
sg56
(lp3427
g49
(g50
g51
NtRp3428
(dp3429
g54
(dp3430
g62
I3
ssg63
g3424
sg56
(lp3431
S'Puser'
p3432
asbasbasbasbasbasbasbag49
(g65
g51
NtRp3433
(dp3434
g54
(dp3435
sg63
g3079
sg56
(lp3436
g49
(g70
g51
NtRp3437
(dp3438
g54
(dp3439
g74
g75
ssg63
g3433
sg56
(lp3440
S'user_groups'
p3441
asbag49
(g70
g51
NtRp3442
(dp3443
g54
(dp3444
g81
g82
ssg63
g3433
sg56
(lp3445
S':'
asbag49
(g70
g51
NtRp3446
(dp3447
g54
(dp3448
sg63
g3433
sg56
(lp3449
g49
(g50
g51
NtRp3450
(dp3451
g54
(dp3452
g62
I4
ssg63
g3446
sg56
(lp3453
g49
(g58
g51
NtRp3454
(dp3455
g54
(dp3456
g62
I3
ssg63
Nsg56
(lp3457
g49
(g65
g51
NtRp3458
(dp3459
g54
(dp3460
sg63
g3454
sg56
(lp3461
g49
(g70
g51
NtRp3462
(dp3463
g54
(dp3464
g74
g75
ssg63
g3458
sg56
(lp3465
S'7'
asbag49
(g70
g51
NtRp3466
(dp3467
g54
(dp3468
g81
g82
ssg63
g3458
sg56
(lp3469
S':'
asbag49
(g70
g51
NtRp3470
(dp3471
g54
(dp3472
sg63
g3458
sg56
(lp3473
g49
(g50
g51
NtRp3474
(dp3475
g54
(dp3476
g62
I3
ssg63
g3470
sg56
(lp3477
S'Puser'
p3478
asbasbasbasbasbasbasbasbasbasbasbag49
(g65
g51
NtRp3479
(dp3480
g54
(dp3481
sg63
g3054
sg56
(lp3482
g49
(g70
g51
NtRp3483
(dp3484
g54
(dp3485
g74
g75
ssg63
g3479
sg56
(lp3486
S'flash'
p3487
asbag49
(g70
g51
NtRp3488
(dp3489
g54
(dp3490
g81
g82
ssg63
g3479
sg56
(lp3491
S':'
asbag49
(g70
g51
NtRp3492
(dp3493
g54
(dp3494
sg63
g3479
sg56
(lp3495
g49
(g50
g51
NtRp3496
(dp3497
g54
(dp3498
g62
I5
ssg63
g3492
sg56
(lp3499
S'New Poll Created'
p3500
asbasbasbag49
(g65
g51
NtRp3501
(dp3502
g54
(dp3503
sg63
g3054
sg56
(lp3504
g49
(g70
g51
NtRp3505
(dp3506
g54
(dp3507
g74
g75
ssg63
g3501
sg56
(lp3508
S'last_query'
p3509
asbag49
(g70
g51
NtRp3510
(dp3511
g54
(dp3512
g81
g82
ssg63
g3501
sg56
(lp3513
S':'
asbag49
(g70
g51
NtRp3514
(dp3515
g54
(dp3516
sg63
g3501
sg56
(lp3517
g49
(g50
g51
NtRp3518
(dp3519
g54
(dp3520
g62
I5
ssg63
g3514
sg56
(lp3521
S'db.options.id>0'
p3522
asbasbasbasbasbsS'etype'
p3523
S"<type 'exceptions.TypeError'>"
p3524
sS'date'
p3525
S'Tue Oct 16 21:36:48 2012'
p3526
sS'response'
p3527
g49
(g50
g51
NtRp3528
(dp3529
g54
(dp3530
sg56
(lp3531
g49
(g58
g51
NtRp3532
(dp3533
g54
(dp3534
g62
I5
ssg63
Nsg56
(lp3535
g49
(g65
g51
NtRp3536
(dp3537
g54
(dp3538
sg63
g3532
sg56
(lp3539
g49
(g70
g51
NtRp3540
(dp3541
g54
(dp3542
g74
g75
ssg63
g3536
sg56
(lp3543
g186
asbag49
(g70
g51
NtRp3544
(dp3545
g54
(dp3546
g81
g82
ssg63
g3536
sg56
(lp3547
S':'
asbag49
(g70
g51
NtRp3548
(dp3549
g54
(dp3550
sg63
g3536
sg56
(lp3551
g49
(g50
g51
NtRp3552
(dp3553
g54
(dp3554
g62
I5
ssg63
g3548
sg56
(lp3555
S'<cStringIO.StringO object at 0x07B908C0>'
p3556
asbasbasbag49
(g65
g51
NtRp3557
(dp3558
g54
(dp3559
sg63
g3532
sg56
(lp3560
g49
(g70
g51
NtRp3561
(dp3562
g54
(dp3563
g74
g75
ssg63
g3557
sg56
(lp3564
S'complaint'
p3565
asbag49
(g70
g51
NtRp3566
(dp3567
g54
(dp3568
g81
g82
ssg63
g3557
sg56
(lp3569
S':'
asbag49
(g70
g51
NtRp3570
(dp3571
g54
(dp3572
sg63
g3557
sg56
(lp3573
g49
(g50
g51
NtRp3574
(dp3575
g54
(dp3576
g62
I5
ssg63
g3570
sg56
(lp3577
g49
(g58
g51
NtRp3578
(dp3579
g54
(dp3580
g62
I4
ssg63
Nsg56
(lp3581
g49
(g65
g51
NtRp3582
(dp3583
g54
(dp3584
sg63
g3578
sg56
(lp3585
g49
(g70
g51
NtRp3586
(dp3587
g54
(dp3588
sg63
g3582
sg56
(lp3589
g49
(g50
g51
NtRp3590
(dp3591
g54
(dp3592
g62
I4
ssg63
g3586
sg56
(lp3593
g49
(g58
g51
NtRp3594
(dp3595
g54
(dp3596
g62
I3
ssg63
Nsg56
(lp3597
g49
(g65
g51
NtRp3598
(dp3599
g54
(dp3600
sg63
g3594
sg56
(lp3601
g49
(g70
g51
NtRp3602
(dp3603
g54
(dp3604
sg63
g3598
sg56
(lp3605
g49
(g50
g51
NtRp3606
(dp3607
g54
(dp3608
g62
I3
ssg63
g3602
sg56
(lp3609
cgluon.languages
lazyT_unpickle
p3610
(S's\t\x00\x00\x00COMPLAINT'
tRp3611
asbasbasbag49
(g65
g51
NtRp3612
(dp3613
g54
(dp3614
sg63
g3594
sg56
(lp3615
g49
(g70
g51
NtRp3616
(dp3617
g54
(dp3618
sg63
g3612
sg56
(lp3619
g49
(g50
g51
NtRp3620
(dp3621
g54
(dp3622
g62
I3
ssg63
g3616
sg56
(lp3623
g92
asbasbasbag49
(g65
g51
NtRp3624
(dp3625
g54
(dp3626
sg63
g3594
sg56
(lp3627
g49
(g70
g51
NtRp3628
(dp3629
g54
(dp3630
sg63
g3624
sg56
(lp3631
g49
(g50
g51
NtRp3632
(dp3633
g54
(dp3634
g62
I3
ssg63
g3628
sg56
(lp3635
S'/hostel/default/complaint'
p3636
asbasbasbag49
(g65
g51
NtRp3637
(dp3638
g54
(dp3639
sg63
g3594
sg56
(lp3640
g49
(g70
g51
NtRp3641
(dp3642
g54
(dp3643
sg63
g3637
sg56
(lp3644
g49
(g50
g51
NtRp3645
(dp3646
g54
(dp3647
g62
I3
ssg63
g3641
sg56
(lp3648
g49
(g58
g51
NtRp3649
(dp3650
g54
(dp3651
g62
I2
ssg63
Nsg56
(lp3652
sbasbasbasbasbasbasbasbasbasbasbasbag49
(g65
g51
NtRp3653
(dp3654
g54
(dp3655
sg63
g3532
sg56
(lp3656
g49
(g70
g51
NtRp3657
(dp3658
g54
(dp3659
g74
g75
ssg63
g3653
sg56
(lp3660
g252
asbag49
(g70
g51
NtRp3661
(dp3662
g54
(dp3663
g81
g82
ssg63
g3653
sg56
(lp3664
S':'
asbag49
(g70
g51
NtRp3665
(dp3666
g54
(dp3667
sg63
g3653
sg56
(lp3668
g49
(g50
g51
NtRp3669
(dp3670
g54
(dp3671
g62
I5
ssg63
g3665
sg56
(lp3672
g49
(g58
g51
NtRp3673
(dp3674
g54
(dp3675
g62
I4
ssg63
Nsg56
(lp3676
g49
(g65
g51
NtRp3677
(dp3678
g54
(dp3679
sg63
g3673
sg56
(lp3680
g49
(g70
g51
NtRp3681
(dp3682
g54
(dp3683
g74
g75
ssg63
g3677
sg56
(lp3684
S'session_id_hostel'
p3685
asbag49
(g70
g51
NtRp3686
(dp3687
g54
(dp3688
g81
g82
ssg63
g3677
sg56
(lp3689
S':'
asbag49
(g70
g51
NtRp3690
(dp3691
g54
(dp3692
sg63
g3677
sg56
(lp3693
g49
(g50
g51
NtRp3694
(dp3695
g54
(dp3696
g62
I4
ssg63
g3690
sg56
(lp3697
g49
(g58
g51
NtRp3698
(dp3699
g54
(dp3700
g62
I3
ssg63
Nsg56
(lp3701
g49
(g65
g51
NtRp3702
(dp3703
g54
(dp3704
sg63
g3698
sg56
(lp3705
g49
(g70
g51
NtRp3706
(dp3707
g54
(dp3708
g74
g75
ssg63
g3702
sg56
(lp3709
g302
asbag49
(g70
g51
NtRp3710
(dp3711
g54
(dp3712
g81
g82
ssg63
g3702
sg56
(lp3713
S':'
asbag49
(g70
g51
NtRp3714
(dp3715
g54
(dp3716
sg63
g3702
sg56
(lp3717
g49
(g50
g51
NtRp3718
(dp3719
g54
(dp3720
g62
I3
ssg63
g3714
sg56
(lp3721
S''
asbasbasbag49
(g65
g51
NtRp3722
(dp3723
g54
(dp3724
sg63
g3698
sg56
(lp3725
g49
(g70
g51
NtRp3726
(dp3727
g54
(dp3728
g74
g75
ssg63
g3722
sg56
(lp3729
g323
asbag49
(g70
g51
NtRp3730
(dp3731
g54
(dp3732
g81
g82
ssg63
g3722
sg56
(lp3733
S':'
asbag49
(g70
g51
NtRp3734
(dp3735
g54
(dp3736
sg63
g3722
sg56
(lp3737
g49
(g50
g51
NtRp3738
(dp3739
g54
(dp3740
g62
I3
ssg63
g3734
sg56
(lp3741
S''
asbasbasbag49
(g65
g51
NtRp3742
(dp3743
g54
(dp3744
sg63
g3698
sg56
(lp3745
g49
(g70
g51
NtRp3746
(dp3747
g54
(dp3748
g74
g75
ssg63
g3742
sg56
(lp3749
g344
asbag49
(g70
g51
NtRp3750
(dp3751
g54
(dp3752
g81
g82
ssg63
g3742
sg56
(lp3753
S':'
asbag49
(g70
g51
NtRp3754
(dp3755
g54
(dp3756
sg63
g3742
sg56
(lp3757
g49
(g50
g51
NtRp3758
(dp3759
g54
(dp3760
g62
I3
ssg63
g3754
sg56
(lp3761
S''
asbasbasbag49
(g65
g51
NtRp3762
(dp3763
g54
(dp3764
sg63
g3698
sg56
(lp3765
g49
(g70
g51
NtRp3766
(dp3767
g54
(dp3768
g74
g75
ssg63
g3762
sg56
(lp3769
g365
asbag49
(g70
g51
NtRp3770
(dp3771
g54
(dp3772
g81
g82
ssg63
g3762
sg56
(lp3773
S':'
asbag49
(g70
g51
NtRp3774
(dp3775
g54
(dp3776
sg63
g3762
sg56
(lp3777
g49
(g50
g51
NtRp3778
(dp3779
g54
(dp3780
g62
I3
ssg63
g3774
sg56
(lp3781
S''
asbasbasbag49
(g65
g51
NtRp3782
(dp3783
g54
(dp3784
sg63
g3698
sg56
(lp3785
g49
(g70
g51
NtRp3786
(dp3787
g54
(dp3788
g74
g75
ssg63
g3782
sg56
(lp3789
g386
asbag49
(g70
g51
NtRp3790
(dp3791
g54
(dp3792
g81
g82
ssg63
g3782
sg56
(lp3793
S':'
asbag49
(g70
g51
NtRp3794
(dp3795
g54
(dp3796
sg63
g3782
sg56
(lp3797
g49
(g50
g51
NtRp3798
(dp3799
g54
(dp3800
g62
I3
ssg63
g3794
sg56
(lp3801
S'/'
asbasbasbag49
(g65
g51
NtRp3802
(dp3803
g54
(dp3804
sg63
g3698
sg56
(lp3805
g49
(g70
g51
NtRp3806
(dp3807
g54
(dp3808
g74
g75
ssg63
g3802
sg56
(lp3809
g407
asbag49
(g70
g51
NtRp3810
(dp3811
g54
(dp3812
g81
g82
ssg63
g3802
sg56
(lp3813
S':'
asbag49
(g70
g51
NtRp3814
(dp3815
g54
(dp3816
sg63
g3802
sg56
(lp3817
g49
(g50
g51
NtRp3818
(dp3819
g54
(dp3820
g62
I3
ssg63
g3814
sg56
(lp3821
S''
asbasbasbag49
(g65
g51
NtRp3822
(dp3823
g54
(dp3824
sg63
g3698
sg56
(lp3825
g49
(g70
g51
NtRp3826
(dp3827
g54
(dp3828
g74
g75
ssg63
g3822
sg56
(lp3829
g428
asbag49
(g70
g51
NtRp3830
(dp3831
g54
(dp3832
g81
g82
ssg63
g3822
sg56
(lp3833
S':'
asbag49
(g70
g51
NtRp3834
(dp3835
g54
(dp3836
sg63
g3822
sg56
(lp3837
g49
(g50
g51
NtRp3838
(dp3839
g54
(dp3840
g62
I3
ssg63
g3834
sg56
(lp3841
S''
asbasbasbasbasbasbasbasbasbasbasbag49
(g65
g51
NtRp3842
(dp3843
g54
(dp3844
sg63
g3532
sg56
(lp3845
g49
(g70
g51
NtRp3846
(dp3847
g54
(dp3848
g74
g75
ssg63
g3842
sg56
(lp3849
S'delimiters'
p3850
asbag49
(g70
g51
NtRp3851
(dp3852
g54
(dp3853
g81
g82
ssg63
g3842
sg56
(lp3854
S':'
asbag49
(g70
g51
NtRp3855
(dp3856
g54
(dp3857
sg63
g3842
sg56
(lp3858
g49
(g50
g51
NtRp3859
(dp3860
g54
(dp3861
g62
I5
ssg63
g3855
sg56
(lp3862
g49
(g58
g51
NtRp3863
(dp3864
g54
(dp3865
g62
I4
ssg63
Nsg56
(lp3866
g49
(g65
g51
NtRp3867
(dp3868
g54
(dp3869
sg63
g3863
sg56
(lp3870
g49
(g70
g51
NtRp3871
(dp3872
g54
(dp3873
sg63
g3867
sg56
(lp3874
g49
(g50
g51
NtRp3875
(dp3876
g54
(dp3877
g62
I4
ssg63
g3871
sg56
(lp3878
S'{{'
p3879
asbasbasbag49
(g65
g51
NtRp3880
(dp3881
g54
(dp3882
sg63
g3863
sg56
(lp3883
g49
(g70
g51
NtRp3884
(dp3885
g54
(dp3886
sg63
g3880
sg56
(lp3887
g49
(g50
g51
NtRp3888
(dp3889
g54
(dp3890
g62
I4
ssg63
g3884
sg56
(lp3891
S'}}'
p3892
asbasbasbasbasbasbasbag49
(g65
g51
NtRp3893
(dp3894
g54
(dp3895
sg63
g3532
sg56
(lp3896
g49
(g70
g51
NtRp3897
(dp3898
g54
(dp3899
g74
g75
ssg63
g3893
sg56
(lp3900
S'enter_laptop_details'
p3901
asbag49
(g70
g51
NtRp3902
(dp3903
g54
(dp3904
g81
g82
ssg63
g3893
sg56
(lp3905
S':'
asbag49
(g70
g51
NtRp3906
(dp3907
g54
(dp3908
sg63
g3893
sg56
(lp3909
g49
(g50
g51
NtRp3910
(dp3911
g54
(dp3912
g62
I5
ssg63
g3906
sg56
(lp3913
g49
(g58
g51
NtRp3914
(dp3915
g54
(dp3916
g62
I4
ssg63
Nsg56
(lp3917
g49
(g65
g51
NtRp3918
(dp3919
g54
(dp3920
sg63
g3914
sg56
(lp3921
g49
(g70
g51
NtRp3922
(dp3923
g54
(dp3924
sg63
g3918
sg56
(lp3925
g49
(g50
g51
NtRp3926
(dp3927
g54
(dp3928
g62
I4
ssg63
g3922
sg56
(lp3929
g49
(g58
g51
NtRp3930
(dp3931
g54
(dp3932
g62
I3
ssg63
Nsg56
(lp3933
g49
(g65
g51
NtRp3934
(dp3935
g54
(dp3936
sg63
g3930
sg56
(lp3937
g49
(g70
g51
NtRp3938
(dp3939
g54
(dp3940
sg63
g3934
sg56
(lp3941
g49
(g50
g51
NtRp3942
(dp3943
g54
(dp3944
g62
I3
ssg63
g3938
sg56
(lp3945
g3610
(S's\x14\x00\x00\x00Enter Laptop Details'
tRp3946
asbasbasbag49
(g65
g51
NtRp3947
(dp3948
g54
(dp3949
sg63
g3930
sg56
(lp3950
g49
(g70
g51
NtRp3951
(dp3952
g54
(dp3953
sg63
g3947
sg56
(lp3954
g49
(g50
g51
NtRp3955
(dp3956
g54
(dp3957
g62
I3
ssg63
g3951
sg56
(lp3958
g92
asbasbasbag49
(g65
g51
NtRp3959
(dp3960
g54
(dp3961
sg63
g3930
sg56
(lp3962
g49
(g70
g51
NtRp3963
(dp3964
g54
(dp3965
sg63
g3959
sg56
(lp3966
g49
(g50
g51
NtRp3967
(dp3968
g54
(dp3969
g62
I3
ssg63
g3963
sg56
(lp3970
S'/hostel/default/enter_laptop_details'
p3971
asbasbasbag49
(g65
g51
NtRp3972
(dp3973
g54
(dp3974
sg63
g3930
sg56
(lp3975
g49
(g70
g51
NtRp3976
(dp3977
g54
(dp3978
sg63
g3972
sg56
(lp3979
g49
(g50
g51
NtRp3980
(dp3981
g54
(dp3982
g62
I3
ssg63
g3976
sg56
(lp3983
g49
(g58
g51
NtRp3984
(dp3985
g54
(dp3986
g62
I2
ssg63
Nsg56
(lp3987
sbasbasbasbasbasbasbasbasbasbasbasbag49
(g65
g51
NtRp3988
(dp3989
g54
(dp3990
sg63
g3532
sg56
(lp3991
g49
(g70
g51
NtRp3992
(dp3993
g54
(dp3994
g74
g75
ssg63
g3988
sg56
(lp3995
S'files'
p3996
asbag49
(g70
g51
NtRp3997
(dp3998
g54
(dp3999
g81
g82
ssg63
g3988
sg56
(lp4000
S':'
asbag49
(g70
g51
NtRp4001
(dp4002
g54
(dp4003
sg63
g3988
sg56
(lp4004
g49
(g50
g51
NtRp4005
(dp4006
g54
(dp4007
g62
I5
ssg63
g4001
sg56
(lp4008
g49
(g58
g51
NtRp4009
(dp4010
g54
(dp4011
g62
I4
ssg63
Nsg56
(lp4012
sbasbasbasbag49
(g65
g51
NtRp4013
(dp4014
g54
(dp4015
sg63
g3532
sg56
(lp4016
g49
(g70
g51
NtRp4017
(dp4018
g54
(dp4019
g74
g75
ssg63
g4013
sg56
(lp4020
g3487
asbag49
(g70
g51
NtRp4021
(dp4022
g54
(dp4023
g81
g82
ssg63
g4013
sg56
(lp4024
S':'
asbag49
(g70
g51
NtRp4025
(dp4026
g54
(dp4027
sg63
g4013
sg56
(lp4028
g49
(g50
g51
NtRp4029
(dp4030
g54
(dp4031
g62
I5
ssg63
g4025
sg56
(lp4032
S''
asbasbasbag49
(g65
g51
NtRp4033
(dp4034
g54
(dp4035
sg63
g3532
sg56
(lp4036
g49
(g70
g51
NtRp4037
(dp4038
g54
(dp4039
g74
g75
ssg63
g4033
sg56
(lp4040
S'generic_patterns'
p4041
asbag49
(g70
g51
NtRp4042
(dp4043
g54
(dp4044
g81
g82
ssg63
g4033
sg56
(lp4045
S':'
asbag49
(g70
g51
NtRp4046
(dp4047
g54
(dp4048
sg63
g4033
sg56
(lp4049
g49
(g50
g51
NtRp4050
(dp4051
g54
(dp4052
g62
I5
ssg63
g4046
sg56
(lp4053
g49
(g58
g51
NtRp4054
(dp4055
g54
(dp4056
g62
I4
ssg63
Nsg56
(lp4057
g49
(g65
g51
NtRp4058
(dp4059
g54
(dp4060
sg63
g4054
sg56
(lp4061
g49
(g70
g51
NtRp4062
(dp4063
g54
(dp4064
sg63
g4058
sg56
(lp4065
g49
(g50
g51
NtRp4066
(dp4067
g54
(dp4068
g62
I4
ssg63
g4062
sg56
(lp4069
S'*'
asbasbasbasbasbasbasbag49
(g65
g51
NtRp4070
(dp4071
g54
(dp4072
sg63
g3532
sg56
(lp4073
g49
(g70
g51
NtRp4074
(dp4075
g54
(dp4076
g74
g75
ssg63
g4070
sg56
(lp4077
S'headers'
p4078
asbag49
(g70
g51
NtRp4079
(dp4080
g54
(dp4081
g81
g82
ssg63
g4070
sg56
(lp4082
S':'
asbag49
(g70
g51
NtRp4083
(dp4084
g54
(dp4085
sg63
g4070
sg56
(lp4086
g49
(g50
g51
NtRp4087
(dp4088
g54
(dp4089
g62
I5
ssg63
g4083
sg56
(lp4090
g49
(g58
g51
NtRp4091
(dp4092
g54
(dp4093
g62
I4
ssg63
Nsg56
(lp4094
g49
(g65
g51
NtRp4095
(dp4096
g54
(dp4097
sg63
g4091
sg56
(lp4098
g49
(g70
g51
NtRp4099
(dp4100
g54
(dp4101
g74
g75
ssg63
g4095
sg56
(lp4102
S'Cache-Control'
p4103
asbag49
(g70
g51
NtRp4104
(dp4105
g54
(dp4106
g81
g82
ssg63
g4095
sg56
(lp4107
S':'
asbag49
(g70
g51
NtRp4108
(dp4109
g54
(dp4110
sg63
g4095
sg56
(lp4111
g49
(g50
g51
NtRp4112
(dp4113
g54
(dp4114
g62
I4
ssg63
g4108
sg56
(lp4115
S'no-store, no-cache, must-revalidate, post-check=0, pre-check=0'
p4116
asbasbasbag49
(g65
g51
NtRp4117
(dp4118
g54
(dp4119
sg63
g4091
sg56
(lp4120
g49
(g70
g51
NtRp4121
(dp4122
g54
(dp4123
g74
g75
ssg63
g4117
sg56
(lp4124
S'Content-Type'
p4125
asbag49
(g70
g51
NtRp4126
(dp4127
g54
(dp4128
g81
g82
ssg63
g4117
sg56
(lp4129
S':'
asbag49
(g70
g51
NtRp4130
(dp4131
g54
(dp4132
sg63
g4117
sg56
(lp4133
g49
(g50
g51
NtRp4134
(dp4135
g54
(dp4136
g62
I4
ssg63
g4130
sg56
(lp4137
S'text/html; charset=utf-8'
p4138
asbasbasbag49
(g65
g51
NtRp4139
(dp4140
g54
(dp4141
sg63
g4091
sg56
(lp4142
g49
(g70
g51
NtRp4143
(dp4144
g54
(dp4145
g74
g75
ssg63
g4139
sg56
(lp4146
S'Expires'
p4147
asbag49
(g70
g51
NtRp4148
(dp4149
g54
(dp4150
g81
g82
ssg63
g4139
sg56
(lp4151
S':'
asbag49
(g70
g51
NtRp4152
(dp4153
g54
(dp4154
sg63
g4139
sg56
(lp4155
g49
(g50
g51
NtRp4156
(dp4157
g54
(dp4158
g62
I4
ssg63
g4152
sg56
(lp4159
S'Tue, 16 Oct 2012 16:06:48 GMT'
p4160
asbasbasbag49
(g65
g51
NtRp4161
(dp4162
g54
(dp4163
sg63
g4091
sg56
(lp4164
g49
(g70
g51
NtRp4165
(dp4166
g54
(dp4167
g74
g75
ssg63
g4161
sg56
(lp4168
S'Pragma'
p4169
asbag49
(g70
g51
NtRp4170
(dp4171
g54
(dp4172
g81
g82
ssg63
g4161
sg56
(lp4173
S':'
asbag49
(g70
g51
NtRp4174
(dp4175
g54
(dp4176
sg63
g4161
sg56
(lp4177
g49
(g50
g51
NtRp4178
(dp4179
g54
(dp4180
g62
I4
ssg63
g4174
sg56
(lp4181
S'no-cache'
p4182
asbasbasbag49
(g65
g51
NtRp4183
(dp4184
g54
(dp4185
sg63
g4091
sg56
(lp4186
g49
(g70
g51
NtRp4187
(dp4188
g54
(dp4189
g74
g75
ssg63
g4183
sg56
(lp4190
S'X-Powered-By'
p4191
asbag49
(g70
g51
NtRp4192
(dp4193
g54
(dp4194
g81
g82
ssg63
g4183
sg56
(lp4195
S':'
asbag49
(g70
g51
NtRp4196
(dp4197
g54
(dp4198
sg63
g4183
sg56
(lp4199
g49
(g50
g51
NtRp4200
(dp4201
g54
(dp4202
g62
I4
ssg63
g4196
sg56
(lp4203
S'web2py'
p4204
asbasbasbasbasbasbasbag49
(g65
g51
NtRp4205
(dp4206
g54
(dp4207
sg63
g3532
sg56
(lp4208
g49
(g70
g51
NtRp4209
(dp4210
g54
(dp4211
g74
g75
ssg63
g4205
sg56
(lp4212
S'laptop_out_details'
p4213
asbag49
(g70
g51
NtRp4214
(dp4215
g54
(dp4216
g81
g82
ssg63
g4205
sg56
(lp4217
S':'
asbag49
(g70
g51
NtRp4218
(dp4219
g54
(dp4220
sg63
g4205
sg56
(lp4221
g49
(g50
g51
NtRp4222
(dp4223
g54
(dp4224
g62
I5
ssg63
g4218
sg56
(lp4225
g49
(g58
g51
NtRp4226
(dp4227
g54
(dp4228
g62
I4
ssg63
Nsg56
(lp4229
g49
(g65
g51
NtRp4230
(dp4231
g54
(dp4232
sg63
g4226
sg56
(lp4233
g49
(g70
g51
NtRp4234
(dp4235
g54
(dp4236
sg63
g4230
sg56
(lp4237
g49
(g50
g51
NtRp4238
(dp4239
g54
(dp4240
g62
I4
ssg63
g4234
sg56
(lp4241
g49
(g58
g51
NtRp4242
(dp4243
g54
(dp4244
g62
I3
ssg63
Nsg56
(lp4245
g49
(g65
g51
NtRp4246
(dp4247
g54
(dp4248
sg63
g4242
sg56
(lp4249
g49
(g70
g51
NtRp4250
(dp4251
g54
(dp4252
sg63
g4246
sg56
(lp4253
g49
(g50
g51
NtRp4254
(dp4255
g54
(dp4256
g62
I3
ssg63
g4250
sg56
(lp4257
g3610
(S's\x0f\x00\x00\x00Laptop Movement'
tRp4258
asbasbasbag49
(g65
g51
NtRp4259
(dp4260
g54
(dp4261
sg63
g4242
sg56
(lp4262
g49
(g70
g51
NtRp4263
(dp4264
g54
(dp4265
sg63
g4259
sg56
(lp4266
g49
(g50
g51
NtRp4267
(dp4268
g54
(dp4269
g62
I3
ssg63
g4263
sg56
(lp4270
g92
asbasbasbag49
(g65
g51
NtRp4271
(dp4272
g54
(dp4273
sg63
g4242
sg56
(lp4274
g49
(g70
g51
NtRp4275
(dp4276
g54
(dp4277
sg63
g4271
sg56
(lp4278
g49
(g50
g51
NtRp4279
(dp4280
g54
(dp4281
g62
I3
ssg63
g4275
sg56
(lp4282
S'/hostel/default/laptop_out_details'
p4283
asbasbasbag49
(g65
g51
NtRp4284
(dp4285
g54
(dp4286
sg63
g4242
sg56
(lp4287
g49
(g70
g51
NtRp4288
(dp4289
g54
(dp4290
sg63
g4284
sg56
(lp4291
g49
(g50
g51
NtRp4292
(dp4293
g54
(dp4294
g62
I3
ssg63
g4288
sg56
(lp4295
g49
(g58
g51
NtRp4296
(dp4297
g54
(dp4298
g62
I2
ssg63
Nsg56
(lp4299
sbasbasbasbasbasbasbasbasbasbasbasbag49
(g65
g51
NtRp4300
(dp4301
g54
(dp4302
sg63
g3532
sg56
(lp4303
g49
(g70
g51
NtRp4304
(dp4305
g54
(dp4306
g74
g75
ssg63
g4300
sg56
(lp4307
S'menu'
p4308
asbag49
(g70
g51
NtRp4309
(dp4310
g54
(dp4311
g81
g82
ssg63
g4300
sg56
(lp4312
S':'
asbag49
(g70
g51
NtRp4313
(dp4314
g54
(dp4315
sg63
g4300
sg56
(lp4316
g49
(g50
g51
NtRp4317
(dp4318
g54
(dp4319
g62
I5
ssg63
g4313
sg56
(lp4320
g49
(g58
g51
NtRp4321
(dp4322
g54
(dp4323
g62
I4
ssg63
Nsg56
(lp4324
g49
(g65
g51
NtRp4325
(dp4326
g54
(dp4327
sg63
g4321
sg56
(lp4328
g49
(g70
g51
NtRp4329
(dp4330
g54
(dp4331
sg63
g4325
sg56
(lp4332
g49
(g50
g51
NtRp4333
(dp4334
g54
(dp4335
g62
I4
ssg63
g4329
sg56
(lp4336
g49
(g58
g51
NtRp4337
(dp4338
g54
(dp4339
g62
I3
ssg63
Nsg56
(lp4340
g49
(g65
g51
NtRp4341
(dp4342
g54
(dp4343
sg63
g4337
sg56
(lp4344
g49
(g70
g51
NtRp4345
(dp4346
g54
(dp4347
sg63
g4341
sg56
(lp4348
g49
(g50
g51
NtRp4349
(dp4350
g54
(dp4351
g62
I3
ssg63
g4345
sg56
(lp4352
g3610
(S's\x04\x00\x00\x00HOME'
tRp4353
asbasbasbag49
(g65
g51
NtRp4354
(dp4355
g54
(dp4356
sg63
g4337
sg56
(lp4357
g49
(g70
g51
NtRp4358
(dp4359
g54
(dp4360
sg63
g4354
sg56
(lp4361
g49
(g50
g51
NtRp4362
(dp4363
g54
(dp4364
g62
I3
ssg63
g4358
sg56
(lp4365
g92
asbasbasbag49
(g65
g51
NtRp4366
(dp4367
g54
(dp4368
sg63
g4337
sg56
(lp4369
g49
(g70
g51
NtRp4370
(dp4371
g54
(dp4372
sg63
g4366
sg56
(lp4373
g49
(g50
g51
NtRp4374
(dp4375
g54
(dp4376
g62
I3
ssg63
g4370
sg56
(lp4377
S'/hostel/default/index'
p4378
asbasbasbag49
(g65
g51
NtRp4379
(dp4380
g54
(dp4381
sg63
g4337
sg56
(lp4382
g49
(g70
g51
NtRp4383
(dp4384
g54
(dp4385
sg63
g4379
sg56
(lp4386
g49
(g50
g51
NtRp4387
(dp4388
g54
(dp4389
g62
I3
ssg63
g4383
sg56
(lp4390
g49
(g58
g51
NtRp4391
(dp4392
g54
(dp4393
g62
I2
ssg63
Nsg56
(lp4394
sbasbasbasbasbasbasbasbasbasbasbasbag49
(g65
g51
NtRp4395
(dp4396
g54
(dp4397
sg63
g3532
sg56
(lp4398
g49
(g70
g51
NtRp4399
(dp4400
g54
(dp4401
g74
g75
ssg63
g4395
sg56
(lp4402
S'meta'
p4403
asbag49
(g70
g51
NtRp4404
(dp4405
g54
(dp4406
g81
g82
ssg63
g4395
sg56
(lp4407
S':'
asbag49
(g70
g51
NtRp4408
(dp4409
g54
(dp4410
sg63
g4395
sg56
(lp4411
g49
(g50
g51
NtRp4412
(dp4413
g54
(dp4414
g62
I5
ssg63
g4408
sg56
(lp4415
g49
(g58
g51
NtRp4416
(dp4417
g54
(dp4418
g62
I4
ssg63
Nsg56
(lp4419
g49
(g65
g51
NtRp4420
(dp4421
g54
(dp4422
sg63
g4416
sg56
(lp4423
g49
(g70
g51
NtRp4424
(dp4425
g54
(dp4426
g74
g75
ssg63
g4420
sg56
(lp4427
S'author'
p4428
asbag49
(g70
g51
NtRp4429
(dp4430
g54
(dp4431
g81
g82
ssg63
g4420
sg56
(lp4432
S':'
asbag49
(g70
g51
NtRp4433
(dp4434
g54
(dp4435
sg63
g4420
sg56
(lp4436
g49
(g50
g51
NtRp4437
(dp4438
g54
(dp4439
g62
I4
ssg63
g4433
sg56
(lp4440
S'you <you@example.com>'
p4441
asbasbasbag49
(g65
g51
NtRp4442
(dp4443
g54
(dp4444
sg63
g4416
sg56
(lp4445
g49
(g70
g51
NtRp4446
(dp4447
g54
(dp4448
g74
g75
ssg63
g4442
sg56
(lp4449
S'description'
p4450
asbag49
(g70
g51
NtRp4451
(dp4452
g54
(dp4453
g81
g82
ssg63
g4442
sg56
(lp4454
S':'
asbag49
(g70
g51
NtRp4455
(dp4456
g54
(dp4457
sg63
g4442
sg56
(lp4458
g49
(g50
g51
NtRp4459
(dp4460
g54
(dp4461
g62
I4
ssg63
g4455
sg56
(lp4462
S''
asbasbasbag49
(g65
g51
NtRp4463
(dp4464
g54
(dp4465
sg63
g4416
sg56
(lp4466
g49
(g70
g51
NtRp4467
(dp4468
g54
(dp4469
g74
g75
ssg63
g4463
sg56
(lp4470
S'keywords'
p4471
asbag49
(g70
g51
NtRp4472
(dp4473
g54
(dp4474
g81
g82
ssg63
g4463
sg56
(lp4475
S':'
asbag49
(g70
g51
NtRp4476
(dp4477
g54
(dp4478
sg63
g4463
sg56
(lp4479
g49
(g50
g51
NtRp4480
(dp4481
g54
(dp4482
g62
I4
ssg63
g4476
sg56
(lp4483
S''
asbasbasbasbasbasbasbag49
(g65
g51
NtRp4484
(dp4485
g54
(dp4486
sg63
g3532
sg56
(lp4487
g49
(g70
g51
NtRp4488
(dp4489
g54
(dp4490
g74
g75
ssg63
g4484
sg56
(lp4491
S'postprocessing'
p4492
asbag49
(g70
g51
NtRp4493
(dp4494
g54
(dp4495
g81
g82
ssg63
g4484
sg56
(lp4496
S':'
asbag49
(g70
g51
NtRp4497
(dp4498
g54
(dp4499
sg63
g4484
sg56
(lp4500
g49
(g50
g51
NtRp4501
(dp4502
g54
(dp4503
g62
I5
ssg63
g4497
sg56
(lp4504
g49
(g58
g51
NtRp4505
(dp4506
g54
(dp4507
g62
I4
ssg63
Nsg56
(lp4508
sbasbasbasbag49
(g65
g51
NtRp4509
(dp4510
g54
(dp4511
sg63
g3532
sg56
(lp4512
g49
(g70
g51
NtRp4513
(dp4514
g54
(dp4515
g74
g75
ssg63
g4509
sg56
(lp4516
S'search'
p4517
asbag49
(g70
g51
NtRp4518
(dp4519
g54
(dp4520
g81
g82
ssg63
g4509
sg56
(lp4521
S':'
asbag49
(g70
g51
NtRp4522
(dp4523
g54
(dp4524
sg63
g4509
sg56
(lp4525
g49
(g50
g51
NtRp4526
(dp4527
g54
(dp4528
g62
I5
ssg63
g4522
sg56
(lp4529
g49
(g58
g51
NtRp4530
(dp4531
g54
(dp4532
g62
I4
ssg63
Nsg56
(lp4533
g49
(g65
g51
NtRp4534
(dp4535
g54
(dp4536
sg63
g4530
sg56
(lp4537
g49
(g70
g51
NtRp4538
(dp4539
g54
(dp4540
sg63
g4534
sg56
(lp4541
g49
(g50
g51
NtRp4542
(dp4543
g54
(dp4544
g62
I4
ssg63
g4538
sg56
(lp4545
g49
(g58
g51
NtRp4546
(dp4547
g54
(dp4548
g62
I3
ssg63
Nsg56
(lp4549
g49
(g65
g51
NtRp4550
(dp4551
g54
(dp4552
sg63
g4546
sg56
(lp4553
g49
(g70
g51
NtRp4554
(dp4555
g54
(dp4556
sg63
g4550
sg56
(lp4557
g49
(g50
g51
NtRp4558
(dp4559
g54
(dp4560
g62
I3
ssg63
g4554
sg56
(lp4561
g3610
(S's\x06\x00\x00\x00SEARCH'
tRp4562
asbasbasbag49
(g65
g51
NtRp4563
(dp4564
g54
(dp4565
sg63
g4546
sg56
(lp4566
g49
(g70
g51
NtRp4567
(dp4568
g54
(dp4569
sg63
g4563
sg56
(lp4570
g49
(g50
g51
NtRp4571
(dp4572
g54
(dp4573
g62
I3
ssg63
g4567
sg56
(lp4574
g92
asbasbasbag49
(g65
g51
NtRp4575
(dp4576
g54
(dp4577
sg63
g4546
sg56
(lp4578
g49
(g70
g51
NtRp4579
(dp4580
g54
(dp4581
sg63
g4575
sg56
(lp4582
g49
(g50
g51
NtRp4583
(dp4584
g54
(dp4585
g62
I3
ssg63
g4579
sg56
(lp4586
S'/hostel/default/search'
p4587
asbasbasbag49
(g65
g51
NtRp4588
(dp4589
g54
(dp4590
sg63
g4546
sg56
(lp4591
g49
(g70
g51
NtRp4592
(dp4593
g54
(dp4594
sg63
g4588
sg56
(lp4595
g49
(g50
g51
NtRp4596
(dp4597
g54
(dp4598
g62
I3
ssg63
g4592
sg56
(lp4599
g49
(g58
g51
NtRp4600
(dp4601
g54
(dp4602
g62
I2
ssg63
Nsg56
(lp4603
sbasbasbasbasbasbasbasbasbasbasbasbag49
(g65
g51
NtRp4604
(dp4605
g54
(dp4606
sg63
g3532
sg56
(lp4607
g49
(g70
g51
NtRp4608
(dp4609
g54
(dp4610
g74
g75
ssg63
g4604
sg56
(lp4611
S'session_file'
p4612
asbag49
(g70
g51
NtRp4613
(dp4614
g54
(dp4615
g81
g82
ssg63
g4604
sg56
(lp4616
S':'
asbag49
(g70
g51
NtRp4617
(dp4618
g54
(dp4619
sg63
g4604
sg56
(lp4620
g49
(g50
g51
NtRp4621
(dp4622
g54
(dp4623
g62
I5
ssg63
g4617
sg56
(lp4624
S"<open file 'C:\\Users\\bhanu\\Downloads\\Compressed\\web2py\\applications\\hostel\\sessions\\127.0.0.1-e8b6af14-2ac7-4c34-a1cc-46c40671e8ad', mode 'rb+' at 0x07B9A9B0>"
p4625
asbasbasbag49
(g65
g51
NtRp4626
(dp4627
g54
(dp4628
sg63
g3532
sg56
(lp4629
g49
(g70
g51
NtRp4630
(dp4631
g54
(dp4632
g74
g75
ssg63
g4626
sg56
(lp4633
S'session_filename'
p4634
asbag49
(g70
g51
NtRp4635
(dp4636
g54
(dp4637
g81
g82
ssg63
g4626
sg56
(lp4638
S':'
asbag49
(g70
g51
NtRp4639
(dp4640
g54
(dp4641
sg63
g4626
sg56
(lp4642
g49
(g50
g51
NtRp4643
(dp4644
g54
(dp4645
g62
I5
ssg63
g4639
sg56
(lp4646
S'C:\\Users\\bhanu\\Downloads\\Compressed\\web2py\\applications\\hostel\\sessions\\127.0.0.1-e8b6af14-2ac7-4c34-a1cc-46c40671e8ad'
p4647
asbasbasbag49
(g65
g51
NtRp4648
(dp4649
g54
(dp4650
sg63
g3532
sg56
(lp4651
g49
(g70
g51
NtRp4652
(dp4653
g54
(dp4654
g74
g75
ssg63
g4648
sg56
(lp4655
S'session_id'
p4656
asbag49
(g70
g51
NtRp4657
(dp4658
g54
(dp4659
g81
g82
ssg63
g4648
sg56
(lp4660
S':'
asbag49
(g70
g51
NtRp4661
(dp4662
g54
(dp4663
sg63
g4648
sg56
(lp4664
g49
(g50
g51
NtRp4665
(dp4666
g54
(dp4667
g62
I5
ssg63
g4661
sg56
(lp4668
S'127.0.0.1-e8b6af14-2ac7-4c34-a1cc-46c40671e8ad'
p4669
asbasbasbag49
(g65
g51
NtRp4670
(dp4671
g54
(dp4672
sg63
g3532
sg56
(lp4673
g49
(g70
g51
NtRp4674
(dp4675
g54
(dp4676
g74
g75
ssg63
g4670
sg56
(lp4677
S'session_id_name'
p4678
asbag49
(g70
g51
NtRp4679
(dp4680
g54
(dp4681
g81
g82
ssg63
g4670
sg56
(lp4682
S':'
asbag49
(g70
g51
NtRp4683
(dp4684
g54
(dp4685
sg63
g4670
sg56
(lp4686
g49
(g50
g51
NtRp4687
(dp4688
g54
(dp4689
g62
I5
ssg63
g4683
sg56
(lp4690
g3685
asbasbasbag49
(g65
g51
NtRp4691
(dp4692
g54
(dp4693
sg63
g3532
sg56
(lp4694
g49
(g70
g51
NtRp4695
(dp4696
g54
(dp4697
g74
g75
ssg63
g4691
sg56
(lp4698
S'session_locked'
p4699
asbag49
(g70
g51
NtRp4700
(dp4701
g54
(dp4702
g81
g82
ssg63
g4691
sg56
(lp4703
S':'
asbag49
(g70
g51
NtRp4704
(dp4705
g54
(dp4706
sg63
g4691
sg56
(lp4707
g49
(g50
g51
NtRp4708
(dp4709
g54
(dp4710
g62
I5
ssg63
g4704
sg56
(lp4711
g1648
asbasbasbag49
(g65
g51
NtRp4712
(dp4713
g54
(dp4714
sg63
g3532
sg56
(lp4715
g49
(g70
g51
NtRp4716
(dp4717
g54
(dp4718
g74
g75
ssg63
g4712
sg56
(lp4719
S'session_new'
p4720
asbag49
(g70
g51
NtRp4721
(dp4722
g54
(dp4723
g81
g82
ssg63
g4712
sg56
(lp4724
S':'
asbag49
(g70
g51
NtRp4725
(dp4726
g54
(dp4727
sg63
g4712
sg56
(lp4728
g49
(g50
g51
NtRp4729
(dp4730
g54
(dp4731
g62
I5
ssg63
g4725
sg56
(lp4732
g92
asbasbasbag49
(g65
g51
NtRp4733
(dp4734
g54
(dp4735
sg63
g3532
sg56
(lp4736
g49
(g70
g51
NtRp4737
(dp4738
g54
(dp4739
g74
g75
ssg63
g4733
sg56
(lp4740
S'status'
p4741
asbag49
(g70
g51
NtRp4742
(dp4743
g54
(dp4744
g81
g82
ssg63
g4733
sg56
(lp4745
S':'
asbag49
(g70
g51
NtRp4746
(dp4747
g54
(dp4748
sg63
g4733
sg56
(lp4749
g49
(g50
g51
NtRp4750
(dp4751
g54
(dp4752
g62
I5
ssg63
g4746
sg56
(lp4753
S'200'
p4754
asbasbasbag49
(g65
g51
NtRp4755
(dp4756
g54
(dp4757
sg63
g3532
sg56
(lp4758
g49
(g70
g51
NtRp4759
(dp4760
g54
(dp4761
g74
g75
ssg63
g4755
sg56
(lp4762
S'student_out_details'
p4763
asbag49
(g70
g51
NtRp4764
(dp4765
g54
(dp4766
g81
g82
ssg63
g4755
sg56
(lp4767
S':'
asbag49
(g70
g51
NtRp4768
(dp4769
g54
(dp4770
sg63
g4755
sg56
(lp4771
g49
(g50
g51
NtRp4772
(dp4773
g54
(dp4774
g62
I5
ssg63
g4768
sg56
(lp4775
g49
(g58
g51
NtRp4776
(dp4777
g54
(dp4778
g62
I4
ssg63
Nsg56
(lp4779
g49
(g65
g51
NtRp4780
(dp4781
g54
(dp4782
sg63
g4776
sg56
(lp4783
g49
(g70
g51
NtRp4784
(dp4785
g54
(dp4786
sg63
g4780
sg56
(lp4787
g49
(g50
g51
NtRp4788
(dp4789
g54
(dp4790
g62
I4
ssg63
g4784
sg56
(lp4791
g49
(g58
g51
NtRp4792
(dp4793
g54
(dp4794
g62
I3
ssg63
Nsg56
(lp4795
g49
(g65
g51
NtRp4796
(dp4797
g54
(dp4798
sg63
g4792
sg56
(lp4799
g49
(g70
g51
NtRp4800
(dp4801
g54
(dp4802
sg63
g4796
sg56
(lp4803
g49
(g50
g51
NtRp4804
(dp4805
g54
(dp4806
g62
I3
ssg63
g4800
sg56
(lp4807
g3610
(S's\x0e\x00\x00\x00Outing Details'
tRp4808
asbasbasbag49
(g65
g51
NtRp4809
(dp4810
g54
(dp4811
sg63
g4792
sg56
(lp4812
g49
(g70
g51
NtRp4813
(dp4814
g54
(dp4815
sg63
g4809
sg56
(lp4816
g49
(g50
g51
NtRp4817
(dp4818
g54
(dp4819
g62
I3
ssg63
g4813
sg56
(lp4820
g92
asbasbasbag49
(g65
g51
NtRp4821
(dp4822
g54
(dp4823
sg63
g4792
sg56
(lp4824
g49
(g70
g51
NtRp4825
(dp4826
g54
(dp4827
sg63
g4821
sg56
(lp4828
g49
(g50
g51
NtRp4829
(dp4830
g54
(dp4831
g62
I3
ssg63
g4825
sg56
(lp4832
S'/hostel/default/student_out_details'
p4833
asbasbasbag49
(g65
g51
NtRp4834
(dp4835
g54
(dp4836
sg63
g4792
sg56
(lp4837
g49
(g70
g51
NtRp4838
(dp4839
g54
(dp4840
sg63
g4834
sg56
(lp4841
g49
(g50
g51
NtRp4842
(dp4843
g54
(dp4844
g62
I3
ssg63
g4838
sg56
(lp4845
g49
(g58
g51
NtRp4846
(dp4847
g54
(dp4848
g62
I2
ssg63
Nsg56
(lp4849
sbasbasbasbasbasbasbasbasbasbasbasbag49
(g65
g51
NtRp4850
(dp4851
g54
(dp4852
sg63
g3532
sg56
(lp4853
g49
(g70
g51
NtRp4854
(dp4855
g54
(dp4856
g74
g75
ssg63
g4850
sg56
(lp4857
S'subtitle'
p4858
asbag49
(g70
g51
NtRp4859
(dp4860
g54
(dp4861
g81
g82
ssg63
g4850
sg56
(lp4862
S':'
asbag49
(g70
g51
NtRp4863
(dp4864
g54
(dp4865
sg63
g4850
sg56
(lp4866
g49
(g50
g51
NtRp4867
(dp4868
g54
(dp4869
g62
I5
ssg63
g4863
sg56
(lp4870
S'powered by web2py'
p4871
asbasbasbag49
(g65
g51
NtRp4872
(dp4873
g54
(dp4874
sg63
g3532
sg56
(lp4875
g49
(g70
g51
NtRp4876
(dp4877
g54
(dp4878
g74
g75
ssg63
g4872
sg56
(lp4879
S'title'
p4880
asbag49
(g70
g51
NtRp4881
(dp4882
g54
(dp4883
g81
g82
ssg63
g4872
sg56
(lp4884
S':'
asbag49
(g70
g51
NtRp4885
(dp4886
g54
(dp4887
sg63
g4872
sg56
(lp4888
g49
(g50
g51
NtRp4889
(dp4890
g54
(dp4891
g62
I5
ssg63
g4885
sg56
(lp4892
S'My New App'
p4893
asbasbasbag49
(g65
g51
NtRp4894
(dp4895
g54
(dp4896
sg63
g3532
sg56
(lp4897
g49
(g70
g51
NtRp4898
(dp4899
g54
(dp4900
g74
g75
ssg63
g4894
sg56
(lp4901
g2334
asbag49
(g70
g51
NtRp4902
(dp4903
g54
(dp4904
g81
g82
ssg63
g4894
sg56
(lp4905
S':'
asbag49
(g70
g51
NtRp4906
(dp4907
g54
(dp4908
sg63
g4894
sg56
(lp4909
g49
(g50
g51
NtRp4910
(dp4911
g54
(dp4912
g62
I5
ssg63
g4906
sg56
(lp4913
g2347
asbasbasbag49
(g65
g51
NtRp4914
(dp4915
g54
(dp4916
sg63
g3532
sg56
(lp4917
g49
(g70
g51
NtRp4918
(dp4919
g54
(dp4920
g74
g75
ssg63
g4914
sg56
(lp4921
S'view'
p4922
asbag49
(g70
g51
NtRp4923
(dp4924
g54
(dp4925
g81
g82
ssg63
g4914
sg56
(lp4926
S':'
asbag49
(g70
g51
NtRp4927
(dp4928
g54
(dp4929
sg63
g4914
sg56
(lp4930
g49
(g50
g51
NtRp4931
(dp4932
g54
(dp4933
g62
I5
ssg63
g4927
sg56
(lp4934
S'default/sr.html'
p4935
asbasbasbasbasbsS'locals'
p4936
(dp4937
S'a'
S'<gluon.dal.Rows object at 0x06E06390>'
p4938
sS'i'
S'3'
sS'pid'
p4939
S'48'
p4940
sS'q'
S'<gluon.dal.Rows object at 0x06E06450>'
p4941
sS'l'
S'3'
sssS'traceback'
p4942
S'Traceback (most recent call last):\n  File "gluon/restricted.py", line 205, in restricted\n  File "C:\\Users\\bhanu\\Downloads\\Compressed\\web2py\\applications\\hostel\\controllers/default.py", line 224, in <module>\n  File "gluon/globals.py", line 173, in <lambda>\n  File "gluon/tools.py", line 2575, in f\n  File "C:\\Users\\bhanu\\Downloads\\Compressed\\web2py\\applications\\hostel\\controllers/default.py", line 31, in sr\nTypeError: __call__() takes at least 2 arguments (1 given)\n'
p4943
s.