(dp1
S'output'
p2
S"<type 'exceptions.ImportError'> No module named dbhash"
p3
sS'layer'
p4
S'C:\\Users\\bhanu\\Downloads\\Compressed\\web2py\\applications\\hostel\\controllers/appadmin.py'
p5
sS'code'
p6
S'# -*- coding: utf-8 -*-\n\n# ##########################################################\n# ## make sure administrator is on localhost\n# ###########################################################\n\nimport os\nimport socket\nimport datetime\nimport copy\nimport gluon.contenttype\nimport gluon.fileutils\n\n# ## critical --- make a copy of the environment\n\nglobal_env = copy.copy(globals())\nglobal_env[\'datetime\'] = datetime\n\nhttp_host = request.env.http_host.split(\':\')[0]\nremote_addr = request.env.remote_addr\ntry:\n    hosts = (http_host, socket.gethostname(),\n             socket.gethostbyname(http_host),\n             \'::1\',\'127.0.0.1\',\'::ffff:127.0.0.1\')\nexcept:\n    hosts = (http_host, )\n\nif request.env.http_x_forwarded_for or request.env.wsgi_url_scheme\\\n     in [\'https\', \'HTTPS\']:\n    session.secure()\nelif (remote_addr not in hosts) and (remote_addr != "127.0.0.1"):\n    raise HTTP(200, T(\'appadmin is disabled because insecure channel\'))\n\nif (request.application==\'admin\' and not session.authorized) or \\\n        (request.application!=\'admin\' and not gluon.fileutils.check_credentials(request)):\n    redirect(URL(\'admin\', \'default\', \'index\',\n                 vars=dict(send=URL(args=request.args,vars=request.vars))))\n\nignore_rw = True\nresponse.view = \'appadmin.html\'\nresponse.menu = [[T(\'design\'), False, URL(\'admin\', \'default\', \'design\',\n                 args=[request.application])], [T(\'db\'), False,\n                 URL(\'index\')], [T(\'state\'), False,\n                 URL(\'state\')], [T(\'cache\'), False,\n                 URL(\'ccache\')]]\n\n# ##########################################################\n# ## auxiliary functions\n# ###########################################################\n\n\ndef get_databases(request):\n    dbs = {}\n    for (key, value) in global_env.items():\n        cond = False\n        try:\n            cond = isinstance(value, GQLDB)\n        except:\n            cond = isinstance(value, SQLDB)\n        if cond:\n            dbs[key] = value\n    return dbs\n\n\ndatabases = get_databases(None)\n\n\ndef eval_in_global_env(text):\n    exec (\'_ret=%s\' % text, {}, global_env)\n    return global_env[\'_ret\']\n\n\ndef get_database(request):\n    if request.args and request.args[0] in databases:\n        return eval_in_global_env(request.args[0])\n    else:\n        session.flash = T(\'invalid request\')\n        redirect(URL(\'index\'))\n\n\ndef get_table(request):\n    db = get_database(request)\n    if len(request.args) > 1 and request.args[1] in db.tables:\n        return (db, request.args[1])\n    else:\n        session.flash = T(\'invalid request\')\n        redirect(URL(\'index\'))\n\n\ndef get_query(request):\n    try:\n        return eval_in_global_env(request.vars.query)\n    except Exception:\n        return None\n\n\ndef query_by_table_type(tablename,db,request=request):\n    keyed = hasattr(db[tablename],\'_primarykey\')\n    if keyed:\n        firstkey = db[tablename][db[tablename]._primarykey[0]]\n        cond = \'>0\'\n        if firstkey.type in [\'string\', \'text\']:\n            cond = \'!=""\'\n        qry = \'%s.%s.%s%s\' % (request.args[0], request.args[1], firstkey.name, cond)\n    else:\n        qry = \'%s.%s.id>0\' % tuple(request.args[:2])\n    return qry\n\n\n\n# ##########################################################\n# ## list all databases and tables\n# ###########################################################\n\n\ndef index():\n    return dict(databases=databases)\n\n\n# ##########################################################\n# ## insert a new record\n# ###########################################################\n\n\ndef insert():\n    (db, table) = get_table(request)\n    form = SQLFORM(db[table], ignore_rw=ignore_rw)\n    if form.accepts(request.vars, session):\n        response.flash = T(\'new record inserted\')\n    return dict(form=form,table=db[table])\n\n\n# ##########################################################\n# ## list all records in table and insert new record\n# ###########################################################\n\n\ndef download():\n    import os\n    db = get_database(request)\n    return response.download(request,db)\n\ndef csv():\n    import gluon.contenttype\n    response.headers[\'Content-Type\'] = \\\n        gluon.contenttype.contenttype(\'.csv\')\n    db = get_database(request)\n    query = get_query(request)\n    if not query:\n        return None\n    response.headers[\'Content-disposition\'] = \'attachment; filename=%s_%s.csv\'\\\n         % tuple(request.vars.query.split(\'.\')[:2])\n    return str(db(query,ignore_common_filters=True).select())\n\n\ndef import_csv(table, file):\n    table.import_from_csv_file(file)\n\ndef select():\n    import re\n    db = get_database(request)\n    dbname = request.args[0]\n    regex = re.compile(\'(?P<table>\\w+)\\.(?P<field>\\w+)=(?P<value>\\d+)\')\n    if len(request.args)>1 and hasattr(db[request.args[1]],\'_primarykey\'):\n        regex = re.compile(\'(?P<table>\\w+)\\.(?P<field>\\w+)=(?P<value>.+)\')\n    if request.vars.query:\n        match = regex.match(request.vars.query)\n        if match:\n            request.vars.query = \'%s.%s.%s==%s\' % (request.args[0],\n                    match.group(\'table\'), match.group(\'field\'),\n                    match.group(\'value\'))\n    else:\n        request.vars.query = session.last_query\n    query = get_query(request)\n    if request.vars.start:\n        start = int(request.vars.start)\n    else:\n        start = 0\n    nrows = 0\n    stop = start + 100\n    table = None\n    rows = []\n    orderby = request.vars.orderby\n    if orderby:\n        orderby = dbname + \'.\' + orderby\n        if orderby == session.last_orderby:\n            if orderby[0] == \'~\':\n                orderby = orderby[1:]\n            else:\n                orderby = \'~\' + orderby\n    session.last_orderby = orderby\n    session.last_query = request.vars.query\n    form = FORM(TABLE(TR(T(\'Query:\'), \'\', INPUT(_style=\'width:400px\',\n                _name=\'query\', _value=request.vars.query or \'\',\n                requires=IS_NOT_EMPTY(error_message=T("Cannot be empty")))), TR(T(\'Update:\'),\n                INPUT(_name=\'update_check\', _type=\'checkbox\',\n                value=False), INPUT(_style=\'width:400px\',\n                _name=\'update_fields\', _value=request.vars.update_fields\n                 or \'\')), TR(T(\'Delete:\'), INPUT(_name=\'delete_check\',\n                _class=\'delete\', _type=\'checkbox\', value=False), \'\'),\n                TR(\'\', \'\', INPUT(_type=\'submit\', _value=\'submit\'))),\n                _action=URL(r=request,args=request.args))\n    if request.vars.csvfile != None:\n        try:\n            import_csv(db[request.vars.table],\n                       request.vars.csvfile.file)\n            response.flash = T(\'data uploaded\')\n        except Exception, e:\n            response.flash = DIV(T(\'unable to parse csv file\'),PRE(str(e)))\n    if form.accepts(request.vars, formname=None):\n#         regex = re.compile(request.args[0] + \'\\.(?P<table>\\w+)\\.id\\>0\')\n        regex = re.compile(request.args[0] + \'\\.(?P<table>\\w+)\\..+\')\n\n        match = regex.match(form.vars.query.strip())\n        if match:\n            table = match.group(\'table\')\n        try:\n            nrows = db(query).count()\n            if form.vars.update_check and form.vars.update_fields:\n                db(query).update(**eval_in_global_env(\'dict(%s)\'\n                                  % form.vars.update_fields))\n                response.flash = T(\'%s rows updated\', nrows)\n            elif form.vars.delete_check:\n                db(query).delete()\n                response.flash = T(\'%s rows deleted\', nrows)\n            nrows = db(query).count()\n            if orderby:\n                rows = db(query,ignore_common_filters=True).select(limitby=(start, stop), orderby=eval_in_global_env(orderby))\n            else:\n                rows = db(query,ignore_common_filters=True).select(limitby=(start, stop))\n        except Exception, e:\n            (rows, nrows) = ([], 0)\n            response.flash = DIV(T(\'Invalid Query\'),PRE(str(e)))\n    return dict(\n        form=form,\n        table=table,\n        start=start,\n        stop=stop,\n        nrows=nrows,\n        rows=rows,\n        query=request.vars.query,\n        )\n\n\n# ##########################################################\n# ## edit delete one record\n# ###########################################################\n\n\ndef update():\n    (db, table) = get_table(request)\n    keyed = hasattr(db[table],\'_primarykey\')\n    record = None\n    if keyed:\n        key = [f for f in request.vars if f in db[table]._primarykey]\n        if key:\n            record = db(db[table][key[0]] == request.vars[key[0]], ignore_common_filters=True).select().first()\n    else:\n        record = db(db[table].id == request.args(2),ignore_common_filters=True).select().first()\n\n    if not record:\n        qry = query_by_table_type(table, db)\n        session.flash = T(\'record does not exist\')\n        redirect(URL(\'select\', args=request.args[:1],\n                     vars=dict(query=qry)))\n\n    if keyed:\n        for k in db[table]._primarykey:\n            db[table][k].writable=False\n\n    form = SQLFORM(db[table], record, deletable=True, delete_label=T(\'Check to delete\'),\n                   ignore_rw=ignore_rw and not keyed,\n                   linkto=URL(\'select\',\n                   args=request.args[:1]), upload=URL(r=request,\n                   f=\'download\', args=request.args[:1]))\n\n    if form.accepts(request.vars, session):\n        session.flash = T(\'done!\')\n        qry = query_by_table_type(table, db)\n        redirect(URL(\'select\', args=request.args[:1],\n                 vars=dict(query=qry)))\n    return dict(form=form,table=db[table])\n\n\n# ##########################################################\n# ## get global variables\n# ###########################################################\n\n\ndef state():\n    return dict()\n\ndef ccache():\n    form = FORM(\n        P(TAG.BUTTON("Clear CACHE?", _type="submit", _name="yes", _value="yes")),\n        P(TAG.BUTTON("Clear RAM", _type="submit", _name="ram", _value="ram")),\n        P(TAG.BUTTON("Clear DISK", _type="submit", _name="disk", _value="disk")),\n    )\n\n    if form.accepts(request.vars, session):\n        clear_ram = False\n        clear_disk = False\n        session.flash = ""\n        if request.vars.yes:\n            clear_ram = clear_disk = True\n        if request.vars.ram:\n            clear_ram = True\n        if request.vars.disk:\n            clear_disk = True\n\n        if clear_ram:\n            cache.ram.clear()\n            session.flash += "Ram Cleared "\n        if clear_disk:\n            cache.disk.clear()\n            session.flash += "Disk Cleared"\n\n        redirect(URL(r=request))\n\n    try:\n        from guppy import hpy; hp=hpy()\n    except ImportError:\n        hp = False\n\n    import shelve, os, copy, time, math\n    from gluon import portalocker\n\n    ram = {\n        \'entries\': 0,\n        \'bytes\': 0,\n        \'objects\': 0,\n        \'hits\': 0,\n        \'misses\': 0,\n        \'ratio\': 0,\n        \'oldest\': time.time(),\n        \'keys\': []\n    }\n    disk = copy.copy(ram)\n    total = copy.copy(ram)\n    disk[\'keys\'] = []\n    total[\'keys\'] = []\n\n    def GetInHMS(seconds):\n        hours = math.floor(seconds / 3600)\n        seconds -= hours * 3600\n        minutes = math.floor(seconds / 60)\n        seconds -= minutes * 60\n        seconds = math.floor(seconds)\n\n        return (hours, minutes, seconds)\n\n    for key, value in cache.ram.storage.items():\n        if isinstance(value, dict):\n            ram[\'hits\'] = value[\'hit_total\'] - value[\'misses\']\n            ram[\'misses\'] = value[\'misses\']\n            try:\n                ram[\'ratio\'] = ram[\'hits\'] * 100 / value[\'hit_total\']\n            except (KeyError, ZeroDivisionError):\n                ram[\'ratio\'] = 0\n        else:\n            if hp:\n                ram[\'bytes\'] += hp.iso(value[1]).size\n                ram[\'objects\'] += hp.iso(value[1]).count\n            ram[\'entries\'] += 1\n            if value[0] < ram[\'oldest\']:\n                ram[\'oldest\'] = value[0]\n            ram[\'keys\'].append((key, GetInHMS(time.time() - value[0])))\n\n    locker = open(os.path.join(request.folder,\n                                        \'cache/cache.lock\'), \'a\')\n    portalocker.lock(locker, portalocker.LOCK_EX)\n    disk_storage = shelve.open(os.path.join(request.folder, \'cache/cache.shelve\'))\n    try:\n        for key, value in disk_storage.items():\n            if isinstance(value, dict):\n                disk[\'hits\'] = value[\'hit_total\'] - value[\'misses\']\n                disk[\'misses\'] = value[\'misses\']\n                try:\n                    disk[\'ratio\'] = disk[\'hits\'] * 100 / value[\'hit_total\']\n                except (KeyError, ZeroDivisionError):\n                    disk[\'ratio\'] = 0\n            else:\n                if hp:\n                    disk[\'bytes\'] += hp.iso(value[1]).size\n                    disk[\'objects\'] += hp.iso(value[1]).count\n                disk[\'entries\'] += 1\n                if value[0] < disk[\'oldest\']:\n                    disk[\'oldest\'] = value[0]\n                disk[\'keys\'].append((key, GetInHMS(time.time() - value[0])))\n\n    finally:\n        portalocker.unlock(locker)\n        locker.close()\n        disk_storage.close()\n\n    total[\'entries\'] = ram[\'entries\'] + disk[\'entries\']\n    total[\'bytes\'] = ram[\'bytes\'] + disk[\'bytes\']\n    total[\'objects\'] = ram[\'objects\'] + disk[\'objects\']\n    total[\'hits\'] = ram[\'hits\'] + disk[\'hits\']\n    total[\'misses\'] = ram[\'misses\'] + disk[\'misses\']\n    total[\'keys\'] = ram[\'keys\'] + disk[\'keys\']\n    try:\n        total[\'ratio\'] = total[\'hits\'] * 100 / (total[\'hits\'] + total[\'misses\'])\n    except (KeyError, ZeroDivisionError):\n        total[\'ratio\'] = 0\n\n    if disk[\'oldest\'] < ram[\'oldest\']:\n        total[\'oldest\'] = disk[\'oldest\']\n    else:\n        total[\'oldest\'] = ram[\'oldest\']\n\n    ram[\'oldest\'] = GetInHMS(time.time() - ram[\'oldest\'])\n    disk[\'oldest\'] = GetInHMS(time.time() - disk[\'oldest\'])\n    total[\'oldest\'] = GetInHMS(time.time() - total[\'oldest\'])\n\n    def key_table(keys):\n        return TABLE(\n            TR(TD(B(\'Key\')), TD(B(\'Time in Cache (h:m:s)\'))),\n            *[TR(TD(k[0]), TD(\'%02d:%02d:%02d\' % k[1])) for k in keys],\n            **dict(_class=\'cache-keys\',\n                   _style="border-collapse: separate; border-spacing: .5em;"))\n\n    ram[\'keys\'] = key_table(ram[\'keys\'])\n    disk[\'keys\'] = key_table(disk[\'keys\'])\n    total[\'keys\'] = key_table(total[\'keys\'])\n\n    return dict(form=form, total=total,\n                ram=ram, disk=disk, object_stats=hp != False)\n\n\n\n\nresponse._vars=response._caller(ccache)\n'
p7
sS'snapshot'
p8
(dp9
S'exception'
p10
(dp11
S'__hash__'
p12
S"<method-wrapper '__hash__' of exceptions.ImportError object at 0x06F8F8A0>"
p13
sS'__setattr__'
p14
S"<method-wrapper '__setattr__' of exceptions.ImportError object at 0x06F8F8A0>"
p15
sS'__reduce_ex__'
p16
S'<built-in method __reduce_ex__ of exceptions.ImportError object at 0x06F8F8A0>'
p17
sS'__getslice__'
p18
S"<method-wrapper '__getslice__' of exceptions.ImportError object at 0x06F8F8A0>"
p19
sS'__getitem__'
p20
S"<method-wrapper '__getitem__' of exceptions.ImportError object at 0x06F8F8A0>"
p21
sS'__setstate__'
p22
S'<built-in method __setstate__ of exceptions.ImportError object at 0x06F8F8A0>'
p23
sS'__reduce__'
p24
S'<built-in method __reduce__ of exceptions.ImportError object at 0x06F8F8A0>'
p25
sS'__str__'
p26
S"<method-wrapper '__str__' of exceptions.ImportError object at 0x06F8F8A0>"
p27
sS'args'
p28
S"('No module named dbhash',)"
p29
sS'__getattribute__'
p30
S"<method-wrapper '__getattribute__' of exceptions.ImportError object at 0x06F8F8A0>"
p31
sS'__class__'
p32
S"<type 'exceptions.ImportError'>"
p33
sS'__delattr__'
p34
S"<method-wrapper '__delattr__' of exceptions.ImportError object at 0x06F8F8A0>"
p35
sS'__repr__'
p36
S"<method-wrapper '__repr__' of exceptions.ImportError object at 0x06F8F8A0>"
p37
sS'__dict__'
p38
S'{}'
p39
sS'__doc__'
p40
S'"Import can\'t find module, or can\'t find name in module."'
p41
sS'__init__'
p42
S"<method-wrapper '__init__' of exceptions.ImportError object at 0x06F8F8A0>"
p43
sS'__new__'
p44
S'<built-in method __new__ of type object at 0x1E1CD198>'
p45
ssS'evalue'
p46
S'No module named dbhash'
p47
sS'request'
p48
ccopy_reg
_reconstructor
p49
(cgluon.html
BEAUTIFY
p50
c__builtin__
object
p51
NtRp52
(dp53
S'attributes'
p54
(dp55
sS'components'
p56
(lp57
g49
(cgluon.html
TABLE
p58
g51
NtRp59
(dp60
g54
(dp61
S'level'
p62
I5
ssS'parent'
p63
Nsg56
(lp64
g49
(cgluon.html
TR
p65
g51
NtRp66
(dp67
g54
(dp68
sg63
g59
sg56
(lp69
g49
(cgluon.html
TD
p70
g51
NtRp71
(dp72
g54
(dp73
S'_style'
p74
S'font-weight:bold;vertical-align:top'
p75
ssg63
g66
sg56
(lp76
S'ajax'
p77
asbag49
(g70
g51
NtRp78
(dp79
g54
(dp80
S'_valign'
p81
S'top'
p82
ssg63
g66
sg56
(lp83
S':'
asbag49
(g70
g51
NtRp84
(dp85
g54
(dp86
sg63
g66
sg56
(lp87
g49
(g50
g51
NtRp88
(dp89
g54
(dp90
g62
I5
ssg63
g84
sg56
(lp91
S'False'
p92
asbasbasbag49
(g65
g51
NtRp93
(dp94
g54
(dp95
sg63
g59
sg56
(lp96
g49
(g70
g51
NtRp97
(dp98
g54
(dp99
g74
g75
ssg63
g93
sg56
(lp100
S'application'
p101
asbag49
(g70
g51
NtRp102
(dp103
g54
(dp104
g81
g82
ssg63
g93
sg56
(lp105
S':'
asbag49
(g70
g51
NtRp106
(dp107
g54
(dp108
sg63
g93
sg56
(lp109
g49
(g50
g51
NtRp110
(dp111
g54
(dp112
g62
I5
ssg63
g106
sg56
(lp113
S'hostel'
p114
asbasbasbag49
(g65
g51
NtRp115
(dp116
g54
(dp117
sg63
g59
sg56
(lp118
g49
(g70
g51
NtRp119
(dp120
g54
(dp121
g74
g75
ssg63
g115
sg56
(lp122
g28
asbag49
(g70
g51
NtRp123
(dp124
g54
(dp125
g81
g82
ssg63
g115
sg56
(lp126
S':'
asbag49
(g70
g51
NtRp127
(dp128
g54
(dp129
sg63
g115
sg56
(lp130
g49
(g50
g51
NtRp131
(dp132
g54
(dp133
g62
I5
ssg63
g127
sg56
(lp134
g49
(g58
g51
NtRp135
(dp136
g54
(dp137
g62
I4
ssg63
Nsg56
(lp138
sbasbasbasbag49
(g65
g51
NtRp139
(dp140
g54
(dp141
sg63
g59
sg56
(lp142
g49
(g70
g51
NtRp143
(dp144
g54
(dp145
g74
g75
ssg63
g139
sg56
(lp146
S'body'
p147
asbag49
(g70
g51
NtRp148
(dp149
g54
(dp150
g81
g82
ssg63
g139
sg56
(lp151
S':'
asbag49
(g70
g51
NtRp152
(dp153
g54
(dp154
sg63
g139
sg56
(lp155
g49
(g50
g51
NtRp156
(dp157
g54
(dp158
g62
I5
ssg63
g152
sg56
(lp159
S'<cStringIO.StringO object at 0x06E3D740>'
p160
asbasbasbag49
(g65
g51
NtRp161
(dp162
g54
(dp163
sg63
g59
sg56
(lp164
g49
(g70
g51
NtRp165
(dp166
g54
(dp167
g74
g75
ssg63
g161
sg56
(lp168
S'client'
p169
asbag49
(g70
g51
NtRp170
(dp171
g54
(dp172
g81
g82
ssg63
g161
sg56
(lp173
S':'
asbag49
(g70
g51
NtRp174
(dp175
g54
(dp176
sg63
g161
sg56
(lp177
g49
(g50
g51
NtRp178
(dp179
g54
(dp180
g62
I5
ssg63
g174
sg56
(lp181
S'127.0.0.1'
p182
asbasbasbag49
(g65
g51
NtRp183
(dp184
g54
(dp185
sg63
g59
sg56
(lp186
g49
(g70
g51
NtRp187
(dp188
g54
(dp189
g74
g75
ssg63
g183
sg56
(lp190
S'controller'
p191
asbag49
(g70
g51
NtRp192
(dp193
g54
(dp194
g81
g82
ssg63
g183
sg56
(lp195
S':'
asbag49
(g70
g51
NtRp196
(dp197
g54
(dp198
sg63
g183
sg56
(lp199
g49
(g50
g51
NtRp200
(dp201
g54
(dp202
g62
I5
ssg63
g196
sg56
(lp203
S'appadmin'
p204
asbasbasbag49
(g65
g51
NtRp205
(dp206
g54
(dp207
sg63
g59
sg56
(lp208
g49
(g70
g51
NtRp209
(dp210
g54
(dp211
g74
g75
ssg63
g205
sg56
(lp212
S'cookies'
p213
asbag49
(g70
g51
NtRp214
(dp215
g54
(dp216
g81
g82
ssg63
g205
sg56
(lp217
S':'
asbag49
(g70
g51
NtRp218
(dp219
g54
(dp220
sg63
g205
sg56
(lp221
g49
(g50
g51
NtRp222
(dp223
g54
(dp224
g62
I5
ssg63
g218
sg56
(lp225
g49
(g58
g51
NtRp226
(dp227
g54
(dp228
g62
I4
ssg63
Nsg56
(lp229
g49
(g65
g51
NtRp230
(dp231
g54
(dp232
sg63
g226
sg56
(lp233
g49
(g70
g51
NtRp234
(dp235
g54
(dp236
g74
g75
ssg63
g230
sg56
(lp237
S'session_id_admin'
p238
asbag49
(g70
g51
NtRp239
(dp240
g54
(dp241
g81
g82
ssg63
g230
sg56
(lp242
S':'
asbag49
(g70
g51
NtRp243
(dp244
g54
(dp245
sg63
g230
sg56
(lp246
g49
(g50
g51
NtRp247
(dp248
g54
(dp249
g62
I4
ssg63
g243
sg56
(lp250
g49
(g58
g51
NtRp251
(dp252
g54
(dp253
g62
I3
ssg63
Nsg56
(lp254
g49
(g65
g51
NtRp255
(dp256
g54
(dp257
sg63
g251
sg56
(lp258
g49
(g70
g51
NtRp259
(dp260
g54
(dp261
g74
g75
ssg63
g255
sg56
(lp262
S'comment'
p263
asbag49
(g70
g51
NtRp264
(dp265
g54
(dp266
g81
g82
ssg63
g255
sg56
(lp267
S':'
asbag49
(g70
g51
NtRp268
(dp269
g54
(dp270
sg63
g255
sg56
(lp271
g49
(g50
g51
NtRp272
(dp273
g54
(dp274
g62
I3
ssg63
g268
sg56
(lp275
S''
asbasbasbag49
(g65
g51
NtRp276
(dp277
g54
(dp278
sg63
g251
sg56
(lp279
g49
(g70
g51
NtRp280
(dp281
g54
(dp282
g74
g75
ssg63
g276
sg56
(lp283
S'domain'
p284
asbag49
(g70
g51
NtRp285
(dp286
g54
(dp287
g81
g82
ssg63
g276
sg56
(lp288
S':'
asbag49
(g70
g51
NtRp289
(dp290
g54
(dp291
sg63
g276
sg56
(lp292
g49
(g50
g51
NtRp293
(dp294
g54
(dp295
g62
I3
ssg63
g289
sg56
(lp296
S''
asbasbasbag49
(g65
g51
NtRp297
(dp298
g54
(dp299
sg63
g251
sg56
(lp300
g49
(g70
g51
NtRp301
(dp302
g54
(dp303
g74
g75
ssg63
g297
sg56
(lp304
S'expires'
p305
asbag49
(g70
g51
NtRp306
(dp307
g54
(dp308
g81
g82
ssg63
g297
sg56
(lp309
S':'
asbag49
(g70
g51
NtRp310
(dp311
g54
(dp312
sg63
g297
sg56
(lp313
g49
(g50
g51
NtRp314
(dp315
g54
(dp316
g62
I3
ssg63
g310
sg56
(lp317
S''
asbasbasbag49
(g65
g51
NtRp318
(dp319
g54
(dp320
sg63
g251
sg56
(lp321
g49
(g70
g51
NtRp322
(dp323
g54
(dp324
g74
g75
ssg63
g318
sg56
(lp325
S'max-age'
p326
asbag49
(g70
g51
NtRp327
(dp328
g54
(dp329
g81
g82
ssg63
g318
sg56
(lp330
S':'
asbag49
(g70
g51
NtRp331
(dp332
g54
(dp333
sg63
g318
sg56
(lp334
g49
(g50
g51
NtRp335
(dp336
g54
(dp337
g62
I3
ssg63
g331
sg56
(lp338
S''
asbasbasbag49
(g65
g51
NtRp339
(dp340
g54
(dp341
sg63
g251
sg56
(lp342
g49
(g70
g51
NtRp343
(dp344
g54
(dp345
g74
g75
ssg63
g339
sg56
(lp346
S'path'
p347
asbag49
(g70
g51
NtRp348
(dp349
g54
(dp350
g81
g82
ssg63
g339
sg56
(lp351
S':'
asbag49
(g70
g51
NtRp352
(dp353
g54
(dp354
sg63
g339
sg56
(lp355
g49
(g50
g51
NtRp356
(dp357
g54
(dp358
g62
I3
ssg63
g352
sg56
(lp359
S''
asbasbasbag49
(g65
g51
NtRp360
(dp361
g54
(dp362
sg63
g251
sg56
(lp363
g49
(g70
g51
NtRp364
(dp365
g54
(dp366
g74
g75
ssg63
g360
sg56
(lp367
S'secure'
p368
asbag49
(g70
g51
NtRp369
(dp370
g54
(dp371
g81
g82
ssg63
g360
sg56
(lp372
S':'
asbag49
(g70
g51
NtRp373
(dp374
g54
(dp375
sg63
g360
sg56
(lp376
g49
(g50
g51
NtRp377
(dp378
g54
(dp379
g62
I3
ssg63
g373
sg56
(lp380
S''
asbasbasbag49
(g65
g51
NtRp381
(dp382
g54
(dp383
sg63
g251
sg56
(lp384
g49
(g70
g51
NtRp385
(dp386
g54
(dp387
g74
g75
ssg63
g381
sg56
(lp388
S'version'
p389
asbag49
(g70
g51
NtRp390
(dp391
g54
(dp392
g81
g82
ssg63
g381
sg56
(lp393
S':'
asbag49
(g70
g51
NtRp394
(dp395
g54
(dp396
sg63
g381
sg56
(lp397
g49
(g50
g51
NtRp398
(dp399
g54
(dp400
g62
I3
ssg63
g394
sg56
(lp401
S''
asbasbasbasbasbasbasbag49
(g65
g51
NtRp402
(dp403
g54
(dp404
sg63
g226
sg56
(lp405
g49
(g70
g51
NtRp406
(dp407
g54
(dp408
g74
g75
ssg63
g402
sg56
(lp409
S'session_id_hostel'
p410
asbag49
(g70
g51
NtRp411
(dp412
g54
(dp413
g81
g82
ssg63
g402
sg56
(lp414
S':'
asbag49
(g70
g51
NtRp415
(dp416
g54
(dp417
sg63
g402
sg56
(lp418
g49
(g50
g51
NtRp419
(dp420
g54
(dp421
g62
I4
ssg63
g415
sg56
(lp422
g49
(g58
g51
NtRp423
(dp424
g54
(dp425
g62
I3
ssg63
Nsg56
(lp426
g49
(g65
g51
NtRp427
(dp428
g54
(dp429
sg63
g423
sg56
(lp430
g49
(g70
g51
NtRp431
(dp432
g54
(dp433
g74
g75
ssg63
g427
sg56
(lp434
g263
asbag49
(g70
g51
NtRp435
(dp436
g54
(dp437
g81
g82
ssg63
g427
sg56
(lp438
S':'
asbag49
(g70
g51
NtRp439
(dp440
g54
(dp441
sg63
g427
sg56
(lp442
g49
(g50
g51
NtRp443
(dp444
g54
(dp445
g62
I3
ssg63
g439
sg56
(lp446
S''
asbasbasbag49
(g65
g51
NtRp447
(dp448
g54
(dp449
sg63
g423
sg56
(lp450
g49
(g70
g51
NtRp451
(dp452
g54
(dp453
g74
g75
ssg63
g447
sg56
(lp454
g284
asbag49
(g70
g51
NtRp455
(dp456
g54
(dp457
g81
g82
ssg63
g447
sg56
(lp458
S':'
asbag49
(g70
g51
NtRp459
(dp460
g54
(dp461
sg63
g447
sg56
(lp462
g49
(g50
g51
NtRp463
(dp464
g54
(dp465
g62
I3
ssg63
g459
sg56
(lp466
S''
asbasbasbag49
(g65
g51
NtRp467
(dp468
g54
(dp469
sg63
g423
sg56
(lp470
g49
(g70
g51
NtRp471
(dp472
g54
(dp473
g74
g75
ssg63
g467
sg56
(lp474
g305
asbag49
(g70
g51
NtRp475
(dp476
g54
(dp477
g81
g82
ssg63
g467
sg56
(lp478
S':'
asbag49
(g70
g51
NtRp479
(dp480
g54
(dp481
sg63
g467
sg56
(lp482
g49
(g50
g51
NtRp483
(dp484
g54
(dp485
g62
I3
ssg63
g479
sg56
(lp486
S''
asbasbasbag49
(g65
g51
NtRp487
(dp488
g54
(dp489
sg63
g423
sg56
(lp490
g49
(g70
g51
NtRp491
(dp492
g54
(dp493
g74
g75
ssg63
g487
sg56
(lp494
g326
asbag49
(g70
g51
NtRp495
(dp496
g54
(dp497
g81
g82
ssg63
g487
sg56
(lp498
S':'
asbag49
(g70
g51
NtRp499
(dp500
g54
(dp501
sg63
g487
sg56
(lp502
g49
(g50
g51
NtRp503
(dp504
g54
(dp505
g62
I3
ssg63
g499
sg56
(lp506
S''
asbasbasbag49
(g65
g51
NtRp507
(dp508
g54
(dp509
sg63
g423
sg56
(lp510
g49
(g70
g51
NtRp511
(dp512
g54
(dp513
g74
g75
ssg63
g507
sg56
(lp514
g347
asbag49
(g70
g51
NtRp515
(dp516
g54
(dp517
g81
g82
ssg63
g507
sg56
(lp518
S':'
asbag49
(g70
g51
NtRp519
(dp520
g54
(dp521
sg63
g507
sg56
(lp522
g49
(g50
g51
NtRp523
(dp524
g54
(dp525
g62
I3
ssg63
g519
sg56
(lp526
S''
asbasbasbag49
(g65
g51
NtRp527
(dp528
g54
(dp529
sg63
g423
sg56
(lp530
g49
(g70
g51
NtRp531
(dp532
g54
(dp533
g74
g75
ssg63
g527
sg56
(lp534
g368
asbag49
(g70
g51
NtRp535
(dp536
g54
(dp537
g81
g82
ssg63
g527
sg56
(lp538
S':'
asbag49
(g70
g51
NtRp539
(dp540
g54
(dp541
sg63
g527
sg56
(lp542
g49
(g50
g51
NtRp543
(dp544
g54
(dp545
g62
I3
ssg63
g539
sg56
(lp546
S''
asbasbasbag49
(g65
g51
NtRp547
(dp548
g54
(dp549
sg63
g423
sg56
(lp550
g49
(g70
g51
NtRp551
(dp552
g54
(dp553
g74
g75
ssg63
g547
sg56
(lp554
g389
asbag49
(g70
g51
NtRp555
(dp556
g54
(dp557
g81
g82
ssg63
g547
sg56
(lp558
S':'
asbag49
(g70
g51
NtRp559
(dp560
g54
(dp561
sg63
g547
sg56
(lp562
g49
(g50
g51
NtRp563
(dp564
g54
(dp565
g62
I3
ssg63
g559
sg56
(lp566
S''
asbasbasbasbasbasbasbag49
(g65
g51
NtRp567
(dp568
g54
(dp569
sg63
g226
sg56
(lp570
g49
(g70
g51
NtRp571
(dp572
g54
(dp573
g74
g75
ssg63
g567
sg56
(lp574
S'session_id_welcome'
p575
asbag49
(g70
g51
NtRp576
(dp577
g54
(dp578
g81
g82
ssg63
g567
sg56
(lp579
S':'
asbag49
(g70
g51
NtRp580
(dp581
g54
(dp582
sg63
g567
sg56
(lp583
g49
(g50
g51
NtRp584
(dp585
g54
(dp586
g62
I4
ssg63
g580
sg56
(lp587
g49
(g58
g51
NtRp588
(dp589
g54
(dp590
g62
I3
ssg63
Nsg56
(lp591
g49
(g65
g51
NtRp592
(dp593
g54
(dp594
sg63
g588
sg56
(lp595
g49
(g70
g51
NtRp596
(dp597
g54
(dp598
g74
g75
ssg63
g592
sg56
(lp599
g263
asbag49
(g70
g51
NtRp600
(dp601
g54
(dp602
g81
g82
ssg63
g592
sg56
(lp603
S':'
asbag49
(g70
g51
NtRp604
(dp605
g54
(dp606
sg63
g592
sg56
(lp607
g49
(g50
g51
NtRp608
(dp609
g54
(dp610
g62
I3
ssg63
g604
sg56
(lp611
S''
asbasbasbag49
(g65
g51
NtRp612
(dp613
g54
(dp614
sg63
g588
sg56
(lp615
g49
(g70
g51
NtRp616
(dp617
g54
(dp618
g74
g75
ssg63
g612
sg56
(lp619
g284
asbag49
(g70
g51
NtRp620
(dp621
g54
(dp622
g81
g82
ssg63
g612
sg56
(lp623
S':'
asbag49
(g70
g51
NtRp624
(dp625
g54
(dp626
sg63
g612
sg56
(lp627
g49
(g50
g51
NtRp628
(dp629
g54
(dp630
g62
I3
ssg63
g624
sg56
(lp631
S''
asbasbasbag49
(g65
g51
NtRp632
(dp633
g54
(dp634
sg63
g588
sg56
(lp635
g49
(g70
g51
NtRp636
(dp637
g54
(dp638
g74
g75
ssg63
g632
sg56
(lp639
g305
asbag49
(g70
g51
NtRp640
(dp641
g54
(dp642
g81
g82
ssg63
g632
sg56
(lp643
S':'
asbag49
(g70
g51
NtRp644
(dp645
g54
(dp646
sg63
g632
sg56
(lp647
g49
(g50
g51
NtRp648
(dp649
g54
(dp650
g62
I3
ssg63
g644
sg56
(lp651
S''
asbasbasbag49
(g65
g51
NtRp652
(dp653
g54
(dp654
sg63
g588
sg56
(lp655
g49
(g70
g51
NtRp656
(dp657
g54
(dp658
g74
g75
ssg63
g652
sg56
(lp659
g326
asbag49
(g70
g51
NtRp660
(dp661
g54
(dp662
g81
g82
ssg63
g652
sg56
(lp663
S':'
asbag49
(g70
g51
NtRp664
(dp665
g54
(dp666
sg63
g652
sg56
(lp667
g49
(g50
g51
NtRp668
(dp669
g54
(dp670
g62
I3
ssg63
g664
sg56
(lp671
S''
asbasbasbag49
(g65
g51
NtRp672
(dp673
g54
(dp674
sg63
g588
sg56
(lp675
g49
(g70
g51
NtRp676
(dp677
g54
(dp678
g74
g75
ssg63
g672
sg56
(lp679
g347
asbag49
(g70
g51
NtRp680
(dp681
g54
(dp682
g81
g82
ssg63
g672
sg56
(lp683
S':'
asbag49
(g70
g51
NtRp684
(dp685
g54
(dp686
sg63
g672
sg56
(lp687
g49
(g50
g51
NtRp688
(dp689
g54
(dp690
g62
I3
ssg63
g684
sg56
(lp691
S''
asbasbasbag49
(g65
g51
NtRp692
(dp693
g54
(dp694
sg63
g588
sg56
(lp695
g49
(g70
g51
NtRp696
(dp697
g54
(dp698
g74
g75
ssg63
g692
sg56
(lp699
g368
asbag49
(g70
g51
NtRp700
(dp701
g54
(dp702
g81
g82
ssg63
g692
sg56
(lp703
S':'
asbag49
(g70
g51
NtRp704
(dp705
g54
(dp706
sg63
g692
sg56
(lp707
g49
(g50
g51
NtRp708
(dp709
g54
(dp710
g62
I3
ssg63
g704
sg56
(lp711
S''
asbasbasbag49
(g65
g51
NtRp712
(dp713
g54
(dp714
sg63
g588
sg56
(lp715
g49
(g70
g51
NtRp716
(dp717
g54
(dp718
g74
g75
ssg63
g712
sg56
(lp719
g389
asbag49
(g70
g51
NtRp720
(dp721
g54
(dp722
g81
g82
ssg63
g712
sg56
(lp723
S':'
asbag49
(g70
g51
NtRp724
(dp725
g54
(dp726
sg63
g712
sg56
(lp727
g49
(g50
g51
NtRp728
(dp729
g54
(dp730
g62
I3
ssg63
g724
sg56
(lp731
S''
asbasbasbasbasbasbasbasbasbasbasbag49
(g65
g51
NtRp732
(dp733
g54
(dp734
sg63
g59
sg56
(lp735
g49
(g70
g51
NtRp736
(dp737
g54
(dp738
g74
g75
ssg63
g732
sg56
(lp739
S'env'
p740
asbag49
(g70
g51
NtRp741
(dp742
g54
(dp743
g81
g82
ssg63
g732
sg56
(lp744
S':'
asbag49
(g70
g51
NtRp745
(dp746
g54
(dp747
sg63
g732
sg56
(lp748
g49
(g50
g51
NtRp749
(dp750
g54
(dp751
g62
I5
ssg63
g745
sg56
(lp752
g49
(g58
g51
NtRp753
(dp754
g54
(dp755
g62
I4
ssg63
Nsg56
(lp756
g49
(g65
g51
NtRp757
(dp758
g54
(dp759
sg63
g753
sg56
(lp760
g49
(g70
g51
NtRp761
(dp762
g54
(dp763
g74
g75
ssg63
g757
sg56
(lp764
S'app_folders'
p765
asbag49
(g70
g51
NtRp766
(dp767
g54
(dp768
g81
g82
ssg63
g757
sg56
(lp769
S':'
asbag49
(g70
g51
NtRp770
(dp771
g54
(dp772
sg63
g757
sg56
(lp773
g49
(g50
g51
NtRp774
(dp775
g54
(dp776
g62
I4
ssg63
g770
sg56
(lp777
S"set(['C:\\\\Users\\\\bhanu\\\\Downloads\\\\Compressed\\\\web2py\\\\applications\\\\hostel\\\\', 'C:\\\\Users\\\\bhanu\\\\Downloads\\\\Compressed\\\\web2py\\\\applications\\\\admin\\\\', 'C:\\\\Users\\\\bhanu\\\\Downloads\\\\Compressed\\\\web2py\\\\applications\\\\welcome\\\\'])"
p778
asbasbasbag49
(g65
g51
NtRp779
(dp780
g54
(dp781
sg63
g753
sg56
(lp782
g49
(g70
g51
NtRp783
(dp784
g54
(dp785
g74
g75
ssg63
g779
sg56
(lp786
S'applications_parent'
p787
asbag49
(g70
g51
NtRp788
(dp789
g54
(dp790
g81
g82
ssg63
g779
sg56
(lp791
S':'
asbag49
(g70
g51
NtRp792
(dp793
g54
(dp794
sg63
g779
sg56
(lp795
g49
(g50
g51
NtRp796
(dp797
g54
(dp798
g62
I4
ssg63
g792
sg56
(lp799
S'C:\\Users\\bhanu\\Downloads\\Compressed\\web2py'
p800
asbasbasbag49
(g65
g51
NtRp801
(dp802
g54
(dp803
sg63
g753
sg56
(lp804
g49
(g70
g51
NtRp805
(dp806
g54
(dp807
g74
g75
ssg63
g801
sg56
(lp808
S'cmd_args'
p809
asbag49
(g70
g51
NtRp810
(dp811
g54
(dp812
g81
g82
ssg63
g801
sg56
(lp813
S':'
asbag49
(g70
g51
NtRp814
(dp815
g54
(dp816
sg63
g801
sg56
(lp817
g49
(g50
g51
NtRp818
(dp819
g54
(dp820
g62
I4
ssg63
g814
sg56
(lp821
g49
(g58
g51
NtRp822
(dp823
g54
(dp824
g62
I3
ssg63
Nsg56
(lp825
sbasbasbasbag49
(g65
g51
NtRp826
(dp827
g54
(dp828
sg63
g753
sg56
(lp829
g49
(g70
g51
NtRp830
(dp831
g54
(dp832
g74
g75
ssg63
g826
sg56
(lp833
S'cmd_options'
p834
asbag49
(g70
g51
NtRp835
(dp836
g54
(dp837
g81
g82
ssg63
g826
sg56
(lp838
S':'
asbag49
(g70
g51
NtRp839
(dp840
g54
(dp841
sg63
g826
sg56
(lp842
g49
(g50
g51
NtRp843
(dp844
g54
(dp845
g62
I4
ssg63
g839
sg56
(lp846
S"<Values at 0x2ff1f58: {'verbose': False, 'ip': '127.0.0.1', 'shutdown_timeout': 5, 'taskbar': False, 'nocron': False, 'pid_filename': 'httpserver.pid', 'maxthreads': None, 'softcron': False, 'server_name': 'bhanu-PC', 'bpython': False, 'nogui': False, 'port': 8000, 'extcron': False, 'debuglevel': 30, 'test': None, 'folder': 'C:\\\\Users\\\\bhanu\\\\Downloads\\\\Compressed\\\\web2py', 'config': '', 'import_models': False, 'winservice': '', 'shell': None, 'run': '', 'log_filename': 'httpserver.log', 'args': [''], 'socket_timeout': 5, 'ssl_ca_certificate': None, 'scheduler': None, 'profiler_filename': None, 'ssl_private_key': '', 'password': '<ask>', 'request_queue_size': 5, 'ssl_certificate': '', 'cronjob': False, 'numthreads': None, 'quiet': False, 'interfaces': None, 'minthreads': None, 'timeout': 10, 'plain': False, 'nobanner': False}>"
p847
asbasbasbag49
(g65
g51
NtRp848
(dp849
g54
(dp850
sg63
g753
sg56
(lp851
g49
(g70
g51
NtRp852
(dp853
g54
(dp854
g74
g75
ssg63
g848
sg56
(lp855
S'db_sessions'
p856
asbag49
(g70
g51
NtRp857
(dp858
g54
(dp859
g81
g82
ssg63
g848
sg56
(lp860
S':'
asbag49
(g70
g51
NtRp861
(dp862
g54
(dp863
sg63
g848
sg56
(lp864
g49
(g50
g51
NtRp865
(dp866
g54
(dp867
g62
I4
ssg63
g861
sg56
(lp868
S'set([])'
p869
asbasbasbag49
(g65
g51
NtRp870
(dp871
g54
(dp872
sg63
g753
sg56
(lp873
g49
(g70
g51
NtRp874
(dp875
g54
(dp876
g74
g75
ssg63
g870
sg56
(lp877
S'debugging'
p878
asbag49
(g70
g51
NtRp879
(dp880
g54
(dp881
g81
g82
ssg63
g870
sg56
(lp882
S':'
asbag49
(g70
g51
NtRp883
(dp884
g54
(dp885
sg63
g870
sg56
(lp886
g49
(g50
g51
NtRp887
(dp888
g54
(dp889
g62
I4
ssg63
g883
sg56
(lp890
g92
asbasbasbag49
(g65
g51
NtRp891
(dp892
g54
(dp893
sg63
g753
sg56
(lp894
g49
(g70
g51
NtRp895
(dp896
g54
(dp897
g74
g75
ssg63
g891
sg56
(lp898
S'gluon_parent'
p899
asbag49
(g70
g51
NtRp900
(dp901
g54
(dp902
g81
g82
ssg63
g891
sg56
(lp903
S':'
asbag49
(g70
g51
NtRp904
(dp905
g54
(dp906
sg63
g891
sg56
(lp907
g49
(g50
g51
NtRp908
(dp909
g54
(dp910
g62
I4
ssg63
g904
sg56
(lp911
S'C:\\Users\\bhanu\\Downloads\\Compressed\\web2py'
p912
asbasbasbag49
(g65
g51
NtRp913
(dp914
g54
(dp915
sg63
g753
sg56
(lp916
g49
(g70
g51
NtRp917
(dp918
g54
(dp919
g74
g75
ssg63
g913
sg56
(lp920
S'http_accept'
p921
asbag49
(g70
g51
NtRp922
(dp923
g54
(dp924
g81
g82
ssg63
g913
sg56
(lp925
S':'
asbag49
(g70
g51
NtRp926
(dp927
g54
(dp928
sg63
g913
sg56
(lp929
g49
(g50
g51
NtRp930
(dp931
g54
(dp932
g62
I4
ssg63
g926
sg56
(lp933
S'text/html,application/xhtml+xml,application/xml;q=0.9,*/*;q=0.8'
p934
asbasbasbag49
(g65
g51
NtRp935
(dp936
g54
(dp937
sg63
g753
sg56
(lp938
g49
(g70
g51
NtRp939
(dp940
g54
(dp941
g74
g75
ssg63
g935
sg56
(lp942
S'http_accept_charset'
p943
asbag49
(g70
g51
NtRp944
(dp945
g54
(dp946
g81
g82
ssg63
g935
sg56
(lp947
S':'
asbag49
(g70
g51
NtRp948
(dp949
g54
(dp950
sg63
g935
sg56
(lp951
g49
(g50
g51
NtRp952
(dp953
g54
(dp954
g62
I4
ssg63
g948
sg56
(lp955
S'ISO-8859-1,utf-8;q=0.7,*;q=0.3'
p956
asbasbasbag49
(g65
g51
NtRp957
(dp958
g54
(dp959
sg63
g753
sg56
(lp960
g49
(g70
g51
NtRp961
(dp962
g54
(dp963
g74
g75
ssg63
g957
sg56
(lp964
S'http_accept_encoding'
p965
asbag49
(g70
g51
NtRp966
(dp967
g54
(dp968
g81
g82
ssg63
g957
sg56
(lp969
S':'
asbag49
(g70
g51
NtRp970
(dp971
g54
(dp972
sg63
g957
sg56
(lp973
g49
(g50
g51
NtRp974
(dp975
g54
(dp976
g62
I4
ssg63
g970
sg56
(lp977
S'gzip,deflate,sdch'
p978
asbasbasbag49
(g65
g51
NtRp979
(dp980
g54
(dp981
sg63
g753
sg56
(lp982
g49
(g70
g51
NtRp983
(dp984
g54
(dp985
g74
g75
ssg63
g979
sg56
(lp986
S'http_accept_language'
p987
asbag49
(g70
g51
NtRp988
(dp989
g54
(dp990
g81
g82
ssg63
g979
sg56
(lp991
S':'
asbag49
(g70
g51
NtRp992
(dp993
g54
(dp994
sg63
g979
sg56
(lp995
g49
(g50
g51
NtRp996
(dp997
g54
(dp998
g62
I4
ssg63
g992
sg56
(lp999
S'en-US,en;q=0.8'
p1000
asbasbasbag49
(g65
g51
NtRp1001
(dp1002
g54
(dp1003
sg63
g753
sg56
(lp1004
g49
(g70
g51
NtRp1005
(dp1006
g54
(dp1007
g74
g75
ssg63
g1001
sg56
(lp1008
S'http_connection'
p1009
asbag49
(g70
g51
NtRp1010
(dp1011
g54
(dp1012
g81
g82
ssg63
g1001
sg56
(lp1013
S':'
asbag49
(g70
g51
NtRp1014
(dp1015
g54
(dp1016
sg63
g1001
sg56
(lp1017
g49
(g50
g51
NtRp1018
(dp1019
g54
(dp1020
g62
I4
ssg63
g1014
sg56
(lp1021
S'keep-alive'
p1022
asbasbasbag49
(g65
g51
NtRp1023
(dp1024
g54
(dp1025
sg63
g753
sg56
(lp1026
g49
(g70
g51
NtRp1027
(dp1028
g54
(dp1029
g74
g75
ssg63
g1023
sg56
(lp1030
S'http_cookie'
p1031
asbag49
(g70
g51
NtRp1032
(dp1033
g54
(dp1034
g81
g82
ssg63
g1023
sg56
(lp1035
S':'
asbag49
(g70
g51
NtRp1036
(dp1037
g54
(dp1038
sg63
g1023
sg56
(lp1039
g49
(g50
g51
NtRp1040
(dp1041
g54
(dp1042
g62
I4
ssg63
g1036
sg56
(lp1043
S'session_id_welcome=127.0.0.1-0a47a462-6a20-4173-8dd2-50f90736860f; session_id_admin=127.0.0.1-f26bd4fe-fe2c-4c9f-a525-6597b92e9213; session_id_hostel=127.0.0.1-592ebfc1-bed1-4bb6-b53a-beb05681dea6'
p1044
asbasbasbag49
(g65
g51
NtRp1045
(dp1046
g54
(dp1047
sg63
g753
sg56
(lp1048
g49
(g70
g51
NtRp1049
(dp1050
g54
(dp1051
g74
g75
ssg63
g1045
sg56
(lp1052
S'http_host'
p1053
asbag49
(g70
g51
NtRp1054
(dp1055
g54
(dp1056
g81
g82
ssg63
g1045
sg56
(lp1057
S':'
asbag49
(g70
g51
NtRp1058
(dp1059
g54
(dp1060
sg63
g1045
sg56
(lp1061
g49
(g50
g51
NtRp1062
(dp1063
g54
(dp1064
g62
I4
ssg63
g1058
sg56
(lp1065
S'127.0.0.1:8000'
p1066
asbasbasbag49
(g65
g51
NtRp1067
(dp1068
g54
(dp1069
sg63
g753
sg56
(lp1070
g49
(g70
g51
NtRp1071
(dp1072
g54
(dp1073
g74
g75
ssg63
g1067
sg56
(lp1074
S'http_referer'
p1075
asbag49
(g70
g51
NtRp1076
(dp1077
g54
(dp1078
g81
g82
ssg63
g1067
sg56
(lp1079
S':'
asbag49
(g70
g51
NtRp1080
(dp1081
g54
(dp1082
sg63
g1067
sg56
(lp1083
g49
(g50
g51
NtRp1084
(dp1085
g54
(dp1086
g62
I4
ssg63
g1080
sg56
(lp1087
S'http://127.0.0.1:8000/hostel/appadmin/select/db?query=db.poll.id%3E0'
p1088
asbasbasbag49
(g65
g51
NtRp1089
(dp1090
g54
(dp1091
sg63
g753
sg56
(lp1092
g49
(g70
g51
NtRp1093
(dp1094
g54
(dp1095
g74
g75
ssg63
g1089
sg56
(lp1096
S'http_user_agent'
p1097
asbag49
(g70
g51
NtRp1098
(dp1099
g54
(dp1100
g81
g82
ssg63
g1089
sg56
(lp1101
S':'
asbag49
(g70
g51
NtRp1102
(dp1103
g54
(dp1104
sg63
g1089
sg56
(lp1105
g49
(g50
g51
NtRp1106
(dp1107
g54
(dp1108
g62
I4
ssg63
g1102
sg56
(lp1109
S'Mozilla/5.0 (Windows NT 6.1; WOW64) AppleWebKit/537.4 (KHTML, like Gecko) Chrome/22.0.1229.94 Safari/537.4'
p1110
asbasbasbag49
(g65
g51
NtRp1111
(dp1112
g54
(dp1113
sg63
g753
sg56
(lp1114
g49
(g70
g51
NtRp1115
(dp1116
g54
(dp1117
g74
g75
ssg63
g1111
sg56
(lp1118
S'is_jython'
p1119
asbag49
(g70
g51
NtRp1120
(dp1121
g54
(dp1122
g81
g82
ssg63
g1111
sg56
(lp1123
S':'
asbag49
(g70
g51
NtRp1124
(dp1125
g54
(dp1126
sg63
g1111
sg56
(lp1127
g49
(g50
g51
NtRp1128
(dp1129
g54
(dp1130
g62
I4
ssg63
g1124
sg56
(lp1131
g92
asbasbasbag49
(g65
g51
NtRp1132
(dp1133
g54
(dp1134
sg63
g753
sg56
(lp1135
g49
(g70
g51
NtRp1136
(dp1137
g54
(dp1138
g74
g75
ssg63
g1132
sg56
(lp1139
S'is_pypy'
p1140
asbag49
(g70
g51
NtRp1141
(dp1142
g54
(dp1143
g81
g82
ssg63
g1132
sg56
(lp1144
S':'
asbag49
(g70
g51
NtRp1145
(dp1146
g54
(dp1147
sg63
g1132
sg56
(lp1148
g49
(g50
g51
NtRp1149
(dp1150
g54
(dp1151
g62
I4
ssg63
g1145
sg56
(lp1152
g92
asbasbasbag49
(g65
g51
NtRp1153
(dp1154
g54
(dp1155
sg63
g753
sg56
(lp1156
g49
(g70
g51
NtRp1157
(dp1158
g54
(dp1159
g74
g75
ssg63
g1153
sg56
(lp1160
S'path_info'
p1161
asbag49
(g70
g51
NtRp1162
(dp1163
g54
(dp1164
g81
g82
ssg63
g1153
sg56
(lp1165
S':'
asbag49
(g70
g51
NtRp1166
(dp1167
g54
(dp1168
sg63
g1153
sg56
(lp1169
g49
(g50
g51
NtRp1170
(dp1171
g54
(dp1172
g62
I4
ssg63
g1166
sg56
(lp1173
S'/hostel/appadmin/ccache'
p1174
asbasbasbag49
(g65
g51
NtRp1175
(dp1176
g54
(dp1177
sg63
g753
sg56
(lp1178
g49
(g70
g51
NtRp1179
(dp1180
g54
(dp1181
g74
g75
ssg63
g1175
sg56
(lp1182
S'query_string'
p1183
asbag49
(g70
g51
NtRp1184
(dp1185
g54
(dp1186
g81
g82
ssg63
g1175
sg56
(lp1187
S':'
asbag49
(g70
g51
NtRp1188
(dp1189
g54
(dp1190
sg63
g1175
sg56
(lp1191
g49
(g50
g51
NtRp1192
(dp1193
g54
(dp1194
g62
I4
ssg63
g1188
sg56
(lp1195
S''
asbasbasbag49
(g65
g51
NtRp1196
(dp1197
g54
(dp1198
sg63
g753
sg56
(lp1199
g49
(g70
g51
NtRp1200
(dp1201
g54
(dp1202
g74
g75
ssg63
g1196
sg56
(lp1203
S'remote_addr'
p1204
asbag49
(g70
g51
NtRp1205
(dp1206
g54
(dp1207
g81
g82
ssg63
g1196
sg56
(lp1208
S':'
asbag49
(g70
g51
NtRp1209
(dp1210
g54
(dp1211
sg63
g1196
sg56
(lp1212
g49
(g50
g51
NtRp1213
(dp1214
g54
(dp1215
g62
I4
ssg63
g1209
sg56
(lp1216
g182
asbasbasbag49
(g65
g51
NtRp1217
(dp1218
g54
(dp1219
sg63
g753
sg56
(lp1220
g49
(g70
g51
NtRp1221
(dp1222
g54
(dp1223
g74
g75
ssg63
g1217
sg56
(lp1224
S'remote_port'
p1225
asbag49
(g70
g51
NtRp1226
(dp1227
g54
(dp1228
g81
g82
ssg63
g1217
sg56
(lp1229
S':'
asbag49
(g70
g51
NtRp1230
(dp1231
g54
(dp1232
sg63
g1217
sg56
(lp1233
g49
(g50
g51
NtRp1234
(dp1235
g54
(dp1236
g62
I4
ssg63
g1230
sg56
(lp1237
S'49183'
p1238
asbasbasbag49
(g65
g51
NtRp1239
(dp1240
g54
(dp1241
sg63
g753
sg56
(lp1242
g49
(g70
g51
NtRp1243
(dp1244
g54
(dp1245
g74
g75
ssg63
g1239
sg56
(lp1246
S'request_method'
p1247
asbag49
(g70
g51
NtRp1248
(dp1249
g54
(dp1250
g81
g82
ssg63
g1239
sg56
(lp1251
S':'
asbag49
(g70
g51
NtRp1252
(dp1253
g54
(dp1254
sg63
g1239
sg56
(lp1255
g49
(g50
g51
NtRp1256
(dp1257
g54
(dp1258
g62
I4
ssg63
g1252
sg56
(lp1259
S'GET'
p1260
asbasbasbag49
(g65
g51
NtRp1261
(dp1262
g54
(dp1263
sg63
g753
sg56
(lp1264
g49
(g70
g51
NtRp1265
(dp1266
g54
(dp1267
g74
g75
ssg63
g1261
sg56
(lp1268
S'script_name'
p1269
asbag49
(g70
g51
NtRp1270
(dp1271
g54
(dp1272
g81
g82
ssg63
g1261
sg56
(lp1273
S':'
asbag49
(g70
g51
NtRp1274
(dp1275
g54
(dp1276
sg63
g1261
sg56
(lp1277
g49
(g50
g51
NtRp1278
(dp1279
g54
(dp1280
g62
I4
ssg63
g1274
sg56
(lp1281
S''
asbasbasbag49
(g65
g51
NtRp1282
(dp1283
g54
(dp1284
sg63
g753
sg56
(lp1285
g49
(g70
g51
NtRp1286
(dp1287
g54
(dp1288
g74
g75
ssg63
g1282
sg56
(lp1289
S'server_name'
p1290
asbag49
(g70
g51
NtRp1291
(dp1292
g54
(dp1293
g81
g82
ssg63
g1282
sg56
(lp1294
S':'
asbag49
(g70
g51
NtRp1295
(dp1296
g54
(dp1297
sg63
g1282
sg56
(lp1298
g49
(g50
g51
NtRp1299
(dp1300
g54
(dp1301
g62
I4
ssg63
g1295
sg56
(lp1302
S'bhanu-PC'
p1303
asbasbasbag49
(g65
g51
NtRp1304
(dp1305
g54
(dp1306
sg63
g753
sg56
(lp1307
g49
(g70
g51
NtRp1308
(dp1309
g54
(dp1310
g74
g75
ssg63
g1304
sg56
(lp1311
S'server_port'
p1312
asbag49
(g70
g51
NtRp1313
(dp1314
g54
(dp1315
g81
g82
ssg63
g1304
sg56
(lp1316
S':'
asbag49
(g70
g51
NtRp1317
(dp1318
g54
(dp1319
sg63
g1304
sg56
(lp1320
g49
(g50
g51
NtRp1321
(dp1322
g54
(dp1323
g62
I4
ssg63
g1317
sg56
(lp1324
S'8000'
p1325
asbasbasbag49
(g65
g51
NtRp1326
(dp1327
g54
(dp1328
sg63
g753
sg56
(lp1329
g49
(g70
g51
NtRp1330
(dp1331
g54
(dp1332
g74
g75
ssg63
g1326
sg56
(lp1333
S'server_protocol'
p1334
asbag49
(g70
g51
NtRp1335
(dp1336
g54
(dp1337
g81
g82
ssg63
g1326
sg56
(lp1338
S':'
asbag49
(g70
g51
NtRp1339
(dp1340
g54
(dp1341
sg63
g1326
sg56
(lp1342
g49
(g50
g51
NtRp1343
(dp1344
g54
(dp1345
g62
I4
ssg63
g1339
sg56
(lp1346
S'HTTP/1.1'
p1347
asbasbasbag49
(g65
g51
NtRp1348
(dp1349
g54
(dp1350
sg63
g753
sg56
(lp1351
g49
(g70
g51
NtRp1352
(dp1353
g54
(dp1354
g74
g75
ssg63
g1348
sg56
(lp1355
S'server_software'
p1356
asbag49
(g70
g51
NtRp1357
(dp1358
g54
(dp1359
g81
g82
ssg63
g1348
sg56
(lp1360
S':'
asbag49
(g70
g51
NtRp1361
(dp1362
g54
(dp1363
sg63
g1348
sg56
(lp1364
g49
(g50
g51
NtRp1365
(dp1366
g54
(dp1367
g62
I4
ssg63
g1361
sg56
(lp1368
S'Rocket 1.2.4'
p1369
asbasbasbag49
(g65
g51
NtRp1370
(dp1371
g54
(dp1372
sg63
g753
sg56
(lp1373
g49
(g70
g51
NtRp1374
(dp1375
g54
(dp1376
g74
g75
ssg63
g1370
sg56
(lp1377
S'web2py_crontype'
p1378
asbag49
(g70
g51
NtRp1379
(dp1380
g54
(dp1381
g81
g82
ssg63
g1370
sg56
(lp1382
S':'
asbag49
(g70
g51
NtRp1383
(dp1384
g54
(dp1385
sg63
g1370
sg56
(lp1386
g49
(g50
g51
NtRp1387
(dp1388
g54
(dp1389
g62
I4
ssg63
g1383
sg56
(lp1390
S'hard'
p1391
asbasbasbag49
(g65
g51
NtRp1392
(dp1393
g54
(dp1394
sg63
g753
sg56
(lp1395
g49
(g70
g51
NtRp1396
(dp1397
g54
(dp1398
g74
g75
ssg63
g1392
sg56
(lp1399
S'web2py_path'
p1400
asbag49
(g70
g51
NtRp1401
(dp1402
g54
(dp1403
g81
g82
ssg63
g1392
sg56
(lp1404
S':'
asbag49
(g70
g51
NtRp1405
(dp1406
g54
(dp1407
sg63
g1392
sg56
(lp1408
g49
(g50
g51
NtRp1409
(dp1410
g54
(dp1411
g62
I4
ssg63
g1405
sg56
(lp1412
g800
asbasbasbag49
(g65
g51
NtRp1413
(dp1414
g54
(dp1415
sg63
g753
sg56
(lp1416
g49
(g70
g51
NtRp1417
(dp1418
g54
(dp1419
g74
g75
ssg63
g1413
sg56
(lp1420
S'web2py_version'
p1421
asbag49
(g70
g51
NtRp1422
(dp1423
g54
(dp1424
g81
g82
ssg63
g1413
sg56
(lp1425
S':'
asbag49
(g70
g51
NtRp1426
(dp1427
g54
(dp1428
sg63
g1413
sg56
(lp1429
g49
(g50
g51
NtRp1430
(dp1431
g54
(dp1432
g62
I4
ssg63
g1426
sg56
(lp1433
g49
(g58
g51
NtRp1434
(dp1435
g54
(dp1436
g62
I3
ssg63
Nsg56
(lp1437
g49
(g65
g51
NtRp1438
(dp1439
g54
(dp1440
sg63
g1434
sg56
(lp1441
g49
(g70
g51
NtRp1442
(dp1443
g54
(dp1444
sg63
g1438
sg56
(lp1445
g49
(g50
g51
NtRp1446
(dp1447
g54
(dp1448
g62
I3
ssg63
g1442
sg56
(lp1449
S'1'
asbasbasbag49
(g65
g51
NtRp1450
(dp1451
g54
(dp1452
sg63
g1434
sg56
(lp1453
g49
(g70
g51
NtRp1454
(dp1455
g54
(dp1456
sg63
g1450
sg56
(lp1457
g49
(g50
g51
NtRp1458
(dp1459
g54
(dp1460
g62
I3
ssg63
g1454
sg56
(lp1461
S'99'
p1462
asbasbasbag49
(g65
g51
NtRp1463
(dp1464
g54
(dp1465
sg63
g1434
sg56
(lp1466
g49
(g70
g51
NtRp1467
(dp1468
g54
(dp1469
sg63
g1463
sg56
(lp1470
g49
(g50
g51
NtRp1471
(dp1472
g54
(dp1473
g62
I3
ssg63
g1467
sg56
(lp1474
S'7'
asbasbasbag49
(g65
g51
NtRp1475
(dp1476
g54
(dp1477
sg63
g1434
sg56
(lp1478
g49
(g70
g51
NtRp1479
(dp1480
g54
(dp1481
sg63
g1475
sg56
(lp1482
g49
(g50
g51
NtRp1483
(dp1484
g54
(dp1485
g62
I3
ssg63
g1479
sg56
(lp1486
S'datetime.datetime(2012, 3, 4, 22, 12, 8)'
p1487
asbasbasbag49
(g65
g51
NtRp1488
(dp1489
g54
(dp1490
sg63
g1434
sg56
(lp1491
g49
(g70
g51
NtRp1492
(dp1493
g54
(dp1494
sg63
g1488
sg56
(lp1495
g49
(g50
g51
NtRp1496
(dp1497
g54
(dp1498
g62
I3
ssg63
g1492
sg56
(lp1499
S'stable'
p1500
asbasbasbasbasbasbasbag49
(g65
g51
NtRp1501
(dp1502
g54
(dp1503
sg63
g753
sg56
(lp1504
g49
(g70
g51
NtRp1505
(dp1506
g54
(dp1507
g74
g75
ssg63
g1501
sg56
(lp1508
S'wsgi_errors'
p1509
asbag49
(g70
g51
NtRp1510
(dp1511
g54
(dp1512
g81
g82
ssg63
g1501
sg56
(lp1513
S':'
asbag49
(g70
g51
NtRp1514
(dp1515
g54
(dp1516
sg63
g1501
sg56
(lp1517
g49
(g50
g51
NtRp1518
(dp1519
g54
(dp1520
g62
I4
ssg63
g1514
sg56
(lp1521
S"<open file '<stderr>', mode 'w' at 0x01D600B0>"
p1522
asbasbasbag49
(g65
g51
NtRp1523
(dp1524
g54
(dp1525
sg63
g753
sg56
(lp1526
g49
(g70
g51
NtRp1527
(dp1528
g54
(dp1529
g74
g75
ssg63
g1523
sg56
(lp1530
S'wsgi_file_wrapper'
p1531
asbag49
(g70
g51
NtRp1532
(dp1533
g54
(dp1534
g81
g82
ssg63
g1523
sg56
(lp1535
S':'
asbag49
(g70
g51
NtRp1536
(dp1537
g54
(dp1538
sg63
g1523
sg56
(lp1539
g49
(g50
g51
NtRp1540
(dp1541
g54
(dp1542
g62
I4
ssg63
g1536
sg56
(lp1543
S'<class wsgiref.util.FileWrapper at 0x02D96450>'
p1544
asbasbasbag49
(g65
g51
NtRp1545
(dp1546
g54
(dp1547
sg63
g753
sg56
(lp1548
g49
(g70
g51
NtRp1549
(dp1550
g54
(dp1551
g74
g75
ssg63
g1545
sg56
(lp1552
S'wsgi_input'
p1553
asbag49
(g70
g51
NtRp1554
(dp1555
g54
(dp1556
g81
g82
ssg63
g1545
sg56
(lp1557
S':'
asbag49
(g70
g51
NtRp1558
(dp1559
g54
(dp1560
sg63
g1545
sg56
(lp1561
g49
(g50
g51
NtRp1562
(dp1563
g54
(dp1564
g62
I4
ssg63
g1558
sg56
(lp1565
S'<socket._fileobject object at 0x071D7BB0>'
p1566
asbasbasbag49
(g65
g51
NtRp1567
(dp1568
g54
(dp1569
sg63
g753
sg56
(lp1570
g49
(g70
g51
NtRp1571
(dp1572
g54
(dp1573
g74
g75
ssg63
g1567
sg56
(lp1574
S'wsgi_multiprocess'
p1575
asbag49
(g70
g51
NtRp1576
(dp1577
g54
(dp1578
g81
g82
ssg63
g1567
sg56
(lp1579
S':'
asbag49
(g70
g51
NtRp1580
(dp1581
g54
(dp1582
sg63
g1567
sg56
(lp1583
g49
(g50
g51
NtRp1584
(dp1585
g54
(dp1586
g62
I4
ssg63
g1580
sg56
(lp1587
g92
asbasbasbag49
(g65
g51
NtRp1588
(dp1589
g54
(dp1590
sg63
g753
sg56
(lp1591
g49
(g70
g51
NtRp1592
(dp1593
g54
(dp1594
g74
g75
ssg63
g1588
sg56
(lp1595
S'wsgi_multithread'
p1596
asbag49
(g70
g51
NtRp1597
(dp1598
g54
(dp1599
g81
g82
ssg63
g1588
sg56
(lp1600
S':'
asbag49
(g70
g51
NtRp1601
(dp1602
g54
(dp1603
sg63
g1588
sg56
(lp1604
g49
(g50
g51
NtRp1605
(dp1606
g54
(dp1607
g62
I4
ssg63
g1601
sg56
(lp1608
S'True'
p1609
asbasbasbag49
(g65
g51
NtRp1610
(dp1611
g54
(dp1612
sg63
g753
sg56
(lp1613
g49
(g70
g51
NtRp1614
(dp1615
g54
(dp1616
g74
g75
ssg63
g1610
sg56
(lp1617
S'wsgi_run_once'
p1618
asbag49
(g70
g51
NtRp1619
(dp1620
g54
(dp1621
g81
g82
ssg63
g1610
sg56
(lp1622
S':'
asbag49
(g70
g51
NtRp1623
(dp1624
g54
(dp1625
sg63
g1610
sg56
(lp1626
g49
(g50
g51
NtRp1627
(dp1628
g54
(dp1629
g62
I4
ssg63
g1623
sg56
(lp1630
g92
asbasbasbag49
(g65
g51
NtRp1631
(dp1632
g54
(dp1633
sg63
g753
sg56
(lp1634
g49
(g70
g51
NtRp1635
(dp1636
g54
(dp1637
g74
g75
ssg63
g1631
sg56
(lp1638
S'wsgi_url_scheme'
p1639
asbag49
(g70
g51
NtRp1640
(dp1641
g54
(dp1642
g81
g82
ssg63
g1631
sg56
(lp1643
S':'
asbag49
(g70
g51
NtRp1644
(dp1645
g54
(dp1646
sg63
g1631
sg56
(lp1647
g49
(g50
g51
NtRp1648
(dp1649
g54
(dp1650
g62
I4
ssg63
g1644
sg56
(lp1651
S'http'
p1652
asbasbasbag49
(g65
g51
NtRp1653
(dp1654
g54
(dp1655
sg63
g753
sg56
(lp1656
g49
(g70
g51
NtRp1657
(dp1658
g54
(dp1659
g74
g75
ssg63
g1653
sg56
(lp1660
S'wsgi_version'
p1661
asbag49
(g70
g51
NtRp1662
(dp1663
g54
(dp1664
g81
g82
ssg63
g1653
sg56
(lp1665
S':'
asbag49
(g70
g51
NtRp1666
(dp1667
g54
(dp1668
sg63
g1653
sg56
(lp1669
g49
(g50
g51
NtRp1670
(dp1671
g54
(dp1672
g62
I4
ssg63
g1666
sg56
(lp1673
g49
(g58
g51
NtRp1674
(dp1675
g54
(dp1676
g62
I3
ssg63
Nsg56
(lp1677
g49
(g65
g51
NtRp1678
(dp1679
g54
(dp1680
sg63
g1674
sg56
(lp1681
g49
(g70
g51
NtRp1682
(dp1683
g54
(dp1684
sg63
g1678
sg56
(lp1685
g49
(g50
g51
NtRp1686
(dp1687
g54
(dp1688
g62
I3
ssg63
g1682
sg56
(lp1689
S'1'
asbasbasbag49
(g65
g51
NtRp1690
(dp1691
g54
(dp1692
sg63
g1674
sg56
(lp1693
g49
(g70
g51
NtRp1694
(dp1695
g54
(dp1696
sg63
g1690
sg56
(lp1697
g49
(g50
g51
NtRp1698
(dp1699
g54
(dp1700
g62
I3
ssg63
g1694
sg56
(lp1701
S'0'
asbasbasbasbasbasbasbasbasbasbasbag49
(g65
g51
NtRp1702
(dp1703
g54
(dp1704
sg63
g59
sg56
(lp1705
g49
(g70
g51
NtRp1706
(dp1707
g54
(dp1708
g74
g75
ssg63
g1702
sg56
(lp1709
S'extension'
p1710
asbag49
(g70
g51
NtRp1711
(dp1712
g54
(dp1713
g81
g82
ssg63
g1702
sg56
(lp1714
S':'
asbag49
(g70
g51
NtRp1715
(dp1716
g54
(dp1717
sg63
g1702
sg56
(lp1718
g49
(g50
g51
NtRp1719
(dp1720
g54
(dp1721
g62
I5
ssg63
g1715
sg56
(lp1722
S'html'
p1723
asbasbasbag49
(g65
g51
NtRp1724
(dp1725
g54
(dp1726
sg63
g59
sg56
(lp1727
g49
(g70
g51
NtRp1728
(dp1729
g54
(dp1730
g74
g75
ssg63
g1724
sg56
(lp1731
S'folder'
p1732
asbag49
(g70
g51
NtRp1733
(dp1734
g54
(dp1735
g81
g82
ssg63
g1724
sg56
(lp1736
S':'
asbag49
(g70
g51
NtRp1737
(dp1738
g54
(dp1739
sg63
g1724
sg56
(lp1740
g49
(g50
g51
NtRp1741
(dp1742
g54
(dp1743
g62
I5
ssg63
g1737
sg56
(lp1744
S'C:\\Users\\bhanu\\Downloads\\Compressed\\web2py\\applications\\hostel\\'
p1745
asbasbasbag49
(g65
g51
NtRp1746
(dp1747
g54
(dp1748
sg63
g59
sg56
(lp1749
g49
(g70
g51
NtRp1750
(dp1751
g54
(dp1752
g74
g75
ssg63
g1746
sg56
(lp1753
S'function'
p1754
asbag49
(g70
g51
NtRp1755
(dp1756
g54
(dp1757
g81
g82
ssg63
g1746
sg56
(lp1758
S':'
asbag49
(g70
g51
NtRp1759
(dp1760
g54
(dp1761
sg63
g1746
sg56
(lp1762
g49
(g50
g51
NtRp1763
(dp1764
g54
(dp1765
g62
I5
ssg63
g1759
sg56
(lp1766
S'ccache'
p1767
asbasbasbag49
(g65
g51
NtRp1768
(dp1769
g54
(dp1770
sg63
g59
sg56
(lp1771
g49
(g70
g51
NtRp1772
(dp1773
g54
(dp1774
g74
g75
ssg63
g1768
sg56
(lp1775
S'get_vars'
p1776
asbag49
(g70
g51
NtRp1777
(dp1778
g54
(dp1779
g81
g82
ssg63
g1768
sg56
(lp1780
S':'
asbag49
(g70
g51
NtRp1781
(dp1782
g54
(dp1783
sg63
g1768
sg56
(lp1784
g49
(g50
g51
NtRp1785
(dp1786
g54
(dp1787
g62
I5
ssg63
g1781
sg56
(lp1788
g49
(g58
g51
NtRp1789
(dp1790
g54
(dp1791
g62
I4
ssg63
Nsg56
(lp1792
sbasbasbasbag49
(g65
g51
NtRp1793
(dp1794
g54
(dp1795
sg63
g59
sg56
(lp1796
g49
(g70
g51
NtRp1797
(dp1798
g54
(dp1799
g74
g75
ssg63
g1793
sg56
(lp1800
S'global_settings'
p1801
asbag49
(g70
g51
NtRp1802
(dp1803
g54
(dp1804
g81
g82
ssg63
g1793
sg56
(lp1805
S':'
asbag49
(g70
g51
NtRp1806
(dp1807
g54
(dp1808
sg63
g1793
sg56
(lp1809
g49
(g50
g51
NtRp1810
(dp1811
g54
(dp1812
g62
I5
ssg63
g1806
sg56
(lp1813
g49
(g58
g51
NtRp1814
(dp1815
g54
(dp1816
g62
I4
ssg63
Nsg56
(lp1817
g49
(g65
g51
NtRp1818
(dp1819
g54
(dp1820
sg63
g1814
sg56
(lp1821
g49
(g70
g51
NtRp1822
(dp1823
g54
(dp1824
g74
g75
ssg63
g1818
sg56
(lp1825
g765
asbag49
(g70
g51
NtRp1826
(dp1827
g54
(dp1828
g81
g82
ssg63
g1818
sg56
(lp1829
S':'
asbag49
(g70
g51
NtRp1830
(dp1831
g54
(dp1832
sg63
g1818
sg56
(lp1833
g49
(g50
g51
NtRp1834
(dp1835
g54
(dp1836
g62
I4
ssg63
g1830
sg56
(lp1837
S"set(['C:\\\\Users\\\\bhanu\\\\Downloads\\\\Compressed\\\\web2py\\\\applications\\\\hostel\\\\', 'C:\\\\Users\\\\bhanu\\\\Downloads\\\\Compressed\\\\web2py\\\\applications\\\\admin\\\\', 'C:\\\\Users\\\\bhanu\\\\Downloads\\\\Compressed\\\\web2py\\\\applications\\\\welcome\\\\'])"
p1838
asbasbasbag49
(g65
g51
NtRp1839
(dp1840
g54
(dp1841
sg63
g1814
sg56
(lp1842
g49
(g70
g51
NtRp1843
(dp1844
g54
(dp1845
g74
g75
ssg63
g1839
sg56
(lp1846
g787
asbag49
(g70
g51
NtRp1847
(dp1848
g54
(dp1849
g81
g82
ssg63
g1839
sg56
(lp1850
S':'
asbag49
(g70
g51
NtRp1851
(dp1852
g54
(dp1853
sg63
g1839
sg56
(lp1854
g49
(g50
g51
NtRp1855
(dp1856
g54
(dp1857
g62
I4
ssg63
g1851
sg56
(lp1858
g800
asbasbasbag49
(g65
g51
NtRp1859
(dp1860
g54
(dp1861
sg63
g1814
sg56
(lp1862
g49
(g70
g51
NtRp1863
(dp1864
g54
(dp1865
g74
g75
ssg63
g1859
sg56
(lp1866
g809
asbag49
(g70
g51
NtRp1867
(dp1868
g54
(dp1869
g81
g82
ssg63
g1859
sg56
(lp1870
S':'
asbag49
(g70
g51
NtRp1871
(dp1872
g54
(dp1873
sg63
g1859
sg56
(lp1874
g49
(g50
g51
NtRp1875
(dp1876
g54
(dp1877
g62
I4
ssg63
g1871
sg56
(lp1878
g49
(g58
g51
NtRp1879
(dp1880
g54
(dp1881
g62
I3
ssg63
Nsg56
(lp1882
sbasbasbasbag49
(g65
g51
NtRp1883
(dp1884
g54
(dp1885
sg63
g1814
sg56
(lp1886
g49
(g70
g51
NtRp1887
(dp1888
g54
(dp1889
g74
g75
ssg63
g1883
sg56
(lp1890
g834
asbag49
(g70
g51
NtRp1891
(dp1892
g54
(dp1893
g81
g82
ssg63
g1883
sg56
(lp1894
S':'
asbag49
(g70
g51
NtRp1895
(dp1896
g54
(dp1897
sg63
g1883
sg56
(lp1898
g49
(g50
g51
NtRp1899
(dp1900
g54
(dp1901
g62
I4
ssg63
g1895
sg56
(lp1902
S"<Values at 0x2ff1f58: {'verbose': False, 'ip': '127.0.0.1', 'shutdown_timeout': 5, 'taskbar': False, 'nocron': False, 'pid_filename': 'httpserver.pid', 'maxthreads': None, 'softcron': False, 'server_name': 'bhanu-PC', 'bpython': False, 'nogui': False, 'port': 8000, 'extcron': False, 'debuglevel': 30, 'test': None, 'folder': 'C:\\\\Users\\\\bhanu\\\\Downloads\\\\Compressed\\\\web2py', 'config': '', 'import_models': False, 'winservice': '', 'shell': None, 'run': '', 'log_filename': 'httpserver.log', 'args': [''], 'socket_timeout': 5, 'ssl_ca_certificate': None, 'scheduler': None, 'profiler_filename': None, 'ssl_private_key': '', 'password': '<ask>', 'request_queue_size': 5, 'ssl_certificate': '', 'cronjob': False, 'numthreads': None, 'quiet': False, 'interfaces': None, 'minthreads': None, 'timeout': 10, 'plain': False, 'nobanner': False}>"
p1903
asbasbasbag49
(g65
g51
NtRp1904
(dp1905
g54
(dp1906
sg63
g1814
sg56
(lp1907
g49
(g70
g51
NtRp1908
(dp1909
g54
(dp1910
g74
g75
ssg63
g1904
sg56
(lp1911
g856
asbag49
(g70
g51
NtRp1912
(dp1913
g54
(dp1914
g81
g82
ssg63
g1904
sg56
(lp1915
S':'
asbag49
(g70
g51
NtRp1916
(dp1917
g54
(dp1918
sg63
g1904
sg56
(lp1919
g49
(g50
g51
NtRp1920
(dp1921
g54
(dp1922
g62
I4
ssg63
g1916
sg56
(lp1923
S'set([])'
p1924
asbasbasbag49
(g65
g51
NtRp1925
(dp1926
g54
(dp1927
sg63
g1814
sg56
(lp1928
g49
(g70
g51
NtRp1929
(dp1930
g54
(dp1931
g74
g75
ssg63
g1925
sg56
(lp1932
g878
asbag49
(g70
g51
NtRp1933
(dp1934
g54
(dp1935
g81
g82
ssg63
g1925
sg56
(lp1936
S':'
asbag49
(g70
g51
NtRp1937
(dp1938
g54
(dp1939
sg63
g1925
sg56
(lp1940
g49
(g50
g51
NtRp1941
(dp1942
g54
(dp1943
g62
I4
ssg63
g1937
sg56
(lp1944
g92
asbasbasbag49
(g65
g51
NtRp1945
(dp1946
g54
(dp1947
sg63
g1814
sg56
(lp1948
g49
(g70
g51
NtRp1949
(dp1950
g54
(dp1951
g74
g75
ssg63
g1945
sg56
(lp1952
g899
asbag49
(g70
g51
NtRp1953
(dp1954
g54
(dp1955
g81
g82
ssg63
g1945
sg56
(lp1956
S':'
asbag49
(g70
g51
NtRp1957
(dp1958
g54
(dp1959
sg63
g1945
sg56
(lp1960
g49
(g50
g51
NtRp1961
(dp1962
g54
(dp1963
g62
I4
ssg63
g1957
sg56
(lp1964
g912
asbasbasbag49
(g65
g51
NtRp1965
(dp1966
g54
(dp1967
sg63
g1814
sg56
(lp1968
g49
(g70
g51
NtRp1969
(dp1970
g54
(dp1971
g74
g75
ssg63
g1965
sg56
(lp1972
g1119
asbag49
(g70
g51
NtRp1973
(dp1974
g54
(dp1975
g81
g82
ssg63
g1965
sg56
(lp1976
S':'
asbag49
(g70
g51
NtRp1977
(dp1978
g54
(dp1979
sg63
g1965
sg56
(lp1980
g49
(g50
g51
NtRp1981
(dp1982
g54
(dp1983
g62
I4
ssg63
g1977
sg56
(lp1984
g92
asbasbasbag49
(g65
g51
NtRp1985
(dp1986
g54
(dp1987
sg63
g1814
sg56
(lp1988
g49
(g70
g51
NtRp1989
(dp1990
g54
(dp1991
g74
g75
ssg63
g1985
sg56
(lp1992
g1140
asbag49
(g70
g51
NtRp1993
(dp1994
g54
(dp1995
g81
g82
ssg63
g1985
sg56
(lp1996
S':'
asbag49
(g70
g51
NtRp1997
(dp1998
g54
(dp1999
sg63
g1985
sg56
(lp2000
g49
(g50
g51
NtRp2001
(dp2002
g54
(dp2003
g62
I4
ssg63
g1997
sg56
(lp2004
g92
asbasbasbag49
(g65
g51
NtRp2005
(dp2006
g54
(dp2007
sg63
g1814
sg56
(lp2008
g49
(g70
g51
NtRp2009
(dp2010
g54
(dp2011
g74
g75
ssg63
g2005
sg56
(lp2012
g1378
asbag49
(g70
g51
NtRp2013
(dp2014
g54
(dp2015
g81
g82
ssg63
g2005
sg56
(lp2016
S':'
asbag49
(g70
g51
NtRp2017
(dp2018
g54
(dp2019
sg63
g2005
sg56
(lp2020
g49
(g50
g51
NtRp2021
(dp2022
g54
(dp2023
g62
I4
ssg63
g2017
sg56
(lp2024
g1391
asbasbasbag49
(g65
g51
NtRp2025
(dp2026
g54
(dp2027
sg63
g1814
sg56
(lp2028
g49
(g70
g51
NtRp2029
(dp2030
g54
(dp2031
g74
g75
ssg63
g2025
sg56
(lp2032
g1421
asbag49
(g70
g51
NtRp2033
(dp2034
g54
(dp2035
g81
g82
ssg63
g2025
sg56
(lp2036
S':'
asbag49
(g70
g51
NtRp2037
(dp2038
g54
(dp2039
sg63
g2025
sg56
(lp2040
g49
(g50
g51
NtRp2041
(dp2042
g54
(dp2043
g62
I4
ssg63
g2037
sg56
(lp2044
g49
(g58
g51
NtRp2045
(dp2046
g54
(dp2047
g62
I3
ssg63
Nsg56
(lp2048
g49
(g65
g51
NtRp2049
(dp2050
g54
(dp2051
sg63
g2045
sg56
(lp2052
g49
(g70
g51
NtRp2053
(dp2054
g54
(dp2055
sg63
g2049
sg56
(lp2056
g49
(g50
g51
NtRp2057
(dp2058
g54
(dp2059
g62
I3
ssg63
g2053
sg56
(lp2060
S'1'
asbasbasbag49
(g65
g51
NtRp2061
(dp2062
g54
(dp2063
sg63
g2045
sg56
(lp2064
g49
(g70
g51
NtRp2065
(dp2066
g54
(dp2067
sg63
g2061
sg56
(lp2068
g49
(g50
g51
NtRp2069
(dp2070
g54
(dp2071
g62
I3
ssg63
g2065
sg56
(lp2072
S'99'
p2073
asbasbasbag49
(g65
g51
NtRp2074
(dp2075
g54
(dp2076
sg63
g2045
sg56
(lp2077
g49
(g70
g51
NtRp2078
(dp2079
g54
(dp2080
sg63
g2074
sg56
(lp2081
g49
(g50
g51
NtRp2082
(dp2083
g54
(dp2084
g62
I3
ssg63
g2078
sg56
(lp2085
S'7'
asbasbasbag49
(g65
g51
NtRp2086
(dp2087
g54
(dp2088
sg63
g2045
sg56
(lp2089
g49
(g70
g51
NtRp2090
(dp2091
g54
(dp2092
sg63
g2086
sg56
(lp2093
g49
(g50
g51
NtRp2094
(dp2095
g54
(dp2096
g62
I3
ssg63
g2090
sg56
(lp2097
S'datetime.datetime(2012, 3, 4, 22, 12, 8)'
p2098
asbasbasbag49
(g65
g51
NtRp2099
(dp2100
g54
(dp2101
sg63
g2045
sg56
(lp2102
g49
(g70
g51
NtRp2103
(dp2104
g54
(dp2105
sg63
g2099
sg56
(lp2106
g49
(g50
g51
NtRp2107
(dp2108
g54
(dp2109
g62
I3
ssg63
g2103
sg56
(lp2110
g1500
asbasbasbasbasbasbasbasbasbasbasbag49
(g65
g51
NtRp2111
(dp2112
g54
(dp2113
sg63
g59
sg56
(lp2114
g49
(g70
g51
NtRp2115
(dp2116
g54
(dp2117
g74
g75
ssg63
g2111
sg56
(lp2118
S'is_https'
p2119
asbag49
(g70
g51
NtRp2120
(dp2121
g54
(dp2122
g81
g82
ssg63
g2111
sg56
(lp2123
S':'
asbag49
(g70
g51
NtRp2124
(dp2125
g54
(dp2126
sg63
g2111
sg56
(lp2127
g49
(g50
g51
NtRp2128
(dp2129
g54
(dp2130
g62
I5
ssg63
g2124
sg56
(lp2131
g92
asbasbasbag49
(g65
g51
NtRp2132
(dp2133
g54
(dp2134
sg63
g59
sg56
(lp2135
g49
(g70
g51
NtRp2136
(dp2137
g54
(dp2138
g74
g75
ssg63
g2132
sg56
(lp2139
S'is_local'
p2140
asbag49
(g70
g51
NtRp2141
(dp2142
g54
(dp2143
g81
g82
ssg63
g2132
sg56
(lp2144
S':'
asbag49
(g70
g51
NtRp2145
(dp2146
g54
(dp2147
sg63
g2132
sg56
(lp2148
g49
(g50
g51
NtRp2149
(dp2150
g54
(dp2151
g62
I5
ssg63
g2145
sg56
(lp2152
g1609
asbasbasbag49
(g65
g51
NtRp2153
(dp2154
g54
(dp2155
sg63
g59
sg56
(lp2156
g49
(g70
g51
NtRp2157
(dp2158
g54
(dp2159
g74
g75
ssg63
g2153
sg56
(lp2160
S'is_restful'
p2161
asbag49
(g70
g51
NtRp2162
(dp2163
g54
(dp2164
g81
g82
ssg63
g2153
sg56
(lp2165
S':'
asbag49
(g70
g51
NtRp2166
(dp2167
g54
(dp2168
sg63
g2153
sg56
(lp2169
g49
(g50
g51
NtRp2170
(dp2171
g54
(dp2172
g62
I5
ssg63
g2166
sg56
(lp2173
g92
asbasbasbag49
(g65
g51
NtRp2174
(dp2175
g54
(dp2176
sg63
g59
sg56
(lp2177
g49
(g70
g51
NtRp2178
(dp2179
g54
(dp2180
g74
g75
ssg63
g2174
sg56
(lp2181
S'now'
p2182
asbag49
(g70
g51
NtRp2183
(dp2184
g54
(dp2185
g81
g82
ssg63
g2174
sg56
(lp2186
S':'
asbag49
(g70
g51
NtRp2187
(dp2188
g54
(dp2189
sg63
g2174
sg56
(lp2190
g49
(g50
g51
NtRp2191
(dp2192
g54
(dp2193
g62
I5
ssg63
g2187
sg56
(lp2194
S'datetime.datetime(2012, 10, 16, 16, 25, 4, 168000)'
p2195
asbasbasbag49
(g65
g51
NtRp2196
(dp2197
g54
(dp2198
sg63
g59
sg56
(lp2199
g49
(g70
g51
NtRp2200
(dp2201
g54
(dp2202
g74
g75
ssg63
g2196
sg56
(lp2203
S'post_vars'
p2204
asbag49
(g70
g51
NtRp2205
(dp2206
g54
(dp2207
g81
g82
ssg63
g2196
sg56
(lp2208
S':'
asbag49
(g70
g51
NtRp2209
(dp2210
g54
(dp2211
sg63
g2196
sg56
(lp2212
g49
(g50
g51
NtRp2213
(dp2214
g54
(dp2215
g62
I5
ssg63
g2209
sg56
(lp2216
g49
(g58
g51
NtRp2217
(dp2218
g54
(dp2219
g62
I4
ssg63
Nsg56
(lp2220
sbasbasbasbag49
(g65
g51
NtRp2221
(dp2222
g54
(dp2223
sg63
g59
sg56
(lp2224
g49
(g70
g51
NtRp2225
(dp2226
g54
(dp2227
g74
g75
ssg63
g2221
sg56
(lp2228
S'url'
p2229
asbag49
(g70
g51
NtRp2230
(dp2231
g54
(dp2232
g81
g82
ssg63
g2221
sg56
(lp2233
S':'
asbag49
(g70
g51
NtRp2234
(dp2235
g54
(dp2236
sg63
g2221
sg56
(lp2237
g49
(g50
g51
NtRp2238
(dp2239
g54
(dp2240
g62
I5
ssg63
g2234
sg56
(lp2241
S'/hostel/appadmin/ccache'
p2242
asbasbasbag49
(g65
g51
NtRp2243
(dp2244
g54
(dp2245
sg63
g59
sg56
(lp2246
g49
(g70
g51
NtRp2247
(dp2248
g54
(dp2249
g74
g75
ssg63
g2243
sg56
(lp2250
S'utcnow'
p2251
asbag49
(g70
g51
NtRp2252
(dp2253
g54
(dp2254
g81
g82
ssg63
g2243
sg56
(lp2255
S':'
asbag49
(g70
g51
NtRp2256
(dp2257
g54
(dp2258
sg63
g2243
sg56
(lp2259
g49
(g50
g51
NtRp2260
(dp2261
g54
(dp2262
g62
I5
ssg63
g2256
sg56
(lp2263
S'datetime.datetime(2012, 10, 16, 10, 55, 4, 168000)'
p2264
asbasbasbag49
(g65
g51
NtRp2265
(dp2266
g54
(dp2267
sg63
g59
sg56
(lp2268
g49
(g70
g51
NtRp2269
(dp2270
g54
(dp2271
g74
g75
ssg63
g2265
sg56
(lp2272
S'uuid'
p2273
asbag49
(g70
g51
NtRp2274
(dp2275
g54
(dp2276
g81
g82
ssg63
g2265
sg56
(lp2277
S':'
asbag49
(g70
g51
NtRp2278
(dp2279
g54
(dp2280
sg63
g2265
sg56
(lp2281
g49
(g50
g51
NtRp2282
(dp2283
g54
(dp2284
g62
I5
ssg63
g2278
sg56
(lp2285
S'hostel/127.0.0.1.2012-10-16.16-25-04.8b441430-f3f6-452e-826c-2994da027d95'
p2286
asbasbasbag49
(g65
g51
NtRp2287
(dp2288
g54
(dp2289
sg63
g59
sg56
(lp2290
g49
(g70
g51
NtRp2291
(dp2292
g54
(dp2293
g74
g75
ssg63
g2287
sg56
(lp2294
S'vars'
p2295
asbag49
(g70
g51
NtRp2296
(dp2297
g54
(dp2298
g81
g82
ssg63
g2287
sg56
(lp2299
S':'
asbag49
(g70
g51
NtRp2300
(dp2301
g54
(dp2302
sg63
g2287
sg56
(lp2303
g49
(g50
g51
NtRp2304
(dp2305
g54
(dp2306
g62
I5
ssg63
g2300
sg56
(lp2307
g49
(g58
g51
NtRp2308
(dp2309
g54
(dp2310
g62
I4
ssg63
Nsg56
(lp2311
sbasbasbasbag49
(g65
g51
NtRp2312
(dp2313
g54
(dp2314
sg63
g59
sg56
(lp2315
g49
(g70
g51
NtRp2316
(dp2317
g54
(dp2318
g74
g75
ssg63
g2312
sg56
(lp2319
S'wsgi'
p2320
asbag49
(g70
g51
NtRp2321
(dp2322
g54
(dp2323
g81
g82
ssg63
g2312
sg56
(lp2324
S':'
asbag49
(g70
g51
NtRp2325
(dp2326
g54
(dp2327
sg63
g2312
sg56
(lp2328
g49
(g50
g51
NtRp2329
(dp2330
g54
(dp2331
g62
I5
ssg63
g2325
sg56
(lp2332
g49
(g58
g51
NtRp2333
(dp2334
g54
(dp2335
g62
I4
ssg63
Nsg56
(lp2336
g49
(g65
g51
NtRp2337
(dp2338
g54
(dp2339
sg63
g2333
sg56
(lp2340
g49
(g70
g51
NtRp2341
(dp2342
g54
(dp2343
g74
g75
ssg63
g2337
sg56
(lp2344
S'environ'
p2345
asbag49
(g70
g51
NtRp2346
(dp2347
g54
(dp2348
g81
g82
ssg63
g2337
sg56
(lp2349
S':'
asbag49
(g70
g51
NtRp2350
(dp2351
g54
(dp2352
sg63
g2337
sg56
(lp2353
g49
(g50
g51
NtRp2354
(dp2355
g54
(dp2356
g62
I4
ssg63
g2350
sg56
(lp2357
g49
(g58
g51
NtRp2358
(dp2359
g54
(dp2360
g62
I3
ssg63
Nsg56
(lp2361
g49
(g65
g51
NtRp2362
(dp2363
g54
(dp2364
sg63
g2358
sg56
(lp2365
g49
(g70
g51
NtRp2366
(dp2367
g54
(dp2368
g74
g75
ssg63
g2362
sg56
(lp2369
S'HTTP_ACCEPT'
p2370
asbag49
(g70
g51
NtRp2371
(dp2372
g54
(dp2373
g81
g82
ssg63
g2362
sg56
(lp2374
S':'
asbag49
(g70
g51
NtRp2375
(dp2376
g54
(dp2377
sg63
g2362
sg56
(lp2378
g49
(g50
g51
NtRp2379
(dp2380
g54
(dp2381
g62
I3
ssg63
g2375
sg56
(lp2382
g934
asbasbasbag49
(g65
g51
NtRp2383
(dp2384
g54
(dp2385
sg63
g2358
sg56
(lp2386
g49
(g70
g51
NtRp2387
(dp2388
g54
(dp2389
g74
g75
ssg63
g2383
sg56
(lp2390
S'HTTP_ACCEPT_CHARSET'
p2391
asbag49
(g70
g51
NtRp2392
(dp2393
g54
(dp2394
g81
g82
ssg63
g2383
sg56
(lp2395
S':'
asbag49
(g70
g51
NtRp2396
(dp2397
g54
(dp2398
sg63
g2383
sg56
(lp2399
g49
(g50
g51
NtRp2400
(dp2401
g54
(dp2402
g62
I3
ssg63
g2396
sg56
(lp2403
g956
asbasbasbag49
(g65
g51
NtRp2404
(dp2405
g54
(dp2406
sg63
g2358
sg56
(lp2407
g49
(g70
g51
NtRp2408
(dp2409
g54
(dp2410
g74
g75
ssg63
g2404
sg56
(lp2411
S'HTTP_ACCEPT_ENCODING'
p2412
asbag49
(g70
g51
NtRp2413
(dp2414
g54
(dp2415
g81
g82
ssg63
g2404
sg56
(lp2416
S':'
asbag49
(g70
g51
NtRp2417
(dp2418
g54
(dp2419
sg63
g2404
sg56
(lp2420
g49
(g50
g51
NtRp2421
(dp2422
g54
(dp2423
g62
I3
ssg63
g2417
sg56
(lp2424
g978
asbasbasbag49
(g65
g51
NtRp2425
(dp2426
g54
(dp2427
sg63
g2358
sg56
(lp2428
g49
(g70
g51
NtRp2429
(dp2430
g54
(dp2431
g74
g75
ssg63
g2425
sg56
(lp2432
S'HTTP_ACCEPT_LANGUAGE'
p2433
asbag49
(g70
g51
NtRp2434
(dp2435
g54
(dp2436
g81
g82
ssg63
g2425
sg56
(lp2437
S':'
asbag49
(g70
g51
NtRp2438
(dp2439
g54
(dp2440
sg63
g2425
sg56
(lp2441
g49
(g50
g51
NtRp2442
(dp2443
g54
(dp2444
g62
I3
ssg63
g2438
sg56
(lp2445
g1000
asbasbasbag49
(g65
g51
NtRp2446
(dp2447
g54
(dp2448
sg63
g2358
sg56
(lp2449
g49
(g70
g51
NtRp2450
(dp2451
g54
(dp2452
g74
g75
ssg63
g2446
sg56
(lp2453
S'HTTP_CONNECTION'
p2454
asbag49
(g70
g51
NtRp2455
(dp2456
g54
(dp2457
g81
g82
ssg63
g2446
sg56
(lp2458
S':'
asbag49
(g70
g51
NtRp2459
(dp2460
g54
(dp2461
sg63
g2446
sg56
(lp2462
g49
(g50
g51
NtRp2463
(dp2464
g54
(dp2465
g62
I3
ssg63
g2459
sg56
(lp2466
g1022
asbasbasbag49
(g65
g51
NtRp2467
(dp2468
g54
(dp2469
sg63
g2358
sg56
(lp2470
g49
(g70
g51
NtRp2471
(dp2472
g54
(dp2473
g74
g75
ssg63
g2467
sg56
(lp2474
S'HTTP_COOKIE'
p2475
asbag49
(g70
g51
NtRp2476
(dp2477
g54
(dp2478
g81
g82
ssg63
g2467
sg56
(lp2479
S':'
asbag49
(g70
g51
NtRp2480
(dp2481
g54
(dp2482
sg63
g2467
sg56
(lp2483
g49
(g50
g51
NtRp2484
(dp2485
g54
(dp2486
g62
I3
ssg63
g2480
sg56
(lp2487
g1044
asbasbasbag49
(g65
g51
NtRp2488
(dp2489
g54
(dp2490
sg63
g2358
sg56
(lp2491
g49
(g70
g51
NtRp2492
(dp2493
g54
(dp2494
g74
g75
ssg63
g2488
sg56
(lp2495
S'HTTP_HOST'
p2496
asbag49
(g70
g51
NtRp2497
(dp2498
g54
(dp2499
g81
g82
ssg63
g2488
sg56
(lp2500
S':'
asbag49
(g70
g51
NtRp2501
(dp2502
g54
(dp2503
sg63
g2488
sg56
(lp2504
g49
(g50
g51
NtRp2505
(dp2506
g54
(dp2507
g62
I3
ssg63
g2501
sg56
(lp2508
g1066
asbasbasbag49
(g65
g51
NtRp2509
(dp2510
g54
(dp2511
sg63
g2358
sg56
(lp2512
g49
(g70
g51
NtRp2513
(dp2514
g54
(dp2515
g74
g75
ssg63
g2509
sg56
(lp2516
S'HTTP_REFERER'
p2517
asbag49
(g70
g51
NtRp2518
(dp2519
g54
(dp2520
g81
g82
ssg63
g2509
sg56
(lp2521
S':'
asbag49
(g70
g51
NtRp2522
(dp2523
g54
(dp2524
sg63
g2509
sg56
(lp2525
g49
(g50
g51
NtRp2526
(dp2527
g54
(dp2528
g62
I3
ssg63
g2522
sg56
(lp2529
g1088
asbasbasbag49
(g65
g51
NtRp2530
(dp2531
g54
(dp2532
sg63
g2358
sg56
(lp2533
g49
(g70
g51
NtRp2534
(dp2535
g54
(dp2536
g74
g75
ssg63
g2530
sg56
(lp2537
S'HTTP_USER_AGENT'
p2538
asbag49
(g70
g51
NtRp2539
(dp2540
g54
(dp2541
g81
g82
ssg63
g2530
sg56
(lp2542
S':'
asbag49
(g70
g51
NtRp2543
(dp2544
g54
(dp2545
sg63
g2530
sg56
(lp2546
g49
(g50
g51
NtRp2547
(dp2548
g54
(dp2549
g62
I3
ssg63
g2543
sg56
(lp2550
g1110
asbasbasbag49
(g65
g51
NtRp2551
(dp2552
g54
(dp2553
sg63
g2358
sg56
(lp2554
g49
(g70
g51
NtRp2555
(dp2556
g54
(dp2557
g74
g75
ssg63
g2551
sg56
(lp2558
S'PATH_INFO'
p2559
asbag49
(g70
g51
NtRp2560
(dp2561
g54
(dp2562
g81
g82
ssg63
g2551
sg56
(lp2563
S':'
asbag49
(g70
g51
NtRp2564
(dp2565
g54
(dp2566
sg63
g2551
sg56
(lp2567
g49
(g50
g51
NtRp2568
(dp2569
g54
(dp2570
g62
I3
ssg63
g2564
sg56
(lp2571
g1174
asbasbasbag49
(g65
g51
NtRp2572
(dp2573
g54
(dp2574
sg63
g2358
sg56
(lp2575
g49
(g70
g51
NtRp2576
(dp2577
g54
(dp2578
g74
g75
ssg63
g2572
sg56
(lp2579
S'QUERY_STRING'
p2580
asbag49
(g70
g51
NtRp2581
(dp2582
g54
(dp2583
g81
g82
ssg63
g2572
sg56
(lp2584
S':'
asbag49
(g70
g51
NtRp2585
(dp2586
g54
(dp2587
sg63
g2572
sg56
(lp2588
g49
(g50
g51
NtRp2589
(dp2590
g54
(dp2591
g62
I3
ssg63
g2585
sg56
(lp2592
S''
asbasbasbag49
(g65
g51
NtRp2593
(dp2594
g54
(dp2595
sg63
g2358
sg56
(lp2596
g49
(g70
g51
NtRp2597
(dp2598
g54
(dp2599
g74
g75
ssg63
g2593
sg56
(lp2600
S'REMOTE_ADDR'
p2601
asbag49
(g70
g51
NtRp2602
(dp2603
g54
(dp2604
g81
g82
ssg63
g2593
sg56
(lp2605
S':'
asbag49
(g70
g51
NtRp2606
(dp2607
g54
(dp2608
sg63
g2593
sg56
(lp2609
g49
(g50
g51
NtRp2610
(dp2611
g54
(dp2612
g62
I3
ssg63
g2606
sg56
(lp2613
g182
asbasbasbag49
(g65
g51
NtRp2614
(dp2615
g54
(dp2616
sg63
g2358
sg56
(lp2617
g49
(g70
g51
NtRp2618
(dp2619
g54
(dp2620
g74
g75
ssg63
g2614
sg56
(lp2621
S'REMOTE_PORT'
p2622
asbag49
(g70
g51
NtRp2623
(dp2624
g54
(dp2625
g81
g82
ssg63
g2614
sg56
(lp2626
S':'
asbag49
(g70
g51
NtRp2627
(dp2628
g54
(dp2629
sg63
g2614
sg56
(lp2630
g49
(g50
g51
NtRp2631
(dp2632
g54
(dp2633
g62
I3
ssg63
g2627
sg56
(lp2634
g1238
asbasbasbag49
(g65
g51
NtRp2635
(dp2636
g54
(dp2637
sg63
g2358
sg56
(lp2638
g49
(g70
g51
NtRp2639
(dp2640
g54
(dp2641
g74
g75
ssg63
g2635
sg56
(lp2642
S'REQUEST_METHOD'
p2643
asbag49
(g70
g51
NtRp2644
(dp2645
g54
(dp2646
g81
g82
ssg63
g2635
sg56
(lp2647
S':'
asbag49
(g70
g51
NtRp2648
(dp2649
g54
(dp2650
sg63
g2635
sg56
(lp2651
g49
(g50
g51
NtRp2652
(dp2653
g54
(dp2654
g62
I3
ssg63
g2648
sg56
(lp2655
g1260
asbasbasbag49
(g65
g51
NtRp2656
(dp2657
g54
(dp2658
sg63
g2358
sg56
(lp2659
g49
(g70
g51
NtRp2660
(dp2661
g54
(dp2662
g74
g75
ssg63
g2656
sg56
(lp2663
S'SCRIPT_NAME'
p2664
asbag49
(g70
g51
NtRp2665
(dp2666
g54
(dp2667
g81
g82
ssg63
g2656
sg56
(lp2668
S':'
asbag49
(g70
g51
NtRp2669
(dp2670
g54
(dp2671
sg63
g2656
sg56
(lp2672
g49
(g50
g51
NtRp2673
(dp2674
g54
(dp2675
g62
I3
ssg63
g2669
sg56
(lp2676
S''
asbasbasbag49
(g65
g51
NtRp2677
(dp2678
g54
(dp2679
sg63
g2358
sg56
(lp2680
g49
(g70
g51
NtRp2681
(dp2682
g54
(dp2683
g74
g75
ssg63
g2677
sg56
(lp2684
S'SERVER_NAME'
p2685
asbag49
(g70
g51
NtRp2686
(dp2687
g54
(dp2688
g81
g82
ssg63
g2677
sg56
(lp2689
S':'
asbag49
(g70
g51
NtRp2690
(dp2691
g54
(dp2692
sg63
g2677
sg56
(lp2693
g49
(g50
g51
NtRp2694
(dp2695
g54
(dp2696
g62
I3
ssg63
g2690
sg56
(lp2697
g1303
asbasbasbag49
(g65
g51
NtRp2698
(dp2699
g54
(dp2700
sg63
g2358
sg56
(lp2701
g49
(g70
g51
NtRp2702
(dp2703
g54
(dp2704
g74
g75
ssg63
g2698
sg56
(lp2705
S'SERVER_PORT'
p2706
asbag49
(g70
g51
NtRp2707
(dp2708
g54
(dp2709
g81
g82
ssg63
g2698
sg56
(lp2710
S':'
asbag49
(g70
g51
NtRp2711
(dp2712
g54
(dp2713
sg63
g2698
sg56
(lp2714
g49
(g50
g51
NtRp2715
(dp2716
g54
(dp2717
g62
I3
ssg63
g2711
sg56
(lp2718
g1325
asbasbasbag49
(g65
g51
NtRp2719
(dp2720
g54
(dp2721
sg63
g2358
sg56
(lp2722
g49
(g70
g51
NtRp2723
(dp2724
g54
(dp2725
g74
g75
ssg63
g2719
sg56
(lp2726
S'SERVER_PROTOCOL'
p2727
asbag49
(g70
g51
NtRp2728
(dp2729
g54
(dp2730
g81
g82
ssg63
g2719
sg56
(lp2731
S':'
asbag49
(g70
g51
NtRp2732
(dp2733
g54
(dp2734
sg63
g2719
sg56
(lp2735
g49
(g50
g51
NtRp2736
(dp2737
g54
(dp2738
g62
I3
ssg63
g2732
sg56
(lp2739
g1347
asbasbasbag49
(g65
g51
NtRp2740
(dp2741
g54
(dp2742
sg63
g2358
sg56
(lp2743
g49
(g70
g51
NtRp2744
(dp2745
g54
(dp2746
g74
g75
ssg63
g2740
sg56
(lp2747
S'SERVER_SOFTWARE'
p2748
asbag49
(g70
g51
NtRp2749
(dp2750
g54
(dp2751
g81
g82
ssg63
g2740
sg56
(lp2752
S':'
asbag49
(g70
g51
NtRp2753
(dp2754
g54
(dp2755
sg63
g2740
sg56
(lp2756
g49
(g50
g51
NtRp2757
(dp2758
g54
(dp2759
g62
I3
ssg63
g2753
sg56
(lp2760
g1369
asbasbasbag49
(g65
g51
NtRp2761
(dp2762
g54
(dp2763
sg63
g2358
sg56
(lp2764
g49
(g70
g51
NtRp2765
(dp2766
g54
(dp2767
g74
g75
ssg63
g2761
sg56
(lp2768
S'wsgi.errors'
p2769
asbag49
(g70
g51
NtRp2770
(dp2771
g54
(dp2772
g81
g82
ssg63
g2761
sg56
(lp2773
S':'
asbag49
(g70
g51
NtRp2774
(dp2775
g54
(dp2776
sg63
g2761
sg56
(lp2777
g49
(g50
g51
NtRp2778
(dp2779
g54
(dp2780
g62
I3
ssg63
g2774
sg56
(lp2781
S"<open file '<stderr>', mode 'w' at 0x01D600B0>"
p2782
asbasbasbag49
(g65
g51
NtRp2783
(dp2784
g54
(dp2785
sg63
g2358
sg56
(lp2786
g49
(g70
g51
NtRp2787
(dp2788
g54
(dp2789
g74
g75
ssg63
g2783
sg56
(lp2790
S'wsgi.file_wrapper'
p2791
asbag49
(g70
g51
NtRp2792
(dp2793
g54
(dp2794
g81
g82
ssg63
g2783
sg56
(lp2795
S':'
asbag49
(g70
g51
NtRp2796
(dp2797
g54
(dp2798
sg63
g2783
sg56
(lp2799
g49
(g50
g51
NtRp2800
(dp2801
g54
(dp2802
g62
I3
ssg63
g2796
sg56
(lp2803
S'<class wsgiref.util.FileWrapper at 0x02D96450>'
p2804
asbasbasbag49
(g65
g51
NtRp2805
(dp2806
g54
(dp2807
sg63
g2358
sg56
(lp2808
g49
(g70
g51
NtRp2809
(dp2810
g54
(dp2811
g74
g75
ssg63
g2805
sg56
(lp2812
S'wsgi.input'
p2813
asbag49
(g70
g51
NtRp2814
(dp2815
g54
(dp2816
g81
g82
ssg63
g2805
sg56
(lp2817
S':'
asbag49
(g70
g51
NtRp2818
(dp2819
g54
(dp2820
sg63
g2805
sg56
(lp2821
g49
(g50
g51
NtRp2822
(dp2823
g54
(dp2824
g62
I3
ssg63
g2818
sg56
(lp2825
S'<cStringIO.StringO object at 0x06E3D740>'
p2826
asbasbasbag49
(g65
g51
NtRp2827
(dp2828
g54
(dp2829
sg63
g2358
sg56
(lp2830
g49
(g70
g51
NtRp2831
(dp2832
g54
(dp2833
g74
g75
ssg63
g2827
sg56
(lp2834
S'wsgi.multiprocess'
p2835
asbag49
(g70
g51
NtRp2836
(dp2837
g54
(dp2838
g81
g82
ssg63
g2827
sg56
(lp2839
S':'
asbag49
(g70
g51
NtRp2840
(dp2841
g54
(dp2842
sg63
g2827
sg56
(lp2843
g49
(g50
g51
NtRp2844
(dp2845
g54
(dp2846
g62
I3
ssg63
g2840
sg56
(lp2847
g92
asbasbasbag49
(g65
g51
NtRp2848
(dp2849
g54
(dp2850
sg63
g2358
sg56
(lp2851
g49
(g70
g51
NtRp2852
(dp2853
g54
(dp2854
g74
g75
ssg63
g2848
sg56
(lp2855
S'wsgi.multithread'
p2856
asbag49
(g70
g51
NtRp2857
(dp2858
g54
(dp2859
g81
g82
ssg63
g2848
sg56
(lp2860
S':'
asbag49
(g70
g51
NtRp2861
(dp2862
g54
(dp2863
sg63
g2848
sg56
(lp2864
g49
(g50
g51
NtRp2865
(dp2866
g54
(dp2867
g62
I3
ssg63
g2861
sg56
(lp2868
g1609
asbasbasbag49
(g65
g51
NtRp2869
(dp2870
g54
(dp2871
sg63
g2358
sg56
(lp2872
g49
(g70
g51
NtRp2873
(dp2874
g54
(dp2875
g74
g75
ssg63
g2869
sg56
(lp2876
S'wsgi.run_once'
p2877
asbag49
(g70
g51
NtRp2878
(dp2879
g54
(dp2880
g81
g82
ssg63
g2869
sg56
(lp2881
S':'
asbag49
(g70
g51
NtRp2882
(dp2883
g54
(dp2884
sg63
g2869
sg56
(lp2885
g49
(g50
g51
NtRp2886
(dp2887
g54
(dp2888
g62
I3
ssg63
g2882
sg56
(lp2889
g92
asbasbasbag49
(g65
g51
NtRp2890
(dp2891
g54
(dp2892
sg63
g2358
sg56
(lp2893
g49
(g70
g51
NtRp2894
(dp2895
g54
(dp2896
g74
g75
ssg63
g2890
sg56
(lp2897
S'wsgi.url_scheme'
p2898
asbag49
(g70
g51
NtRp2899
(dp2900
g54
(dp2901
g81
g82
ssg63
g2890
sg56
(lp2902
S':'
asbag49
(g70
g51
NtRp2903
(dp2904
g54
(dp2905
sg63
g2890
sg56
(lp2906
g49
(g50
g51
NtRp2907
(dp2908
g54
(dp2909
g62
I3
ssg63
g2903
sg56
(lp2910
g1652
asbasbasbag49
(g65
g51
NtRp2911
(dp2912
g54
(dp2913
sg63
g2358
sg56
(lp2914
g49
(g70
g51
NtRp2915
(dp2916
g54
(dp2917
g74
g75
ssg63
g2911
sg56
(lp2918
S'wsgi.version'
p2919
asbag49
(g70
g51
NtRp2920
(dp2921
g54
(dp2922
g81
g82
ssg63
g2911
sg56
(lp2923
S':'
asbag49
(g70
g51
NtRp2924
(dp2925
g54
(dp2926
sg63
g2911
sg56
(lp2927
g49
(g50
g51
NtRp2928
(dp2929
g54
(dp2930
g62
I3
ssg63
g2924
sg56
(lp2931
S'1'
asbasbasbasbasbasbasbasbasbasbasbasbasbsS'frames'
p2932
(lp2933
(dp2934
S'file'
p2935
S'C:\\Users\\bhanu\\Downloads\\Compressed\\web2py\\gluon\\restricted.py'
p2936
sS'dump'
p2937
(dp2938
sS'lnum'
p2939
I205
sS'lines'
p2940
(dp2941
sS'call'
p2942
S"(code='# -*- coding: utf-8 -*-\\n\\n# #####################...lse)\\n\\n\\n\\n\\nresponse._vars=response._caller(ccache)\\n', environment={'A': <class 'gluon.html.A'>, 'Auth': <class 'gluon.tools.Auth'>, 'B': <class 'gluon.html.B'>, 'BEAUTIFY': <class 'gluon.html.BEAUTIFY'>, 'BODY': <class 'gluon.html.BODY'>, 'BR': <class 'gluon.html.BR'>, 'BUTTON': <class 'gluon.html.BUTTON'>, 'CAT': <class 'gluon.html.CAT'>, 'CENTER': <class 'gluon.html.CENTER'>, 'CLEANUP': <class 'gluon.validators.CLEANUP'>, ...}, layer=r'C:\\Users\\bhanu\\Downloads\\Compressed\\web2py\\applications\\hostel\\controllers/appadmin.py')"
p2943
sS'func'
p2944
S'restricted'
p2945
sa(dp2946
g2935
S'C:\\Users\\bhanu\\Downloads\\Compressed\\web2py\\applications\\hostel\\controllers\\appadmin.py'
p2947
sg2937
(dp2948
sg2939
I433
sg2940
(dp2949
I422
S''
sI423
S"    ram['keys'] = key_table(ram['keys'])"
p2950
sI424
S"    disk['keys'] = key_table(disk['keys'])"
p2951
sI425
S"    total['keys'] = key_table(total['keys'])"
p2952
sI426
S''
sI427
S'    return dict(form=form, total=total,'
p2953
sI428
S'                ram=ram, disk=disk, object_stats=hp != False)'
p2954
sI429
S''
sI430
S''
sI431
S''
ssg2942
S'()'
p2955
sg2944
S'<module>'
p2956
sa(dp2957
g2935
S'C:\\Users\\bhanu\\Downloads\\Compressed\\web2py\\gluon\\globals.py'
p2958
sg2937
(dp2959
sg2939
I173
sg2940
(dp2960
sg2942
S'(f=<function ccache at 0x074067F0>)'
p2961
sg2944
S'<lambda>'
p2962
sa(dp2963
g2935
S'C:\\Users\\bhanu\\Downloads\\Compressed\\web2py\\applications\\hostel\\controllers\\appadmin.py'
p2964
sg2937
(dp2965
sg2939
I372
sg2940
(dp2966
I367
S"            ram['keys'].append((key, GetInHMS(time.time() - value[0])))"
p2967
sI368
S''
sI369
S'    locker = open(os.path.join(request.folder,'
p2968
sI370
S"                                        'cache/cache.lock'), 'a')"
p2969
sI371
S'    portalocker.lock(locker, portalocker.LOCK_EX)'
p2970
sI372
S"    disk_storage = shelve.open(os.path.join(request.folder, 'cache/cache.shelve'))"
p2971
sI373
S'    try:'
p2972
sI374
S'        for key, value in disk_storage.items():'
p2973
sI375
S'            if isinstance(value, dict):'
p2974
sI376
S"                disk['hits'] = value['hit_total'] - value['misses']"
p2975
ssg2942
S'()'
p2976
sg2944
S'ccache'
p2977
sa(dp2978
g2935
S'C:\\Users\\bhanu\\Downloads\\Compressed\\web2py\\shelve.pyc'
p2979
sg2937
(dp2980
sg2939
I225
sg2940
(dp2981
sg2942
S"(filename=r'C:\\Users\\bhanu\\Downloads\\Compressed\\web2py\\applications\\hostel\\cache/cache.shelve', flag='c', protocol=None, writeback=False)"
p2982
sg2944
S'open'
p2983
sa(dp2984
g2935
S'C:\\Users\\bhanu\\Downloads\\Compressed\\web2py\\shelve.pyc'
p2985
sg2937
(dp2986
sg2939
I209
sg2940
(dp2987
sg2942
S"(self=<DbfilenameShelf instance>, filename=r'C:\\Users\\bhanu\\Downloads\\Compressed\\web2py\\applications\\hostel\\cache/cache.shelve', flag='c', protocol=None, writeback=False)"
p2988
sg2944
g42
sa(dp2989
g2935
S'C:\\Users\\bhanu\\Downloads\\Compressed\\web2py\\anydbm.pyc'
p2990
sg2937
(dp2991
sg2939
I82
sg2940
(dp2992
sg2942
S"(file=r'C:\\Users\\bhanu\\Downloads\\Compressed\\web2py\\applications\\hostel\\cache/cache.shelve', flag='c', mode=438)"
p2993
sg2944
g2983
sa(dp2994
g2935
S'C:\\Users\\bhanu\\Downloads\\Compressed\\web2py\\gluon\\custom_import.py'
p2995
sg2937
(dp2996
sg2939
I293
sg2940
(dp2997
sg2942
S"(self=<gluon.custom_import._Web2pyImporter object at 0x02E8D2F0>, name='dbhash', globals={}, locals={}, fromlist=[], level=-1)"
p2998
sg2944
S'__call__'
p2999
sa(dp3000
g2935
S'C:\\Users\\bhanu\\Downloads\\Compressed\\web2py\\gluon\\custom_import.py'
p3001
sg2937
(dp3002
sg2939
I78
sg2940
(dp3003
sg2942
S"(self=<gluon.custom_import._Web2pyImporter object at 0x02E8D2F0>, name='dbhash', globals={}, locals={}, fromlist=[], level=-1)"
p3004
sg2944
g2999
sasS'pyver'
p3005
S'Python 2.5.4: C:\\Users\\bhanu\\Downloads\\Compressed\\web2py\\web2py.exe'
p3006
sS'session'
p3007
g49
(g50
g51
NtRp3008
(dp3009
g54
(dp3010
sg56
(lp3011
g49
(g58
g51
NtRp3012
(dp3013
g54
(dp3014
g62
I5
ssg63
Nsg56
(lp3015
g49
(g65
g51
NtRp3016
(dp3017
g54
(dp3018
sg63
g3012
sg56
(lp3019
g49
(g70
g51
NtRp3020
(dp3021
g54
(dp3022
g74
g75
ssg63
g3016
sg56
(lp3023
S'last_query'
p3024
asbag49
(g70
g51
NtRp3025
(dp3026
g54
(dp3027
g81
g82
ssg63
g3016
sg56
(lp3028
S':'
asbag49
(g70
g51
NtRp3029
(dp3030
g54
(dp3031
sg63
g3016
sg56
(lp3032
g49
(g50
g51
NtRp3033
(dp3034
g54
(dp3035
g62
I5
ssg63
g3029
sg56
(lp3036
S'db.poll.id>0'
p3037
asbasbasbasbasbsS'etype'
p3038
S"<type 'exceptions.ImportError'>"
p3039
sS'date'
p3040
S'Tue Oct 16 16:25:04 2012'
p3041
sS'response'
p3042
g49
(g50
g51
NtRp3043
(dp3044
g54
(dp3045
sg56
(lp3046
g49
(g58
g51
NtRp3047
(dp3048
g54
(dp3049
g62
I5
ssg63
Nsg56
(lp3050
g49
(g65
g51
NtRp3051
(dp3052
g54
(dp3053
sg63
g3047
sg56
(lp3054
g49
(g70
g51
NtRp3055
(dp3056
g54
(dp3057
g74
g75
ssg63
g3051
sg56
(lp3058
g147
asbag49
(g70
g51
NtRp3059
(dp3060
g54
(dp3061
g81
g82
ssg63
g3051
sg56
(lp3062
S':'
asbag49
(g70
g51
NtRp3063
(dp3064
g54
(dp3065
sg63
g3051
sg56
(lp3066
g49
(g50
g51
NtRp3067
(dp3068
g54
(dp3069
g62
I5
ssg63
g3063
sg56
(lp3070
S'<cStringIO.StringO object at 0x07209F40>'
p3071
asbasbasbag49
(g65
g51
NtRp3072
(dp3073
g54
(dp3074
sg63
g3047
sg56
(lp3075
g49
(g70
g51
NtRp3076
(dp3077
g54
(dp3078
g74
g75
ssg63
g3072
sg56
(lp3079
S'complaint'
p3080
asbag49
(g70
g51
NtRp3081
(dp3082
g54
(dp3083
g81
g82
ssg63
g3072
sg56
(lp3084
S':'
asbag49
(g70
g51
NtRp3085
(dp3086
g54
(dp3087
sg63
g3072
sg56
(lp3088
g49
(g50
g51
NtRp3089
(dp3090
g54
(dp3091
g62
I5
ssg63
g3085
sg56
(lp3092
g49
(g58
g51
NtRp3093
(dp3094
g54
(dp3095
g62
I4
ssg63
Nsg56
(lp3096
g49
(g65
g51
NtRp3097
(dp3098
g54
(dp3099
sg63
g3093
sg56
(lp3100
g49
(g70
g51
NtRp3101
(dp3102
g54
(dp3103
sg63
g3097
sg56
(lp3104
g49
(g50
g51
NtRp3105
(dp3106
g54
(dp3107
g62
I4
ssg63
g3101
sg56
(lp3108
g49
(g58
g51
NtRp3109
(dp3110
g54
(dp3111
g62
I3
ssg63
Nsg56
(lp3112
g49
(g65
g51
NtRp3113
(dp3114
g54
(dp3115
sg63
g3109
sg56
(lp3116
g49
(g70
g51
NtRp3117
(dp3118
g54
(dp3119
sg63
g3113
sg56
(lp3120
g49
(g50
g51
NtRp3121
(dp3122
g54
(dp3123
g62
I3
ssg63
g3117
sg56
(lp3124
cgluon.languages
lazyT_unpickle
p3125
(S's\t\x00\x00\x00COMPLAINT'
tRp3126
asbasbasbag49
(g65
g51
NtRp3127
(dp3128
g54
(dp3129
sg63
g3109
sg56
(lp3130
g49
(g70
g51
NtRp3131
(dp3132
g54
(dp3133
sg63
g3127
sg56
(lp3134
g49
(g50
g51
NtRp3135
(dp3136
g54
(dp3137
g62
I3
ssg63
g3131
sg56
(lp3138
g92
asbasbasbag49
(g65
g51
NtRp3139
(dp3140
g54
(dp3141
sg63
g3109
sg56
(lp3142
g49
(g70
g51
NtRp3143
(dp3144
g54
(dp3145
sg63
g3139
sg56
(lp3146
g49
(g50
g51
NtRp3147
(dp3148
g54
(dp3149
g62
I3
ssg63
g3143
sg56
(lp3150
S'/hostel/default/complaint'
p3151
asbasbasbag49
(g65
g51
NtRp3152
(dp3153
g54
(dp3154
sg63
g3109
sg56
(lp3155
g49
(g70
g51
NtRp3156
(dp3157
g54
(dp3158
sg63
g3152
sg56
(lp3159
g49
(g50
g51
NtRp3160
(dp3161
g54
(dp3162
g62
I3
ssg63
g3156
sg56
(lp3163
g49
(g58
g51
NtRp3164
(dp3165
g54
(dp3166
g62
I2
ssg63
Nsg56
(lp3167
sbasbasbasbasbasbasbasbasbasbasbasbag49
(g65
g51
NtRp3168
(dp3169
g54
(dp3170
sg63
g3047
sg56
(lp3171
g49
(g70
g51
NtRp3172
(dp3173
g54
(dp3174
g74
g75
ssg63
g3168
sg56
(lp3175
g213
asbag49
(g70
g51
NtRp3176
(dp3177
g54
(dp3178
g81
g82
ssg63
g3168
sg56
(lp3179
S':'
asbag49
(g70
g51
NtRp3180
(dp3181
g54
(dp3182
sg63
g3168
sg56
(lp3183
g49
(g50
g51
NtRp3184
(dp3185
g54
(dp3186
g62
I5
ssg63
g3180
sg56
(lp3187
g49
(g58
g51
NtRp3188
(dp3189
g54
(dp3190
g62
I4
ssg63
Nsg56
(lp3191
g49
(g65
g51
NtRp3192
(dp3193
g54
(dp3194
sg63
g3188
sg56
(lp3195
g49
(g70
g51
NtRp3196
(dp3197
g54
(dp3198
g74
g75
ssg63
g3192
sg56
(lp3199
S'session_id_hostel'
p3200
asbag49
(g70
g51
NtRp3201
(dp3202
g54
(dp3203
g81
g82
ssg63
g3192
sg56
(lp3204
S':'
asbag49
(g70
g51
NtRp3205
(dp3206
g54
(dp3207
sg63
g3192
sg56
(lp3208
g49
(g50
g51
NtRp3209
(dp3210
g54
(dp3211
g62
I4
ssg63
g3205
sg56
(lp3212
g49
(g58
g51
NtRp3213
(dp3214
g54
(dp3215
g62
I3
ssg63
Nsg56
(lp3216
g49
(g65
g51
NtRp3217
(dp3218
g54
(dp3219
sg63
g3213
sg56
(lp3220
g49
(g70
g51
NtRp3221
(dp3222
g54
(dp3223
g74
g75
ssg63
g3217
sg56
(lp3224
g263
asbag49
(g70
g51
NtRp3225
(dp3226
g54
(dp3227
g81
g82
ssg63
g3217
sg56
(lp3228
S':'
asbag49
(g70
g51
NtRp3229
(dp3230
g54
(dp3231
sg63
g3217
sg56
(lp3232
g49
(g50
g51
NtRp3233
(dp3234
g54
(dp3235
g62
I3
ssg63
g3229
sg56
(lp3236
S''
asbasbasbag49
(g65
g51
NtRp3237
(dp3238
g54
(dp3239
sg63
g3213
sg56
(lp3240
g49
(g70
g51
NtRp3241
(dp3242
g54
(dp3243
g74
g75
ssg63
g3237
sg56
(lp3244
g284
asbag49
(g70
g51
NtRp3245
(dp3246
g54
(dp3247
g81
g82
ssg63
g3237
sg56
(lp3248
S':'
asbag49
(g70
g51
NtRp3249
(dp3250
g54
(dp3251
sg63
g3237
sg56
(lp3252
g49
(g50
g51
NtRp3253
(dp3254
g54
(dp3255
g62
I3
ssg63
g3249
sg56
(lp3256
S''
asbasbasbag49
(g65
g51
NtRp3257
(dp3258
g54
(dp3259
sg63
g3213
sg56
(lp3260
g49
(g70
g51
NtRp3261
(dp3262
g54
(dp3263
g74
g75
ssg63
g3257
sg56
(lp3264
g305
asbag49
(g70
g51
NtRp3265
(dp3266
g54
(dp3267
g81
g82
ssg63
g3257
sg56
(lp3268
S':'
asbag49
(g70
g51
NtRp3269
(dp3270
g54
(dp3271
sg63
g3257
sg56
(lp3272
g49
(g50
g51
NtRp3273
(dp3274
g54
(dp3275
g62
I3
ssg63
g3269
sg56
(lp3276
S''
asbasbasbag49
(g65
g51
NtRp3277
(dp3278
g54
(dp3279
sg63
g3213
sg56
(lp3280
g49
(g70
g51
NtRp3281
(dp3282
g54
(dp3283
g74
g75
ssg63
g3277
sg56
(lp3284
g326
asbag49
(g70
g51
NtRp3285
(dp3286
g54
(dp3287
g81
g82
ssg63
g3277
sg56
(lp3288
S':'
asbag49
(g70
g51
NtRp3289
(dp3290
g54
(dp3291
sg63
g3277
sg56
(lp3292
g49
(g50
g51
NtRp3293
(dp3294
g54
(dp3295
g62
I3
ssg63
g3289
sg56
(lp3296
S''
asbasbasbag49
(g65
g51
NtRp3297
(dp3298
g54
(dp3299
sg63
g3213
sg56
(lp3300
g49
(g70
g51
NtRp3301
(dp3302
g54
(dp3303
g74
g75
ssg63
g3297
sg56
(lp3304
g347
asbag49
(g70
g51
NtRp3305
(dp3306
g54
(dp3307
g81
g82
ssg63
g3297
sg56
(lp3308
S':'
asbag49
(g70
g51
NtRp3309
(dp3310
g54
(dp3311
sg63
g3297
sg56
(lp3312
g49
(g50
g51
NtRp3313
(dp3314
g54
(dp3315
g62
I3
ssg63
g3309
sg56
(lp3316
S'/'
asbasbasbag49
(g65
g51
NtRp3317
(dp3318
g54
(dp3319
sg63
g3213
sg56
(lp3320
g49
(g70
g51
NtRp3321
(dp3322
g54
(dp3323
g74
g75
ssg63
g3317
sg56
(lp3324
g368
asbag49
(g70
g51
NtRp3325
(dp3326
g54
(dp3327
g81
g82
ssg63
g3317
sg56
(lp3328
S':'
asbag49
(g70
g51
NtRp3329
(dp3330
g54
(dp3331
sg63
g3317
sg56
(lp3332
g49
(g50
g51
NtRp3333
(dp3334
g54
(dp3335
g62
I3
ssg63
g3329
sg56
(lp3336
S''
asbasbasbag49
(g65
g51
NtRp3337
(dp3338
g54
(dp3339
sg63
g3213
sg56
(lp3340
g49
(g70
g51
NtRp3341
(dp3342
g54
(dp3343
g74
g75
ssg63
g3337
sg56
(lp3344
g389
asbag49
(g70
g51
NtRp3345
(dp3346
g54
(dp3347
g81
g82
ssg63
g3337
sg56
(lp3348
S':'
asbag49
(g70
g51
NtRp3349
(dp3350
g54
(dp3351
sg63
g3337
sg56
(lp3352
g49
(g50
g51
NtRp3353
(dp3354
g54
(dp3355
g62
I3
ssg63
g3349
sg56
(lp3356
S''
asbasbasbasbasbasbasbasbasbasbasbag49
(g65
g51
NtRp3357
(dp3358
g54
(dp3359
sg63
g3047
sg56
(lp3360
g49
(g70
g51
NtRp3361
(dp3362
g54
(dp3363
g74
g75
ssg63
g3357
sg56
(lp3364
S'delimiters'
p3365
asbag49
(g70
g51
NtRp3366
(dp3367
g54
(dp3368
g81
g82
ssg63
g3357
sg56
(lp3369
S':'
asbag49
(g70
g51
NtRp3370
(dp3371
g54
(dp3372
sg63
g3357
sg56
(lp3373
g49
(g50
g51
NtRp3374
(dp3375
g54
(dp3376
g62
I5
ssg63
g3370
sg56
(lp3377
g49
(g58
g51
NtRp3378
(dp3379
g54
(dp3380
g62
I4
ssg63
Nsg56
(lp3381
g49
(g65
g51
NtRp3382
(dp3383
g54
(dp3384
sg63
g3378
sg56
(lp3385
g49
(g70
g51
NtRp3386
(dp3387
g54
(dp3388
sg63
g3382
sg56
(lp3389
g49
(g50
g51
NtRp3390
(dp3391
g54
(dp3392
g62
I4
ssg63
g3386
sg56
(lp3393
S'{{'
p3394
asbasbasbag49
(g65
g51
NtRp3395
(dp3396
g54
(dp3397
sg63
g3378
sg56
(lp3398
g49
(g70
g51
NtRp3399
(dp3400
g54
(dp3401
sg63
g3395
sg56
(lp3402
g49
(g50
g51
NtRp3403
(dp3404
g54
(dp3405
g62
I4
ssg63
g3399
sg56
(lp3406
S'}}'
p3407
asbasbasbasbasbasbasbag49
(g65
g51
NtRp3408
(dp3409
g54
(dp3410
sg63
g3047
sg56
(lp3411
g49
(g70
g51
NtRp3412
(dp3413
g54
(dp3414
g74
g75
ssg63
g3408
sg56
(lp3415
S'enter_laptop_details'
p3416
asbag49
(g70
g51
NtRp3417
(dp3418
g54
(dp3419
g81
g82
ssg63
g3408
sg56
(lp3420
S':'
asbag49
(g70
g51
NtRp3421
(dp3422
g54
(dp3423
sg63
g3408
sg56
(lp3424
g49
(g50
g51
NtRp3425
(dp3426
g54
(dp3427
g62
I5
ssg63
g3421
sg56
(lp3428
g49
(g58
g51
NtRp3429
(dp3430
g54
(dp3431
g62
I4
ssg63
Nsg56
(lp3432
g49
(g65
g51
NtRp3433
(dp3434
g54
(dp3435
sg63
g3429
sg56
(lp3436
g49
(g70
g51
NtRp3437
(dp3438
g54
(dp3439
sg63
g3433
sg56
(lp3440
g49
(g50
g51
NtRp3441
(dp3442
g54
(dp3443
g62
I4
ssg63
g3437
sg56
(lp3444
g49
(g58
g51
NtRp3445
(dp3446
g54
(dp3447
g62
I3
ssg63
Nsg56
(lp3448
g49
(g65
g51
NtRp3449
(dp3450
g54
(dp3451
sg63
g3445
sg56
(lp3452
g49
(g70
g51
NtRp3453
(dp3454
g54
(dp3455
sg63
g3449
sg56
(lp3456
g49
(g50
g51
NtRp3457
(dp3458
g54
(dp3459
g62
I3
ssg63
g3453
sg56
(lp3460
g3125
(S's\x14\x00\x00\x00Enter Laptop Details'
tRp3461
asbasbasbag49
(g65
g51
NtRp3462
(dp3463
g54
(dp3464
sg63
g3445
sg56
(lp3465
g49
(g70
g51
NtRp3466
(dp3467
g54
(dp3468
sg63
g3462
sg56
(lp3469
g49
(g50
g51
NtRp3470
(dp3471
g54
(dp3472
g62
I3
ssg63
g3466
sg56
(lp3473
g92
asbasbasbag49
(g65
g51
NtRp3474
(dp3475
g54
(dp3476
sg63
g3445
sg56
(lp3477
g49
(g70
g51
NtRp3478
(dp3479
g54
(dp3480
sg63
g3474
sg56
(lp3481
g49
(g50
g51
NtRp3482
(dp3483
g54
(dp3484
g62
I3
ssg63
g3478
sg56
(lp3485
S'/hostel/default/enter_laptop_details'
p3486
asbasbasbag49
(g65
g51
NtRp3487
(dp3488
g54
(dp3489
sg63
g3445
sg56
(lp3490
g49
(g70
g51
NtRp3491
(dp3492
g54
(dp3493
sg63
g3487
sg56
(lp3494
g49
(g50
g51
NtRp3495
(dp3496
g54
(dp3497
g62
I3
ssg63
g3491
sg56
(lp3498
g49
(g58
g51
NtRp3499
(dp3500
g54
(dp3501
g62
I2
ssg63
Nsg56
(lp3502
sbasbasbasbasbasbasbasbasbasbasbasbag49
(g65
g51
NtRp3503
(dp3504
g54
(dp3505
sg63
g3047
sg56
(lp3506
g49
(g70
g51
NtRp3507
(dp3508
g54
(dp3509
g74
g75
ssg63
g3503
sg56
(lp3510
S'files'
p3511
asbag49
(g70
g51
NtRp3512
(dp3513
g54
(dp3514
g81
g82
ssg63
g3503
sg56
(lp3515
S':'
asbag49
(g70
g51
NtRp3516
(dp3517
g54
(dp3518
sg63
g3503
sg56
(lp3519
g49
(g50
g51
NtRp3520
(dp3521
g54
(dp3522
g62
I5
ssg63
g3516
sg56
(lp3523
g49
(g58
g51
NtRp3524
(dp3525
g54
(dp3526
g62
I4
ssg63
Nsg56
(lp3527
sbasbasbasbag49
(g65
g51
NtRp3528
(dp3529
g54
(dp3530
sg63
g3047
sg56
(lp3531
g49
(g70
g51
NtRp3532
(dp3533
g54
(dp3534
g74
g75
ssg63
g3528
sg56
(lp3535
S'flash'
p3536
asbag49
(g70
g51
NtRp3537
(dp3538
g54
(dp3539
g81
g82
ssg63
g3528
sg56
(lp3540
S':'
asbag49
(g70
g51
NtRp3541
(dp3542
g54
(dp3543
sg63
g3528
sg56
(lp3544
g49
(g50
g51
NtRp3545
(dp3546
g54
(dp3547
g62
I5
ssg63
g3541
sg56
(lp3548
S''
asbasbasbag49
(g65
g51
NtRp3549
(dp3550
g54
(dp3551
sg63
g3047
sg56
(lp3552
g49
(g70
g51
NtRp3553
(dp3554
g54
(dp3555
g74
g75
ssg63
g3549
sg56
(lp3556
S'generic_patterns'
p3557
asbag49
(g70
g51
NtRp3558
(dp3559
g54
(dp3560
g81
g82
ssg63
g3549
sg56
(lp3561
S':'
asbag49
(g70
g51
NtRp3562
(dp3563
g54
(dp3564
sg63
g3549
sg56
(lp3565
g49
(g50
g51
NtRp3566
(dp3567
g54
(dp3568
g62
I5
ssg63
g3562
sg56
(lp3569
g49
(g58
g51
NtRp3570
(dp3571
g54
(dp3572
g62
I4
ssg63
Nsg56
(lp3573
g49
(g65
g51
NtRp3574
(dp3575
g54
(dp3576
sg63
g3570
sg56
(lp3577
g49
(g70
g51
NtRp3578
(dp3579
g54
(dp3580
sg63
g3574
sg56
(lp3581
g49
(g50
g51
NtRp3582
(dp3583
g54
(dp3584
g62
I4
ssg63
g3578
sg56
(lp3585
S'*'
asbasbasbasbasbasbasbag49
(g65
g51
NtRp3586
(dp3587
g54
(dp3588
sg63
g3047
sg56
(lp3589
g49
(g70
g51
NtRp3590
(dp3591
g54
(dp3592
g74
g75
ssg63
g3586
sg56
(lp3593
S'headers'
p3594
asbag49
(g70
g51
NtRp3595
(dp3596
g54
(dp3597
g81
g82
ssg63
g3586
sg56
(lp3598
S':'
asbag49
(g70
g51
NtRp3599
(dp3600
g54
(dp3601
sg63
g3586
sg56
(lp3602
g49
(g50
g51
NtRp3603
(dp3604
g54
(dp3605
g62
I5
ssg63
g3599
sg56
(lp3606
g49
(g58
g51
NtRp3607
(dp3608
g54
(dp3609
g62
I4
ssg63
Nsg56
(lp3610
g49
(g65
g51
NtRp3611
(dp3612
g54
(dp3613
sg63
g3607
sg56
(lp3614
g49
(g70
g51
NtRp3615
(dp3616
g54
(dp3617
g74
g75
ssg63
g3611
sg56
(lp3618
S'Cache-Control'
p3619
asbag49
(g70
g51
NtRp3620
(dp3621
g54
(dp3622
g81
g82
ssg63
g3611
sg56
(lp3623
S':'
asbag49
(g70
g51
NtRp3624
(dp3625
g54
(dp3626
sg63
g3611
sg56
(lp3627
g49
(g50
g51
NtRp3628
(dp3629
g54
(dp3630
g62
I4
ssg63
g3624
sg56
(lp3631
S'no-store, no-cache, must-revalidate, post-check=0, pre-check=0'
p3632
asbasbasbag49
(g65
g51
NtRp3633
(dp3634
g54
(dp3635
sg63
g3607
sg56
(lp3636
g49
(g70
g51
NtRp3637
(dp3638
g54
(dp3639
g74
g75
ssg63
g3633
sg56
(lp3640
S'Content-Type'
p3641
asbag49
(g70
g51
NtRp3642
(dp3643
g54
(dp3644
g81
g82
ssg63
g3633
sg56
(lp3645
S':'
asbag49
(g70
g51
NtRp3646
(dp3647
g54
(dp3648
sg63
g3633
sg56
(lp3649
g49
(g50
g51
NtRp3650
(dp3651
g54
(dp3652
g62
I4
ssg63
g3646
sg56
(lp3653
S'text/html; charset=utf-8'
p3654
asbasbasbag49
(g65
g51
NtRp3655
(dp3656
g54
(dp3657
sg63
g3607
sg56
(lp3658
g49
(g70
g51
NtRp3659
(dp3660
g54
(dp3661
g74
g75
ssg63
g3655
sg56
(lp3662
S'Expires'
p3663
asbag49
(g70
g51
NtRp3664
(dp3665
g54
(dp3666
g81
g82
ssg63
g3655
sg56
(lp3667
S':'
asbag49
(g70
g51
NtRp3668
(dp3669
g54
(dp3670
sg63
g3655
sg56
(lp3671
g49
(g50
g51
NtRp3672
(dp3673
g54
(dp3674
g62
I4
ssg63
g3668
sg56
(lp3675
S'Tue, 16 Oct 2012 10:55:04 GMT'
p3676
asbasbasbag49
(g65
g51
NtRp3677
(dp3678
g54
(dp3679
sg63
g3607
sg56
(lp3680
g49
(g70
g51
NtRp3681
(dp3682
g54
(dp3683
g74
g75
ssg63
g3677
sg56
(lp3684
S'Pragma'
p3685
asbag49
(g70
g51
NtRp3686
(dp3687
g54
(dp3688
g81
g82
ssg63
g3677
sg56
(lp3689
S':'
asbag49
(g70
g51
NtRp3690
(dp3691
g54
(dp3692
sg63
g3677
sg56
(lp3693
g49
(g50
g51
NtRp3694
(dp3695
g54
(dp3696
g62
I4
ssg63
g3690
sg56
(lp3697
S'no-cache'
p3698
asbasbasbag49
(g65
g51
NtRp3699
(dp3700
g54
(dp3701
sg63
g3607
sg56
(lp3702
g49
(g70
g51
NtRp3703
(dp3704
g54
(dp3705
g74
g75
ssg63
g3699
sg56
(lp3706
S'X-Powered-By'
p3707
asbag49
(g70
g51
NtRp3708
(dp3709
g54
(dp3710
g81
g82
ssg63
g3699
sg56
(lp3711
S':'
asbag49
(g70
g51
NtRp3712
(dp3713
g54
(dp3714
sg63
g3699
sg56
(lp3715
g49
(g50
g51
NtRp3716
(dp3717
g54
(dp3718
g62
I4
ssg63
g3712
sg56
(lp3719
S'web2py'
p3720
asbasbasbasbasbasbasbag49
(g65
g51
NtRp3721
(dp3722
g54
(dp3723
sg63
g3047
sg56
(lp3724
g49
(g70
g51
NtRp3725
(dp3726
g54
(dp3727
g74
g75
ssg63
g3721
sg56
(lp3728
S'laptop_out_details'
p3729
asbag49
(g70
g51
NtRp3730
(dp3731
g54
(dp3732
g81
g82
ssg63
g3721
sg56
(lp3733
S':'
asbag49
(g70
g51
NtRp3734
(dp3735
g54
(dp3736
sg63
g3721
sg56
(lp3737
g49
(g50
g51
NtRp3738
(dp3739
g54
(dp3740
g62
I5
ssg63
g3734
sg56
(lp3741
g49
(g58
g51
NtRp3742
(dp3743
g54
(dp3744
g62
I4
ssg63
Nsg56
(lp3745
g49
(g65
g51
NtRp3746
(dp3747
g54
(dp3748
sg63
g3742
sg56
(lp3749
g49
(g70
g51
NtRp3750
(dp3751
g54
(dp3752
sg63
g3746
sg56
(lp3753
g49
(g50
g51
NtRp3754
(dp3755
g54
(dp3756
g62
I4
ssg63
g3750
sg56
(lp3757
g49
(g58
g51
NtRp3758
(dp3759
g54
(dp3760
g62
I3
ssg63
Nsg56
(lp3761
g49
(g65
g51
NtRp3762
(dp3763
g54
(dp3764
sg63
g3758
sg56
(lp3765
g49
(g70
g51
NtRp3766
(dp3767
g54
(dp3768
sg63
g3762
sg56
(lp3769
g49
(g50
g51
NtRp3770
(dp3771
g54
(dp3772
g62
I3
ssg63
g3766
sg56
(lp3773
g3125
(S's\x0f\x00\x00\x00Laptop Movement'
tRp3774
asbasbasbag49
(g65
g51
NtRp3775
(dp3776
g54
(dp3777
sg63
g3758
sg56
(lp3778
g49
(g70
g51
NtRp3779
(dp3780
g54
(dp3781
sg63
g3775
sg56
(lp3782
g49
(g50
g51
NtRp3783
(dp3784
g54
(dp3785
g62
I3
ssg63
g3779
sg56
(lp3786
g92
asbasbasbag49
(g65
g51
NtRp3787
(dp3788
g54
(dp3789
sg63
g3758
sg56
(lp3790
g49
(g70
g51
NtRp3791
(dp3792
g54
(dp3793
sg63
g3787
sg56
(lp3794
g49
(g50
g51
NtRp3795
(dp3796
g54
(dp3797
g62
I3
ssg63
g3791
sg56
(lp3798
S'/hostel/default/laptop_out_details'
p3799
asbasbasbag49
(g65
g51
NtRp3800
(dp3801
g54
(dp3802
sg63
g3758
sg56
(lp3803
g49
(g70
g51
NtRp3804
(dp3805
g54
(dp3806
sg63
g3800
sg56
(lp3807
g49
(g50
g51
NtRp3808
(dp3809
g54
(dp3810
g62
I3
ssg63
g3804
sg56
(lp3811
g49
(g58
g51
NtRp3812
(dp3813
g54
(dp3814
g62
I2
ssg63
Nsg56
(lp3815
sbasbasbasbasbasbasbasbasbasbasbasbag49
(g65
g51
NtRp3816
(dp3817
g54
(dp3818
sg63
g3047
sg56
(lp3819
g49
(g70
g51
NtRp3820
(dp3821
g54
(dp3822
g74
g75
ssg63
g3816
sg56
(lp3823
S'menu'
p3824
asbag49
(g70
g51
NtRp3825
(dp3826
g54
(dp3827
g81
g82
ssg63
g3816
sg56
(lp3828
S':'
asbag49
(g70
g51
NtRp3829
(dp3830
g54
(dp3831
sg63
g3816
sg56
(lp3832
g49
(g50
g51
NtRp3833
(dp3834
g54
(dp3835
g62
I5
ssg63
g3829
sg56
(lp3836
g49
(g58
g51
NtRp3837
(dp3838
g54
(dp3839
g62
I4
ssg63
Nsg56
(lp3840
g49
(g65
g51
NtRp3841
(dp3842
g54
(dp3843
sg63
g3837
sg56
(lp3844
g49
(g70
g51
NtRp3845
(dp3846
g54
(dp3847
sg63
g3841
sg56
(lp3848
g49
(g50
g51
NtRp3849
(dp3850
g54
(dp3851
g62
I4
ssg63
g3845
sg56
(lp3852
g49
(g58
g51
NtRp3853
(dp3854
g54
(dp3855
g62
I3
ssg63
Nsg56
(lp3856
g49
(g65
g51
NtRp3857
(dp3858
g54
(dp3859
sg63
g3853
sg56
(lp3860
g49
(g70
g51
NtRp3861
(dp3862
g54
(dp3863
sg63
g3857
sg56
(lp3864
g49
(g50
g51
NtRp3865
(dp3866
g54
(dp3867
g62
I3
ssg63
g3861
sg56
(lp3868
g3125
(S's\x06\x00\x00\x00design'
tRp3869
asbasbasbag49
(g65
g51
NtRp3870
(dp3871
g54
(dp3872
sg63
g3853
sg56
(lp3873
g49
(g70
g51
NtRp3874
(dp3875
g54
(dp3876
sg63
g3870
sg56
(lp3877
g49
(g50
g51
NtRp3878
(dp3879
g54
(dp3880
g62
I3
ssg63
g3874
sg56
(lp3881
g92
asbasbasbag49
(g65
g51
NtRp3882
(dp3883
g54
(dp3884
sg63
g3853
sg56
(lp3885
g49
(g70
g51
NtRp3886
(dp3887
g54
(dp3888
sg63
g3882
sg56
(lp3889
g49
(g50
g51
NtRp3890
(dp3891
g54
(dp3892
g62
I3
ssg63
g3886
sg56
(lp3893
S'/admin/default/design/hostel'
p3894
asbasbasbasbasbasbasbag49
(g65
g51
NtRp3895
(dp3896
g54
(dp3897
sg63
g3837
sg56
(lp3898
g49
(g70
g51
NtRp3899
(dp3900
g54
(dp3901
sg63
g3895
sg56
(lp3902
g49
(g50
g51
NtRp3903
(dp3904
g54
(dp3905
g62
I4
ssg63
g3899
sg56
(lp3906
g49
(g58
g51
NtRp3907
(dp3908
g54
(dp3909
g62
I3
ssg63
Nsg56
(lp3910
g49
(g65
g51
NtRp3911
(dp3912
g54
(dp3913
sg63
g3907
sg56
(lp3914
g49
(g70
g51
NtRp3915
(dp3916
g54
(dp3917
sg63
g3911
sg56
(lp3918
g49
(g50
g51
NtRp3919
(dp3920
g54
(dp3921
g62
I3
ssg63
g3915
sg56
(lp3922
g3125
(S's\x02\x00\x00\x00db'
tRp3923
asbasbasbag49
(g65
g51
NtRp3924
(dp3925
g54
(dp3926
sg63
g3907
sg56
(lp3927
g49
(g70
g51
NtRp3928
(dp3929
g54
(dp3930
sg63
g3924
sg56
(lp3931
g49
(g50
g51
NtRp3932
(dp3933
g54
(dp3934
g62
I3
ssg63
g3928
sg56
(lp3935
g92
asbasbasbag49
(g65
g51
NtRp3936
(dp3937
g54
(dp3938
sg63
g3907
sg56
(lp3939
g49
(g70
g51
NtRp3940
(dp3941
g54
(dp3942
sg63
g3936
sg56
(lp3943
g49
(g50
g51
NtRp3944
(dp3945
g54
(dp3946
g62
I3
ssg63
g3940
sg56
(lp3947
S'/hostel/appadmin/index'
p3948
asbasbasbasbasbasbasbag49
(g65
g51
NtRp3949
(dp3950
g54
(dp3951
sg63
g3837
sg56
(lp3952
g49
(g70
g51
NtRp3953
(dp3954
g54
(dp3955
sg63
g3949
sg56
(lp3956
g49
(g50
g51
NtRp3957
(dp3958
g54
(dp3959
g62
I4
ssg63
g3953
sg56
(lp3960
g49
(g58
g51
NtRp3961
(dp3962
g54
(dp3963
g62
I3
ssg63
Nsg56
(lp3964
g49
(g65
g51
NtRp3965
(dp3966
g54
(dp3967
sg63
g3961
sg56
(lp3968
g49
(g70
g51
NtRp3969
(dp3970
g54
(dp3971
sg63
g3965
sg56
(lp3972
g49
(g50
g51
NtRp3973
(dp3974
g54
(dp3975
g62
I3
ssg63
g3969
sg56
(lp3976
g3125
(S's\x05\x00\x00\x00state'
tRp3977
asbasbasbag49
(g65
g51
NtRp3978
(dp3979
g54
(dp3980
sg63
g3961
sg56
(lp3981
g49
(g70
g51
NtRp3982
(dp3983
g54
(dp3984
sg63
g3978
sg56
(lp3985
g49
(g50
g51
NtRp3986
(dp3987
g54
(dp3988
g62
I3
ssg63
g3982
sg56
(lp3989
g92
asbasbasbag49
(g65
g51
NtRp3990
(dp3991
g54
(dp3992
sg63
g3961
sg56
(lp3993
g49
(g70
g51
NtRp3994
(dp3995
g54
(dp3996
sg63
g3990
sg56
(lp3997
g49
(g50
g51
NtRp3998
(dp3999
g54
(dp4000
g62
I3
ssg63
g3994
sg56
(lp4001
S'/hostel/appadmin/state'
p4002
asbasbasbasbasbasbasbag49
(g65
g51
NtRp4003
(dp4004
g54
(dp4005
sg63
g3837
sg56
(lp4006
g49
(g70
g51
NtRp4007
(dp4008
g54
(dp4009
sg63
g4003
sg56
(lp4010
g49
(g50
g51
NtRp4011
(dp4012
g54
(dp4013
g62
I4
ssg63
g4007
sg56
(lp4014
g49
(g58
g51
NtRp4015
(dp4016
g54
(dp4017
g62
I3
ssg63
Nsg56
(lp4018
g49
(g65
g51
NtRp4019
(dp4020
g54
(dp4021
sg63
g4015
sg56
(lp4022
g49
(g70
g51
NtRp4023
(dp4024
g54
(dp4025
sg63
g4019
sg56
(lp4026
g49
(g50
g51
NtRp4027
(dp4028
g54
(dp4029
g62
I3
ssg63
g4023
sg56
(lp4030
g3125
(S's\x05\x00\x00\x00cache'
tRp4031
asbasbasbag49
(g65
g51
NtRp4032
(dp4033
g54
(dp4034
sg63
g4015
sg56
(lp4035
g49
(g70
g51
NtRp4036
(dp4037
g54
(dp4038
sg63
g4032
sg56
(lp4039
g49
(g50
g51
NtRp4040
(dp4041
g54
(dp4042
g62
I3
ssg63
g4036
sg56
(lp4043
g92
asbasbasbag49
(g65
g51
NtRp4044
(dp4045
g54
(dp4046
sg63
g4015
sg56
(lp4047
g49
(g70
g51
NtRp4048
(dp4049
g54
(dp4050
sg63
g4044
sg56
(lp4051
g49
(g50
g51
NtRp4052
(dp4053
g54
(dp4054
g62
I3
ssg63
g4048
sg56
(lp4055
S'/hostel/appadmin/ccache'
p4056
asbasbasbasbasbasbasbasbasbasbasbag49
(g65
g51
NtRp4057
(dp4058
g54
(dp4059
sg63
g3047
sg56
(lp4060
g49
(g70
g51
NtRp4061
(dp4062
g54
(dp4063
g74
g75
ssg63
g4057
sg56
(lp4064
S'meta'
p4065
asbag49
(g70
g51
NtRp4066
(dp4067
g54
(dp4068
g81
g82
ssg63
g4057
sg56
(lp4069
S':'
asbag49
(g70
g51
NtRp4070
(dp4071
g54
(dp4072
sg63
g4057
sg56
(lp4073
g49
(g50
g51
NtRp4074
(dp4075
g54
(dp4076
g62
I5
ssg63
g4070
sg56
(lp4077
g49
(g58
g51
NtRp4078
(dp4079
g54
(dp4080
g62
I4
ssg63
Nsg56
(lp4081
g49
(g65
g51
NtRp4082
(dp4083
g54
(dp4084
sg63
g4078
sg56
(lp4085
g49
(g70
g51
NtRp4086
(dp4087
g54
(dp4088
g74
g75
ssg63
g4082
sg56
(lp4089
S'author'
p4090
asbag49
(g70
g51
NtRp4091
(dp4092
g54
(dp4093
g81
g82
ssg63
g4082
sg56
(lp4094
S':'
asbag49
(g70
g51
NtRp4095
(dp4096
g54
(dp4097
sg63
g4082
sg56
(lp4098
g49
(g50
g51
NtRp4099
(dp4100
g54
(dp4101
g62
I4
ssg63
g4095
sg56
(lp4102
S'you <you@example.com>'
p4103
asbasbasbag49
(g65
g51
NtRp4104
(dp4105
g54
(dp4106
sg63
g4078
sg56
(lp4107
g49
(g70
g51
NtRp4108
(dp4109
g54
(dp4110
g74
g75
ssg63
g4104
sg56
(lp4111
S'description'
p4112
asbag49
(g70
g51
NtRp4113
(dp4114
g54
(dp4115
g81
g82
ssg63
g4104
sg56
(lp4116
S':'
asbag49
(g70
g51
NtRp4117
(dp4118
g54
(dp4119
sg63
g4104
sg56
(lp4120
g49
(g50
g51
NtRp4121
(dp4122
g54
(dp4123
g62
I4
ssg63
g4117
sg56
(lp4124
S''
asbasbasbag49
(g65
g51
NtRp4125
(dp4126
g54
(dp4127
sg63
g4078
sg56
(lp4128
g49
(g70
g51
NtRp4129
(dp4130
g54
(dp4131
g74
g75
ssg63
g4125
sg56
(lp4132
S'keywords'
p4133
asbag49
(g70
g51
NtRp4134
(dp4135
g54
(dp4136
g81
g82
ssg63
g4125
sg56
(lp4137
S':'
asbag49
(g70
g51
NtRp4138
(dp4139
g54
(dp4140
sg63
g4125
sg56
(lp4141
g49
(g50
g51
NtRp4142
(dp4143
g54
(dp4144
g62
I4
ssg63
g4138
sg56
(lp4145
S''
asbasbasbasbasbasbasbag49
(g65
g51
NtRp4146
(dp4147
g54
(dp4148
sg63
g3047
sg56
(lp4149
g49
(g70
g51
NtRp4150
(dp4151
g54
(dp4152
g74
g75
ssg63
g4146
sg56
(lp4153
S'postprocessing'
p4154
asbag49
(g70
g51
NtRp4155
(dp4156
g54
(dp4157
g81
g82
ssg63
g4146
sg56
(lp4158
S':'
asbag49
(g70
g51
NtRp4159
(dp4160
g54
(dp4161
sg63
g4146
sg56
(lp4162
g49
(g50
g51
NtRp4163
(dp4164
g54
(dp4165
g62
I5
ssg63
g4159
sg56
(lp4166
g49
(g58
g51
NtRp4167
(dp4168
g54
(dp4169
g62
I4
ssg63
Nsg56
(lp4170
sbasbasbasbag49
(g65
g51
NtRp4171
(dp4172
g54
(dp4173
sg63
g3047
sg56
(lp4174
g49
(g70
g51
NtRp4175
(dp4176
g54
(dp4177
g74
g75
ssg63
g4171
sg56
(lp4178
S'search'
p4179
asbag49
(g70
g51
NtRp4180
(dp4181
g54
(dp4182
g81
g82
ssg63
g4171
sg56
(lp4183
S':'
asbag49
(g70
g51
NtRp4184
(dp4185
g54
(dp4186
sg63
g4171
sg56
(lp4187
g49
(g50
g51
NtRp4188
(dp4189
g54
(dp4190
g62
I5
ssg63
g4184
sg56
(lp4191
g49
(g58
g51
NtRp4192
(dp4193
g54
(dp4194
g62
I4
ssg63
Nsg56
(lp4195
g49
(g65
g51
NtRp4196
(dp4197
g54
(dp4198
sg63
g4192
sg56
(lp4199
g49
(g70
g51
NtRp4200
(dp4201
g54
(dp4202
sg63
g4196
sg56
(lp4203
g49
(g50
g51
NtRp4204
(dp4205
g54
(dp4206
g62
I4
ssg63
g4200
sg56
(lp4207
g49
(g58
g51
NtRp4208
(dp4209
g54
(dp4210
g62
I3
ssg63
Nsg56
(lp4211
g49
(g65
g51
NtRp4212
(dp4213
g54
(dp4214
sg63
g4208
sg56
(lp4215
g49
(g70
g51
NtRp4216
(dp4217
g54
(dp4218
sg63
g4212
sg56
(lp4219
g49
(g50
g51
NtRp4220
(dp4221
g54
(dp4222
g62
I3
ssg63
g4216
sg56
(lp4223
g3125
(S's\x06\x00\x00\x00SEARCH'
tRp4224
asbasbasbag49
(g65
g51
NtRp4225
(dp4226
g54
(dp4227
sg63
g4208
sg56
(lp4228
g49
(g70
g51
NtRp4229
(dp4230
g54
(dp4231
sg63
g4225
sg56
(lp4232
g49
(g50
g51
NtRp4233
(dp4234
g54
(dp4235
g62
I3
ssg63
g4229
sg56
(lp4236
g92
asbasbasbag49
(g65
g51
NtRp4237
(dp4238
g54
(dp4239
sg63
g4208
sg56
(lp4240
g49
(g70
g51
NtRp4241
(dp4242
g54
(dp4243
sg63
g4237
sg56
(lp4244
g49
(g50
g51
NtRp4245
(dp4246
g54
(dp4247
g62
I3
ssg63
g4241
sg56
(lp4248
S'/hostel/default/search'
p4249
asbasbasbag49
(g65
g51
NtRp4250
(dp4251
g54
(dp4252
sg63
g4208
sg56
(lp4253
g49
(g70
g51
NtRp4254
(dp4255
g54
(dp4256
sg63
g4250
sg56
(lp4257
g49
(g50
g51
NtRp4258
(dp4259
g54
(dp4260
g62
I3
ssg63
g4254
sg56
(lp4261
g49
(g58
g51
NtRp4262
(dp4263
g54
(dp4264
g62
I2
ssg63
Nsg56
(lp4265
sbasbasbasbasbasbasbasbasbasbasbasbag49
(g65
g51
NtRp4266
(dp4267
g54
(dp4268
sg63
g3047
sg56
(lp4269
g49
(g70
g51
NtRp4270
(dp4271
g54
(dp4272
g74
g75
ssg63
g4266
sg56
(lp4273
S'session_file'
p4274
asbag49
(g70
g51
NtRp4275
(dp4276
g54
(dp4277
g81
g82
ssg63
g4266
sg56
(lp4278
S':'
asbag49
(g70
g51
NtRp4279
(dp4280
g54
(dp4281
sg63
g4266
sg56
(lp4282
g49
(g50
g51
NtRp4283
(dp4284
g54
(dp4285
g62
I5
ssg63
g4279
sg56
(lp4286
S"<open file 'C:\\Users\\bhanu\\Downloads\\Compressed\\web2py\\applications\\hostel\\sessions\\127.0.0.1-592ebfc1-bed1-4bb6-b53a-beb05681dea6', mode 'rb+' at 0x06700020>"
p4287
asbasbasbag49
(g65
g51
NtRp4288
(dp4289
g54
(dp4290
sg63
g3047
sg56
(lp4291
g49
(g70
g51
NtRp4292
(dp4293
g54
(dp4294
g74
g75
ssg63
g4288
sg56
(lp4295
S'session_filename'
p4296
asbag49
(g70
g51
NtRp4297
(dp4298
g54
(dp4299
g81
g82
ssg63
g4288
sg56
(lp4300
S':'
asbag49
(g70
g51
NtRp4301
(dp4302
g54
(dp4303
sg63
g4288
sg56
(lp4304
g49
(g50
g51
NtRp4305
(dp4306
g54
(dp4307
g62
I5
ssg63
g4301
sg56
(lp4308
S'C:\\Users\\bhanu\\Downloads\\Compressed\\web2py\\applications\\hostel\\sessions\\127.0.0.1-592ebfc1-bed1-4bb6-b53a-beb05681dea6'
p4309
asbasbasbag49
(g65
g51
NtRp4310
(dp4311
g54
(dp4312
sg63
g3047
sg56
(lp4313
g49
(g70
g51
NtRp4314
(dp4315
g54
(dp4316
g74
g75
ssg63
g4310
sg56
(lp4317
S'session_id'
p4318
asbag49
(g70
g51
NtRp4319
(dp4320
g54
(dp4321
g81
g82
ssg63
g4310
sg56
(lp4322
S':'
asbag49
(g70
g51
NtRp4323
(dp4324
g54
(dp4325
sg63
g4310
sg56
(lp4326
g49
(g50
g51
NtRp4327
(dp4328
g54
(dp4329
g62
I5
ssg63
g4323
sg56
(lp4330
S'127.0.0.1-592ebfc1-bed1-4bb6-b53a-beb05681dea6'
p4331
asbasbasbag49
(g65
g51
NtRp4332
(dp4333
g54
(dp4334
sg63
g3047
sg56
(lp4335
g49
(g70
g51
NtRp4336
(dp4337
g54
(dp4338
g74
g75
ssg63
g4332
sg56
(lp4339
S'session_id_name'
p4340
asbag49
(g70
g51
NtRp4341
(dp4342
g54
(dp4343
g81
g82
ssg63
g4332
sg56
(lp4344
S':'
asbag49
(g70
g51
NtRp4345
(dp4346
g54
(dp4347
sg63
g4332
sg56
(lp4348
g49
(g50
g51
NtRp4349
(dp4350
g54
(dp4351
g62
I5
ssg63
g4345
sg56
(lp4352
g3200
asbasbasbag49
(g65
g51
NtRp4353
(dp4354
g54
(dp4355
sg63
g3047
sg56
(lp4356
g49
(g70
g51
NtRp4357
(dp4358
g54
(dp4359
g74
g75
ssg63
g4353
sg56
(lp4360
S'session_locked'
p4361
asbag49
(g70
g51
NtRp4362
(dp4363
g54
(dp4364
g81
g82
ssg63
g4353
sg56
(lp4365
S':'
asbag49
(g70
g51
NtRp4366
(dp4367
g54
(dp4368
sg63
g4353
sg56
(lp4369
g49
(g50
g51
NtRp4370
(dp4371
g54
(dp4372
g62
I5
ssg63
g4366
sg56
(lp4373
g1609
asbasbasbag49
(g65
g51
NtRp4374
(dp4375
g54
(dp4376
sg63
g3047
sg56
(lp4377
g49
(g70
g51
NtRp4378
(dp4379
g54
(dp4380
g74
g75
ssg63
g4374
sg56
(lp4381
S'session_new'
p4382
asbag49
(g70
g51
NtRp4383
(dp4384
g54
(dp4385
g81
g82
ssg63
g4374
sg56
(lp4386
S':'
asbag49
(g70
g51
NtRp4387
(dp4388
g54
(dp4389
sg63
g4374
sg56
(lp4390
g49
(g50
g51
NtRp4391
(dp4392
g54
(dp4393
g62
I5
ssg63
g4387
sg56
(lp4394
g92
asbasbasbag49
(g65
g51
NtRp4395
(dp4396
g54
(dp4397
sg63
g3047
sg56
(lp4398
g49
(g70
g51
NtRp4399
(dp4400
g54
(dp4401
g74
g75
ssg63
g4395
sg56
(lp4402
S'status'
p4403
asbag49
(g70
g51
NtRp4404
(dp4405
g54
(dp4406
g81
g82
ssg63
g4395
sg56
(lp4407
S':'
asbag49
(g70
g51
NtRp4408
(dp4409
g54
(dp4410
sg63
g4395
sg56
(lp4411
g49
(g50
g51
NtRp4412
(dp4413
g54
(dp4414
g62
I5
ssg63
g4408
sg56
(lp4415
S'200'
p4416
asbasbasbag49
(g65
g51
NtRp4417
(dp4418
g54
(dp4419
sg63
g3047
sg56
(lp4420
g49
(g70
g51
NtRp4421
(dp4422
g54
(dp4423
g74
g75
ssg63
g4417
sg56
(lp4424
S'student_out_details'
p4425
asbag49
(g70
g51
NtRp4426
(dp4427
g54
(dp4428
g81
g82
ssg63
g4417
sg56
(lp4429
S':'
asbag49
(g70
g51
NtRp4430
(dp4431
g54
(dp4432
sg63
g4417
sg56
(lp4433
g49
(g50
g51
NtRp4434
(dp4435
g54
(dp4436
g62
I5
ssg63
g4430
sg56
(lp4437
g49
(g58
g51
NtRp4438
(dp4439
g54
(dp4440
g62
I4
ssg63
Nsg56
(lp4441
g49
(g65
g51
NtRp4442
(dp4443
g54
(dp4444
sg63
g4438
sg56
(lp4445
g49
(g70
g51
NtRp4446
(dp4447
g54
(dp4448
sg63
g4442
sg56
(lp4449
g49
(g50
g51
NtRp4450
(dp4451
g54
(dp4452
g62
I4
ssg63
g4446
sg56
(lp4453
g49
(g58
g51
NtRp4454
(dp4455
g54
(dp4456
g62
I3
ssg63
Nsg56
(lp4457
g49
(g65
g51
NtRp4458
(dp4459
g54
(dp4460
sg63
g4454
sg56
(lp4461
g49
(g70
g51
NtRp4462
(dp4463
g54
(dp4464
sg63
g4458
sg56
(lp4465
g49
(g50
g51
NtRp4466
(dp4467
g54
(dp4468
g62
I3
ssg63
g4462
sg56
(lp4469
g3125
(S's\x0e\x00\x00\x00Outing Details'
tRp4470
asbasbasbag49
(g65
g51
NtRp4471
(dp4472
g54
(dp4473
sg63
g4454
sg56
(lp4474
g49
(g70
g51
NtRp4475
(dp4476
g54
(dp4477
sg63
g4471
sg56
(lp4478
g49
(g50
g51
NtRp4479
(dp4480
g54
(dp4481
g62
I3
ssg63
g4475
sg56
(lp4482
g92
asbasbasbag49
(g65
g51
NtRp4483
(dp4484
g54
(dp4485
sg63
g4454
sg56
(lp4486
g49
(g70
g51
NtRp4487
(dp4488
g54
(dp4489
sg63
g4483
sg56
(lp4490
g49
(g50
g51
NtRp4491
(dp4492
g54
(dp4493
g62
I3
ssg63
g4487
sg56
(lp4494
S'/hostel/default/student_out_details'
p4495
asbasbasbag49
(g65
g51
NtRp4496
(dp4497
g54
(dp4498
sg63
g4454
sg56
(lp4499
g49
(g70
g51
NtRp4500
(dp4501
g54
(dp4502
sg63
g4496
sg56
(lp4503
g49
(g50
g51
NtRp4504
(dp4505
g54
(dp4506
g62
I3
ssg63
g4500
sg56
(lp4507
g49
(g58
g51
NtRp4508
(dp4509
g54
(dp4510
g62
I2
ssg63
Nsg56
(lp4511
sbasbasbasbasbasbasbasbasbasbasbasbag49
(g65
g51
NtRp4512
(dp4513
g54
(dp4514
sg63
g3047
sg56
(lp4515
g49
(g70
g51
NtRp4516
(dp4517
g54
(dp4518
g74
g75
ssg63
g4512
sg56
(lp4519
S'subtitle'
p4520
asbag49
(g70
g51
NtRp4521
(dp4522
g54
(dp4523
g81
g82
ssg63
g4512
sg56
(lp4524
S':'
asbag49
(g70
g51
NtRp4525
(dp4526
g54
(dp4527
sg63
g4512
sg56
(lp4528
g49
(g50
g51
NtRp4529
(dp4530
g54
(dp4531
g62
I5
ssg63
g4525
sg56
(lp4532
S'powered by web2py'
p4533
asbasbasbag49
(g65
g51
NtRp4534
(dp4535
g54
(dp4536
sg63
g3047
sg56
(lp4537
g49
(g70
g51
NtRp4538
(dp4539
g54
(dp4540
g74
g75
ssg63
g4534
sg56
(lp4541
S'title'
p4542
asbag49
(g70
g51
NtRp4543
(dp4544
g54
(dp4545
g81
g82
ssg63
g4534
sg56
(lp4546
S':'
asbag49
(g70
g51
NtRp4547
(dp4548
g54
(dp4549
sg63
g4534
sg56
(lp4550
g49
(g50
g51
NtRp4551
(dp4552
g54
(dp4553
g62
I5
ssg63
g4547
sg56
(lp4554
S'My New App'
p4555
asbasbasbag49
(g65
g51
NtRp4556
(dp4557
g54
(dp4558
sg63
g3047
sg56
(lp4559
g49
(g70
g51
NtRp4560
(dp4561
g54
(dp4562
g74
g75
ssg63
g4556
sg56
(lp4563
g2273
asbag49
(g70
g51
NtRp4564
(dp4565
g54
(dp4566
g81
g82
ssg63
g4556
sg56
(lp4567
S':'
asbag49
(g70
g51
NtRp4568
(dp4569
g54
(dp4570
sg63
g4556
sg56
(lp4571
g49
(g50
g51
NtRp4572
(dp4573
g54
(dp4574
g62
I5
ssg63
g4568
sg56
(lp4575
g2286
asbasbasbag49
(g65
g51
NtRp4576
(dp4577
g54
(dp4578
sg63
g3047
sg56
(lp4579
g49
(g70
g51
NtRp4580
(dp4581
g54
(dp4582
g74
g75
ssg63
g4576
sg56
(lp4583
S'view'
p4584
asbag49
(g70
g51
NtRp4585
(dp4586
g54
(dp4587
g81
g82
ssg63
g4576
sg56
(lp4588
S':'
asbag49
(g70
g51
NtRp4589
(dp4590
g54
(dp4591
sg63
g4576
sg56
(lp4592
g49
(g50
g51
NtRp4593
(dp4594
g54
(dp4595
g62
I5
ssg63
g4589
sg56
(lp4596
S'appadmin.html'
p4597
asbasbasbasbasbsS'locals'
p4598
(dp4599
S'fromlist'
p4600
S'[]'
p4601
sS'name'
p4602
S"'dbhash'"
p4603
sg62
S'-1'
p4604
sS'self'
p4605
S'<gluon.custom_import._Web2pyImporter object at 0x02E8D2F0>'
p4606
sS'globals'
p4607
g39
sg4598
g39
sssS'traceback'
p4608
S'Traceback (most recent call last):\n  File "gluon/restricted.py", line 205, in restricted\n  File "C:\\Users\\bhanu\\Downloads\\Compressed\\web2py\\applications\\hostel\\controllers/appadmin.py", line 433, in <module>\n  File "gluon/globals.py", line 173, in <lambda>\n  File "C:\\Users\\bhanu\\Downloads\\Compressed\\web2py\\applications\\hostel\\controllers/appadmin.py", line 372, in ccache\n  File "shelve.pyc", line 225, in open\n  File "shelve.pyc", line 209, in __init__\n  File "anydbm.pyc", line 82, in open\n  File "gluon/custom_import.py", line 293, in __call__\n  File "gluon/custom_import.py", line 78, in __call__\nImportError: No module named dbhash\n'
p4609
s.