(dp1
S'output'
p2
S'missing "pass" in view'
p3
sS'layer'
p4
S'ParserContainer'
p5
sS'code'
p6
S'response.write(\'<!DOCTYPE html PUBLIC "-//W3C//DTD XHTML 1.0 Strict//EN" "http://www.w3.org/TR/xhtml1/DTD/xhtml1-strict.dtd">\\n<!--\\n\\nDesign by Free CSS Templates\\nhttp://www.freecsstemplates.org\\nReleased for free under a Creative Commons Attribution 2.5 License\\n\\nTitle      : Embouteillage\\nVersion    : 1.0\\nReleased   : 200800204\\nDescription: Three-column blog design with the third column allocated for ads. Features Web 2.0 design ideal for 1024x768 resolutions.\\n\\n-->\\n<html xmlns="http://www.w3.org/1999/xhtml">\\n <head>\\n  <title>\\n   \', escape=False)\nresponse.write(response.title or request.application)\nresponse.write(\'\\n  </title>\\n  \', escape=False)\nresponse.files.append(URL(request.application,\'static\',\'plugin_layouts/layouts/Embouteillage/default.css\'))\nresponse.write(\'\\n  \', escape=False)\nresponse.files.append(URL(\'static\',\'plugin_layouts/superfish.js\'))\nresponse.write(\'\\n  \', escape=False)\nresponse.write(\'<script type="text/javascript"><!--\\n    // These variables are used by the web2py_ajax_init function in web2py_ajax.js (which is loaded below).\\n    var w2p_ajax_confirm_message = "\', escape=False)\nresponse.write(T(\'Are you sure you want to delete this object?\'))\nresponse.write(\'";\\n    var w2p_ajax_date_format = "\', escape=False)\nresponse.write(T(\'%Y-%m-%d\'))\nresponse.write(\'";\\n    var w2p_ajax_datetime_format = "\', escape=False)\nresponse.write(T(\'%Y-%m-%d %H:%M:%S\'))\nresponse.write(\'";\\n    //--></script>\\n\', escape=False)\nresponse.files.insert(0,URL(\'static\',\'js/jquery.js\'))\nresponse.files.insert(1,URL(\'static\',\'css/calendar.css\'))\nresponse.files.insert(2,URL(\'static\',\'js/calendar.js\'))\nresponse.files.insert(3,URL(\'static\',\'js/web2py.js\'))\nresponse.include_meta()\nresponse.include_files()\nresponse.write(\'\\n\', escape=False)\nresponse.write(\'\\n  <style>\\nul.web2py-menu-vertical { width: 150px; position: relative; top:1em; left:1em;  z-index:30; border:0; margin:0; padding: 0; list-style: none; text-decoration: none;}\\nul.web2py-menu-vertical li { margin:0; padding:0; border:0; width: 150px; background: black; text-align:left;}\\nul.web2py-menu-vertical li a { margin:0; padding: 1px 3px 1px 3px; border:0; width: 144px; color: white; font-size:12px;}\\ndiv.flash { position: fixed; float: right; padding: 10px; top: 10px; right: 30px; opacity: 0.75; margin: 10px 10px 10px 10px; text-align: center; clear: both; color: #fff; font-size: 11pt; text-align: center; vertical-align: middle; cursor: pointer; background: black; border: 2px solid #fff; -moz-border-radius: 5px; -webkit-border-radius: 5px; z-index: 2; }\\ndiv.error { background-color: red; color: white; padding: 3px; }\\n.auth_navbar { text-align:right; z-index:20; position: absolute; top: 2px; right:30px; border:0; padding:0; color:white }\\n  </style>\\n </head>\\n <body>\\n  <!-- start header -->\\n  \', escape=False)\ntry:\n    response.write(auth.navbar(action=URL(\'default\',\'user\')))\nexcept:pass\nresponse.write(\'\\n\\n  <!-- start header -->\\n  <div id="wrapper">\\n   <div id="header">\\n    <div id="logo">\\n     <h1>\\n        Welcome To Hostel Portal\\n     </h1>\\n    </div>\\n    <!--<div id="search">\\n     <form id="searchform" method="get" action="">\\n      <fieldset>\\n       <input type="text" name="s" id="s" size="15" value="" />\\n       <input type="submit" id="x" value="Search" />\\n      </fieldset>\\n     </form>\\n    </div>-->\\n   </div>\\n   <!-- end header -->\\n   <!-- star menu -->\\n   <div id="menu">\\n    \', escape=False)\nresponse.write(MENU(response.menu,_class=\'web2py-menu\'))\nresponse.write(\'\\n    \', escape=False)\nresponse.write(MENU(response.complaint,_class=\'web2py-menu\'))\nresponse.write(\'\\n    \', escape=False)\nresponse.write(MENU(response.search,_class=\'web2py-menu\'))\nresponse.write(\'\\n    <script>\\n      jQuery(document).ready(function(){jQuery(\\\'ul.web2py-menu\\\').superfish({delay:400});});\\n    </script>\\n   </div>\\n   <!-- end menu -->\\n   <!-- start page -->\\n   <div id="page">\\n    <!-- start ads -->\\n    <div id="ads">\\n     <a href="#">\\n      <img src="images/ad160x600.gif" alt="" width="160" height="600" />\\n     </a>\\n    </div>\\n    <!-- end ads -->\\n    <!-- start content -->\\n    <div id="content">\\n     <div class="flash">\', escape=False)\nresponse.write(response.flash or \'\')\nresponse.write(\'</div>\\n     \', escape=False)\nresponse.write(\'\\n\', escape=False)\nfor row in prof:\n    response.write(\'\\n    \', escape=False)\n    response.write(IMG( _src=URL(\'download\',args=row.file), _width="250px", _style="float: left; padding: 0px 50px 30px 30px;"))\n    response.write(\'\\n\', escape=False)\n    pass\nresponse.write(\'\\n<table width="100%" align="center">\\n  \', escape=False)\nfor row in prof:\n    response.write(\'\\n  <tr>\\n  <td><b>\', escape=False)\n    NAME:\n        response.write(\'</b></td>\\n  <td> \', escape=False)\n        response.write(row.name)\n        response.write(\'</td>\\n  </tr>\\n  <tr>\\n  <td><b>\', escape=False)\n        Roll No.:\n            response.write(\'</b></td>\\n  <td> \', escape=False)\n            response.write(row.roll_no)\n            response.write(\'</td>\\n  </tr>\\n  <tr>\\n  <td><b>\', escape=False)\n            Room No.:\n                response.write(\'</b></td>\\n  <td> \', escape=False)\n                response.write(row.room_no)\n                response.write(\'</td>\\n  </tr>\\n  <tr>\\n  <td><b>\', escape=False)\n                Email ID:\n                    response.write(\'</b></td>\\n  <td> \', escape=False)\n                    response.write(row.email)\n                    response.write(\'</td>\\n  </tr>\\n  <tr>\\n  <td><b>\', escape=False)\n                    Branch:\n                        response.write(\'</b></td>\\n  <td> \', escape=False)\n                        response.write(row.branch)\n                        response.write(\'</td>\\n  </tr>\\n  <tr>\\n  <td><b>\', escape=False)\n                        Hostel:\n                            response.write(\'</b></td>\\n  <td> \', escape=False)\n                            response.write(row.hostel)\n                            response.write(\'</td>\\n  </tr>\\n  <tr>\\n  <td><b>\', escape=False)\n                            Blood Group:\n                                response.write(\'</b></td>\\n  <td> \', escape=False)\n                                response.write(row.blood_grp)\n                                response.write(\'</td>\\n  </tr>\\n  \', escape=False)\n                                pass\n                            response.write(\'\\n</table>\\n\', escape=False)\n                            response.write(\'\\n    </div>\\n    <!-- end content -->\\n    <!-- start sidebar -->\\n    \\n   <!-- end page -->\\n   <!-- start footer -->\\n   <div id="footer">\\n    <p class="legal">\\n     \\xc2\\xa92007 Embouteillage. All Rights Reserved.\\n          \\xe2\\x80\\xa2  \\n        Design by\\n     <a href="http://www.freecsstemplates.org/">\\n      Free CSS Templates\\n     </a>\\n       \\xe2\\x80\\xa2  \\n        Icons by\\n     <a href="http://famfamfam.com/">\\n      FAMFAMFAM\\n     </a>\\n     .\\n    </p>\\n    <p class="links">\\n     <a href="http://validator.w3.org/check/referer" class="xhtml" title="This page validates as XHTML">\\n      Valid\\n      <abbr title="eXtensible HyperText Markup Language">\\n       XHTML\\n      </abbr>\\n     </a>\\n      \\xe2\\x80\\xa2 \\n     <a href="http://jigsaw.w3.org/css-validator/check/referer" class="css" title="This page validates as CSS">\\n      Valid\\n      <abbr title="Cascading Style Sheets">\\n       CSS\\n      </abbr>\\n     </a>\\n    </p>\\n   </div>\\n  </div>\\n  <!-- end footer -->\\n </body>\\n</html>\\n\', escape=False)'
p7
sS'snapshot'
p8
(dp9
S'exception'
p10
(dp11
S'__module__'
p12
S"'gluon.rocket'"
p13
sS'__getslice__'
p14
S"<method-wrapper '__getslice__' of SocketTimeout object>"
p15
sS'__str__'
p16
S"<method-wrapper '__str__' of SocketTimeout object>"
p17
sS'__reduce__'
p18
S'<built-in method __reduce__ of SocketTimeout object>'
p19
sS'__dict__'
p20
S'{}'
p21
sS'__sizeof__'
p22
S'<built-in method __sizeof__ of SocketTimeout object>'
p23
sS'__weakref__'
p24
S'None'
p25
sS'__init__'
p26
S"<method-wrapper '__init__' of SocketTimeout object>"
p27
sS'__setattr__'
p28
S"<method-wrapper '__setattr__' of SocketTimeout object>"
p29
sS'__reduce_ex__'
p30
S'<built-in method __reduce_ex__ of SocketTimeout object>'
p31
sS'__new__'
p32
S'<built-in method __new__ of type object>'
p33
sS'__format__'
p34
S'<built-in method __format__ of SocketTimeout object>'
p35
sS'__class__'
p36
S"<class 'gluon.rocket.SocketTimeout'>"
p37
sS'__doc__'
p38
S"'Exception for when a socket times out between requests.'"
p39
sS'__getitem__'
p40
S"<method-wrapper '__getitem__' of SocketTimeout object>"
p41
sS'__setstate__'
p42
S'<built-in method __setstate__ of SocketTimeout object>'
p43
sS'__getattribute__'
p44
S"<method-wrapper '__getattribute__' of SocketTimeout object>"
p45
sS'args'
p46
S"('Socket timed out before request.',)"
p47
sS'__subclasshook__'
p48
S'<built-in method __subclasshook__ of type object>'
p49
sS'__unicode__'
p50
S'<built-in method __unicode__ of SocketTimeout object>'
p51
sS'__delattr__'
p52
S"<method-wrapper '__delattr__' of SocketTimeout object>"
p53
sS'__repr__'
p54
S"<method-wrapper '__repr__' of SocketTimeout object>"
p55
sS'__hash__'
p56
S"<method-wrapper '__hash__' of SocketTimeout object>"
p57
ssS'evalue'
p58
S'Socket timed out before request.'
p59
sS'frames'
p60
(lp61
(dp62
S'file'
p63
S'/home/monamagarwal/Downloads/web2py/gluon/rocket.py'
p64
sS'dump'
p65
(dp66
S'self'
p67
S'<WSGIWorker(Thread-3, started daemon -1228792976)>'
p68
sS'conn'
p69
S'<gluon.rocket.Connection object>'
p70
sS'self.run_app'
p71
S'<bound method WSGIWorker.run_app of <WSGIWorker(Thread-3, started daemon -1228792976)>>'
p72
ssS'lnum'
p73
I1302
sS'lines'
p74
(dp75
I1297
S'            # Enter connection serve loop'
p76
sI1298
S'            while True:'
p77
sI1299
S'                if __debug__:'
p78
sI1300
S"                    self.err_log.debug('Serving a request')"
p79
sI1301
S'                try:'
p80
sI1302
S'                    self.run_app(conn)'
p81
sI1303
S'                    log_info = dict(client_ip = conn.client_addr,'
p82
sI1304
S"                                    time = datetime.now().strftime('%c'),"
p83
sI1305
S"                                    status = self.status.split(' ')[0],"
p84
sI1306
S'                                    size = self.size,'
p85
ssS'call'
p86
S'(self=<WSGIWorker(Thread-3, started daemon -1228792976)>)'
p87
sS'func'
p88
S'run'
p89
sa(dp90
g63
S'/home/monamagarwal/Downloads/web2py/gluon/rocket.py'
p91
sg65
(dp92
S'self'
p93
S'<WSGIWorker(Thread-3, started daemon -1228792976)>'
p94
sS'self.environ'
p95
S"{'HTTP_ACCEPT': 'text/html,application/xhtml+xml,application/xml;q=0.9,*/*;q=0.8', 'HTTP_ACCEPT_ENCODING': 'gzip, deflate', 'HTTP_ACCEPT_LANGUAGE': 'en-us,en;q=0.5', 'HTTP_CONNECTION': 'keep-alive', 'HTTP_COOKIE': 'session_id_welcome=127.0.0.1-b9d51605-4b5d-410b-...es=127.0.0.1-89a8e47d-662a-44f9-8707-fdac70935476', 'HTTP_HOST': '127.0.0.1:8000', 'HTTP_USER_AGENT': 'Mozilla/5.0 (X11; Ubuntu; Linux i686; rv:10.0) Gecko/20100101 Firefox/10.0', 'PATH_INFO': '/hostel/default/viewprofile/201101220', 'QUERY_STRING': '', 'REMOTE_ADDR': '127.0.0.1', ...}"
p96
sS'sock_file'
p97
S'<socket._fileobject object>'
p98
sS'environ'
p99
S'undefined'
p100
sS'self.build_environ'
p101
S'<bound method WSGIWorker.build_environ of <WSGIWorker(Thread-3, started daemon -1228792976)>>'
p102
sS'conn'
p103
S'<gluon.rocket.Connection object>'
p104
ssg73
I1986
sg74
(dp105
I1984
S'        try:'
p106
sI1985
S'            # Read the headers and build our WSGI environment'
p107
sI1986
S'            self.environ = environ = self.build_environ(sock_file, conn)'
p108
sI1987
S''
sI1988
S'            # Handle 100 Continue'
p109
sI1989
S"            if environ.get('HTTP_EXPECT', '') == '100-continue':"
p110
sI1990
S"                res = environ['SERVER_PROTOCOL'] + ' 100 Continue\\r\\n\\r\\n'"
p111
sI1981
S'        else:'
p112
sI1982
S'            sock_file = conn.makefile(BUF_SIZE)'
p113
sI1983
S''
ssg86
S'(self=<WSGIWorker(Thread-3, started daemon -1228792976)>, conn=<gluon.rocket.Connection object>)'
p114
sg88
S'run_app'
p115
sa(dp116
g63
S'/home/monamagarwal/Downloads/web2py/gluon/rocket.py'
p117
sg65
(dp118
S'sock_file'
p119
S'<socket._fileobject object>'
p120
sS'self.read_request_line'
p121
S'<bound method WSGIWorker.read_request_line of <WSGIWorker(Thread-3, started daemon -1228792976)>>'
p122
sS'self'
p123
S'<WSGIWorker(Thread-3, started daemon -1228792976)>'
p124
sS'request'
p125
g100
ssg73
I1807
sg74
(dp126
I1802
S'                                      "wsgiorg.futures": executor.futures})'
p127
sI1803
S''
sI1804
S'    def build_environ(self, sock_file, conn):'
p128
sI1805
S'        """ Build the execution environment. """'
p129
sI1806
S'        # Grab the request line'
p130
sI1807
S'        request = self.read_request_line(sock_file)'
p131
sI1808
S''
sI1809
S'        # Copy the Base Environment'
p132
sI1810
S'        environ = self.base_environ.copy()'
p133
sI1811
S''
ssg86
S'(self=<WSGIWorker(Thread-3, started daemon -1228792976)>, sock_file=<socket._fileobject object>, conn=<gluon.rocket.Connection object>)'
p134
sg88
S'build_environ'
p135
sa(dp136
g63
S'/home/monamagarwal/Downloads/web2py/gluon/rocket.py'
p137
sg65
(dp138
S'global SocketTimeout'
p139
S"<class 'gluon.rocket.SocketTimeout'>"
p140
ssg73
I1376
sg74
(dp141
I1376
S'            raise SocketTimeout("Socket timed out before request.")'
p142
sI1377
S''
sI1378
S'        d = d.strip()'
p143
sI1379
S''
sI1380
S'        if not d:'
p144
sI1371
S''
sI1372
S'                d = sock_file.readline()'
p145
sI1373
S'                if PY3K:'
p146
sI1374
S"                    d = d.decode('ISO-8859-1')"
p147
sI1375
S'        except socket.timeout:'
p148
ssg86
S'(self=<WSGIWorker(Thread-3, started daemon -1228792976)>, sock_file=<socket._fileobject object>)'
p149
sg88
S'read_request_line'
p150
sasS'pyver'
p151
S'Python 2.6.6: /usr/bin/python'
p152
sS'etype'
p153
S"<class 'gluon.rocket.SocketTimeout'>"
p154
sS'date'
p155
S'Sun Oct 14 01:31:08 2012'
p156
sS'locals'
p157
(dp158
S'sock_file'
p159
S'<socket._fileobject object>'
p160
sS'self'
p161
S'<WSGIWorker(Thread-3, started daemon -1228792976)>'
p162
sssS'traceback'
p163
S'Traceback (most recent call last):\n  File "/home/monamagarwal/Downloads/web2py/gluon/rocket.py", line 1302, in run\n    self.run_app(conn)\n  File "/home/monamagarwal/Downloads/web2py/gluon/rocket.py", line 1986, in run_app\n    self.environ = environ = self.build_environ(sock_file, conn)\n  File "/home/monamagarwal/Downloads/web2py/gluon/rocket.py", line 1807, in build_environ\n    request = self.read_request_line(sock_file)\n  File "/home/monamagarwal/Downloads/web2py/gluon/rocket.py", line 1376, in read_request_line\n    raise SocketTimeout("Socket timed out before request.")\nSocketTimeout: Socket timed out before request.\n'
p164
s.