(dp1
S'output'
p2
S"<type 'exceptions.NameError'> name 'roll' is not defined"
p3
sS'layer'
p4
S'/home/bhanu/web2py/applications/sss/views/default/show_laptop_details.html'
p5
sS'code'
p6
S'response.write(\'<!DOCTYPE html PUBLIC "-//W3C//DTD XHTML 1.0 Strict//EN" "http://www.w3.org/TR/xhtml1/DTD/xhtml1-strict.dtd">\\n<!--\\n\\nDesign by Free CSS Templates\\nhttp://www.freecsstemplates.org\\nReleased for free under a Creative Commons Attribution 2.5 License\\n\\nTitle      : Interlude\\nVersion    : 1.0\\nReleased   : 20080903\\nDescription: A multi-column, fixed-width design for 800x600 resolutions.\\n\\n-->\\n<html xmlns="http://www.w3.org/1999/xhtml">\\n <head>\\n  <title>\\n   \', escape=False)\nresponse.write(response.title or request.application)\nresponse.write(\'\\n  </title>\\n  \', escape=False)\nresponse.files.append(URL(request.application,\'static\',\'plugin_layouts/layouts/Interlude/default.css\'))\nresponse.write(\'\\n  \', escape=False)\nresponse.files.append(URL(\'static\',\'plugin_layouts/superfish.js\'))\nresponse.write(\'\\n  \', escape=False)\nresponse.write(\'<script type="text/javascript"><!--\\n    // These variables are used by the web2py_ajax_init function in web2py_ajax.js (which is loaded below).\\n    var w2p_ajax_confirm_message = "\', escape=False)\nresponse.write(T(\'Are you sure you want to delete this object?\'))\nresponse.write(\'";\\n    var w2p_ajax_date_format = "\', escape=False)\nresponse.write(T(\'%Y-%m-%d\'))\nresponse.write(\'";\\n    var w2p_ajax_datetime_format = "\', escape=False)\nresponse.write(T(\'%Y-%m-%d %H:%M:%S\'))\nresponse.write(\'";\\n    //--></script>\\n\', escape=False)\nresponse.files.insert(0,URL(\'static\',\'js/jquery.js\'))\nresponse.files.insert(1,URL(\'static\',\'css/calendar.css\'))\nresponse.files.insert(2,URL(\'static\',\'js/calendar.js\'))\nresponse.files.insert(3,URL(\'static\',\'js/web2py.js\'))\nresponse.include_meta()\nresponse.include_files()\nresponse.write(\'\\n\\t<link rel="shortcut icon" type="images/ico" href="http://courses.iiit.ac.in/EdgeNet/favicon.ico">\\n\', escape=False)\nresponse.write(\'\\n  <style>\\nul.web2py-menu-vertical { width: 150px; position: relative; top:1em; left:1em;  z-index:30; border:0; margin:0; padding: 0; list-style: none; text-decoration: none;}\\nul.web2py-menu-vertical li { margin:0; padding:0; border:0; width: 150px; background: black; text-align:left;}\\nul.web2py-menu-vertical li a { margin:0; padding: 1px 3px 1px 3px; border:0; width: 144px; color: white; font-size:12px;}\\ndiv.flash { position: fixed; float: right; padding: 10px; top: 10px; right: 30px; opacity: 0.75; margin: 10px 10px 10px 10px; text-align: center; clear: both; color: #fff; font-size: 11pt; text-align: center; vertical-align: middle; cursor: pointer; background: black; border: 2px solid #fff; -moz-border-radius: 5px; -webkit-border-radius: 5px; z-index: 2; }\\ndiv.error { background-color: red; color: white; padding: 3px; }\\n.auth_navbar { text-align:right; z-index:20; position: absolute; top: 2px; right:30px; border:0; padding:0 }\\n  </style>\\n </head>\\n <body>\\n  <!-- start header -->\\n\\n  <!-- start header -->\\n  <div id="header">\\n   <div id="logo">\\n    <h1>\\n     \', escape=False)\n#=response.title or reque\nresponse.write(\'\\n     hostel portal\\n    </h1>\\n    <p>\\n    \\n         \', escape=False)\n#     &nbsp;&nbsp;&nbsp;&nbsp;&nbsp;&nbsp;&nbsp;&nbsp;&nbsp;&nbsp;&nbsp;&nbsp;&nbsp;&nbsp;&nbsp;&nbsp;&nbsp;&nbsp;&nbsp;&nbsp;&nbsp;&nbsp;&nbsp;&nbsp;welcomes you\nresponse.write(\'\\n \\n    </p>\\n   </div>\\n   <div id="menu">\\n    \', escape=False)\nresponse.write(MENU(response.menu,_class=\'web2py-menu\'))\nresponse.write(\'\\n    <script>\\n      jQuery(document).ready(function(){jQuery(\\\'ul.web2py-menu\\\').superfish({delay:400});});\\n    </script>\\n   </div>\\n  </div>\\n  <hr />\\n  <!-- end header -->\\n  <!-- start page -->\\n  <div id="wrapper">\\n   <div id="page">\\n    <!-- start content -->\\n    <div id="content">\\n     <div class="flash">\', escape=False)\nresponse.write(response.flash or \'\')\nresponse.write(\'</div>\\n     \\n     \', escape=False)\nresponse.write(\'\\n<table border="1"  width="80%" style="text-align:center">\\n    <tr>    <th>Sr.No</th>     <th>Roll No</th>  <th>Company</th> <th>Service Tag</th>      <tr/>\\n    \', escape=False)\ni=0\nresponse.write(\'   \', escape=False)\nfor f in form:\n    response.write(\'     \', escape=False)\n    i=i+1\n    response.write(\'\\n    <tr>    <td> \', escape=False)\n    response.write(i)\n    response.write(\'.</td>  <td>\', escape=False)\n    response.write(f.roll_no)\n    response.write(\'</td>   <td>\', escape=False)\n    response.write(f.company)\n    response.write(\'</td>  <td>\', escape=False)\n    response.write(f.service_tag)\n    response.write(\'</td>     </tr>\\n    \', escape=False)\n    pass\nresponse.write(\'\\n</table>\\n\\n\', escape=False)\nname=db(db.students.roll_no==roll).select(db.students.name)\nresponse.write(\'\\n\', escape=False)\nimage=db(db.students.roll_no==roll).select(db.students.file)\nresponse.write(\'\\n\\n<img src="\', escape=False)\nresponse.write(URL(f=\'download\',args=image))\nresponse.write(\' "/>\\n\', escape=False)\nresponse.write(\'\\n        \', escape=False)\n#chetta\nresponse.write(\'\\n        \\n        \\n        \\n        \', escape=False)\n#chetta\nresponse.write(\'\\n       \\n    </div>\\n    <!-- end content -->\\n    <!-- start sidebar -->\\n    \\n    <br style="clear: both;" />\\n   </div>\\n  </div>\\n  <!-- end page -->\\n<!--chetta-->>\\n \\n \\n \\n </body>\\n</html>\\n\', escape=False)'
p7
sS'snapshot'
p8
(dp9
S'exception'
p10
(dp11
S'__hash__'
p12
S"<method-wrapper '__hash__' of exceptions.NameError object>"
p13
sS'__setattr__'
p14
S"<method-wrapper '__setattr__' of exceptions.NameError object>"
p15
sS'__reduce_ex__'
p16
S'<built-in method __reduce_ex__ of exceptions.NameError object>'
p17
sS'__getslice__'
p18
S"<method-wrapper '__getslice__' of exceptions.NameError object>"
p19
sS'__getitem__'
p20
S"<method-wrapper '__getitem__' of exceptions.NameError object>"
p21
sS'__setstate__'
p22
S'<built-in method __setstate__ of exceptions.NameError object>'
p23
sS'args'
p24
S'("name \'roll\' is not defined",)'
p25
sS'__reduce__'
p26
S'<built-in method __reduce__ of exceptions.NameError object>'
p27
sS'__str__'
p28
S"<method-wrapper '__str__' of exceptions.NameError object>"
p29
sS'__format__'
p30
S'<built-in method __format__ of exceptions.NameError object>'
p31
sS'__getattribute__'
p32
S"<method-wrapper '__getattribute__' of exceptions.NameError object>"
p33
sS'__class__'
p34
S"<type 'exceptions.NameError'>"
p35
sS'__unicode__'
p36
S'<built-in method __unicode__ of exceptions.NameError object>'
p37
sS'__delattr__'
p38
S"<method-wrapper '__delattr__' of exceptions.NameError object>"
p39
sS'__subclasshook__'
p40
S'<built-in method __subclasshook__ of type object>'
p41
sS'__repr__'
p42
S"<method-wrapper '__repr__' of exceptions.NameError object>"
p43
sS'__dict__'
p44
S'{}'
p45
sS'__sizeof__'
p46
S'<built-in method __sizeof__ of exceptions.NameError object>'
p47
sS'__doc__'
p48
S"'Name not found globally.'"
p49
sS'__init__'
p50
S"<method-wrapper '__init__' of exceptions.NameError object>"
p51
sS'__new__'
p52
S'<built-in method __new__ of type object>'
p53
ssS'evalue'
p54
S"name 'roll' is not defined"
p55
sS'request'
p56
ccopy_reg
_reconstructor
p57
(cgluon.html
BEAUTIFY
p58
c__builtin__
object
p59
NtRp60
(dp61
S'attributes'
p62
(dp63
sS'components'
p64
(lp65
g57
(cgluon.html
TABLE
p66
g59
NtRp67
(dp68
g62
(dp69
S'level'
p70
I5
ssS'parent'
p71
Nsg64
(lp72
g57
(cgluon.html
TR
p73
g59
NtRp74
(dp75
g62
(dp76
sg71
g67
sg64
(lp77
g57
(cgluon.html
TD
p78
g59
NtRp79
(dp80
g62
(dp81
S'_style'
p82
S'font-weight:bold;vertical-align:top'
p83
ssg71
g74
sg64
(lp84
S'ajax'
p85
asbag57
(g78
g59
NtRp86
(dp87
g62
(dp88
S'_valign'
p89
S'top'
p90
ssg71
g74
sg64
(lp91
S':'
asbag57
(g78
g59
NtRp92
(dp93
g62
(dp94
sg71
g74
sg64
(lp95
g57
(g58
g59
NtRp96
(dp97
g62
(dp98
g70
I5
ssg71
g92
sg64
(lp99
S'False'
p100
asbasbasbag57
(g73
g59
NtRp101
(dp102
g62
(dp103
sg71
g67
sg64
(lp104
g57
(g78
g59
NtRp105
(dp106
g62
(dp107
g82
g83
ssg71
g101
sg64
(lp108
S'application'
p109
asbag57
(g78
g59
NtRp110
(dp111
g62
(dp112
g89
g90
ssg71
g101
sg64
(lp113
S':'
asbag57
(g78
g59
NtRp114
(dp115
g62
(dp116
sg71
g101
sg64
(lp117
g57
(g58
g59
NtRp118
(dp119
g62
(dp120
g70
I5
ssg71
g114
sg64
(lp121
S'sss'
p122
asbasbasbag57
(g73
g59
NtRp123
(dp124
g62
(dp125
sg71
g67
sg64
(lp126
g57
(g78
g59
NtRp127
(dp128
g62
(dp129
g82
g83
ssg71
g123
sg64
(lp130
g24
asbag57
(g78
g59
NtRp131
(dp132
g62
(dp133
g89
g90
ssg71
g123
sg64
(lp134
S':'
asbag57
(g78
g59
NtRp135
(dp136
g62
(dp137
sg71
g123
sg64
(lp138
g57
(g58
g59
NtRp139
(dp140
g62
(dp141
g70
I5
ssg71
g135
sg64
(lp142
g57
(g66
g59
NtRp143
(dp144
g62
(dp145
g70
I4
ssg71
Nsg64
(lp146
g57
(g73
g59
NtRp147
(dp148
g62
(dp149
sg71
g143
sg64
(lp150
g57
(g78
g59
NtRp151
(dp152
g62
(dp153
sg71
g147
sg64
(lp154
g57
(g58
g59
NtRp155
(dp156
g62
(dp157
g70
I4
ssg71
g151
sg64
(lp158
S'201102082'
p159
asbasbasbasbasbasbasbag57
(g73
g59
NtRp160
(dp161
g62
(dp162
sg71
g67
sg64
(lp163
g57
(g78
g59
NtRp164
(dp165
g62
(dp166
g82
g83
ssg71
g160
sg64
(lp167
S'body'
p168
asbag57
(g78
g59
NtRp169
(dp170
g62
(dp171
g89
g90
ssg71
g160
sg64
(lp172
S':'
asbag57
(g78
g59
NtRp173
(dp174
g62
(dp175
sg71
g160
sg64
(lp176
g57
(g58
g59
NtRp177
(dp178
g62
(dp179
g70
I5
ssg71
g173
sg64
(lp180
S'<cStringIO.StringO object at 0x7f0884353c00>'
p181
asbasbasbag57
(g73
g59
NtRp182
(dp183
g62
(dp184
sg71
g67
sg64
(lp185
g57
(g78
g59
NtRp186
(dp187
g62
(dp188
g82
g83
ssg71
g182
sg64
(lp189
S'cid'
p190
asbag57
(g78
g59
NtRp191
(dp192
g62
(dp193
g89
g90
ssg71
g182
sg64
(lp194
S':'
asbag57
(g78
g59
NtRp195
(dp196
g62
(dp197
sg71
g182
sg64
(lp198
g57
(g58
g59
NtRp199
(dp200
g62
(dp201
g70
I5
ssg71
g195
sg64
(lp202
S'None'
p203
asbasbasbag57
(g73
g59
NtRp204
(dp205
g62
(dp206
sg71
g67
sg64
(lp207
g57
(g78
g59
NtRp208
(dp209
g62
(dp210
g82
g83
ssg71
g204
sg64
(lp211
S'client'
p212
asbag57
(g78
g59
NtRp213
(dp214
g62
(dp215
g89
g90
ssg71
g204
sg64
(lp216
S':'
asbag57
(g78
g59
NtRp217
(dp218
g62
(dp219
sg71
g204
sg64
(lp220
g57
(g58
g59
NtRp221
(dp222
g62
(dp223
g70
I5
ssg71
g217
sg64
(lp224
S'127.0.0.1'
p225
asbasbasbag57
(g73
g59
NtRp226
(dp227
g62
(dp228
sg71
g67
sg64
(lp229
g57
(g78
g59
NtRp230
(dp231
g62
(dp232
g82
g83
ssg71
g226
sg64
(lp233
S'controller'
p234
asbag57
(g78
g59
NtRp235
(dp236
g62
(dp237
g89
g90
ssg71
g226
sg64
(lp238
S':'
asbag57
(g78
g59
NtRp239
(dp240
g62
(dp241
sg71
g226
sg64
(lp242
g57
(g58
g59
NtRp243
(dp244
g62
(dp245
g70
I5
ssg71
g239
sg64
(lp246
S'default'
p247
asbasbasbag57
(g73
g59
NtRp248
(dp249
g62
(dp250
sg71
g67
sg64
(lp251
g57
(g78
g59
NtRp252
(dp253
g62
(dp254
g82
g83
ssg71
g248
sg64
(lp255
S'cookies'
p256
asbag57
(g78
g59
NtRp257
(dp258
g62
(dp259
g89
g90
ssg71
g248
sg64
(lp260
S':'
asbag57
(g78
g59
NtRp261
(dp262
g62
(dp263
sg71
g248
sg64
(lp264
g57
(g58
g59
NtRp265
(dp266
g62
(dp267
g70
I5
ssg71
g261
sg64
(lp268
g57
(g66
g59
NtRp269
(dp270
g62
(dp271
g70
I4
ssg71
Nsg64
(lp272
g57
(g73
g59
NtRp273
(dp274
g62
(dp275
sg71
g269
sg64
(lp276
g57
(g78
g59
NtRp277
(dp278
g62
(dp279
g82
g83
ssg71
g273
sg64
(lp280
S'session_id_admin'
p281
asbag57
(g78
g59
NtRp282
(dp283
g62
(dp284
g89
g90
ssg71
g273
sg64
(lp285
S':'
asbag57
(g78
g59
NtRp286
(dp287
g62
(dp288
sg71
g273
sg64
(lp289
g57
(g58
g59
NtRp290
(dp291
g62
(dp292
g70
I4
ssg71
g286
sg64
(lp293
S'127.0.0.1-1fd0bc0a-0f71-47b8-bae1-cf54fc48b199'
p294
ag57
(g66
g59
NtRp295
(dp296
g62
(dp297
g70
I3
ssg71
Nsg64
(lp298
g57
(g73
g59
NtRp299
(dp300
g62
(dp301
sg71
g295
sg64
(lp302
g57
(g78
g59
NtRp303
(dp304
g62
(dp305
g82
g83
ssg71
g299
sg64
(lp306
S'comment'
p307
asbag57
(g78
g59
NtRp308
(dp309
g62
(dp310
g89
g90
ssg71
g299
sg64
(lp311
S':'
asbag57
(g78
g59
NtRp312
(dp313
g62
(dp314
sg71
g299
sg64
(lp315
g57
(g58
g59
NtRp316
(dp317
g62
(dp318
g70
I3
ssg71
g312
sg64
(lp319
S''
asbasbasbag57
(g73
g59
NtRp320
(dp321
g62
(dp322
sg71
g295
sg64
(lp323
g57
(g78
g59
NtRp324
(dp325
g62
(dp326
g82
g83
ssg71
g320
sg64
(lp327
S'domain'
p328
asbag57
(g78
g59
NtRp329
(dp330
g62
(dp331
g89
g90
ssg71
g320
sg64
(lp332
S':'
asbag57
(g78
g59
NtRp333
(dp334
g62
(dp335
sg71
g320
sg64
(lp336
g57
(g58
g59
NtRp337
(dp338
g62
(dp339
g70
I3
ssg71
g333
sg64
(lp340
S''
asbasbasbag57
(g73
g59
NtRp341
(dp342
g62
(dp343
sg71
g295
sg64
(lp344
g57
(g78
g59
NtRp345
(dp346
g62
(dp347
g82
g83
ssg71
g341
sg64
(lp348
S'expires'
p349
asbag57
(g78
g59
NtRp350
(dp351
g62
(dp352
g89
g90
ssg71
g341
sg64
(lp353
S':'
asbag57
(g78
g59
NtRp354
(dp355
g62
(dp356
sg71
g341
sg64
(lp357
g57
(g58
g59
NtRp358
(dp359
g62
(dp360
g70
I3
ssg71
g354
sg64
(lp361
S''
asbasbasbag57
(g73
g59
NtRp362
(dp363
g62
(dp364
sg71
g295
sg64
(lp365
g57
(g78
g59
NtRp366
(dp367
g62
(dp368
g82
g83
ssg71
g362
sg64
(lp369
S'httponly'
p370
asbag57
(g78
g59
NtRp371
(dp372
g62
(dp373
g89
g90
ssg71
g362
sg64
(lp374
S':'
asbag57
(g78
g59
NtRp375
(dp376
g62
(dp377
sg71
g362
sg64
(lp378
g57
(g58
g59
NtRp379
(dp380
g62
(dp381
g70
I3
ssg71
g375
sg64
(lp382
S''
asbasbasbag57
(g73
g59
NtRp383
(dp384
g62
(dp385
sg71
g295
sg64
(lp386
g57
(g78
g59
NtRp387
(dp388
g62
(dp389
g82
g83
ssg71
g383
sg64
(lp390
S'max-age'
p391
asbag57
(g78
g59
NtRp392
(dp393
g62
(dp394
g89
g90
ssg71
g383
sg64
(lp395
S':'
asbag57
(g78
g59
NtRp396
(dp397
g62
(dp398
sg71
g383
sg64
(lp399
g57
(g58
g59
NtRp400
(dp401
g62
(dp402
g70
I3
ssg71
g396
sg64
(lp403
S''
asbasbasbag57
(g73
g59
NtRp404
(dp405
g62
(dp406
sg71
g295
sg64
(lp407
g57
(g78
g59
NtRp408
(dp409
g62
(dp410
g82
g83
ssg71
g404
sg64
(lp411
S'path'
p412
asbag57
(g78
g59
NtRp413
(dp414
g62
(dp415
g89
g90
ssg71
g404
sg64
(lp416
S':'
asbag57
(g78
g59
NtRp417
(dp418
g62
(dp419
sg71
g404
sg64
(lp420
g57
(g58
g59
NtRp421
(dp422
g62
(dp423
g70
I3
ssg71
g417
sg64
(lp424
S''
asbasbasbag57
(g73
g59
NtRp425
(dp426
g62
(dp427
sg71
g295
sg64
(lp428
g57
(g78
g59
NtRp429
(dp430
g62
(dp431
g82
g83
ssg71
g425
sg64
(lp432
S'secure'
p433
asbag57
(g78
g59
NtRp434
(dp435
g62
(dp436
g89
g90
ssg71
g425
sg64
(lp437
S':'
asbag57
(g78
g59
NtRp438
(dp439
g62
(dp440
sg71
g425
sg64
(lp441
g57
(g58
g59
NtRp442
(dp443
g62
(dp444
g70
I3
ssg71
g438
sg64
(lp445
S''
asbasbasbag57
(g73
g59
NtRp446
(dp447
g62
(dp448
sg71
g295
sg64
(lp449
g57
(g78
g59
NtRp450
(dp451
g62
(dp452
g82
g83
ssg71
g446
sg64
(lp453
S'version'
p454
asbag57
(g78
g59
NtRp455
(dp456
g62
(dp457
g89
g90
ssg71
g446
sg64
(lp458
S':'
asbag57
(g78
g59
NtRp459
(dp460
g62
(dp461
sg71
g446
sg64
(lp462
g57
(g58
g59
NtRp463
(dp464
g62
(dp465
g70
I3
ssg71
g459
sg64
(lp466
S''
asbasbasbasbasbasbasbag57
(g73
g59
NtRp467
(dp468
g62
(dp469
sg71
g269
sg64
(lp470
g57
(g78
g59
NtRp471
(dp472
g62
(dp473
g82
g83
ssg71
g467
sg64
(lp474
S'session_id_hostel'
p475
asbag57
(g78
g59
NtRp476
(dp477
g62
(dp478
g89
g90
ssg71
g467
sg64
(lp479
S':'
asbag57
(g78
g59
NtRp480
(dp481
g62
(dp482
sg71
g467
sg64
(lp483
g57
(g58
g59
NtRp484
(dp485
g62
(dp486
g70
I4
ssg71
g480
sg64
(lp487
S'127.0.0.1-126aa5ab-5275-4435-a508-b56e2211e7be'
p488
ag57
(g66
g59
NtRp489
(dp490
g62
(dp491
g70
I3
ssg71
Nsg64
(lp492
g57
(g73
g59
NtRp493
(dp494
g62
(dp495
sg71
g489
sg64
(lp496
g57
(g78
g59
NtRp497
(dp498
g62
(dp499
g82
g83
ssg71
g493
sg64
(lp500
g307
asbag57
(g78
g59
NtRp501
(dp502
g62
(dp503
g89
g90
ssg71
g493
sg64
(lp504
S':'
asbag57
(g78
g59
NtRp505
(dp506
g62
(dp507
sg71
g493
sg64
(lp508
g57
(g58
g59
NtRp509
(dp510
g62
(dp511
g70
I3
ssg71
g505
sg64
(lp512
S''
asbasbasbag57
(g73
g59
NtRp513
(dp514
g62
(dp515
sg71
g489
sg64
(lp516
g57
(g78
g59
NtRp517
(dp518
g62
(dp519
g82
g83
ssg71
g513
sg64
(lp520
g328
asbag57
(g78
g59
NtRp521
(dp522
g62
(dp523
g89
g90
ssg71
g513
sg64
(lp524
S':'
asbag57
(g78
g59
NtRp525
(dp526
g62
(dp527
sg71
g513
sg64
(lp528
g57
(g58
g59
NtRp529
(dp530
g62
(dp531
g70
I3
ssg71
g525
sg64
(lp532
S''
asbasbasbag57
(g73
g59
NtRp533
(dp534
g62
(dp535
sg71
g489
sg64
(lp536
g57
(g78
g59
NtRp537
(dp538
g62
(dp539
g82
g83
ssg71
g533
sg64
(lp540
g349
asbag57
(g78
g59
NtRp541
(dp542
g62
(dp543
g89
g90
ssg71
g533
sg64
(lp544
S':'
asbag57
(g78
g59
NtRp545
(dp546
g62
(dp547
sg71
g533
sg64
(lp548
g57
(g58
g59
NtRp549
(dp550
g62
(dp551
g70
I3
ssg71
g545
sg64
(lp552
S''
asbasbasbag57
(g73
g59
NtRp553
(dp554
g62
(dp555
sg71
g489
sg64
(lp556
g57
(g78
g59
NtRp557
(dp558
g62
(dp559
g82
g83
ssg71
g553
sg64
(lp560
g370
asbag57
(g78
g59
NtRp561
(dp562
g62
(dp563
g89
g90
ssg71
g553
sg64
(lp564
S':'
asbag57
(g78
g59
NtRp565
(dp566
g62
(dp567
sg71
g553
sg64
(lp568
g57
(g58
g59
NtRp569
(dp570
g62
(dp571
g70
I3
ssg71
g565
sg64
(lp572
S''
asbasbasbag57
(g73
g59
NtRp573
(dp574
g62
(dp575
sg71
g489
sg64
(lp576
g57
(g78
g59
NtRp577
(dp578
g62
(dp579
g82
g83
ssg71
g573
sg64
(lp580
g391
asbag57
(g78
g59
NtRp581
(dp582
g62
(dp583
g89
g90
ssg71
g573
sg64
(lp584
S':'
asbag57
(g78
g59
NtRp585
(dp586
g62
(dp587
sg71
g573
sg64
(lp588
g57
(g58
g59
NtRp589
(dp590
g62
(dp591
g70
I3
ssg71
g585
sg64
(lp592
S''
asbasbasbag57
(g73
g59
NtRp593
(dp594
g62
(dp595
sg71
g489
sg64
(lp596
g57
(g78
g59
NtRp597
(dp598
g62
(dp599
g82
g83
ssg71
g593
sg64
(lp600
g412
asbag57
(g78
g59
NtRp601
(dp602
g62
(dp603
g89
g90
ssg71
g593
sg64
(lp604
S':'
asbag57
(g78
g59
NtRp605
(dp606
g62
(dp607
sg71
g593
sg64
(lp608
g57
(g58
g59
NtRp609
(dp610
g62
(dp611
g70
I3
ssg71
g605
sg64
(lp612
S''
asbasbasbag57
(g73
g59
NtRp613
(dp614
g62
(dp615
sg71
g489
sg64
(lp616
g57
(g78
g59
NtRp617
(dp618
g62
(dp619
g82
g83
ssg71
g613
sg64
(lp620
g433
asbag57
(g78
g59
NtRp621
(dp622
g62
(dp623
g89
g90
ssg71
g613
sg64
(lp624
S':'
asbag57
(g78
g59
NtRp625
(dp626
g62
(dp627
sg71
g613
sg64
(lp628
g57
(g58
g59
NtRp629
(dp630
g62
(dp631
g70
I3
ssg71
g625
sg64
(lp632
S''
asbasbasbag57
(g73
g59
NtRp633
(dp634
g62
(dp635
sg71
g489
sg64
(lp636
g57
(g78
g59
NtRp637
(dp638
g62
(dp639
g82
g83
ssg71
g633
sg64
(lp640
g454
asbag57
(g78
g59
NtRp641
(dp642
g62
(dp643
g89
g90
ssg71
g633
sg64
(lp644
S':'
asbag57
(g78
g59
NtRp645
(dp646
g62
(dp647
sg71
g633
sg64
(lp648
g57
(g58
g59
NtRp649
(dp650
g62
(dp651
g70
I3
ssg71
g645
sg64
(lp652
S''
asbasbasbasbasbasbasbag57
(g73
g59
NtRp653
(dp654
g62
(dp655
sg71
g269
sg64
(lp656
g57
(g78
g59
NtRp657
(dp658
g62
(dp659
g82
g83
ssg71
g653
sg64
(lp660
S'session_id_hostel_r1'
p661
asbag57
(g78
g59
NtRp662
(dp663
g62
(dp664
g89
g90
ssg71
g653
sg64
(lp665
S':'
asbag57
(g78
g59
NtRp666
(dp667
g62
(dp668
sg71
g653
sg64
(lp669
g57
(g58
g59
NtRp670
(dp671
g62
(dp672
g70
I4
ssg71
g666
sg64
(lp673
S'127.0.0.1-54f3ce39-7c88-4cec-aad6-6f29b6b5d300'
p674
ag57
(g66
g59
NtRp675
(dp676
g62
(dp677
g70
I3
ssg71
Nsg64
(lp678
g57
(g73
g59
NtRp679
(dp680
g62
(dp681
sg71
g675
sg64
(lp682
g57
(g78
g59
NtRp683
(dp684
g62
(dp685
g82
g83
ssg71
g679
sg64
(lp686
g307
asbag57
(g78
g59
NtRp687
(dp688
g62
(dp689
g89
g90
ssg71
g679
sg64
(lp690
S':'
asbag57
(g78
g59
NtRp691
(dp692
g62
(dp693
sg71
g679
sg64
(lp694
g57
(g58
g59
NtRp695
(dp696
g62
(dp697
g70
I3
ssg71
g691
sg64
(lp698
S''
asbasbasbag57
(g73
g59
NtRp699
(dp700
g62
(dp701
sg71
g675
sg64
(lp702
g57
(g78
g59
NtRp703
(dp704
g62
(dp705
g82
g83
ssg71
g699
sg64
(lp706
g328
asbag57
(g78
g59
NtRp707
(dp708
g62
(dp709
g89
g90
ssg71
g699
sg64
(lp710
S':'
asbag57
(g78
g59
NtRp711
(dp712
g62
(dp713
sg71
g699
sg64
(lp714
g57
(g58
g59
NtRp715
(dp716
g62
(dp717
g70
I3
ssg71
g711
sg64
(lp718
S''
asbasbasbag57
(g73
g59
NtRp719
(dp720
g62
(dp721
sg71
g675
sg64
(lp722
g57
(g78
g59
NtRp723
(dp724
g62
(dp725
g82
g83
ssg71
g719
sg64
(lp726
g349
asbag57
(g78
g59
NtRp727
(dp728
g62
(dp729
g89
g90
ssg71
g719
sg64
(lp730
S':'
asbag57
(g78
g59
NtRp731
(dp732
g62
(dp733
sg71
g719
sg64
(lp734
g57
(g58
g59
NtRp735
(dp736
g62
(dp737
g70
I3
ssg71
g731
sg64
(lp738
S''
asbasbasbag57
(g73
g59
NtRp739
(dp740
g62
(dp741
sg71
g675
sg64
(lp742
g57
(g78
g59
NtRp743
(dp744
g62
(dp745
g82
g83
ssg71
g739
sg64
(lp746
g370
asbag57
(g78
g59
NtRp747
(dp748
g62
(dp749
g89
g90
ssg71
g739
sg64
(lp750
S':'
asbag57
(g78
g59
NtRp751
(dp752
g62
(dp753
sg71
g739
sg64
(lp754
g57
(g58
g59
NtRp755
(dp756
g62
(dp757
g70
I3
ssg71
g751
sg64
(lp758
S''
asbasbasbag57
(g73
g59
NtRp759
(dp760
g62
(dp761
sg71
g675
sg64
(lp762
g57
(g78
g59
NtRp763
(dp764
g62
(dp765
g82
g83
ssg71
g759
sg64
(lp766
g391
asbag57
(g78
g59
NtRp767
(dp768
g62
(dp769
g89
g90
ssg71
g759
sg64
(lp770
S':'
asbag57
(g78
g59
NtRp771
(dp772
g62
(dp773
sg71
g759
sg64
(lp774
g57
(g58
g59
NtRp775
(dp776
g62
(dp777
g70
I3
ssg71
g771
sg64
(lp778
S''
asbasbasbag57
(g73
g59
NtRp779
(dp780
g62
(dp781
sg71
g675
sg64
(lp782
g57
(g78
g59
NtRp783
(dp784
g62
(dp785
g82
g83
ssg71
g779
sg64
(lp786
g412
asbag57
(g78
g59
NtRp787
(dp788
g62
(dp789
g89
g90
ssg71
g779
sg64
(lp790
S':'
asbag57
(g78
g59
NtRp791
(dp792
g62
(dp793
sg71
g779
sg64
(lp794
g57
(g58
g59
NtRp795
(dp796
g62
(dp797
g70
I3
ssg71
g791
sg64
(lp798
S''
asbasbasbag57
(g73
g59
NtRp799
(dp800
g62
(dp801
sg71
g675
sg64
(lp802
g57
(g78
g59
NtRp803
(dp804
g62
(dp805
g82
g83
ssg71
g799
sg64
(lp806
g433
asbag57
(g78
g59
NtRp807
(dp808
g62
(dp809
g89
g90
ssg71
g799
sg64
(lp810
S':'
asbag57
(g78
g59
NtRp811
(dp812
g62
(dp813
sg71
g799
sg64
(lp814
g57
(g58
g59
NtRp815
(dp816
g62
(dp817
g70
I3
ssg71
g811
sg64
(lp818
S''
asbasbasbag57
(g73
g59
NtRp819
(dp820
g62
(dp821
sg71
g675
sg64
(lp822
g57
(g78
g59
NtRp823
(dp824
g62
(dp825
g82
g83
ssg71
g819
sg64
(lp826
g454
asbag57
(g78
g59
NtRp827
(dp828
g62
(dp829
g89
g90
ssg71
g819
sg64
(lp830
S':'
asbag57
(g78
g59
NtRp831
(dp832
g62
(dp833
sg71
g819
sg64
(lp834
g57
(g58
g59
NtRp835
(dp836
g62
(dp837
g70
I3
ssg71
g831
sg64
(lp838
S''
asbasbasbasbasbasbasbag57
(g73
g59
NtRp839
(dp840
g62
(dp841
sg71
g269
sg64
(lp842
g57
(g78
g59
NtRp843
(dp844
g62
(dp845
g82
g83
ssg71
g839
sg64
(lp846
S'session_id_photo_uploader'
p847
asbag57
(g78
g59
NtRp848
(dp849
g62
(dp850
g89
g90
ssg71
g839
sg64
(lp851
S':'
asbag57
(g78
g59
NtRp852
(dp853
g62
(dp854
sg71
g839
sg64
(lp855
g57
(g58
g59
NtRp856
(dp857
g62
(dp858
g70
I4
ssg71
g852
sg64
(lp859
S'127.0.0.1-ea997432-6b22-42de-979f-5769b07f61d4'
p860
ag57
(g66
g59
NtRp861
(dp862
g62
(dp863
g70
I3
ssg71
Nsg64
(lp864
g57
(g73
g59
NtRp865
(dp866
g62
(dp867
sg71
g861
sg64
(lp868
g57
(g78
g59
NtRp869
(dp870
g62
(dp871
g82
g83
ssg71
g865
sg64
(lp872
g307
asbag57
(g78
g59
NtRp873
(dp874
g62
(dp875
g89
g90
ssg71
g865
sg64
(lp876
S':'
asbag57
(g78
g59
NtRp877
(dp878
g62
(dp879
sg71
g865
sg64
(lp880
g57
(g58
g59
NtRp881
(dp882
g62
(dp883
g70
I3
ssg71
g877
sg64
(lp884
S''
asbasbasbag57
(g73
g59
NtRp885
(dp886
g62
(dp887
sg71
g861
sg64
(lp888
g57
(g78
g59
NtRp889
(dp890
g62
(dp891
g82
g83
ssg71
g885
sg64
(lp892
g328
asbag57
(g78
g59
NtRp893
(dp894
g62
(dp895
g89
g90
ssg71
g885
sg64
(lp896
S':'
asbag57
(g78
g59
NtRp897
(dp898
g62
(dp899
sg71
g885
sg64
(lp900
g57
(g58
g59
NtRp901
(dp902
g62
(dp903
g70
I3
ssg71
g897
sg64
(lp904
S''
asbasbasbag57
(g73
g59
NtRp905
(dp906
g62
(dp907
sg71
g861
sg64
(lp908
g57
(g78
g59
NtRp909
(dp910
g62
(dp911
g82
g83
ssg71
g905
sg64
(lp912
g349
asbag57
(g78
g59
NtRp913
(dp914
g62
(dp915
g89
g90
ssg71
g905
sg64
(lp916
S':'
asbag57
(g78
g59
NtRp917
(dp918
g62
(dp919
sg71
g905
sg64
(lp920
g57
(g58
g59
NtRp921
(dp922
g62
(dp923
g70
I3
ssg71
g917
sg64
(lp924
S''
asbasbasbag57
(g73
g59
NtRp925
(dp926
g62
(dp927
sg71
g861
sg64
(lp928
g57
(g78
g59
NtRp929
(dp930
g62
(dp931
g82
g83
ssg71
g925
sg64
(lp932
g370
asbag57
(g78
g59
NtRp933
(dp934
g62
(dp935
g89
g90
ssg71
g925
sg64
(lp936
S':'
asbag57
(g78
g59
NtRp937
(dp938
g62
(dp939
sg71
g925
sg64
(lp940
g57
(g58
g59
NtRp941
(dp942
g62
(dp943
g70
I3
ssg71
g937
sg64
(lp944
S''
asbasbasbag57
(g73
g59
NtRp945
(dp946
g62
(dp947
sg71
g861
sg64
(lp948
g57
(g78
g59
NtRp949
(dp950
g62
(dp951
g82
g83
ssg71
g945
sg64
(lp952
g391
asbag57
(g78
g59
NtRp953
(dp954
g62
(dp955
g89
g90
ssg71
g945
sg64
(lp956
S':'
asbag57
(g78
g59
NtRp957
(dp958
g62
(dp959
sg71
g945
sg64
(lp960
g57
(g58
g59
NtRp961
(dp962
g62
(dp963
g70
I3
ssg71
g957
sg64
(lp964
S''
asbasbasbag57
(g73
g59
NtRp965
(dp966
g62
(dp967
sg71
g861
sg64
(lp968
g57
(g78
g59
NtRp969
(dp970
g62
(dp971
g82
g83
ssg71
g965
sg64
(lp972
g412
asbag57
(g78
g59
NtRp973
(dp974
g62
(dp975
g89
g90
ssg71
g965
sg64
(lp976
S':'
asbag57
(g78
g59
NtRp977
(dp978
g62
(dp979
sg71
g965
sg64
(lp980
g57
(g58
g59
NtRp981
(dp982
g62
(dp983
g70
I3
ssg71
g977
sg64
(lp984
S''
asbasbasbag57
(g73
g59
NtRp985
(dp986
g62
(dp987
sg71
g861
sg64
(lp988
g57
(g78
g59
NtRp989
(dp990
g62
(dp991
g82
g83
ssg71
g985
sg64
(lp992
g433
asbag57
(g78
g59
NtRp993
(dp994
g62
(dp995
g89
g90
ssg71
g985
sg64
(lp996
S':'
asbag57
(g78
g59
NtRp997
(dp998
g62
(dp999
sg71
g985
sg64
(lp1000
g57
(g58
g59
NtRp1001
(dp1002
g62
(dp1003
g70
I3
ssg71
g997
sg64
(lp1004
S''
asbasbasbag57
(g73
g59
NtRp1005
(dp1006
g62
(dp1007
sg71
g861
sg64
(lp1008
g57
(g78
g59
NtRp1009
(dp1010
g62
(dp1011
g82
g83
ssg71
g1005
sg64
(lp1012
g454
asbag57
(g78
g59
NtRp1013
(dp1014
g62
(dp1015
g89
g90
ssg71
g1005
sg64
(lp1016
S':'
asbag57
(g78
g59
NtRp1017
(dp1018
g62
(dp1019
sg71
g1005
sg64
(lp1020
g57
(g58
g59
NtRp1021
(dp1022
g62
(dp1023
g70
I3
ssg71
g1017
sg64
(lp1024
S''
asbasbasbasbasbasbasbag57
(g73
g59
NtRp1025
(dp1026
g62
(dp1027
sg71
g269
sg64
(lp1028
g57
(g78
g59
NtRp1029
(dp1030
g62
(dp1031
g82
g83
ssg71
g1025
sg64
(lp1032
S'session_id_sss'
p1033
asbag57
(g78
g59
NtRp1034
(dp1035
g62
(dp1036
g89
g90
ssg71
g1025
sg64
(lp1037
S':'
asbag57
(g78
g59
NtRp1038
(dp1039
g62
(dp1040
sg71
g1025
sg64
(lp1041
g57
(g58
g59
NtRp1042
(dp1043
g62
(dp1044
g70
I4
ssg71
g1038
sg64
(lp1045
S'127.0.0.1-ba9f9498-77ca-43cf-8cca-4cd1b55c3984'
p1046
ag57
(g66
g59
NtRp1047
(dp1048
g62
(dp1049
g70
I3
ssg71
Nsg64
(lp1050
g57
(g73
g59
NtRp1051
(dp1052
g62
(dp1053
sg71
g1047
sg64
(lp1054
g57
(g78
g59
NtRp1055
(dp1056
g62
(dp1057
g82
g83
ssg71
g1051
sg64
(lp1058
g307
asbag57
(g78
g59
NtRp1059
(dp1060
g62
(dp1061
g89
g90
ssg71
g1051
sg64
(lp1062
S':'
asbag57
(g78
g59
NtRp1063
(dp1064
g62
(dp1065
sg71
g1051
sg64
(lp1066
g57
(g58
g59
NtRp1067
(dp1068
g62
(dp1069
g70
I3
ssg71
g1063
sg64
(lp1070
S''
asbasbasbag57
(g73
g59
NtRp1071
(dp1072
g62
(dp1073
sg71
g1047
sg64
(lp1074
g57
(g78
g59
NtRp1075
(dp1076
g62
(dp1077
g82
g83
ssg71
g1071
sg64
(lp1078
g328
asbag57
(g78
g59
NtRp1079
(dp1080
g62
(dp1081
g89
g90
ssg71
g1071
sg64
(lp1082
S':'
asbag57
(g78
g59
NtRp1083
(dp1084
g62
(dp1085
sg71
g1071
sg64
(lp1086
g57
(g58
g59
NtRp1087
(dp1088
g62
(dp1089
g70
I3
ssg71
g1083
sg64
(lp1090
S''
asbasbasbag57
(g73
g59
NtRp1091
(dp1092
g62
(dp1093
sg71
g1047
sg64
(lp1094
g57
(g78
g59
NtRp1095
(dp1096
g62
(dp1097
g82
g83
ssg71
g1091
sg64
(lp1098
g349
asbag57
(g78
g59
NtRp1099
(dp1100
g62
(dp1101
g89
g90
ssg71
g1091
sg64
(lp1102
S':'
asbag57
(g78
g59
NtRp1103
(dp1104
g62
(dp1105
sg71
g1091
sg64
(lp1106
g57
(g58
g59
NtRp1107
(dp1108
g62
(dp1109
g70
I3
ssg71
g1103
sg64
(lp1110
S''
asbasbasbag57
(g73
g59
NtRp1111
(dp1112
g62
(dp1113
sg71
g1047
sg64
(lp1114
g57
(g78
g59
NtRp1115
(dp1116
g62
(dp1117
g82
g83
ssg71
g1111
sg64
(lp1118
g370
asbag57
(g78
g59
NtRp1119
(dp1120
g62
(dp1121
g89
g90
ssg71
g1111
sg64
(lp1122
S':'
asbag57
(g78
g59
NtRp1123
(dp1124
g62
(dp1125
sg71
g1111
sg64
(lp1126
g57
(g58
g59
NtRp1127
(dp1128
g62
(dp1129
g70
I3
ssg71
g1123
sg64
(lp1130
S''
asbasbasbag57
(g73
g59
NtRp1131
(dp1132
g62
(dp1133
sg71
g1047
sg64
(lp1134
g57
(g78
g59
NtRp1135
(dp1136
g62
(dp1137
g82
g83
ssg71
g1131
sg64
(lp1138
g391
asbag57
(g78
g59
NtRp1139
(dp1140
g62
(dp1141
g89
g90
ssg71
g1131
sg64
(lp1142
S':'
asbag57
(g78
g59
NtRp1143
(dp1144
g62
(dp1145
sg71
g1131
sg64
(lp1146
g57
(g58
g59
NtRp1147
(dp1148
g62
(dp1149
g70
I3
ssg71
g1143
sg64
(lp1150
S''
asbasbasbag57
(g73
g59
NtRp1151
(dp1152
g62
(dp1153
sg71
g1047
sg64
(lp1154
g57
(g78
g59
NtRp1155
(dp1156
g62
(dp1157
g82
g83
ssg71
g1151
sg64
(lp1158
g412
asbag57
(g78
g59
NtRp1159
(dp1160
g62
(dp1161
g89
g90
ssg71
g1151
sg64
(lp1162
S':'
asbag57
(g78
g59
NtRp1163
(dp1164
g62
(dp1165
sg71
g1151
sg64
(lp1166
g57
(g58
g59
NtRp1167
(dp1168
g62
(dp1169
g70
I3
ssg71
g1163
sg64
(lp1170
S''
asbasbasbag57
(g73
g59
NtRp1171
(dp1172
g62
(dp1173
sg71
g1047
sg64
(lp1174
g57
(g78
g59
NtRp1175
(dp1176
g62
(dp1177
g82
g83
ssg71
g1171
sg64
(lp1178
g433
asbag57
(g78
g59
NtRp1179
(dp1180
g62
(dp1181
g89
g90
ssg71
g1171
sg64
(lp1182
S':'
asbag57
(g78
g59
NtRp1183
(dp1184
g62
(dp1185
sg71
g1171
sg64
(lp1186
g57
(g58
g59
NtRp1187
(dp1188
g62
(dp1189
g70
I3
ssg71
g1183
sg64
(lp1190
S''
asbasbasbag57
(g73
g59
NtRp1191
(dp1192
g62
(dp1193
sg71
g1047
sg64
(lp1194
g57
(g78
g59
NtRp1195
(dp1196
g62
(dp1197
g82
g83
ssg71
g1191
sg64
(lp1198
g454
asbag57
(g78
g59
NtRp1199
(dp1200
g62
(dp1201
g89
g90
ssg71
g1191
sg64
(lp1202
S':'
asbag57
(g78
g59
NtRp1203
(dp1204
g62
(dp1205
sg71
g1191
sg64
(lp1206
g57
(g58
g59
NtRp1207
(dp1208
g62
(dp1209
g70
I3
ssg71
g1203
sg64
(lp1210
S''
asbasbasbasbasbasbasbag57
(g73
g59
NtRp1211
(dp1212
g62
(dp1213
sg71
g269
sg64
(lp1214
g57
(g78
g59
NtRp1215
(dp1216
g62
(dp1217
g82
g83
ssg71
g1211
sg64
(lp1218
S'session_id_sssa'
p1219
asbag57
(g78
g59
NtRp1220
(dp1221
g62
(dp1222
g89
g90
ssg71
g1211
sg64
(lp1223
S':'
asbag57
(g78
g59
NtRp1224
(dp1225
g62
(dp1226
sg71
g1211
sg64
(lp1227
g57
(g58
g59
NtRp1228
(dp1229
g62
(dp1230
g70
I4
ssg71
g1224
sg64
(lp1231
S'127.0.0.1-1be5febc-1e6f-46d8-97db-1f86874b01e7'
p1232
ag57
(g66
g59
NtRp1233
(dp1234
g62
(dp1235
g70
I3
ssg71
Nsg64
(lp1236
g57
(g73
g59
NtRp1237
(dp1238
g62
(dp1239
sg71
g1233
sg64
(lp1240
g57
(g78
g59
NtRp1241
(dp1242
g62
(dp1243
g82
g83
ssg71
g1237
sg64
(lp1244
g307
asbag57
(g78
g59
NtRp1245
(dp1246
g62
(dp1247
g89
g90
ssg71
g1237
sg64
(lp1248
S':'
asbag57
(g78
g59
NtRp1249
(dp1250
g62
(dp1251
sg71
g1237
sg64
(lp1252
g57
(g58
g59
NtRp1253
(dp1254
g62
(dp1255
g70
I3
ssg71
g1249
sg64
(lp1256
S''
asbasbasbag57
(g73
g59
NtRp1257
(dp1258
g62
(dp1259
sg71
g1233
sg64
(lp1260
g57
(g78
g59
NtRp1261
(dp1262
g62
(dp1263
g82
g83
ssg71
g1257
sg64
(lp1264
g328
asbag57
(g78
g59
NtRp1265
(dp1266
g62
(dp1267
g89
g90
ssg71
g1257
sg64
(lp1268
S':'
asbag57
(g78
g59
NtRp1269
(dp1270
g62
(dp1271
sg71
g1257
sg64
(lp1272
g57
(g58
g59
NtRp1273
(dp1274
g62
(dp1275
g70
I3
ssg71
g1269
sg64
(lp1276
S''
asbasbasbag57
(g73
g59
NtRp1277
(dp1278
g62
(dp1279
sg71
g1233
sg64
(lp1280
g57
(g78
g59
NtRp1281
(dp1282
g62
(dp1283
g82
g83
ssg71
g1277
sg64
(lp1284
g349
asbag57
(g78
g59
NtRp1285
(dp1286
g62
(dp1287
g89
g90
ssg71
g1277
sg64
(lp1288
S':'
asbag57
(g78
g59
NtRp1289
(dp1290
g62
(dp1291
sg71
g1277
sg64
(lp1292
g57
(g58
g59
NtRp1293
(dp1294
g62
(dp1295
g70
I3
ssg71
g1289
sg64
(lp1296
S''
asbasbasbag57
(g73
g59
NtRp1297
(dp1298
g62
(dp1299
sg71
g1233
sg64
(lp1300
g57
(g78
g59
NtRp1301
(dp1302
g62
(dp1303
g82
g83
ssg71
g1297
sg64
(lp1304
g370
asbag57
(g78
g59
NtRp1305
(dp1306
g62
(dp1307
g89
g90
ssg71
g1297
sg64
(lp1308
S':'
asbag57
(g78
g59
NtRp1309
(dp1310
g62
(dp1311
sg71
g1297
sg64
(lp1312
g57
(g58
g59
NtRp1313
(dp1314
g62
(dp1315
g70
I3
ssg71
g1309
sg64
(lp1316
S''
asbasbasbag57
(g73
g59
NtRp1317
(dp1318
g62
(dp1319
sg71
g1233
sg64
(lp1320
g57
(g78
g59
NtRp1321
(dp1322
g62
(dp1323
g82
g83
ssg71
g1317
sg64
(lp1324
g391
asbag57
(g78
g59
NtRp1325
(dp1326
g62
(dp1327
g89
g90
ssg71
g1317
sg64
(lp1328
S':'
asbag57
(g78
g59
NtRp1329
(dp1330
g62
(dp1331
sg71
g1317
sg64
(lp1332
g57
(g58
g59
NtRp1333
(dp1334
g62
(dp1335
g70
I3
ssg71
g1329
sg64
(lp1336
S''
asbasbasbag57
(g73
g59
NtRp1337
(dp1338
g62
(dp1339
sg71
g1233
sg64
(lp1340
g57
(g78
g59
NtRp1341
(dp1342
g62
(dp1343
g82
g83
ssg71
g1337
sg64
(lp1344
g412
asbag57
(g78
g59
NtRp1345
(dp1346
g62
(dp1347
g89
g90
ssg71
g1337
sg64
(lp1348
S':'
asbag57
(g78
g59
NtRp1349
(dp1350
g62
(dp1351
sg71
g1337
sg64
(lp1352
g57
(g58
g59
NtRp1353
(dp1354
g62
(dp1355
g70
I3
ssg71
g1349
sg64
(lp1356
S''
asbasbasbag57
(g73
g59
NtRp1357
(dp1358
g62
(dp1359
sg71
g1233
sg64
(lp1360
g57
(g78
g59
NtRp1361
(dp1362
g62
(dp1363
g82
g83
ssg71
g1357
sg64
(lp1364
g433
asbag57
(g78
g59
NtRp1365
(dp1366
g62
(dp1367
g89
g90
ssg71
g1357
sg64
(lp1368
S':'
asbag57
(g78
g59
NtRp1369
(dp1370
g62
(dp1371
sg71
g1357
sg64
(lp1372
g57
(g58
g59
NtRp1373
(dp1374
g62
(dp1375
g70
I3
ssg71
g1369
sg64
(lp1376
S''
asbasbasbag57
(g73
g59
NtRp1377
(dp1378
g62
(dp1379
sg71
g1233
sg64
(lp1380
g57
(g78
g59
NtRp1381
(dp1382
g62
(dp1383
g82
g83
ssg71
g1377
sg64
(lp1384
g454
asbag57
(g78
g59
NtRp1385
(dp1386
g62
(dp1387
g89
g90
ssg71
g1377
sg64
(lp1388
S':'
asbag57
(g78
g59
NtRp1389
(dp1390
g62
(dp1391
sg71
g1377
sg64
(lp1392
g57
(g58
g59
NtRp1393
(dp1394
g62
(dp1395
g70
I3
ssg71
g1389
sg64
(lp1396
S''
asbasbasbasbasbasbasbag57
(g73
g59
NtRp1397
(dp1398
g62
(dp1399
sg71
g269
sg64
(lp1400
g57
(g78
g59
NtRp1401
(dp1402
g62
(dp1403
g82
g83
ssg71
g1397
sg64
(lp1404
S'session_id_sssaa'
p1405
asbag57
(g78
g59
NtRp1406
(dp1407
g62
(dp1408
g89
g90
ssg71
g1397
sg64
(lp1409
S':'
asbag57
(g78
g59
NtRp1410
(dp1411
g62
(dp1412
sg71
g1397
sg64
(lp1413
g57
(g58
g59
NtRp1414
(dp1415
g62
(dp1416
g70
I4
ssg71
g1410
sg64
(lp1417
S'127.0.0.1-d91bc0a2-d0af-427f-8376-e868798516f0'
p1418
ag57
(g66
g59
NtRp1419
(dp1420
g62
(dp1421
g70
I3
ssg71
Nsg64
(lp1422
g57
(g73
g59
NtRp1423
(dp1424
g62
(dp1425
sg71
g1419
sg64
(lp1426
g57
(g78
g59
NtRp1427
(dp1428
g62
(dp1429
g82
g83
ssg71
g1423
sg64
(lp1430
g307
asbag57
(g78
g59
NtRp1431
(dp1432
g62
(dp1433
g89
g90
ssg71
g1423
sg64
(lp1434
S':'
asbag57
(g78
g59
NtRp1435
(dp1436
g62
(dp1437
sg71
g1423
sg64
(lp1438
g57
(g58
g59
NtRp1439
(dp1440
g62
(dp1441
g70
I3
ssg71
g1435
sg64
(lp1442
S''
asbasbasbag57
(g73
g59
NtRp1443
(dp1444
g62
(dp1445
sg71
g1419
sg64
(lp1446
g57
(g78
g59
NtRp1447
(dp1448
g62
(dp1449
g82
g83
ssg71
g1443
sg64
(lp1450
g328
asbag57
(g78
g59
NtRp1451
(dp1452
g62
(dp1453
g89
g90
ssg71
g1443
sg64
(lp1454
S':'
asbag57
(g78
g59
NtRp1455
(dp1456
g62
(dp1457
sg71
g1443
sg64
(lp1458
g57
(g58
g59
NtRp1459
(dp1460
g62
(dp1461
g70
I3
ssg71
g1455
sg64
(lp1462
S''
asbasbasbag57
(g73
g59
NtRp1463
(dp1464
g62
(dp1465
sg71
g1419
sg64
(lp1466
g57
(g78
g59
NtRp1467
(dp1468
g62
(dp1469
g82
g83
ssg71
g1463
sg64
(lp1470
g349
asbag57
(g78
g59
NtRp1471
(dp1472
g62
(dp1473
g89
g90
ssg71
g1463
sg64
(lp1474
S':'
asbag57
(g78
g59
NtRp1475
(dp1476
g62
(dp1477
sg71
g1463
sg64
(lp1478
g57
(g58
g59
NtRp1479
(dp1480
g62
(dp1481
g70
I3
ssg71
g1475
sg64
(lp1482
S''
asbasbasbag57
(g73
g59
NtRp1483
(dp1484
g62
(dp1485
sg71
g1419
sg64
(lp1486
g57
(g78
g59
NtRp1487
(dp1488
g62
(dp1489
g82
g83
ssg71
g1483
sg64
(lp1490
g370
asbag57
(g78
g59
NtRp1491
(dp1492
g62
(dp1493
g89
g90
ssg71
g1483
sg64
(lp1494
S':'
asbag57
(g78
g59
NtRp1495
(dp1496
g62
(dp1497
sg71
g1483
sg64
(lp1498
g57
(g58
g59
NtRp1499
(dp1500
g62
(dp1501
g70
I3
ssg71
g1495
sg64
(lp1502
S''
asbasbasbag57
(g73
g59
NtRp1503
(dp1504
g62
(dp1505
sg71
g1419
sg64
(lp1506
g57
(g78
g59
NtRp1507
(dp1508
g62
(dp1509
g82
g83
ssg71
g1503
sg64
(lp1510
g391
asbag57
(g78
g59
NtRp1511
(dp1512
g62
(dp1513
g89
g90
ssg71
g1503
sg64
(lp1514
S':'
asbag57
(g78
g59
NtRp1515
(dp1516
g62
(dp1517
sg71
g1503
sg64
(lp1518
g57
(g58
g59
NtRp1519
(dp1520
g62
(dp1521
g70
I3
ssg71
g1515
sg64
(lp1522
S''
asbasbasbag57
(g73
g59
NtRp1523
(dp1524
g62
(dp1525
sg71
g1419
sg64
(lp1526
g57
(g78
g59
NtRp1527
(dp1528
g62
(dp1529
g82
g83
ssg71
g1523
sg64
(lp1530
g412
asbag57
(g78
g59
NtRp1531
(dp1532
g62
(dp1533
g89
g90
ssg71
g1523
sg64
(lp1534
S':'
asbag57
(g78
g59
NtRp1535
(dp1536
g62
(dp1537
sg71
g1523
sg64
(lp1538
g57
(g58
g59
NtRp1539
(dp1540
g62
(dp1541
g70
I3
ssg71
g1535
sg64
(lp1542
S''
asbasbasbag57
(g73
g59
NtRp1543
(dp1544
g62
(dp1545
sg71
g1419
sg64
(lp1546
g57
(g78
g59
NtRp1547
(dp1548
g62
(dp1549
g82
g83
ssg71
g1543
sg64
(lp1550
g433
asbag57
(g78
g59
NtRp1551
(dp1552
g62
(dp1553
g89
g90
ssg71
g1543
sg64
(lp1554
S':'
asbag57
(g78
g59
NtRp1555
(dp1556
g62
(dp1557
sg71
g1543
sg64
(lp1558
g57
(g58
g59
NtRp1559
(dp1560
g62
(dp1561
g70
I3
ssg71
g1555
sg64
(lp1562
S''
asbasbasbag57
(g73
g59
NtRp1563
(dp1564
g62
(dp1565
sg71
g1419
sg64
(lp1566
g57
(g78
g59
NtRp1567
(dp1568
g62
(dp1569
g82
g83
ssg71
g1563
sg64
(lp1570
g454
asbag57
(g78
g59
NtRp1571
(dp1572
g62
(dp1573
g89
g90
ssg71
g1563
sg64
(lp1574
S':'
asbag57
(g78
g59
NtRp1575
(dp1576
g62
(dp1577
sg71
g1563
sg64
(lp1578
g57
(g58
g59
NtRp1579
(dp1580
g62
(dp1581
g70
I3
ssg71
g1575
sg64
(lp1582
S''
asbasbasbasbasbasbasbag57
(g73
g59
NtRp1583
(dp1584
g62
(dp1585
sg71
g269
sg64
(lp1586
g57
(g78
g59
NtRp1587
(dp1588
g62
(dp1589
g82
g83
ssg71
g1583
sg64
(lp1590
S'session_id_sssaaa'
p1591
asbag57
(g78
g59
NtRp1592
(dp1593
g62
(dp1594
g89
g90
ssg71
g1583
sg64
(lp1595
S':'
asbag57
(g78
g59
NtRp1596
(dp1597
g62
(dp1598
sg71
g1583
sg64
(lp1599
g57
(g58
g59
NtRp1600
(dp1601
g62
(dp1602
g70
I4
ssg71
g1596
sg64
(lp1603
S'127.0.0.1-27d2f703-ebd9-42d0-b416-87310c9ebc09'
p1604
ag57
(g66
g59
NtRp1605
(dp1606
g62
(dp1607
g70
I3
ssg71
Nsg64
(lp1608
g57
(g73
g59
NtRp1609
(dp1610
g62
(dp1611
sg71
g1605
sg64
(lp1612
g57
(g78
g59
NtRp1613
(dp1614
g62
(dp1615
g82
g83
ssg71
g1609
sg64
(lp1616
g307
asbag57
(g78
g59
NtRp1617
(dp1618
g62
(dp1619
g89
g90
ssg71
g1609
sg64
(lp1620
S':'
asbag57
(g78
g59
NtRp1621
(dp1622
g62
(dp1623
sg71
g1609
sg64
(lp1624
g57
(g58
g59
NtRp1625
(dp1626
g62
(dp1627
g70
I3
ssg71
g1621
sg64
(lp1628
S''
asbasbasbag57
(g73
g59
NtRp1629
(dp1630
g62
(dp1631
sg71
g1605
sg64
(lp1632
g57
(g78
g59
NtRp1633
(dp1634
g62
(dp1635
g82
g83
ssg71
g1629
sg64
(lp1636
g328
asbag57
(g78
g59
NtRp1637
(dp1638
g62
(dp1639
g89
g90
ssg71
g1629
sg64
(lp1640
S':'
asbag57
(g78
g59
NtRp1641
(dp1642
g62
(dp1643
sg71
g1629
sg64
(lp1644
g57
(g58
g59
NtRp1645
(dp1646
g62
(dp1647
g70
I3
ssg71
g1641
sg64
(lp1648
S''
asbasbasbag57
(g73
g59
NtRp1649
(dp1650
g62
(dp1651
sg71
g1605
sg64
(lp1652
g57
(g78
g59
NtRp1653
(dp1654
g62
(dp1655
g82
g83
ssg71
g1649
sg64
(lp1656
g349
asbag57
(g78
g59
NtRp1657
(dp1658
g62
(dp1659
g89
g90
ssg71
g1649
sg64
(lp1660
S':'
asbag57
(g78
g59
NtRp1661
(dp1662
g62
(dp1663
sg71
g1649
sg64
(lp1664
g57
(g58
g59
NtRp1665
(dp1666
g62
(dp1667
g70
I3
ssg71
g1661
sg64
(lp1668
S''
asbasbasbag57
(g73
g59
NtRp1669
(dp1670
g62
(dp1671
sg71
g1605
sg64
(lp1672
g57
(g78
g59
NtRp1673
(dp1674
g62
(dp1675
g82
g83
ssg71
g1669
sg64
(lp1676
g370
asbag57
(g78
g59
NtRp1677
(dp1678
g62
(dp1679
g89
g90
ssg71
g1669
sg64
(lp1680
S':'
asbag57
(g78
g59
NtRp1681
(dp1682
g62
(dp1683
sg71
g1669
sg64
(lp1684
g57
(g58
g59
NtRp1685
(dp1686
g62
(dp1687
g70
I3
ssg71
g1681
sg64
(lp1688
S''
asbasbasbag57
(g73
g59
NtRp1689
(dp1690
g62
(dp1691
sg71
g1605
sg64
(lp1692
g57
(g78
g59
NtRp1693
(dp1694
g62
(dp1695
g82
g83
ssg71
g1689
sg64
(lp1696
g391
asbag57
(g78
g59
NtRp1697
(dp1698
g62
(dp1699
g89
g90
ssg71
g1689
sg64
(lp1700
S':'
asbag57
(g78
g59
NtRp1701
(dp1702
g62
(dp1703
sg71
g1689
sg64
(lp1704
g57
(g58
g59
NtRp1705
(dp1706
g62
(dp1707
g70
I3
ssg71
g1701
sg64
(lp1708
S''
asbasbasbag57
(g73
g59
NtRp1709
(dp1710
g62
(dp1711
sg71
g1605
sg64
(lp1712
g57
(g78
g59
NtRp1713
(dp1714
g62
(dp1715
g82
g83
ssg71
g1709
sg64
(lp1716
g412
asbag57
(g78
g59
NtRp1717
(dp1718
g62
(dp1719
g89
g90
ssg71
g1709
sg64
(lp1720
S':'
asbag57
(g78
g59
NtRp1721
(dp1722
g62
(dp1723
sg71
g1709
sg64
(lp1724
g57
(g58
g59
NtRp1725
(dp1726
g62
(dp1727
g70
I3
ssg71
g1721
sg64
(lp1728
S''
asbasbasbag57
(g73
g59
NtRp1729
(dp1730
g62
(dp1731
sg71
g1605
sg64
(lp1732
g57
(g78
g59
NtRp1733
(dp1734
g62
(dp1735
g82
g83
ssg71
g1729
sg64
(lp1736
g433
asbag57
(g78
g59
NtRp1737
(dp1738
g62
(dp1739
g89
g90
ssg71
g1729
sg64
(lp1740
S':'
asbag57
(g78
g59
NtRp1741
(dp1742
g62
(dp1743
sg71
g1729
sg64
(lp1744
g57
(g58
g59
NtRp1745
(dp1746
g62
(dp1747
g70
I3
ssg71
g1741
sg64
(lp1748
S''
asbasbasbag57
(g73
g59
NtRp1749
(dp1750
g62
(dp1751
sg71
g1605
sg64
(lp1752
g57
(g78
g59
NtRp1753
(dp1754
g62
(dp1755
g82
g83
ssg71
g1749
sg64
(lp1756
g454
asbag57
(g78
g59
NtRp1757
(dp1758
g62
(dp1759
g89
g90
ssg71
g1749
sg64
(lp1760
S':'
asbag57
(g78
g59
NtRp1761
(dp1762
g62
(dp1763
sg71
g1749
sg64
(lp1764
g57
(g58
g59
NtRp1765
(dp1766
g62
(dp1767
g70
I3
ssg71
g1761
sg64
(lp1768
S''
asbasbasbasbasbasbasbag57
(g73
g59
NtRp1769
(dp1770
g62
(dp1771
sg71
g269
sg64
(lp1772
g57
(g78
g59
NtRp1773
(dp1774
g62
(dp1775
g82
g83
ssg71
g1769
sg64
(lp1776
S'session_id_sssq'
p1777
asbag57
(g78
g59
NtRp1778
(dp1779
g62
(dp1780
g89
g90
ssg71
g1769
sg64
(lp1781
S':'
asbag57
(g78
g59
NtRp1782
(dp1783
g62
(dp1784
sg71
g1769
sg64
(lp1785
g57
(g58
g59
NtRp1786
(dp1787
g62
(dp1788
g70
I4
ssg71
g1782
sg64
(lp1789
S'127.0.0.1-885c41bd-04d4-40eb-8c22-0576eb1b06e9'
p1790
ag57
(g66
g59
NtRp1791
(dp1792
g62
(dp1793
g70
I3
ssg71
Nsg64
(lp1794
g57
(g73
g59
NtRp1795
(dp1796
g62
(dp1797
sg71
g1791
sg64
(lp1798
g57
(g78
g59
NtRp1799
(dp1800
g62
(dp1801
g82
g83
ssg71
g1795
sg64
(lp1802
g307
asbag57
(g78
g59
NtRp1803
(dp1804
g62
(dp1805
g89
g90
ssg71
g1795
sg64
(lp1806
S':'
asbag57
(g78
g59
NtRp1807
(dp1808
g62
(dp1809
sg71
g1795
sg64
(lp1810
g57
(g58
g59
NtRp1811
(dp1812
g62
(dp1813
g70
I3
ssg71
g1807
sg64
(lp1814
S''
asbasbasbag57
(g73
g59
NtRp1815
(dp1816
g62
(dp1817
sg71
g1791
sg64
(lp1818
g57
(g78
g59
NtRp1819
(dp1820
g62
(dp1821
g82
g83
ssg71
g1815
sg64
(lp1822
g328
asbag57
(g78
g59
NtRp1823
(dp1824
g62
(dp1825
g89
g90
ssg71
g1815
sg64
(lp1826
S':'
asbag57
(g78
g59
NtRp1827
(dp1828
g62
(dp1829
sg71
g1815
sg64
(lp1830
g57
(g58
g59
NtRp1831
(dp1832
g62
(dp1833
g70
I3
ssg71
g1827
sg64
(lp1834
S''
asbasbasbag57
(g73
g59
NtRp1835
(dp1836
g62
(dp1837
sg71
g1791
sg64
(lp1838
g57
(g78
g59
NtRp1839
(dp1840
g62
(dp1841
g82
g83
ssg71
g1835
sg64
(lp1842
g349
asbag57
(g78
g59
NtRp1843
(dp1844
g62
(dp1845
g89
g90
ssg71
g1835
sg64
(lp1846
S':'
asbag57
(g78
g59
NtRp1847
(dp1848
g62
(dp1849
sg71
g1835
sg64
(lp1850
g57
(g58
g59
NtRp1851
(dp1852
g62
(dp1853
g70
I3
ssg71
g1847
sg64
(lp1854
S''
asbasbasbag57
(g73
g59
NtRp1855
(dp1856
g62
(dp1857
sg71
g1791
sg64
(lp1858
g57
(g78
g59
NtRp1859
(dp1860
g62
(dp1861
g82
g83
ssg71
g1855
sg64
(lp1862
g370
asbag57
(g78
g59
NtRp1863
(dp1864
g62
(dp1865
g89
g90
ssg71
g1855
sg64
(lp1866
S':'
asbag57
(g78
g59
NtRp1867
(dp1868
g62
(dp1869
sg71
g1855
sg64
(lp1870
g57
(g58
g59
NtRp1871
(dp1872
g62
(dp1873
g70
I3
ssg71
g1867
sg64
(lp1874
S''
asbasbasbag57
(g73
g59
NtRp1875
(dp1876
g62
(dp1877
sg71
g1791
sg64
(lp1878
g57
(g78
g59
NtRp1879
(dp1880
g62
(dp1881
g82
g83
ssg71
g1875
sg64
(lp1882
g391
asbag57
(g78
g59
NtRp1883
(dp1884
g62
(dp1885
g89
g90
ssg71
g1875
sg64
(lp1886
S':'
asbag57
(g78
g59
NtRp1887
(dp1888
g62
(dp1889
sg71
g1875
sg64
(lp1890
g57
(g58
g59
NtRp1891
(dp1892
g62
(dp1893
g70
I3
ssg71
g1887
sg64
(lp1894
S''
asbasbasbag57
(g73
g59
NtRp1895
(dp1896
g62
(dp1897
sg71
g1791
sg64
(lp1898
g57
(g78
g59
NtRp1899
(dp1900
g62
(dp1901
g82
g83
ssg71
g1895
sg64
(lp1902
g412
asbag57
(g78
g59
NtRp1903
(dp1904
g62
(dp1905
g89
g90
ssg71
g1895
sg64
(lp1906
S':'
asbag57
(g78
g59
NtRp1907
(dp1908
g62
(dp1909
sg71
g1895
sg64
(lp1910
g57
(g58
g59
NtRp1911
(dp1912
g62
(dp1913
g70
I3
ssg71
g1907
sg64
(lp1914
S''
asbasbasbag57
(g73
g59
NtRp1915
(dp1916
g62
(dp1917
sg71
g1791
sg64
(lp1918
g57
(g78
g59
NtRp1919
(dp1920
g62
(dp1921
g82
g83
ssg71
g1915
sg64
(lp1922
g433
asbag57
(g78
g59
NtRp1923
(dp1924
g62
(dp1925
g89
g90
ssg71
g1915
sg64
(lp1926
S':'
asbag57
(g78
g59
NtRp1927
(dp1928
g62
(dp1929
sg71
g1915
sg64
(lp1930
g57
(g58
g59
NtRp1931
(dp1932
g62
(dp1933
g70
I3
ssg71
g1927
sg64
(lp1934
S''
asbasbasbag57
(g73
g59
NtRp1935
(dp1936
g62
(dp1937
sg71
g1791
sg64
(lp1938
g57
(g78
g59
NtRp1939
(dp1940
g62
(dp1941
g82
g83
ssg71
g1935
sg64
(lp1942
g454
asbag57
(g78
g59
NtRp1943
(dp1944
g62
(dp1945
g89
g90
ssg71
g1935
sg64
(lp1946
S':'
asbag57
(g78
g59
NtRp1947
(dp1948
g62
(dp1949
sg71
g1935
sg64
(lp1950
g57
(g58
g59
NtRp1951
(dp1952
g62
(dp1953
g70
I3
ssg71
g1947
sg64
(lp1954
S''
asbasbasbasbasbasbasbag57
(g73
g59
NtRp1955
(dp1956
g62
(dp1957
sg71
g269
sg64
(lp1958
g57
(g78
g59
NtRp1959
(dp1960
g62
(dp1961
g82
g83
ssg71
g1955
sg64
(lp1962
S'session_id_welcome'
p1963
asbag57
(g78
g59
NtRp1964
(dp1965
g62
(dp1966
g89
g90
ssg71
g1955
sg64
(lp1967
S':'
asbag57
(g78
g59
NtRp1968
(dp1969
g62
(dp1970
sg71
g1955
sg64
(lp1971
g57
(g58
g59
NtRp1972
(dp1973
g62
(dp1974
g70
I4
ssg71
g1968
sg64
(lp1975
S'127.0.0.1-592b6acb-f999-4052-bd9c-aa6275100fa2'
p1976
ag57
(g66
g59
NtRp1977
(dp1978
g62
(dp1979
g70
I3
ssg71
Nsg64
(lp1980
g57
(g73
g59
NtRp1981
(dp1982
g62
(dp1983
sg71
g1977
sg64
(lp1984
g57
(g78
g59
NtRp1985
(dp1986
g62
(dp1987
g82
g83
ssg71
g1981
sg64
(lp1988
g307
asbag57
(g78
g59
NtRp1989
(dp1990
g62
(dp1991
g89
g90
ssg71
g1981
sg64
(lp1992
S':'
asbag57
(g78
g59
NtRp1993
(dp1994
g62
(dp1995
sg71
g1981
sg64
(lp1996
g57
(g58
g59
NtRp1997
(dp1998
g62
(dp1999
g70
I3
ssg71
g1993
sg64
(lp2000
S''
asbasbasbag57
(g73
g59
NtRp2001
(dp2002
g62
(dp2003
sg71
g1977
sg64
(lp2004
g57
(g78
g59
NtRp2005
(dp2006
g62
(dp2007
g82
g83
ssg71
g2001
sg64
(lp2008
g328
asbag57
(g78
g59
NtRp2009
(dp2010
g62
(dp2011
g89
g90
ssg71
g2001
sg64
(lp2012
S':'
asbag57
(g78
g59
NtRp2013
(dp2014
g62
(dp2015
sg71
g2001
sg64
(lp2016
g57
(g58
g59
NtRp2017
(dp2018
g62
(dp2019
g70
I3
ssg71
g2013
sg64
(lp2020
S''
asbasbasbag57
(g73
g59
NtRp2021
(dp2022
g62
(dp2023
sg71
g1977
sg64
(lp2024
g57
(g78
g59
NtRp2025
(dp2026
g62
(dp2027
g82
g83
ssg71
g2021
sg64
(lp2028
g349
asbag57
(g78
g59
NtRp2029
(dp2030
g62
(dp2031
g89
g90
ssg71
g2021
sg64
(lp2032
S':'
asbag57
(g78
g59
NtRp2033
(dp2034
g62
(dp2035
sg71
g2021
sg64
(lp2036
g57
(g58
g59
NtRp2037
(dp2038
g62
(dp2039
g70
I3
ssg71
g2033
sg64
(lp2040
S''
asbasbasbag57
(g73
g59
NtRp2041
(dp2042
g62
(dp2043
sg71
g1977
sg64
(lp2044
g57
(g78
g59
NtRp2045
(dp2046
g62
(dp2047
g82
g83
ssg71
g2041
sg64
(lp2048
g370
asbag57
(g78
g59
NtRp2049
(dp2050
g62
(dp2051
g89
g90
ssg71
g2041
sg64
(lp2052
S':'
asbag57
(g78
g59
NtRp2053
(dp2054
g62
(dp2055
sg71
g2041
sg64
(lp2056
g57
(g58
g59
NtRp2057
(dp2058
g62
(dp2059
g70
I3
ssg71
g2053
sg64
(lp2060
S''
asbasbasbag57
(g73
g59
NtRp2061
(dp2062
g62
(dp2063
sg71
g1977
sg64
(lp2064
g57
(g78
g59
NtRp2065
(dp2066
g62
(dp2067
g82
g83
ssg71
g2061
sg64
(lp2068
g391
asbag57
(g78
g59
NtRp2069
(dp2070
g62
(dp2071
g89
g90
ssg71
g2061
sg64
(lp2072
S':'
asbag57
(g78
g59
NtRp2073
(dp2074
g62
(dp2075
sg71
g2061
sg64
(lp2076
g57
(g58
g59
NtRp2077
(dp2078
g62
(dp2079
g70
I3
ssg71
g2073
sg64
(lp2080
S''
asbasbasbag57
(g73
g59
NtRp2081
(dp2082
g62
(dp2083
sg71
g1977
sg64
(lp2084
g57
(g78
g59
NtRp2085
(dp2086
g62
(dp2087
g82
g83
ssg71
g2081
sg64
(lp2088
g412
asbag57
(g78
g59
NtRp2089
(dp2090
g62
(dp2091
g89
g90
ssg71
g2081
sg64
(lp2092
S':'
asbag57
(g78
g59
NtRp2093
(dp2094
g62
(dp2095
sg71
g2081
sg64
(lp2096
g57
(g58
g59
NtRp2097
(dp2098
g62
(dp2099
g70
I3
ssg71
g2093
sg64
(lp2100
S''
asbasbasbag57
(g73
g59
NtRp2101
(dp2102
g62
(dp2103
sg71
g1977
sg64
(lp2104
g57
(g78
g59
NtRp2105
(dp2106
g62
(dp2107
g82
g83
ssg71
g2101
sg64
(lp2108
g433
asbag57
(g78
g59
NtRp2109
(dp2110
g62
(dp2111
g89
g90
ssg71
g2101
sg64
(lp2112
S':'
asbag57
(g78
g59
NtRp2113
(dp2114
g62
(dp2115
sg71
g2101
sg64
(lp2116
g57
(g58
g59
NtRp2117
(dp2118
g62
(dp2119
g70
I3
ssg71
g2113
sg64
(lp2120
S''
asbasbasbag57
(g73
g59
NtRp2121
(dp2122
g62
(dp2123
sg71
g1977
sg64
(lp2124
g57
(g78
g59
NtRp2125
(dp2126
g62
(dp2127
g82
g83
ssg71
g2121
sg64
(lp2128
g454
asbag57
(g78
g59
NtRp2129
(dp2130
g62
(dp2131
g89
g90
ssg71
g2121
sg64
(lp2132
S':'
asbag57
(g78
g59
NtRp2133
(dp2134
g62
(dp2135
sg71
g2121
sg64
(lp2136
g57
(g58
g59
NtRp2137
(dp2138
g62
(dp2139
g70
I3
ssg71
g2133
sg64
(lp2140
S''
asbasbasbasbasbasbasbasbasbasbasbag57
(g73
g59
NtRp2141
(dp2142
g62
(dp2143
sg71
g67
sg64
(lp2144
g57
(g78
g59
NtRp2145
(dp2146
g62
(dp2147
g82
g83
ssg71
g2141
sg64
(lp2148
S'env'
p2149
asbag57
(g78
g59
NtRp2150
(dp2151
g62
(dp2152
g89
g90
ssg71
g2141
sg64
(lp2153
S':'
asbag57
(g78
g59
NtRp2154
(dp2155
g62
(dp2156
sg71
g2141
sg64
(lp2157
g57
(g58
g59
NtRp2158
(dp2159
g62
(dp2160
g70
I5
ssg71
g2154
sg64
(lp2161
g57
(g66
g59
NtRp2162
(dp2163
g62
(dp2164
g70
I4
ssg71
Nsg64
(lp2165
g57
(g73
g59
NtRp2166
(dp2167
g62
(dp2168
sg71
g2162
sg64
(lp2169
g57
(g78
g59
NtRp2170
(dp2171
g62
(dp2172
g82
g83
ssg71
g2166
sg64
(lp2173
S'app_folders'
p2174
asbag57
(g78
g59
NtRp2175
(dp2176
g62
(dp2177
g89
g90
ssg71
g2166
sg64
(lp2178
S':'
asbag57
(g78
g59
NtRp2179
(dp2180
g62
(dp2181
sg71
g2166
sg64
(lp2182
g57
(g58
g59
NtRp2183
(dp2184
g62
(dp2185
g70
I4
ssg71
g2179
sg64
(lp2186
S"set(['/home/bhanu/web2py/applications/sssa/', '/home/bhanu/web2py/applications/photo_uploader/', '/home/bhanu/web2py/applications/sssaaa/', '/home/bhanu/web2py/applications/admin/', '/home/bhanu/web2py/applications/sssaa/', '/home/bhanu/web2py/applications/sss/', '/home/bhanu/web2py/applications/sssq/', '/home/bhanu/web2py/applications/hostel_r1/', '/home/bhanu/web2py/applications/hostel/'])"
p2187
asbasbasbag57
(g73
g59
NtRp2188
(dp2189
g62
(dp2190
sg71
g2162
sg64
(lp2191
g57
(g78
g59
NtRp2192
(dp2193
g62
(dp2194
g82
g83
ssg71
g2188
sg64
(lp2195
S'applications_parent'
p2196
asbag57
(g78
g59
NtRp2197
(dp2198
g62
(dp2199
g89
g90
ssg71
g2188
sg64
(lp2200
S':'
asbag57
(g78
g59
NtRp2201
(dp2202
g62
(dp2203
sg71
g2188
sg64
(lp2204
g57
(g58
g59
NtRp2205
(dp2206
g62
(dp2207
g70
I4
ssg71
g2201
sg64
(lp2208
S'/home/bhanu/web2py'
p2209
asbasbasbag57
(g73
g59
NtRp2210
(dp2211
g62
(dp2212
sg71
g2162
sg64
(lp2213
g57
(g78
g59
NtRp2214
(dp2215
g62
(dp2216
g82
g83
ssg71
g2210
sg64
(lp2217
S'cmd_args'
p2218
asbag57
(g78
g59
NtRp2219
(dp2220
g62
(dp2221
g89
g90
ssg71
g2210
sg64
(lp2222
S':'
asbag57
(g78
g59
NtRp2223
(dp2224
g62
(dp2225
sg71
g2210
sg64
(lp2226
g57
(g58
g59
NtRp2227
(dp2228
g62
(dp2229
g70
I4
ssg71
g2223
sg64
(lp2230
g57
(g66
g59
NtRp2231
(dp2232
g62
(dp2233
g70
I3
ssg71
Nsg64
(lp2234
sbasbasbasbag57
(g73
g59
NtRp2235
(dp2236
g62
(dp2237
sg71
g2162
sg64
(lp2238
g57
(g78
g59
NtRp2239
(dp2240
g62
(dp2241
g82
g83
ssg71
g2235
sg64
(lp2242
S'cmd_options'
p2243
asbag57
(g78
g59
NtRp2244
(dp2245
g62
(dp2246
g89
g90
ssg71
g2235
sg64
(lp2247
S':'
asbag57
(g78
g59
NtRp2248
(dp2249
g62
(dp2250
sg71
g2235
sg64
(lp2251
g57
(g58
g59
NtRp2252
(dp2253
g62
(dp2254
g70
I4
ssg71
g2248
sg64
(lp2255
S"<Values at 0x21acf80: {'verbose': False, 'ip': '127.0.0.1', 'with_scheduler': False, 'ips': ['127.0.1.1'], 'shutdown_timeout': 5, 'taskbar': False, 'port': 8000, 'maxthreads': None, 'softcron': False, 'server_name': 'bhanu-Dell-System-XPS-L502X', 'bpython': False, 'nogui': False, 'pid_filename': 'httpserver.pid', 'extcron': False, 'runcron': False, 'run_system_tests': False, 'test': None, 'folder': '/home/bhanu/web2py', 'config': '', 'minthreads': None, 'winservice': '', 'shell': None, 'run': '', 'log_filename': 'httpserver.log', 'debuglevel': 30, 'args': [''], 'socket_timeout': 5, 'ssl_ca_certificate': None, 'scheduler': None, 'profiler_filename': None, 'ssl_private_key': '', 'scheduler_groups': None, 'password': '1', 'request_queue_size': 5, 'ssl_certificate': '', 'cronjob': False, 'numthreads': None, 'quiet': False, 'interfaces': None, 'import_models': False, 'timeout': 10, 'plain': False, 'nobanner': False}>"
p2256
asbasbasbag57
(g73
g59
NtRp2257
(dp2258
g62
(dp2259
sg71
g2162
sg64
(lp2260
g57
(g78
g59
NtRp2261
(dp2262
g62
(dp2263
g82
g83
ssg71
g2257
sg64
(lp2264
S'db_sessions'
p2265
asbag57
(g78
g59
NtRp2266
(dp2267
g62
(dp2268
g89
g90
ssg71
g2257
sg64
(lp2269
S':'
asbag57
(g78
g59
NtRp2270
(dp2271
g62
(dp2272
sg71
g2257
sg64
(lp2273
g57
(g58
g59
NtRp2274
(dp2275
g62
(dp2276
g70
I4
ssg71
g2270
sg64
(lp2277
S'set([])'
p2278
asbasbasbag57
(g73
g59
NtRp2279
(dp2280
g62
(dp2281
sg71
g2162
sg64
(lp2282
g57
(g78
g59
NtRp2283
(dp2284
g62
(dp2285
g82
g83
ssg71
g2279
sg64
(lp2286
S'debugging'
p2287
asbag57
(g78
g59
NtRp2288
(dp2289
g62
(dp2290
g89
g90
ssg71
g2279
sg64
(lp2291
S':'
asbag57
(g78
g59
NtRp2292
(dp2293
g62
(dp2294
sg71
g2279
sg64
(lp2295
g57
(g58
g59
NtRp2296
(dp2297
g62
(dp2298
g70
I4
ssg71
g2292
sg64
(lp2299
g100
asbasbasbag57
(g73
g59
NtRp2300
(dp2301
g62
(dp2302
sg71
g2162
sg64
(lp2303
g57
(g78
g59
NtRp2304
(dp2305
g62
(dp2306
g82
g83
ssg71
g2300
sg64
(lp2307
S'gluon_parent'
p2308
asbag57
(g78
g59
NtRp2309
(dp2310
g62
(dp2311
g89
g90
ssg71
g2300
sg64
(lp2312
S':'
asbag57
(g78
g59
NtRp2313
(dp2314
g62
(dp2315
sg71
g2300
sg64
(lp2316
g57
(g58
g59
NtRp2317
(dp2318
g62
(dp2319
g70
I4
ssg71
g2313
sg64
(lp2320
S'/home/bhanu/web2py'
p2321
asbasbasbag57
(g73
g59
NtRp2322
(dp2323
g62
(dp2324
sg71
g2162
sg64
(lp2325
g57
(g78
g59
NtRp2326
(dp2327
g62
(dp2328
g82
g83
ssg71
g2322
sg64
(lp2329
S'http_accept'
p2330
asbag57
(g78
g59
NtRp2331
(dp2332
g62
(dp2333
g89
g90
ssg71
g2322
sg64
(lp2334
S':'
asbag57
(g78
g59
NtRp2335
(dp2336
g62
(dp2337
sg71
g2322
sg64
(lp2338
g57
(g58
g59
NtRp2339
(dp2340
g62
(dp2341
g70
I4
ssg71
g2335
sg64
(lp2342
S'text/html,application/xhtml+xml,application/xml;q=0.9,*/*;q=0.8'
p2343
asbasbasbag57
(g73
g59
NtRp2344
(dp2345
g62
(dp2346
sg71
g2162
sg64
(lp2347
g57
(g78
g59
NtRp2348
(dp2349
g62
(dp2350
g82
g83
ssg71
g2344
sg64
(lp2351
S'http_accept_encoding'
p2352
asbag57
(g78
g59
NtRp2353
(dp2354
g62
(dp2355
g89
g90
ssg71
g2344
sg64
(lp2356
S':'
asbag57
(g78
g59
NtRp2357
(dp2358
g62
(dp2359
sg71
g2344
sg64
(lp2360
g57
(g58
g59
NtRp2361
(dp2362
g62
(dp2363
g70
I4
ssg71
g2357
sg64
(lp2364
S'gzip, deflate'
p2365
asbasbasbag57
(g73
g59
NtRp2366
(dp2367
g62
(dp2368
sg71
g2162
sg64
(lp2369
g57
(g78
g59
NtRp2370
(dp2371
g62
(dp2372
g82
g83
ssg71
g2366
sg64
(lp2373
S'http_accept_language'
p2374
asbag57
(g78
g59
NtRp2375
(dp2376
g62
(dp2377
g89
g90
ssg71
g2366
sg64
(lp2378
S':'
asbag57
(g78
g59
NtRp2379
(dp2380
g62
(dp2381
sg71
g2366
sg64
(lp2382
g57
(g58
g59
NtRp2383
(dp2384
g62
(dp2385
g70
I4
ssg71
g2379
sg64
(lp2386
S'en-US,en;q=0.5'
p2387
asbasbasbag57
(g73
g59
NtRp2388
(dp2389
g62
(dp2390
sg71
g2162
sg64
(lp2391
g57
(g78
g59
NtRp2392
(dp2393
g62
(dp2394
g82
g83
ssg71
g2388
sg64
(lp2395
S'http_cache_control'
p2396
asbag57
(g78
g59
NtRp2397
(dp2398
g62
(dp2399
g89
g90
ssg71
g2388
sg64
(lp2400
S':'
asbag57
(g78
g59
NtRp2401
(dp2402
g62
(dp2403
sg71
g2388
sg64
(lp2404
g57
(g58
g59
NtRp2405
(dp2406
g62
(dp2407
g70
I4
ssg71
g2401
sg64
(lp2408
S'max-age=0'
p2409
asbasbasbag57
(g73
g59
NtRp2410
(dp2411
g62
(dp2412
sg71
g2162
sg64
(lp2413
g57
(g78
g59
NtRp2414
(dp2415
g62
(dp2416
g82
g83
ssg71
g2410
sg64
(lp2417
S'http_connection'
p2418
asbag57
(g78
g59
NtRp2419
(dp2420
g62
(dp2421
g89
g90
ssg71
g2410
sg64
(lp2422
S':'
asbag57
(g78
g59
NtRp2423
(dp2424
g62
(dp2425
sg71
g2410
sg64
(lp2426
g57
(g58
g59
NtRp2427
(dp2428
g62
(dp2429
g70
I4
ssg71
g2423
sg64
(lp2430
S'keep-alive'
p2431
asbasbasbag57
(g73
g59
NtRp2432
(dp2433
g62
(dp2434
sg71
g2162
sg64
(lp2435
g57
(g78
g59
NtRp2436
(dp2437
g62
(dp2438
g82
g83
ssg71
g2432
sg64
(lp2439
S'http_cookie'
p2440
asbag57
(g78
g59
NtRp2441
(dp2442
g62
(dp2443
g89
g90
ssg71
g2432
sg64
(lp2444
S':'
asbag57
(g78
g59
NtRp2445
(dp2446
g62
(dp2447
sg71
g2432
sg64
(lp2448
g57
(g58
g59
NtRp2449
(dp2450
g62
(dp2451
g70
I4
ssg71
g2445
sg64
(lp2452
S'session_id_welcome=127.0.0.1-592b6acb-f999-4052-bd9c-aa6275100fa2; session_id_admin=127.0.0.1-1fd0bc0a-0f71-47b8-bae1-cf54fc48b199; session_id_sss=127.0.0.1-ba9f9498-77ca-43cf-8cca-4cd1b55c3984; session_id_hostel_r1=127.0.0.1-54f3ce39-7c88-4cec-aad6-6f29b6b5d300; session_id_photo_uploader=127.0.0.1-ea997432-6b22-42de-979f-5769b07f61d4; session_id_hostel=127.0.0.1-126aa5ab-5275-4435-a508-b56e2211e7be; session_id_sssa=127.0.0.1-1be5febc-1e6f-46d8-97db-1f86874b01e7; session_id_sssaa=127.0.0.1-d91bc0a2-d0af-427f-8376-e868798516f0; session_id_sssaaa=127.0.0.1-27d2f703-ebd9-42d0-b416-87310c9ebc09; session_id_sssq=127.0.0.1-885c41bd-04d4-40eb-8c22-0576eb1b06e9'
p2453
asbasbasbag57
(g73
g59
NtRp2454
(dp2455
g62
(dp2456
sg71
g2162
sg64
(lp2457
g57
(g78
g59
NtRp2458
(dp2459
g62
(dp2460
g82
g83
ssg71
g2454
sg64
(lp2461
S'http_host'
p2462
asbag57
(g78
g59
NtRp2463
(dp2464
g62
(dp2465
g89
g90
ssg71
g2454
sg64
(lp2466
S':'
asbag57
(g78
g59
NtRp2467
(dp2468
g62
(dp2469
sg71
g2454
sg64
(lp2470
g57
(g58
g59
NtRp2471
(dp2472
g62
(dp2473
g70
I4
ssg71
g2467
sg64
(lp2474
S'127.0.0.1:8000'
p2475
asbasbasbag57
(g73
g59
NtRp2476
(dp2477
g62
(dp2478
sg71
g2162
sg64
(lp2479
g57
(g78
g59
NtRp2480
(dp2481
g62
(dp2482
g82
g83
ssg71
g2476
sg64
(lp2483
S'http_referer'
p2484
asbag57
(g78
g59
NtRp2485
(dp2486
g62
(dp2487
g89
g90
ssg71
g2476
sg64
(lp2488
S':'
asbag57
(g78
g59
NtRp2489
(dp2490
g62
(dp2491
sg71
g2476
sg64
(lp2492
g57
(g58
g59
NtRp2493
(dp2494
g62
(dp2495
g70
I4
ssg71
g2489
sg64
(lp2496
S'http://127.0.0.1:8000/sss/default/student_out_details'
p2497
asbasbasbag57
(g73
g59
NtRp2498
(dp2499
g62
(dp2500
sg71
g2162
sg64
(lp2501
g57
(g78
g59
NtRp2502
(dp2503
g62
(dp2504
g82
g83
ssg71
g2498
sg64
(lp2505
S'http_user_agent'
p2506
asbag57
(g78
g59
NtRp2507
(dp2508
g62
(dp2509
g89
g90
ssg71
g2498
sg64
(lp2510
S':'
asbag57
(g78
g59
NtRp2511
(dp2512
g62
(dp2513
sg71
g2498
sg64
(lp2514
g57
(g58
g59
NtRp2515
(dp2516
g62
(dp2517
g70
I4
ssg71
g2511
sg64
(lp2518
S'Mozilla/5.0 (X11; Ubuntu; Linux x86_64; rv:16.0) Gecko/20100101 Firefox/16.0'
p2519
asbasbasbag57
(g73
g59
NtRp2520
(dp2521
g62
(dp2522
sg71
g2162
sg64
(lp2523
g57
(g78
g59
NtRp2524
(dp2525
g62
(dp2526
g82
g83
ssg71
g2520
sg64
(lp2527
S'is_jython'
p2528
asbag57
(g78
g59
NtRp2529
(dp2530
g62
(dp2531
g89
g90
ssg71
g2520
sg64
(lp2532
S':'
asbag57
(g78
g59
NtRp2533
(dp2534
g62
(dp2535
sg71
g2520
sg64
(lp2536
g57
(g58
g59
NtRp2537
(dp2538
g62
(dp2539
g70
I4
ssg71
g2533
sg64
(lp2540
g100
asbasbasbag57
(g73
g59
NtRp2541
(dp2542
g62
(dp2543
sg71
g2162
sg64
(lp2544
g57
(g78
g59
NtRp2545
(dp2546
g62
(dp2547
g82
g83
ssg71
g2541
sg64
(lp2548
S'is_pypy'
p2549
asbag57
(g78
g59
NtRp2550
(dp2551
g62
(dp2552
g89
g90
ssg71
g2541
sg64
(lp2553
S':'
asbag57
(g78
g59
NtRp2554
(dp2555
g62
(dp2556
sg71
g2541
sg64
(lp2557
g57
(g58
g59
NtRp2558
(dp2559
g62
(dp2560
g70
I4
ssg71
g2554
sg64
(lp2561
g100
asbasbasbag57
(g73
g59
NtRp2562
(dp2563
g62
(dp2564
sg71
g2162
sg64
(lp2565
g57
(g78
g59
NtRp2566
(dp2567
g62
(dp2568
g82
g83
ssg71
g2562
sg64
(lp2569
S'local_hosts'
p2570
asbag57
(g78
g59
NtRp2571
(dp2572
g62
(dp2573
g89
g90
ssg71
g2562
sg64
(lp2574
S':'
asbag57
(g78
g59
NtRp2575
(dp2576
g62
(dp2577
sg71
g2562
sg64
(lp2578
g57
(g58
g59
NtRp2579
(dp2580
g62
(dp2581
g70
I4
ssg71
g2575
sg64
(lp2582
g57
(g66
g59
NtRp2583
(dp2584
g62
(dp2585
g70
I3
ssg71
Nsg64
(lp2586
g57
(g73
g59
NtRp2587
(dp2588
g62
(dp2589
sg71
g2583
sg64
(lp2590
g57
(g78
g59
NtRp2591
(dp2592
g62
(dp2593
sg71
g2587
sg64
(lp2594
g57
(g58
g59
NtRp2595
(dp2596
g62
(dp2597
g70
I3
ssg71
g2591
sg64
(lp2598
S'127.0.0.1'
p2599
asbasbasbag57
(g73
g59
NtRp2600
(dp2601
g62
(dp2602
sg71
g2583
sg64
(lp2603
g57
(g78
g59
NtRp2604
(dp2605
g62
(dp2606
sg71
g2600
sg64
(lp2607
g57
(g58
g59
NtRp2608
(dp2609
g62
(dp2610
g70
I3
ssg71
g2604
sg64
(lp2611
S'::ffff:127.0.0.1'
p2612
asbasbasbag57
(g73
g59
NtRp2613
(dp2614
g62
(dp2615
sg71
g2583
sg64
(lp2616
g57
(g78
g59
NtRp2617
(dp2618
g62
(dp2619
sg71
g2613
sg64
(lp2620
g57
(g58
g59
NtRp2621
(dp2622
g62
(dp2623
g70
I3
ssg71
g2617
sg64
(lp2624
S'bhanu-Dell-System-XPS-L502X'
p2625
asbasbasbag57
(g73
g59
NtRp2626
(dp2627
g62
(dp2628
sg71
g2583
sg64
(lp2629
g57
(g78
g59
NtRp2630
(dp2631
g62
(dp2632
sg71
g2626
sg64
(lp2633
g57
(g58
g59
NtRp2634
(dp2635
g62
(dp2636
g70
I3
ssg71
g2630
sg64
(lp2637
S'bhanu-Dell-System-XPS-L502X'
p2638
asbasbasbag57
(g73
g59
NtRp2639
(dp2640
g62
(dp2641
sg71
g2583
sg64
(lp2642
g57
(g78
g59
NtRp2643
(dp2644
g62
(dp2645
sg71
g2639
sg64
(lp2646
g57
(g58
g59
NtRp2647
(dp2648
g62
(dp2649
g70
I3
ssg71
g2643
sg64
(lp2650
S'127.0.1.1'
p2651
asbasbasbasbasbasbasbag57
(g73
g59
NtRp2652
(dp2653
g62
(dp2654
sg71
g2162
sg64
(lp2655
g57
(g78
g59
NtRp2656
(dp2657
g62
(dp2658
g82
g83
ssg71
g2652
sg64
(lp2659
S'path_info'
p2660
asbag57
(g78
g59
NtRp2661
(dp2662
g62
(dp2663
g89
g90
ssg71
g2652
sg64
(lp2664
S':'
asbag57
(g78
g59
NtRp2665
(dp2666
g62
(dp2667
sg71
g2652
sg64
(lp2668
g57
(g58
g59
NtRp2669
(dp2670
g62
(dp2671
g70
I4
ssg71
g2665
sg64
(lp2672
S'/sss/default/show_laptop_details/201102082'
p2673
asbasbasbag57
(g73
g59
NtRp2674
(dp2675
g62
(dp2676
sg71
g2162
sg64
(lp2677
g57
(g78
g59
NtRp2678
(dp2679
g62
(dp2680
g82
g83
ssg71
g2674
sg64
(lp2681
S'query_string'
p2682
asbag57
(g78
g59
NtRp2683
(dp2684
g62
(dp2685
g89
g90
ssg71
g2674
sg64
(lp2686
S':'
asbag57
(g78
g59
NtRp2687
(dp2688
g62
(dp2689
sg71
g2674
sg64
(lp2690
g57
(g58
g59
NtRp2691
(dp2692
g62
(dp2693
g70
I4
ssg71
g2687
sg64
(lp2694
S''
asbasbasbag57
(g73
g59
NtRp2695
(dp2696
g62
(dp2697
sg71
g2162
sg64
(lp2698
g57
(g78
g59
NtRp2699
(dp2700
g62
(dp2701
g82
g83
ssg71
g2695
sg64
(lp2702
S'remote_addr'
p2703
asbag57
(g78
g59
NtRp2704
(dp2705
g62
(dp2706
g89
g90
ssg71
g2695
sg64
(lp2707
S':'
asbag57
(g78
g59
NtRp2708
(dp2709
g62
(dp2710
sg71
g2695
sg64
(lp2711
g57
(g58
g59
NtRp2712
(dp2713
g62
(dp2714
g70
I4
ssg71
g2708
sg64
(lp2715
g225
asbasbasbag57
(g73
g59
NtRp2716
(dp2717
g62
(dp2718
sg71
g2162
sg64
(lp2719
g57
(g78
g59
NtRp2720
(dp2721
g62
(dp2722
g82
g83
ssg71
g2716
sg64
(lp2723
S'remote_port'
p2724
asbag57
(g78
g59
NtRp2725
(dp2726
g62
(dp2727
g89
g90
ssg71
g2716
sg64
(lp2728
S':'
asbag57
(g78
g59
NtRp2729
(dp2730
g62
(dp2731
sg71
g2716
sg64
(lp2732
g57
(g58
g59
NtRp2733
(dp2734
g62
(dp2735
g70
I4
ssg71
g2729
sg64
(lp2736
S'51130'
p2737
asbasbasbag57
(g73
g59
NtRp2738
(dp2739
g62
(dp2740
sg71
g2162
sg64
(lp2741
g57
(g78
g59
NtRp2742
(dp2743
g62
(dp2744
g82
g83
ssg71
g2738
sg64
(lp2745
S'request_method'
p2746
asbag57
(g78
g59
NtRp2747
(dp2748
g62
(dp2749
g89
g90
ssg71
g2738
sg64
(lp2750
S':'
asbag57
(g78
g59
NtRp2751
(dp2752
g62
(dp2753
sg71
g2738
sg64
(lp2754
g57
(g58
g59
NtRp2755
(dp2756
g62
(dp2757
g70
I4
ssg71
g2751
sg64
(lp2758
S'GET'
p2759
asbasbasbag57
(g73
g59
NtRp2760
(dp2761
g62
(dp2762
sg71
g2162
sg64
(lp2763
g57
(g78
g59
NtRp2764
(dp2765
g62
(dp2766
g82
g83
ssg71
g2760
sg64
(lp2767
S'request_uri'
p2768
asbag57
(g78
g59
NtRp2769
(dp2770
g62
(dp2771
g89
g90
ssg71
g2760
sg64
(lp2772
S':'
asbag57
(g78
g59
NtRp2773
(dp2774
g62
(dp2775
sg71
g2760
sg64
(lp2776
g57
(g58
g59
NtRp2777
(dp2778
g62
(dp2779
g70
I4
ssg71
g2773
sg64
(lp2780
g2673
asbasbasbag57
(g73
g59
NtRp2781
(dp2782
g62
(dp2783
sg71
g2162
sg64
(lp2784
g57
(g78
g59
NtRp2785
(dp2786
g62
(dp2787
g82
g83
ssg71
g2781
sg64
(lp2788
S'script_name'
p2789
asbag57
(g78
g59
NtRp2790
(dp2791
g62
(dp2792
g89
g90
ssg71
g2781
sg64
(lp2793
S':'
asbag57
(g78
g59
NtRp2794
(dp2795
g62
(dp2796
sg71
g2781
sg64
(lp2797
g57
(g58
g59
NtRp2798
(dp2799
g62
(dp2800
g70
I4
ssg71
g2794
sg64
(lp2801
S''
asbasbasbag57
(g73
g59
NtRp2802
(dp2803
g62
(dp2804
sg71
g2162
sg64
(lp2805
g57
(g78
g59
NtRp2806
(dp2807
g62
(dp2808
g82
g83
ssg71
g2802
sg64
(lp2809
S'server_name'
p2810
asbag57
(g78
g59
NtRp2811
(dp2812
g62
(dp2813
g89
g90
ssg71
g2802
sg64
(lp2814
S':'
asbag57
(g78
g59
NtRp2815
(dp2816
g62
(dp2817
sg71
g2802
sg64
(lp2818
g57
(g58
g59
NtRp2819
(dp2820
g62
(dp2821
g70
I4
ssg71
g2815
sg64
(lp2822
g2638
asbasbasbag57
(g73
g59
NtRp2823
(dp2824
g62
(dp2825
sg71
g2162
sg64
(lp2826
g57
(g78
g59
NtRp2827
(dp2828
g62
(dp2829
g82
g83
ssg71
g2823
sg64
(lp2830
S'server_port'
p2831
asbag57
(g78
g59
NtRp2832
(dp2833
g62
(dp2834
g89
g90
ssg71
g2823
sg64
(lp2835
S':'
asbag57
(g78
g59
NtRp2836
(dp2837
g62
(dp2838
sg71
g2823
sg64
(lp2839
g57
(g58
g59
NtRp2840
(dp2841
g62
(dp2842
g70
I4
ssg71
g2836
sg64
(lp2843
S'8000'
p2844
asbasbasbag57
(g73
g59
NtRp2845
(dp2846
g62
(dp2847
sg71
g2162
sg64
(lp2848
g57
(g78
g59
NtRp2849
(dp2850
g62
(dp2851
g82
g83
ssg71
g2845
sg64
(lp2852
S'server_protocol'
p2853
asbag57
(g78
g59
NtRp2854
(dp2855
g62
(dp2856
g89
g90
ssg71
g2845
sg64
(lp2857
S':'
asbag57
(g78
g59
NtRp2858
(dp2859
g62
(dp2860
sg71
g2845
sg64
(lp2861
g57
(g58
g59
NtRp2862
(dp2863
g62
(dp2864
g70
I4
ssg71
g2858
sg64
(lp2865
S'HTTP/1.1'
p2866
asbasbasbag57
(g73
g59
NtRp2867
(dp2868
g62
(dp2869
sg71
g2162
sg64
(lp2870
g57
(g78
g59
NtRp2871
(dp2872
g62
(dp2873
g82
g83
ssg71
g2867
sg64
(lp2874
S'server_software'
p2875
asbag57
(g78
g59
NtRp2876
(dp2877
g62
(dp2878
g89
g90
ssg71
g2867
sg64
(lp2879
S':'
asbag57
(g78
g59
NtRp2880
(dp2881
g62
(dp2882
sg71
g2867
sg64
(lp2883
g57
(g58
g59
NtRp2884
(dp2885
g62
(dp2886
g70
I4
ssg71
g2880
sg64
(lp2887
S'Rocket 1.2.5'
p2888
asbasbasbag57
(g73
g59
NtRp2889
(dp2890
g62
(dp2891
sg71
g2162
sg64
(lp2892
g57
(g78
g59
NtRp2893
(dp2894
g62
(dp2895
g82
g83
ssg71
g2889
sg64
(lp2896
S'web2py_path'
p2897
asbag57
(g78
g59
NtRp2898
(dp2899
g62
(dp2900
g89
g90
ssg71
g2889
sg64
(lp2901
S':'
asbag57
(g78
g59
NtRp2902
(dp2903
g62
(dp2904
sg71
g2889
sg64
(lp2905
g57
(g58
g59
NtRp2906
(dp2907
g62
(dp2908
g70
I4
ssg71
g2902
sg64
(lp2909
g2209
asbasbasbag57
(g73
g59
NtRp2910
(dp2911
g62
(dp2912
sg71
g2162
sg64
(lp2913
g57
(g78
g59
NtRp2914
(dp2915
g62
(dp2916
g82
g83
ssg71
g2910
sg64
(lp2917
S'web2py_version'
p2918
asbag57
(g78
g59
NtRp2919
(dp2920
g62
(dp2921
g89
g90
ssg71
g2910
sg64
(lp2922
S':'
asbag57
(g78
g59
NtRp2923
(dp2924
g62
(dp2925
sg71
g2910
sg64
(lp2926
g57
(g58
g59
NtRp2927
(dp2928
g62
(dp2929
g70
I4
ssg71
g2923
sg64
(lp2930
g57
(g66
g59
NtRp2931
(dp2932
g62
(dp2933
g70
I3
ssg71
Nsg64
(lp2934
g57
(g73
g59
NtRp2935
(dp2936
g62
(dp2937
sg71
g2931
sg64
(lp2938
g57
(g78
g59
NtRp2939
(dp2940
g62
(dp2941
sg71
g2935
sg64
(lp2942
g57
(g58
g59
NtRp2943
(dp2944
g62
(dp2945
g70
I3
ssg71
g2939
sg64
(lp2946
S'2'
asbasbasbag57
(g73
g59
NtRp2947
(dp2948
g62
(dp2949
sg71
g2931
sg64
(lp2950
g57
(g78
g59
NtRp2951
(dp2952
g62
(dp2953
sg71
g2947
sg64
(lp2954
g57
(g58
g59
NtRp2955
(dp2956
g62
(dp2957
g70
I3
ssg71
g2951
sg64
(lp2958
S'2'
asbasbasbag57
(g73
g59
NtRp2959
(dp2960
g62
(dp2961
sg71
g2931
sg64
(lp2962
g57
(g78
g59
NtRp2963
(dp2964
g62
(dp2965
sg71
g2959
sg64
(lp2966
g57
(g58
g59
NtRp2967
(dp2968
g62
(dp2969
g70
I3
ssg71
g2963
sg64
(lp2970
S'1'
asbasbasbag57
(g73
g59
NtRp2971
(dp2972
g62
(dp2973
sg71
g2931
sg64
(lp2974
g57
(g78
g59
NtRp2975
(dp2976
g62
(dp2977
sg71
g2971
sg64
(lp2978
g57
(g58
g59
NtRp2979
(dp2980
g62
(dp2981
g70
I3
ssg71
g2975
sg64
(lp2982
S'datetime.datetime(2012, 10, 21, 16, 57, 4)'
p2983
asbasbasbag57
(g73
g59
NtRp2984
(dp2985
g62
(dp2986
sg71
g2931
sg64
(lp2987
g57
(g78
g59
NtRp2988
(dp2989
g62
(dp2990
sg71
g2984
sg64
(lp2991
g57
(g58
g59
NtRp2992
(dp2993
g62
(dp2994
g70
I3
ssg71
g2988
sg64
(lp2995
S'stable'
p2996
asbasbasbasbasbasbasbag57
(g73
g59
NtRp2997
(dp2998
g62
(dp2999
sg71
g2162
sg64
(lp3000
g57
(g78
g59
NtRp3001
(dp3002
g62
(dp3003
g82
g83
ssg71
g2997
sg64
(lp3004
S'wsgi_errors'
p3005
asbag57
(g78
g59
NtRp3006
(dp3007
g62
(dp3008
g89
g90
ssg71
g2997
sg64
(lp3009
S':'
asbag57
(g78
g59
NtRp3010
(dp3011
g62
(dp3012
sg71
g2997
sg64
(lp3013
g57
(g58
g59
NtRp3014
(dp3015
g62
(dp3016
g70
I4
ssg71
g3010
sg64
(lp3017
S"<open file '<stderr>', mode 'w' at 0x7f08a4f49270>"
p3018
asbasbasbag57
(g73
g59
NtRp3019
(dp3020
g62
(dp3021
sg71
g2162
sg64
(lp3022
g57
(g78
g59
NtRp3023
(dp3024
g62
(dp3025
g82
g83
ssg71
g3019
sg64
(lp3026
S'wsgi_file_wrapper'
p3027
asbag57
(g78
g59
NtRp3028
(dp3029
g62
(dp3030
g89
g90
ssg71
g3019
sg64
(lp3031
S':'
asbag57
(g78
g59
NtRp3032
(dp3033
g62
(dp3034
sg71
g3019
sg64
(lp3035
g57
(g58
g59
NtRp3036
(dp3037
g62
(dp3038
g70
I4
ssg71
g3032
sg64
(lp3039
S'<class wsgiref.util.FileWrapper at 0x20e1d50>'
p3040
asbasbasbag57
(g73
g59
NtRp3041
(dp3042
g62
(dp3043
sg71
g2162
sg64
(lp3044
g57
(g78
g59
NtRp3045
(dp3046
g62
(dp3047
g82
g83
ssg71
g3041
sg64
(lp3048
S'wsgi_input'
p3049
asbag57
(g78
g59
NtRp3050
(dp3051
g62
(dp3052
g89
g90
ssg71
g3041
sg64
(lp3053
S':'
asbag57
(g78
g59
NtRp3054
(dp3055
g62
(dp3056
sg71
g3041
sg64
(lp3057
g57
(g58
g59
NtRp3058
(dp3059
g62
(dp3060
g70
I4
ssg71
g3054
sg64
(lp3061
S'<socket._fileobject object at 0x7f088cfe0350>'
p3062
asbasbasbag57
(g73
g59
NtRp3063
(dp3064
g62
(dp3065
sg71
g2162
sg64
(lp3066
g57
(g78
g59
NtRp3067
(dp3068
g62
(dp3069
g82
g83
ssg71
g3063
sg64
(lp3070
S'wsgi_multiprocess'
p3071
asbag57
(g78
g59
NtRp3072
(dp3073
g62
(dp3074
g89
g90
ssg71
g3063
sg64
(lp3075
S':'
asbag57
(g78
g59
NtRp3076
(dp3077
g62
(dp3078
sg71
g3063
sg64
(lp3079
g57
(g58
g59
NtRp3080
(dp3081
g62
(dp3082
g70
I4
ssg71
g3076
sg64
(lp3083
g100
asbasbasbag57
(g73
g59
NtRp3084
(dp3085
g62
(dp3086
sg71
g2162
sg64
(lp3087
g57
(g78
g59
NtRp3088
(dp3089
g62
(dp3090
g82
g83
ssg71
g3084
sg64
(lp3091
S'wsgi_multithread'
p3092
asbag57
(g78
g59
NtRp3093
(dp3094
g62
(dp3095
g89
g90
ssg71
g3084
sg64
(lp3096
S':'
asbag57
(g78
g59
NtRp3097
(dp3098
g62
(dp3099
sg71
g3084
sg64
(lp3100
g57
(g58
g59
NtRp3101
(dp3102
g62
(dp3103
g70
I4
ssg71
g3097
sg64
(lp3104
S'True'
p3105
asbasbasbag57
(g73
g59
NtRp3106
(dp3107
g62
(dp3108
sg71
g2162
sg64
(lp3109
g57
(g78
g59
NtRp3110
(dp3111
g62
(dp3112
g82
g83
ssg71
g3106
sg64
(lp3113
S'wsgi_run_once'
p3114
asbag57
(g78
g59
NtRp3115
(dp3116
g62
(dp3117
g89
g90
ssg71
g3106
sg64
(lp3118
S':'
asbag57
(g78
g59
NtRp3119
(dp3120
g62
(dp3121
sg71
g3106
sg64
(lp3122
g57
(g58
g59
NtRp3123
(dp3124
g62
(dp3125
g70
I4
ssg71
g3119
sg64
(lp3126
g100
asbasbasbag57
(g73
g59
NtRp3127
(dp3128
g62
(dp3129
sg71
g2162
sg64
(lp3130
g57
(g78
g59
NtRp3131
(dp3132
g62
(dp3133
g82
g83
ssg71
g3127
sg64
(lp3134
S'wsgi_url_scheme'
p3135
asbag57
(g78
g59
NtRp3136
(dp3137
g62
(dp3138
g89
g90
ssg71
g3127
sg64
(lp3139
S':'
asbag57
(g78
g59
NtRp3140
(dp3141
g62
(dp3142
sg71
g3127
sg64
(lp3143
g57
(g58
g59
NtRp3144
(dp3145
g62
(dp3146
g70
I4
ssg71
g3140
sg64
(lp3147
S'http'
p3148
asbasbasbag57
(g73
g59
NtRp3149
(dp3150
g62
(dp3151
sg71
g2162
sg64
(lp3152
g57
(g78
g59
NtRp3153
(dp3154
g62
(dp3155
g82
g83
ssg71
g3149
sg64
(lp3156
S'wsgi_version'
p3157
asbag57
(g78
g59
NtRp3158
(dp3159
g62
(dp3160
g89
g90
ssg71
g3149
sg64
(lp3161
S':'
asbag57
(g78
g59
NtRp3162
(dp3163
g62
(dp3164
sg71
g3149
sg64
(lp3165
g57
(g58
g59
NtRp3166
(dp3167
g62
(dp3168
g70
I4
ssg71
g3162
sg64
(lp3169
g57
(g66
g59
NtRp3170
(dp3171
g62
(dp3172
g70
I3
ssg71
Nsg64
(lp3173
g57
(g73
g59
NtRp3174
(dp3175
g62
(dp3176
sg71
g3170
sg64
(lp3177
g57
(g78
g59
NtRp3178
(dp3179
g62
(dp3180
sg71
g3174
sg64
(lp3181
g57
(g58
g59
NtRp3182
(dp3183
g62
(dp3184
g70
I3
ssg71
g3178
sg64
(lp3185
S'1'
asbasbasbag57
(g73
g59
NtRp3186
(dp3187
g62
(dp3188
sg71
g3170
sg64
(lp3189
g57
(g78
g59
NtRp3190
(dp3191
g62
(dp3192
sg71
g3186
sg64
(lp3193
g57
(g58
g59
NtRp3194
(dp3195
g62
(dp3196
g70
I3
ssg71
g3190
sg64
(lp3197
S'0'
asbasbasbasbasbasbasbasbasbasbasbag57
(g73
g59
NtRp3198
(dp3199
g62
(dp3200
sg71
g67
sg64
(lp3201
g57
(g78
g59
NtRp3202
(dp3203
g62
(dp3204
g82
g83
ssg71
g3198
sg64
(lp3205
S'extension'
p3206
asbag57
(g78
g59
NtRp3207
(dp3208
g62
(dp3209
g89
g90
ssg71
g3198
sg64
(lp3210
S':'
asbag57
(g78
g59
NtRp3211
(dp3212
g62
(dp3213
sg71
g3198
sg64
(lp3214
g57
(g58
g59
NtRp3215
(dp3216
g62
(dp3217
g70
I5
ssg71
g3211
sg64
(lp3218
S'html'
p3219
asbasbasbag57
(g73
g59
NtRp3220
(dp3221
g62
(dp3222
sg71
g67
sg64
(lp3223
g57
(g78
g59
NtRp3224
(dp3225
g62
(dp3226
g82
g83
ssg71
g3220
sg64
(lp3227
S'folder'
p3228
asbag57
(g78
g59
NtRp3229
(dp3230
g62
(dp3231
g89
g90
ssg71
g3220
sg64
(lp3232
S':'
asbag57
(g78
g59
NtRp3233
(dp3234
g62
(dp3235
sg71
g3220
sg64
(lp3236
g57
(g58
g59
NtRp3237
(dp3238
g62
(dp3239
g70
I5
ssg71
g3233
sg64
(lp3240
S'/home/bhanu/web2py/applications/sss/'
p3241
asbasbasbag57
(g73
g59
NtRp3242
(dp3243
g62
(dp3244
sg71
g67
sg64
(lp3245
g57
(g78
g59
NtRp3246
(dp3247
g62
(dp3248
g82
g83
ssg71
g3242
sg64
(lp3249
S'function'
p3250
asbag57
(g78
g59
NtRp3251
(dp3252
g62
(dp3253
g89
g90
ssg71
g3242
sg64
(lp3254
S':'
asbag57
(g78
g59
NtRp3255
(dp3256
g62
(dp3257
sg71
g3242
sg64
(lp3258
g57
(g58
g59
NtRp3259
(dp3260
g62
(dp3261
g70
I5
ssg71
g3255
sg64
(lp3262
S'show_laptop_details'
p3263
asbasbasbag57
(g73
g59
NtRp3264
(dp3265
g62
(dp3266
sg71
g67
sg64
(lp3267
g57
(g78
g59
NtRp3268
(dp3269
g62
(dp3270
g82
g83
ssg71
g3264
sg64
(lp3271
S'get_vars'
p3272
asbag57
(g78
g59
NtRp3273
(dp3274
g62
(dp3275
g89
g90
ssg71
g3264
sg64
(lp3276
S':'
asbag57
(g78
g59
NtRp3277
(dp3278
g62
(dp3279
sg71
g3264
sg64
(lp3280
g57
(g58
g59
NtRp3281
(dp3282
g62
(dp3283
g70
I5
ssg71
g3277
sg64
(lp3284
g57
(g66
g59
NtRp3285
(dp3286
g62
(dp3287
g70
I4
ssg71
Nsg64
(lp3288
sbasbasbasbag57
(g73
g59
NtRp3289
(dp3290
g62
(dp3291
sg71
g67
sg64
(lp3292
g57
(g78
g59
NtRp3293
(dp3294
g62
(dp3295
g82
g83
ssg71
g3289
sg64
(lp3296
S'global_settings'
p3297
asbag57
(g78
g59
NtRp3298
(dp3299
g62
(dp3300
g89
g90
ssg71
g3289
sg64
(lp3301
S':'
asbag57
(g78
g59
NtRp3302
(dp3303
g62
(dp3304
sg71
g3289
sg64
(lp3305
g57
(g58
g59
NtRp3306
(dp3307
g62
(dp3308
g70
I5
ssg71
g3302
sg64
(lp3309
g57
(g66
g59
NtRp3310
(dp3311
g62
(dp3312
g70
I4
ssg71
Nsg64
(lp3313
g57
(g73
g59
NtRp3314
(dp3315
g62
(dp3316
sg71
g3310
sg64
(lp3317
g57
(g78
g59
NtRp3318
(dp3319
g62
(dp3320
g82
g83
ssg71
g3314
sg64
(lp3321
g2174
asbag57
(g78
g59
NtRp3322
(dp3323
g62
(dp3324
g89
g90
ssg71
g3314
sg64
(lp3325
S':'
asbag57
(g78
g59
NtRp3326
(dp3327
g62
(dp3328
sg71
g3314
sg64
(lp3329
g57
(g58
g59
NtRp3330
(dp3331
g62
(dp3332
g70
I4
ssg71
g3326
sg64
(lp3333
S"set(['/home/bhanu/web2py/applications/sssa/', '/home/bhanu/web2py/applications/photo_uploader/', '/home/bhanu/web2py/applications/sssaaa/', '/home/bhanu/web2py/applications/admin/', '/home/bhanu/web2py/applications/sssaa/', '/home/bhanu/web2py/applications/sss/', '/home/bhanu/web2py/applications/sssq/', '/home/bhanu/web2py/applications/hostel_r1/', '/home/bhanu/web2py/applications/hostel/'])"
p3334
asbasbasbag57
(g73
g59
NtRp3335
(dp3336
g62
(dp3337
sg71
g3310
sg64
(lp3338
g57
(g78
g59
NtRp3339
(dp3340
g62
(dp3341
g82
g83
ssg71
g3335
sg64
(lp3342
g2196
asbag57
(g78
g59
NtRp3343
(dp3344
g62
(dp3345
g89
g90
ssg71
g3335
sg64
(lp3346
S':'
asbag57
(g78
g59
NtRp3347
(dp3348
g62
(dp3349
sg71
g3335
sg64
(lp3350
g57
(g58
g59
NtRp3351
(dp3352
g62
(dp3353
g70
I4
ssg71
g3347
sg64
(lp3354
g2209
asbasbasbag57
(g73
g59
NtRp3355
(dp3356
g62
(dp3357
sg71
g3310
sg64
(lp3358
g57
(g78
g59
NtRp3359
(dp3360
g62
(dp3361
g82
g83
ssg71
g3355
sg64
(lp3362
g2218
asbag57
(g78
g59
NtRp3363
(dp3364
g62
(dp3365
g89
g90
ssg71
g3355
sg64
(lp3366
S':'
asbag57
(g78
g59
NtRp3367
(dp3368
g62
(dp3369
sg71
g3355
sg64
(lp3370
g57
(g58
g59
NtRp3371
(dp3372
g62
(dp3373
g70
I4
ssg71
g3367
sg64
(lp3374
g57
(g66
g59
NtRp3375
(dp3376
g62
(dp3377
g70
I3
ssg71
Nsg64
(lp3378
sbasbasbasbag57
(g73
g59
NtRp3379
(dp3380
g62
(dp3381
sg71
g3310
sg64
(lp3382
g57
(g78
g59
NtRp3383
(dp3384
g62
(dp3385
g82
g83
ssg71
g3379
sg64
(lp3386
g2243
asbag57
(g78
g59
NtRp3387
(dp3388
g62
(dp3389
g89
g90
ssg71
g3379
sg64
(lp3390
S':'
asbag57
(g78
g59
NtRp3391
(dp3392
g62
(dp3393
sg71
g3379
sg64
(lp3394
g57
(g58
g59
NtRp3395
(dp3396
g62
(dp3397
g70
I4
ssg71
g3391
sg64
(lp3398
S"<Values at 0x21acf80: {'verbose': False, 'ip': '127.0.0.1', 'with_scheduler': False, 'ips': ['127.0.1.1'], 'shutdown_timeout': 5, 'taskbar': False, 'port': 8000, 'maxthreads': None, 'softcron': False, 'server_name': 'bhanu-Dell-System-XPS-L502X', 'bpython': False, 'nogui': False, 'pid_filename': 'httpserver.pid', 'extcron': False, 'runcron': False, 'run_system_tests': False, 'test': None, 'folder': '/home/bhanu/web2py', 'config': '', 'minthreads': None, 'winservice': '', 'shell': None, 'run': '', 'log_filename': 'httpserver.log', 'debuglevel': 30, 'args': [''], 'socket_timeout': 5, 'ssl_ca_certificate': None, 'scheduler': None, 'profiler_filename': None, 'ssl_private_key': '', 'scheduler_groups': None, 'password': '1', 'request_queue_size': 5, 'ssl_certificate': '', 'cronjob': False, 'numthreads': None, 'quiet': False, 'interfaces': None, 'import_models': False, 'timeout': 10, 'plain': False, 'nobanner': False}>"
p3399
asbasbasbag57
(g73
g59
NtRp3400
(dp3401
g62
(dp3402
sg71
g3310
sg64
(lp3403
g57
(g78
g59
NtRp3404
(dp3405
g62
(dp3406
g82
g83
ssg71
g3400
sg64
(lp3407
g2265
asbag57
(g78
g59
NtRp3408
(dp3409
g62
(dp3410
g89
g90
ssg71
g3400
sg64
(lp3411
S':'
asbag57
(g78
g59
NtRp3412
(dp3413
g62
(dp3414
sg71
g3400
sg64
(lp3415
g57
(g58
g59
NtRp3416
(dp3417
g62
(dp3418
g70
I4
ssg71
g3412
sg64
(lp3419
S'set([])'
p3420
asbasbasbag57
(g73
g59
NtRp3421
(dp3422
g62
(dp3423
sg71
g3310
sg64
(lp3424
g57
(g78
g59
NtRp3425
(dp3426
g62
(dp3427
g82
g83
ssg71
g3421
sg64
(lp3428
g2287
asbag57
(g78
g59
NtRp3429
(dp3430
g62
(dp3431
g89
g90
ssg71
g3421
sg64
(lp3432
S':'
asbag57
(g78
g59
NtRp3433
(dp3434
g62
(dp3435
sg71
g3421
sg64
(lp3436
g57
(g58
g59
NtRp3437
(dp3438
g62
(dp3439
g70
I4
ssg71
g3433
sg64
(lp3440
g100
asbasbasbag57
(g73
g59
NtRp3441
(dp3442
g62
(dp3443
sg71
g3310
sg64
(lp3444
g57
(g78
g59
NtRp3445
(dp3446
g62
(dp3447
g82
g83
ssg71
g3441
sg64
(lp3448
g2308
asbag57
(g78
g59
NtRp3449
(dp3450
g62
(dp3451
g89
g90
ssg71
g3441
sg64
(lp3452
S':'
asbag57
(g78
g59
NtRp3453
(dp3454
g62
(dp3455
sg71
g3441
sg64
(lp3456
g57
(g58
g59
NtRp3457
(dp3458
g62
(dp3459
g70
I4
ssg71
g3453
sg64
(lp3460
g2321
asbasbasbag57
(g73
g59
NtRp3461
(dp3462
g62
(dp3463
sg71
g3310
sg64
(lp3464
g57
(g78
g59
NtRp3465
(dp3466
g62
(dp3467
g82
g83
ssg71
g3461
sg64
(lp3468
g2528
asbag57
(g78
g59
NtRp3469
(dp3470
g62
(dp3471
g89
g90
ssg71
g3461
sg64
(lp3472
S':'
asbag57
(g78
g59
NtRp3473
(dp3474
g62
(dp3475
sg71
g3461
sg64
(lp3476
g57
(g58
g59
NtRp3477
(dp3478
g62
(dp3479
g70
I4
ssg71
g3473
sg64
(lp3480
g100
asbasbasbag57
(g73
g59
NtRp3481
(dp3482
g62
(dp3483
sg71
g3310
sg64
(lp3484
g57
(g78
g59
NtRp3485
(dp3486
g62
(dp3487
g82
g83
ssg71
g3481
sg64
(lp3488
g2549
asbag57
(g78
g59
NtRp3489
(dp3490
g62
(dp3491
g89
g90
ssg71
g3481
sg64
(lp3492
S':'
asbag57
(g78
g59
NtRp3493
(dp3494
g62
(dp3495
sg71
g3481
sg64
(lp3496
g57
(g58
g59
NtRp3497
(dp3498
g62
(dp3499
g70
I4
ssg71
g3493
sg64
(lp3500
g100
asbasbasbag57
(g73
g59
NtRp3501
(dp3502
g62
(dp3503
sg71
g3310
sg64
(lp3504
g57
(g78
g59
NtRp3505
(dp3506
g62
(dp3507
g82
g83
ssg71
g3501
sg64
(lp3508
g2570
asbag57
(g78
g59
NtRp3509
(dp3510
g62
(dp3511
g89
g90
ssg71
g3501
sg64
(lp3512
S':'
asbag57
(g78
g59
NtRp3513
(dp3514
g62
(dp3515
sg71
g3501
sg64
(lp3516
g57
(g58
g59
NtRp3517
(dp3518
g62
(dp3519
g70
I4
ssg71
g3513
sg64
(lp3520
g57
(g66
g59
NtRp3521
(dp3522
g62
(dp3523
g70
I3
ssg71
Nsg64
(lp3524
g57
(g73
g59
NtRp3525
(dp3526
g62
(dp3527
sg71
g3521
sg64
(lp3528
g57
(g78
g59
NtRp3529
(dp3530
g62
(dp3531
sg71
g3525
sg64
(lp3532
g57
(g58
g59
NtRp3533
(dp3534
g62
(dp3535
g70
I3
ssg71
g3529
sg64
(lp3536
g2599
asbasbasbag57
(g73
g59
NtRp3537
(dp3538
g62
(dp3539
sg71
g3521
sg64
(lp3540
g57
(g78
g59
NtRp3541
(dp3542
g62
(dp3543
sg71
g3537
sg64
(lp3544
g57
(g58
g59
NtRp3545
(dp3546
g62
(dp3547
g70
I3
ssg71
g3541
sg64
(lp3548
g2612
asbasbasbag57
(g73
g59
NtRp3549
(dp3550
g62
(dp3551
sg71
g3521
sg64
(lp3552
g57
(g78
g59
NtRp3553
(dp3554
g62
(dp3555
sg71
g3549
sg64
(lp3556
g57
(g58
g59
NtRp3557
(dp3558
g62
(dp3559
g70
I3
ssg71
g3553
sg64
(lp3560
g2625
asbasbasbag57
(g73
g59
NtRp3561
(dp3562
g62
(dp3563
sg71
g3521
sg64
(lp3564
g57
(g78
g59
NtRp3565
(dp3566
g62
(dp3567
sg71
g3561
sg64
(lp3568
g57
(g58
g59
NtRp3569
(dp3570
g62
(dp3571
g70
I3
ssg71
g3565
sg64
(lp3572
g2638
asbasbasbag57
(g73
g59
NtRp3573
(dp3574
g62
(dp3575
sg71
g3521
sg64
(lp3576
g57
(g78
g59
NtRp3577
(dp3578
g62
(dp3579
sg71
g3573
sg64
(lp3580
g57
(g58
g59
NtRp3581
(dp3582
g62
(dp3583
g70
I3
ssg71
g3577
sg64
(lp3584
g2651
asbasbasbasbasbasbasbag57
(g73
g59
NtRp3585
(dp3586
g62
(dp3587
sg71
g3310
sg64
(lp3588
g57
(g78
g59
NtRp3589
(dp3590
g62
(dp3591
g82
g83
ssg71
g3585
sg64
(lp3592
g2918
asbag57
(g78
g59
NtRp3593
(dp3594
g62
(dp3595
g89
g90
ssg71
g3585
sg64
(lp3596
S':'
asbag57
(g78
g59
NtRp3597
(dp3598
g62
(dp3599
sg71
g3585
sg64
(lp3600
g57
(g58
g59
NtRp3601
(dp3602
g62
(dp3603
g70
I4
ssg71
g3597
sg64
(lp3604
g57
(g66
g59
NtRp3605
(dp3606
g62
(dp3607
g70
I3
ssg71
Nsg64
(lp3608
g57
(g73
g59
NtRp3609
(dp3610
g62
(dp3611
sg71
g3605
sg64
(lp3612
g57
(g78
g59
NtRp3613
(dp3614
g62
(dp3615
sg71
g3609
sg64
(lp3616
g57
(g58
g59
NtRp3617
(dp3618
g62
(dp3619
g70
I3
ssg71
g3613
sg64
(lp3620
S'2'
asbasbasbag57
(g73
g59
NtRp3621
(dp3622
g62
(dp3623
sg71
g3605
sg64
(lp3624
g57
(g78
g59
NtRp3625
(dp3626
g62
(dp3627
sg71
g3621
sg64
(lp3628
g57
(g58
g59
NtRp3629
(dp3630
g62
(dp3631
g70
I3
ssg71
g3625
sg64
(lp3632
S'2'
asbasbasbag57
(g73
g59
NtRp3633
(dp3634
g62
(dp3635
sg71
g3605
sg64
(lp3636
g57
(g78
g59
NtRp3637
(dp3638
g62
(dp3639
sg71
g3633
sg64
(lp3640
g57
(g58
g59
NtRp3641
(dp3642
g62
(dp3643
g70
I3
ssg71
g3637
sg64
(lp3644
S'1'
asbasbasbag57
(g73
g59
NtRp3645
(dp3646
g62
(dp3647
sg71
g3605
sg64
(lp3648
g57
(g78
g59
NtRp3649
(dp3650
g62
(dp3651
sg71
g3645
sg64
(lp3652
g57
(g58
g59
NtRp3653
(dp3654
g62
(dp3655
g70
I3
ssg71
g3649
sg64
(lp3656
S'datetime.datetime(2012, 10, 21, 16, 57, 4)'
p3657
asbasbasbag57
(g73
g59
NtRp3658
(dp3659
g62
(dp3660
sg71
g3605
sg64
(lp3661
g57
(g78
g59
NtRp3662
(dp3663
g62
(dp3664
sg71
g3658
sg64
(lp3665
g57
(g58
g59
NtRp3666
(dp3667
g62
(dp3668
g70
I3
ssg71
g3662
sg64
(lp3669
g2996
asbasbasbasbasbasbasbasbasbasbasbag57
(g73
g59
NtRp3670
(dp3671
g62
(dp3672
sg71
g67
sg64
(lp3673
g57
(g78
g59
NtRp3674
(dp3675
g62
(dp3676
g82
g83
ssg71
g3670
sg64
(lp3677
S'is_https'
p3678
asbag57
(g78
g59
NtRp3679
(dp3680
g62
(dp3681
g89
g90
ssg71
g3670
sg64
(lp3682
S':'
asbag57
(g78
g59
NtRp3683
(dp3684
g62
(dp3685
sg71
g3670
sg64
(lp3686
g57
(g58
g59
NtRp3687
(dp3688
g62
(dp3689
g70
I5
ssg71
g3683
sg64
(lp3690
g100
asbasbasbag57
(g73
g59
NtRp3691
(dp3692
g62
(dp3693
sg71
g67
sg64
(lp3694
g57
(g78
g59
NtRp3695
(dp3696
g62
(dp3697
g82
g83
ssg71
g3691
sg64
(lp3698
S'is_local'
p3699
asbag57
(g78
g59
NtRp3700
(dp3701
g62
(dp3702
g89
g90
ssg71
g3691
sg64
(lp3703
S':'
asbag57
(g78
g59
NtRp3704
(dp3705
g62
(dp3706
sg71
g3691
sg64
(lp3707
g57
(g58
g59
NtRp3708
(dp3709
g62
(dp3710
g70
I5
ssg71
g3704
sg64
(lp3711
g3105
asbasbasbag57
(g73
g59
NtRp3712
(dp3713
g62
(dp3714
sg71
g67
sg64
(lp3715
g57
(g78
g59
NtRp3716
(dp3717
g62
(dp3718
g82
g83
ssg71
g3712
sg64
(lp3719
S'is_restful'
p3720
asbag57
(g78
g59
NtRp3721
(dp3722
g62
(dp3723
g89
g90
ssg71
g3712
sg64
(lp3724
S':'
asbag57
(g78
g59
NtRp3725
(dp3726
g62
(dp3727
sg71
g3712
sg64
(lp3728
g57
(g58
g59
NtRp3729
(dp3730
g62
(dp3731
g70
I5
ssg71
g3725
sg64
(lp3732
g100
asbasbasbag57
(g73
g59
NtRp3733
(dp3734
g62
(dp3735
sg71
g67
sg64
(lp3736
g57
(g78
g59
NtRp3737
(dp3738
g62
(dp3739
g82
g83
ssg71
g3733
sg64
(lp3740
S'now'
p3741
asbag57
(g78
g59
NtRp3742
(dp3743
g62
(dp3744
g89
g90
ssg71
g3733
sg64
(lp3745
S':'
asbag57
(g78
g59
NtRp3746
(dp3747
g62
(dp3748
sg71
g3733
sg64
(lp3749
g57
(g58
g59
NtRp3750
(dp3751
g62
(dp3752
g70
I5
ssg71
g3746
sg64
(lp3753
S'datetime.datetime(2012, 11, 15, 4, 49, 15, 687984)'
p3754
asbasbasbag57
(g73
g59
NtRp3755
(dp3756
g62
(dp3757
sg71
g67
sg64
(lp3758
g57
(g78
g59
NtRp3759
(dp3760
g62
(dp3761
g82
g83
ssg71
g3755
sg64
(lp3762
S'post_vars'
p3763
asbag57
(g78
g59
NtRp3764
(dp3765
g62
(dp3766
g89
g90
ssg71
g3755
sg64
(lp3767
S':'
asbag57
(g78
g59
NtRp3768
(dp3769
g62
(dp3770
sg71
g3755
sg64
(lp3771
g57
(g58
g59
NtRp3772
(dp3773
g62
(dp3774
g70
I5
ssg71
g3768
sg64
(lp3775
g57
(g66
g59
NtRp3776
(dp3777
g62
(dp3778
g70
I4
ssg71
Nsg64
(lp3779
sbasbasbasbag57
(g73
g59
NtRp3780
(dp3781
g62
(dp3782
sg71
g67
sg64
(lp3783
g57
(g78
g59
NtRp3784
(dp3785
g62
(dp3786
g82
g83
ssg71
g3780
sg64
(lp3787
S'raw_args'
p3788
asbag57
(g78
g59
NtRp3789
(dp3790
g62
(dp3791
g89
g90
ssg71
g3780
sg64
(lp3792
S':'
asbag57
(g78
g59
NtRp3793
(dp3794
g62
(dp3795
sg71
g3780
sg64
(lp3796
g57
(g58
g59
NtRp3797
(dp3798
g62
(dp3799
g70
I5
ssg71
g3793
sg64
(lp3800
S'/201102082'
p3801
asbasbasbag57
(g73
g59
NtRp3802
(dp3803
g62
(dp3804
sg71
g67
sg64
(lp3805
g57
(g78
g59
NtRp3806
(dp3807
g62
(dp3808
g82
g83
ssg71
g3802
sg64
(lp3809
S'raw_extension'
p3810
asbag57
(g78
g59
NtRp3811
(dp3812
g62
(dp3813
g89
g90
ssg71
g3802
sg64
(lp3814
S':'
asbag57
(g78
g59
NtRp3815
(dp3816
g62
(dp3817
sg71
g3802
sg64
(lp3818
g57
(g58
g59
NtRp3819
(dp3820
g62
(dp3821
g70
I5
ssg71
g3815
sg64
(lp3822
S'None'
p3823
asbasbasbag57
(g73
g59
NtRp3824
(dp3825
g62
(dp3826
sg71
g67
sg64
(lp3827
g57
(g78
g59
NtRp3828
(dp3829
g62
(dp3830
g82
g83
ssg71
g3824
sg64
(lp3831
S'url'
p3832
asbag57
(g78
g59
NtRp3833
(dp3834
g62
(dp3835
g89
g90
ssg71
g3824
sg64
(lp3836
S':'
asbag57
(g78
g59
NtRp3837
(dp3838
g62
(dp3839
sg71
g3824
sg64
(lp3840
g57
(g58
g59
NtRp3841
(dp3842
g62
(dp3843
g70
I5
ssg71
g3837
sg64
(lp3844
g2673
asbasbasbag57
(g73
g59
NtRp3845
(dp3846
g62
(dp3847
sg71
g67
sg64
(lp3848
g57
(g78
g59
NtRp3849
(dp3850
g62
(dp3851
g82
g83
ssg71
g3845
sg64
(lp3852
S'utcnow'
p3853
asbag57
(g78
g59
NtRp3854
(dp3855
g62
(dp3856
g89
g90
ssg71
g3845
sg64
(lp3857
S':'
asbag57
(g78
g59
NtRp3858
(dp3859
g62
(dp3860
sg71
g3845
sg64
(lp3861
g57
(g58
g59
NtRp3862
(dp3863
g62
(dp3864
g70
I5
ssg71
g3858
sg64
(lp3865
S'datetime.datetime(2012, 11, 14, 23, 19, 15, 688052)'
p3866
asbasbasbag57
(g73
g59
NtRp3867
(dp3868
g62
(dp3869
sg71
g67
sg64
(lp3870
g57
(g78
g59
NtRp3871
(dp3872
g62
(dp3873
g82
g83
ssg71
g3867
sg64
(lp3874
S'uuid'
p3875
asbag57
(g78
g59
NtRp3876
(dp3877
g62
(dp3878
g89
g90
ssg71
g3867
sg64
(lp3879
S':'
asbag57
(g78
g59
NtRp3880
(dp3881
g62
(dp3882
sg71
g3867
sg64
(lp3883
g57
(g58
g59
NtRp3884
(dp3885
g62
(dp3886
g70
I5
ssg71
g3880
sg64
(lp3887
S'sss/127.0.0.1.2012-11-15.04-49-15.dd88dfcc-2c01-4a25-91c7-865045b2cb9d'
p3888
asbasbasbag57
(g73
g59
NtRp3889
(dp3890
g62
(dp3891
sg71
g67
sg64
(lp3892
g57
(g78
g59
NtRp3893
(dp3894
g62
(dp3895
g82
g83
ssg71
g3889
sg64
(lp3896
S'vars'
p3897
asbag57
(g78
g59
NtRp3898
(dp3899
g62
(dp3900
g89
g90
ssg71
g3889
sg64
(lp3901
S':'
asbag57
(g78
g59
NtRp3902
(dp3903
g62
(dp3904
sg71
g3889
sg64
(lp3905
g57
(g58
g59
NtRp3906
(dp3907
g62
(dp3908
g70
I5
ssg71
g3902
sg64
(lp3909
g57
(g66
g59
NtRp3910
(dp3911
g62
(dp3912
g70
I4
ssg71
Nsg64
(lp3913
sbasbasbasbag57
(g73
g59
NtRp3914
(dp3915
g62
(dp3916
sg71
g67
sg64
(lp3917
g57
(g78
g59
NtRp3918
(dp3919
g62
(dp3920
g82
g83
ssg71
g3914
sg64
(lp3921
S'wsgi'
p3922
asbag57
(g78
g59
NtRp3923
(dp3924
g62
(dp3925
g89
g90
ssg71
g3914
sg64
(lp3926
S':'
asbag57
(g78
g59
NtRp3927
(dp3928
g62
(dp3929
sg71
g3914
sg64
(lp3930
g57
(g58
g59
NtRp3931
(dp3932
g62
(dp3933
g70
I5
ssg71
g3927
sg64
(lp3934
g57
(g66
g59
NtRp3935
(dp3936
g62
(dp3937
g70
I4
ssg71
Nsg64
(lp3938
g57
(g73
g59
NtRp3939
(dp3940
g62
(dp3941
sg71
g3935
sg64
(lp3942
g57
(g78
g59
NtRp3943
(dp3944
g62
(dp3945
g82
g83
ssg71
g3939
sg64
(lp3946
S'environ'
p3947
asbag57
(g78
g59
NtRp3948
(dp3949
g62
(dp3950
g89
g90
ssg71
g3939
sg64
(lp3951
S':'
asbag57
(g78
g59
NtRp3952
(dp3953
g62
(dp3954
sg71
g3939
sg64
(lp3955
g57
(g58
g59
NtRp3956
(dp3957
g62
(dp3958
g70
I4
ssg71
g3952
sg64
(lp3959
g57
(g66
g59
NtRp3960
(dp3961
g62
(dp3962
g70
I3
ssg71
Nsg64
(lp3963
g57
(g73
g59
NtRp3964
(dp3965
g62
(dp3966
sg71
g3960
sg64
(lp3967
g57
(g78
g59
NtRp3968
(dp3969
g62
(dp3970
g82
g83
ssg71
g3964
sg64
(lp3971
S'HTTP_ACCEPT'
p3972
asbag57
(g78
g59
NtRp3973
(dp3974
g62
(dp3975
g89
g90
ssg71
g3964
sg64
(lp3976
S':'
asbag57
(g78
g59
NtRp3977
(dp3978
g62
(dp3979
sg71
g3964
sg64
(lp3980
g57
(g58
g59
NtRp3981
(dp3982
g62
(dp3983
g70
I3
ssg71
g3977
sg64
(lp3984
g2343
asbasbasbag57
(g73
g59
NtRp3985
(dp3986
g62
(dp3987
sg71
g3960
sg64
(lp3988
g57
(g78
g59
NtRp3989
(dp3990
g62
(dp3991
g82
g83
ssg71
g3985
sg64
(lp3992
S'HTTP_ACCEPT_ENCODING'
p3993
asbag57
(g78
g59
NtRp3994
(dp3995
g62
(dp3996
g89
g90
ssg71
g3985
sg64
(lp3997
S':'
asbag57
(g78
g59
NtRp3998
(dp3999
g62
(dp4000
sg71
g3985
sg64
(lp4001
g57
(g58
g59
NtRp4002
(dp4003
g62
(dp4004
g70
I3
ssg71
g3998
sg64
(lp4005
g2365
asbasbasbag57
(g73
g59
NtRp4006
(dp4007
g62
(dp4008
sg71
g3960
sg64
(lp4009
g57
(g78
g59
NtRp4010
(dp4011
g62
(dp4012
g82
g83
ssg71
g4006
sg64
(lp4013
S'HTTP_ACCEPT_LANGUAGE'
p4014
asbag57
(g78
g59
NtRp4015
(dp4016
g62
(dp4017
g89
g90
ssg71
g4006
sg64
(lp4018
S':'
asbag57
(g78
g59
NtRp4019
(dp4020
g62
(dp4021
sg71
g4006
sg64
(lp4022
g57
(g58
g59
NtRp4023
(dp4024
g62
(dp4025
g70
I3
ssg71
g4019
sg64
(lp4026
g2387
asbasbasbag57
(g73
g59
NtRp4027
(dp4028
g62
(dp4029
sg71
g3960
sg64
(lp4030
g57
(g78
g59
NtRp4031
(dp4032
g62
(dp4033
g82
g83
ssg71
g4027
sg64
(lp4034
S'HTTP_CACHE_CONTROL'
p4035
asbag57
(g78
g59
NtRp4036
(dp4037
g62
(dp4038
g89
g90
ssg71
g4027
sg64
(lp4039
S':'
asbag57
(g78
g59
NtRp4040
(dp4041
g62
(dp4042
sg71
g4027
sg64
(lp4043
g57
(g58
g59
NtRp4044
(dp4045
g62
(dp4046
g70
I3
ssg71
g4040
sg64
(lp4047
g2409
asbasbasbag57
(g73
g59
NtRp4048
(dp4049
g62
(dp4050
sg71
g3960
sg64
(lp4051
g57
(g78
g59
NtRp4052
(dp4053
g62
(dp4054
g82
g83
ssg71
g4048
sg64
(lp4055
S'HTTP_CONNECTION'
p4056
asbag57
(g78
g59
NtRp4057
(dp4058
g62
(dp4059
g89
g90
ssg71
g4048
sg64
(lp4060
S':'
asbag57
(g78
g59
NtRp4061
(dp4062
g62
(dp4063
sg71
g4048
sg64
(lp4064
g57
(g58
g59
NtRp4065
(dp4066
g62
(dp4067
g70
I3
ssg71
g4061
sg64
(lp4068
g2431
asbasbasbag57
(g73
g59
NtRp4069
(dp4070
g62
(dp4071
sg71
g3960
sg64
(lp4072
g57
(g78
g59
NtRp4073
(dp4074
g62
(dp4075
g82
g83
ssg71
g4069
sg64
(lp4076
S'HTTP_COOKIE'
p4077
asbag57
(g78
g59
NtRp4078
(dp4079
g62
(dp4080
g89
g90
ssg71
g4069
sg64
(lp4081
S':'
asbag57
(g78
g59
NtRp4082
(dp4083
g62
(dp4084
sg71
g4069
sg64
(lp4085
g57
(g58
g59
NtRp4086
(dp4087
g62
(dp4088
g70
I3
ssg71
g4082
sg64
(lp4089
g2453
asbasbasbag57
(g73
g59
NtRp4090
(dp4091
g62
(dp4092
sg71
g3960
sg64
(lp4093
g57
(g78
g59
NtRp4094
(dp4095
g62
(dp4096
g82
g83
ssg71
g4090
sg64
(lp4097
S'HTTP_HOST'
p4098
asbag57
(g78
g59
NtRp4099
(dp4100
g62
(dp4101
g89
g90
ssg71
g4090
sg64
(lp4102
S':'
asbag57
(g78
g59
NtRp4103
(dp4104
g62
(dp4105
sg71
g4090
sg64
(lp4106
g57
(g58
g59
NtRp4107
(dp4108
g62
(dp4109
g70
I3
ssg71
g4103
sg64
(lp4110
g2475
asbasbasbag57
(g73
g59
NtRp4111
(dp4112
g62
(dp4113
sg71
g3960
sg64
(lp4114
g57
(g78
g59
NtRp4115
(dp4116
g62
(dp4117
g82
g83
ssg71
g4111
sg64
(lp4118
S'HTTP_REFERER'
p4119
asbag57
(g78
g59
NtRp4120
(dp4121
g62
(dp4122
g89
g90
ssg71
g4111
sg64
(lp4123
S':'
asbag57
(g78
g59
NtRp4124
(dp4125
g62
(dp4126
sg71
g4111
sg64
(lp4127
g57
(g58
g59
NtRp4128
(dp4129
g62
(dp4130
g70
I3
ssg71
g4124
sg64
(lp4131
g2497
asbasbasbag57
(g73
g59
NtRp4132
(dp4133
g62
(dp4134
sg71
g3960
sg64
(lp4135
g57
(g78
g59
NtRp4136
(dp4137
g62
(dp4138
g82
g83
ssg71
g4132
sg64
(lp4139
S'HTTP_USER_AGENT'
p4140
asbag57
(g78
g59
NtRp4141
(dp4142
g62
(dp4143
g89
g90
ssg71
g4132
sg64
(lp4144
S':'
asbag57
(g78
g59
NtRp4145
(dp4146
g62
(dp4147
sg71
g4132
sg64
(lp4148
g57
(g58
g59
NtRp4149
(dp4150
g62
(dp4151
g70
I3
ssg71
g4145
sg64
(lp4152
g2519
asbasbasbag57
(g73
g59
NtRp4153
(dp4154
g62
(dp4155
sg71
g3960
sg64
(lp4156
g57
(g78
g59
NtRp4157
(dp4158
g62
(dp4159
g82
g83
ssg71
g4153
sg64
(lp4160
S'PATH_INFO'
p4161
asbag57
(g78
g59
NtRp4162
(dp4163
g62
(dp4164
g89
g90
ssg71
g4153
sg64
(lp4165
S':'
asbag57
(g78
g59
NtRp4166
(dp4167
g62
(dp4168
sg71
g4153
sg64
(lp4169
g57
(g58
g59
NtRp4170
(dp4171
g62
(dp4172
g70
I3
ssg71
g4166
sg64
(lp4173
g2673
asbasbasbag57
(g73
g59
NtRp4174
(dp4175
g62
(dp4176
sg71
g3960
sg64
(lp4177
g57
(g78
g59
NtRp4178
(dp4179
g62
(dp4180
g82
g83
ssg71
g4174
sg64
(lp4181
S'QUERY_STRING'
p4182
asbag57
(g78
g59
NtRp4183
(dp4184
g62
(dp4185
g89
g90
ssg71
g4174
sg64
(lp4186
S':'
asbag57
(g78
g59
NtRp4187
(dp4188
g62
(dp4189
sg71
g4174
sg64
(lp4190
g57
(g58
g59
NtRp4191
(dp4192
g62
(dp4193
g70
I3
ssg71
g4187
sg64
(lp4194
S''
asbasbasbag57
(g73
g59
NtRp4195
(dp4196
g62
(dp4197
sg71
g3960
sg64
(lp4198
g57
(g78
g59
NtRp4199
(dp4200
g62
(dp4201
g82
g83
ssg71
g4195
sg64
(lp4202
S'REMOTE_ADDR'
p4203
asbag57
(g78
g59
NtRp4204
(dp4205
g62
(dp4206
g89
g90
ssg71
g4195
sg64
(lp4207
S':'
asbag57
(g78
g59
NtRp4208
(dp4209
g62
(dp4210
sg71
g4195
sg64
(lp4211
g57
(g58
g59
NtRp4212
(dp4213
g62
(dp4214
g70
I3
ssg71
g4208
sg64
(lp4215
g225
asbasbasbag57
(g73
g59
NtRp4216
(dp4217
g62
(dp4218
sg71
g3960
sg64
(lp4219
g57
(g78
g59
NtRp4220
(dp4221
g62
(dp4222
g82
g83
ssg71
g4216
sg64
(lp4223
S'REMOTE_PORT'
p4224
asbag57
(g78
g59
NtRp4225
(dp4226
g62
(dp4227
g89
g90
ssg71
g4216
sg64
(lp4228
S':'
asbag57
(g78
g59
NtRp4229
(dp4230
g62
(dp4231
sg71
g4216
sg64
(lp4232
g57
(g58
g59
NtRp4233
(dp4234
g62
(dp4235
g70
I3
ssg71
g4229
sg64
(lp4236
g2737
asbasbasbag57
(g73
g59
NtRp4237
(dp4238
g62
(dp4239
sg71
g3960
sg64
(lp4240
g57
(g78
g59
NtRp4241
(dp4242
g62
(dp4243
g82
g83
ssg71
g4237
sg64
(lp4244
S'REQUEST_METHOD'
p4245
asbag57
(g78
g59
NtRp4246
(dp4247
g62
(dp4248
g89
g90
ssg71
g4237
sg64
(lp4249
S':'
asbag57
(g78
g59
NtRp4250
(dp4251
g62
(dp4252
sg71
g4237
sg64
(lp4253
g57
(g58
g59
NtRp4254
(dp4255
g62
(dp4256
g70
I3
ssg71
g4250
sg64
(lp4257
g2759
asbasbasbag57
(g73
g59
NtRp4258
(dp4259
g62
(dp4260
sg71
g3960
sg64
(lp4261
g57
(g78
g59
NtRp4262
(dp4263
g62
(dp4264
g82
g83
ssg71
g4258
sg64
(lp4265
S'REQUEST_URI'
p4266
asbag57
(g78
g59
NtRp4267
(dp4268
g62
(dp4269
g89
g90
ssg71
g4258
sg64
(lp4270
S':'
asbag57
(g78
g59
NtRp4271
(dp4272
g62
(dp4273
sg71
g4258
sg64
(lp4274
g57
(g58
g59
NtRp4275
(dp4276
g62
(dp4277
g70
I3
ssg71
g4271
sg64
(lp4278
g2673
asbasbasbag57
(g73
g59
NtRp4279
(dp4280
g62
(dp4281
sg71
g3960
sg64
(lp4282
g57
(g78
g59
NtRp4283
(dp4284
g62
(dp4285
g82
g83
ssg71
g4279
sg64
(lp4286
S'SCRIPT_NAME'
p4287
asbag57
(g78
g59
NtRp4288
(dp4289
g62
(dp4290
g89
g90
ssg71
g4279
sg64
(lp4291
S':'
asbag57
(g78
g59
NtRp4292
(dp4293
g62
(dp4294
sg71
g4279
sg64
(lp4295
g57
(g58
g59
NtRp4296
(dp4297
g62
(dp4298
g70
I3
ssg71
g4292
sg64
(lp4299
S''
asbasbasbag57
(g73
g59
NtRp4300
(dp4301
g62
(dp4302
sg71
g3960
sg64
(lp4303
g57
(g78
g59
NtRp4304
(dp4305
g62
(dp4306
g82
g83
ssg71
g4300
sg64
(lp4307
S'SERVER_NAME'
p4308
asbag57
(g78
g59
NtRp4309
(dp4310
g62
(dp4311
g89
g90
ssg71
g4300
sg64
(lp4312
S':'
asbag57
(g78
g59
NtRp4313
(dp4314
g62
(dp4315
sg71
g4300
sg64
(lp4316
g57
(g58
g59
NtRp4317
(dp4318
g62
(dp4319
g70
I3
ssg71
g4313
sg64
(lp4320
g2638
asbasbasbag57
(g73
g59
NtRp4321
(dp4322
g62
(dp4323
sg71
g3960
sg64
(lp4324
g57
(g78
g59
NtRp4325
(dp4326
g62
(dp4327
g82
g83
ssg71
g4321
sg64
(lp4328
S'SERVER_PORT'
p4329
asbag57
(g78
g59
NtRp4330
(dp4331
g62
(dp4332
g89
g90
ssg71
g4321
sg64
(lp4333
S':'
asbag57
(g78
g59
NtRp4334
(dp4335
g62
(dp4336
sg71
g4321
sg64
(lp4337
g57
(g58
g59
NtRp4338
(dp4339
g62
(dp4340
g70
I3
ssg71
g4334
sg64
(lp4341
g2844
asbasbasbag57
(g73
g59
NtRp4342
(dp4343
g62
(dp4344
sg71
g3960
sg64
(lp4345
g57
(g78
g59
NtRp4346
(dp4347
g62
(dp4348
g82
g83
ssg71
g4342
sg64
(lp4349
S'SERVER_PROTOCOL'
p4350
asbag57
(g78
g59
NtRp4351
(dp4352
g62
(dp4353
g89
g90
ssg71
g4342
sg64
(lp4354
S':'
asbag57
(g78
g59
NtRp4355
(dp4356
g62
(dp4357
sg71
g4342
sg64
(lp4358
g57
(g58
g59
NtRp4359
(dp4360
g62
(dp4361
g70
I3
ssg71
g4355
sg64
(lp4362
g2866
asbasbasbag57
(g73
g59
NtRp4363
(dp4364
g62
(dp4365
sg71
g3960
sg64
(lp4366
g57
(g78
g59
NtRp4367
(dp4368
g62
(dp4369
g82
g83
ssg71
g4363
sg64
(lp4370
S'SERVER_SOFTWARE'
p4371
asbag57
(g78
g59
NtRp4372
(dp4373
g62
(dp4374
g89
g90
ssg71
g4363
sg64
(lp4375
S':'
asbag57
(g78
g59
NtRp4376
(dp4377
g62
(dp4378
sg71
g4363
sg64
(lp4379
g57
(g58
g59
NtRp4380
(dp4381
g62
(dp4382
g70
I3
ssg71
g4376
sg64
(lp4383
g2888
asbasbasbag57
(g73
g59
NtRp4384
(dp4385
g62
(dp4386
sg71
g3960
sg64
(lp4387
g57
(g78
g59
NtRp4388
(dp4389
g62
(dp4390
g82
g83
ssg71
g4384
sg64
(lp4391
S'wsgi.errors'
p4392
asbag57
(g78
g59
NtRp4393
(dp4394
g62
(dp4395
g89
g90
ssg71
g4384
sg64
(lp4396
S':'
asbag57
(g78
g59
NtRp4397
(dp4398
g62
(dp4399
sg71
g4384
sg64
(lp4400
g57
(g58
g59
NtRp4401
(dp4402
g62
(dp4403
g70
I3
ssg71
g4397
sg64
(lp4404
S"<open file '<stderr>', mode 'w' at 0x7f08a4f49270>"
p4405
asbasbasbag57
(g73
g59
NtRp4406
(dp4407
g62
(dp4408
sg71
g3960
sg64
(lp4409
g57
(g78
g59
NtRp4410
(dp4411
g62
(dp4412
g82
g83
ssg71
g4406
sg64
(lp4413
S'wsgi.file_wrapper'
p4414
asbag57
(g78
g59
NtRp4415
(dp4416
g62
(dp4417
g89
g90
ssg71
g4406
sg64
(lp4418
S':'
asbag57
(g78
g59
NtRp4419
(dp4420
g62
(dp4421
sg71
g4406
sg64
(lp4422
g57
(g58
g59
NtRp4423
(dp4424
g62
(dp4425
g70
I3
ssg71
g4419
sg64
(lp4426
S'<class wsgiref.util.FileWrapper at 0x20e1d50>'
p4427
asbasbasbag57
(g73
g59
NtRp4428
(dp4429
g62
(dp4430
sg71
g3960
sg64
(lp4431
g57
(g78
g59
NtRp4432
(dp4433
g62
(dp4434
g82
g83
ssg71
g4428
sg64
(lp4435
S'wsgi.input'
p4436
asbag57
(g78
g59
NtRp4437
(dp4438
g62
(dp4439
g89
g90
ssg71
g4428
sg64
(lp4440
S':'
asbag57
(g78
g59
NtRp4441
(dp4442
g62
(dp4443
sg71
g4428
sg64
(lp4444
g57
(g58
g59
NtRp4445
(dp4446
g62
(dp4447
g70
I3
ssg71
g4441
sg64
(lp4448
S'<cStringIO.StringO object at 0x7f0884353c00>'
p4449
asbasbasbag57
(g73
g59
NtRp4450
(dp4451
g62
(dp4452
sg71
g3960
sg64
(lp4453
g57
(g78
g59
NtRp4454
(dp4455
g62
(dp4456
g82
g83
ssg71
g4450
sg64
(lp4457
S'wsgi.multiprocess'
p4458
asbag57
(g78
g59
NtRp4459
(dp4460
g62
(dp4461
g89
g90
ssg71
g4450
sg64
(lp4462
S':'
asbag57
(g78
g59
NtRp4463
(dp4464
g62
(dp4465
sg71
g4450
sg64
(lp4466
g57
(g58
g59
NtRp4467
(dp4468
g62
(dp4469
g70
I3
ssg71
g4463
sg64
(lp4470
g100
asbasbasbag57
(g73
g59
NtRp4471
(dp4472
g62
(dp4473
sg71
g3960
sg64
(lp4474
g57
(g78
g59
NtRp4475
(dp4476
g62
(dp4477
g82
g83
ssg71
g4471
sg64
(lp4478
S'wsgi.multithread'
p4479
asbag57
(g78
g59
NtRp4480
(dp4481
g62
(dp4482
g89
g90
ssg71
g4471
sg64
(lp4483
S':'
asbag57
(g78
g59
NtRp4484
(dp4485
g62
(dp4486
sg71
g4471
sg64
(lp4487
g57
(g58
g59
NtRp4488
(dp4489
g62
(dp4490
g70
I3
ssg71
g4484
sg64
(lp4491
g3105
asbasbasbag57
(g73
g59
NtRp4492
(dp4493
g62
(dp4494
sg71
g3960
sg64
(lp4495
g57
(g78
g59
NtRp4496
(dp4497
g62
(dp4498
g82
g83
ssg71
g4492
sg64
(lp4499
S'wsgi.run_once'
p4500
asbag57
(g78
g59
NtRp4501
(dp4502
g62
(dp4503
g89
g90
ssg71
g4492
sg64
(lp4504
S':'
asbag57
(g78
g59
NtRp4505
(dp4506
g62
(dp4507
sg71
g4492
sg64
(lp4508
g57
(g58
g59
NtRp4509
(dp4510
g62
(dp4511
g70
I3
ssg71
g4505
sg64
(lp4512
g100
asbasbasbag57
(g73
g59
NtRp4513
(dp4514
g62
(dp4515
sg71
g3960
sg64
(lp4516
g57
(g78
g59
NtRp4517
(dp4518
g62
(dp4519
g82
g83
ssg71
g4513
sg64
(lp4520
S'wsgi.url_scheme'
p4521
asbag57
(g78
g59
NtRp4522
(dp4523
g62
(dp4524
g89
g90
ssg71
g4513
sg64
(lp4525
S':'
asbag57
(g78
g59
NtRp4526
(dp4527
g62
(dp4528
sg71
g4513
sg64
(lp4529
g57
(g58
g59
NtRp4530
(dp4531
g62
(dp4532
g70
I3
ssg71
g4526
sg64
(lp4533
g3148
asbasbasbag57
(g73
g59
NtRp4534
(dp4535
g62
(dp4536
sg71
g3960
sg64
(lp4537
g57
(g78
g59
NtRp4538
(dp4539
g62
(dp4540
g82
g83
ssg71
g4534
sg64
(lp4541
S'wsgi.version'
p4542
asbag57
(g78
g59
NtRp4543
(dp4544
g62
(dp4545
g89
g90
ssg71
g4534
sg64
(lp4546
S':'
asbag57
(g78
g59
NtRp4547
(dp4548
g62
(dp4549
sg71
g4534
sg64
(lp4550
g57
(g58
g59
NtRp4551
(dp4552
g62
(dp4553
g70
I3
ssg71
g4547
sg64
(lp4554
S'1'
asbasbasbasbasbasbasbasbasbasbasbasbasbsS'frames'
p4555
(lp4556
(dp4557
S'file'
p4558
S'/home/bhanu/web2py/gluon/restricted.py'
p4559
sS'dump'
p4560
(dp4561
S'environment'
p4562
S"{'A': <class 'gluon.html.A'>, 'Auth': <class 'gluon.tools.Auth'>, 'B': <class 'gluon.html.B'>, 'BEAUTIFY': <class 'gluon.html.BEAUTIFY'>, 'BODY': <class 'gluon.html.BODY'>, 'BR': <class 'gluon.html.BR'>, 'BUTTON': <class 'gluon.html.BUTTON'>, 'CAS': <Storage {'check_url': 'https://login.iiit.ac.in...url': 'http://127.0.0.1:8000/sss/default/login'}>, 'CAT': <class 'gluon.html.CAT'>, 'CENTER': <class 'gluon.html.CENTER'>, ...}"
p4563
sS'ccode'
p4564
S'<code object <module> at 0x7f086c16e830, file "/.../views/default/show_laptop_details.html", line 1>'
p4565
ssS'lnum'
p4566
I212
sS'lines'
p4567
(dp4568
I207
S'    try:'
p4569
sI208
S'        if isinstance(code, types.CodeType):'
p4570
sI209
S'            ccode = code'
p4571
sI210
S'        else:'
p4572
sI211
S'            ccode = compile2(code, layer)'
p4573
sI212
S'        exec ccode in environment'
p4574
sI213
S'    except HTTP:'
p4575
sI214
S'        raise'
p4576
sI215
S'    except RestrictedError:'
p4577
sI216
S'        # do not encapsulate (obfuscate) the original RestrictedError'
p4578
ssS'call'
p4579
S'(code=\'response.write(\\\'<!DOCTYPE html PUBLIC "-//W3C//D...->>\\\\n \\\\n \\\\n \\\\n </body>\\\\n</html>\\\\n\\\', escape=False)\', environment={\'A\': <class \'gluon.html.A\'>, \'Auth\': <class \'gluon.tools.Auth\'>, \'B\': <class \'gluon.html.B\'>, \'BEAUTIFY\': <class \'gluon.html.BEAUTIFY\'>, \'BODY\': <class \'gluon.html.BODY\'>, \'BR\': <class \'gluon.html.BR\'>, \'BUTTON\': <class \'gluon.html.BUTTON\'>, \'CAS\': <Storage {\'check_url\': \'https://login.iiit.ac.in...url\': \'http://127.0.0.1:8000/sss/default/login\'}>, \'CAT\': <class \'gluon.html.CAT\'>, \'CENTER\': <class \'gluon.html.CENTER\'>, ...}, layer=\'/home/bhanu/web2py/applications/sss/views/default/show_laptop_details.html\')'
p4580
sS'func'
p4581
S'restricted'
p4582
sa(dp4583
g4558
S'/home/bhanu/web2py/applications/sss/views/default/show_laptop_details.html'
p4584
sg4560
(dp4585
sg4566
I48
sg4567
(dp4586
I39
S"    response.write('.</td>  <td>', escape=False)"
p4587
sI40
S'    response.write(f.roll_no)'
p4588
sI41
S"    response.write('</td>   <td>', escape=False)"
p4589
sI42
S'    response.write(f.company)'
p4590
sI43
S"    response.write('</td>  <td>', escape=False)"
p4591
sI44
S'    response.write(f.service_tag)'
p4592
sI45
S"    response.write('</td>     </tr>\\n    ', escape=False)"
p4593
sI46
S'    pass'
p4594
sI47
S"response.write('\\n</table>\\n\\n', escape=False)"
p4595
sI48
S'name=db(db.students.roll_no==roll).select(db.students.name)'
p4596
sI49
S"response.write('\\n', escape=False)"
p4597
sI50
S'image=db(db.students.roll_no==roll).select(db.students.file)'
p4598
sI51
S'response.write(\'\\n\\n<img src="\', escape=False)'
p4599
sI52
S"response.write(URL(f='download',args=image))"
p4600
sI53
S'response.write(\' "/>\\n\', escape=False)'
p4601
sI54
S"response.write('\\n        ', escape=False)"
p4602
sI55
S'#chetta'
p4603
sI56
S"response.write('\\n        \\n        \\n        \\n        ', escape=False)"
p4604
sI57
S'#chetta'
p4605
sI58
S'response.write(\'\\n       \\n    </div>\\n    <!-- end content -->\\n    <!-- start sidebar -->\\n    \\n    <br style="clear: both;" />\\n   </div>\\n  </div>\\n  <!-- end page -->\\n<!--chetta-->>\\n \\n \\n \\n </body>\\n</html>\\n\', escape=False)'
p4606
ssg4579
S'()'
p4607
sg4581
S'<module>'
p4608
sasS'pyver'
p4609
S'Python 2.7.3: /usr/bin/python'
p4610
sS'session'
p4611
g57
(g58
g59
NtRp4612
(dp4613
g62
(dp4614
sg64
(lp4615
g57
(g66
g59
NtRp4616
(dp4617
g62
(dp4618
g70
I5
ssg71
Nsg64
(lp4619
g57
(g73
g59
NtRp4620
(dp4621
g62
(dp4622
sg71
g4616
sg64
(lp4623
g57
(g78
g59
NtRp4624
(dp4625
g62
(dp4626
g82
g83
ssg71
g4620
sg64
(lp4627
S'flash'
p4628
asbag57
(g78
g59
NtRp4629
(dp4630
g62
(dp4631
g89
g90
ssg71
g4620
sg64
(lp4632
S':'
asbag57
(g78
g59
NtRp4633
(dp4634
g62
(dp4635
sg71
g4620
sg64
(lp4636
g57
(g58
g59
NtRp4637
(dp4638
g62
(dp4639
g70
I5
ssg71
g4633
sg64
(lp4640
S'None'
p4641
asbasbasbag57
(g73
g59
NtRp4642
(dp4643
g62
(dp4644
sg71
g4616
sg64
(lp4645
g57
(g78
g59
NtRp4646
(dp4647
g62
(dp4648
g82
g83
ssg71
g4642
sg64
(lp4649
S'login'
p4650
asbag57
(g78
g59
NtRp4651
(dp4652
g62
(dp4653
g89
g90
ssg71
g4642
sg64
(lp4654
S':'
asbag57
(g78
g59
NtRp4655
(dp4656
g62
(dp4657
sg71
g4642
sg64
(lp4658
g57
(g58
g59
NtRp4659
(dp4660
g62
(dp4661
g70
I5
ssg71
g4655
sg64
(lp4662
S'1'
asbasbasbag57
(g73
g59
NtRp4663
(dp4664
g62
(dp4665
sg71
g4616
sg64
(lp4666
g57
(g78
g59
NtRp4667
(dp4668
g62
(dp4669
g82
g83
ssg71
g4663
sg64
(lp4670
S'pdf1'
p4671
asbag57
(g78
g59
NtRp4672
(dp4673
g62
(dp4674
g89
g90
ssg71
g4663
sg64
(lp4675
S':'
asbag57
(g78
g59
NtRp4676
(dp4677
g62
(dp4678
sg71
g4663
sg64
(lp4679
g57
(g58
g59
NtRp4680
(dp4681
g62
(dp4682
g70
I5
ssg71
g4676
sg64
(lp4683
S'0'
asbasbasbag57
(g73
g59
NtRp4684
(dp4685
g62
(dp4686
sg71
g4616
sg64
(lp4687
g57
(g78
g59
NtRp4688
(dp4689
g62
(dp4690
g82
g83
ssg71
g4684
sg64
(lp4691
S'place'
p4692
asbag57
(g78
g59
NtRp4693
(dp4694
g62
(dp4695
g89
g90
ssg71
g4684
sg64
(lp4696
S':'
asbag57
(g78
g59
NtRp4697
(dp4698
g62
(dp4699
sg71
g4684
sg64
(lp4700
g57
(g58
g59
NtRp4701
(dp4702
g62
(dp4703
g70
I5
ssg71
g4697
sg64
(lp4704
S'All'
p4705
asbasbasbag57
(g73
g59
NtRp4706
(dp4707
g62
(dp4708
sg71
g4616
sg64
(lp4709
g57
(g78
g59
NtRp4710
(dp4711
g62
(dp4712
g82
g83
ssg71
g4706
sg64
(lp4713
S'token'
p4714
asbag57
(g78
g59
NtRp4715
(dp4716
g62
(dp4717
g89
g90
ssg71
g4706
sg64
(lp4718
S':'
asbag57
(g78
g59
NtRp4719
(dp4720
g62
(dp4721
sg71
g4706
sg64
(lp4722
g57
(g58
g59
NtRp4723
(dp4724
g62
(dp4725
g70
I5
ssg71
g4719
sg64
(lp4726
S'chaluvadibhanu.dev@students.iiit.ac.in'
p4727
asbasbasbasbasbsS'etype'
p4728
S"<type 'exceptions.NameError'>"
p4729
sS'date'
p4730
S'Thu Nov 15 04:49:15 2012'
p4731
sS'response'
p4732
g57
(g58
g59
NtRp4733
(dp4734
g62
(dp4735
sg64
(lp4736
g57
(g66
g59
NtRp4737
(dp4738
g62
(dp4739
g70
I5
ssg71
Nsg64
(lp4740
g57
(g73
g59
NtRp4741
(dp4742
g62
(dp4743
sg71
g4737
sg64
(lp4744
g57
(g78
g59
NtRp4745
(dp4746
g62
(dp4747
g82
g83
ssg71
g4741
sg64
(lp4748
g168
asbag57
(g78
g59
NtRp4749
(dp4750
g62
(dp4751
g89
g90
ssg71
g4741
sg64
(lp4752
S':'
asbag57
(g78
g59
NtRp4753
(dp4754
g62
(dp4755
sg71
g4741
sg64
(lp4756
g57
(g58
g59
NtRp4757
(dp4758
g62
(dp4759
g70
I5
ssg71
g4753
sg64
(lp4760
S'<cStringIO.StringO object at 0x7f089c3ac880>'
p4761
asbasbasbag57
(g73
g59
NtRp4762
(dp4763
g62
(dp4764
sg71
g4737
sg64
(lp4765
g57
(g78
g59
NtRp4766
(dp4767
g62
(dp4768
g82
g83
ssg71
g4762
sg64
(lp4769
S'change_rooms'
p4770
asbag57
(g78
g59
NtRp4771
(dp4772
g62
(dp4773
g89
g90
ssg71
g4762
sg64
(lp4774
S':'
asbag57
(g78
g59
NtRp4775
(dp4776
g62
(dp4777
sg71
g4762
sg64
(lp4778
g57
(g58
g59
NtRp4779
(dp4780
g62
(dp4781
g70
I5
ssg71
g4775
sg64
(lp4782
g57
(g66
g59
NtRp4783
(dp4784
g62
(dp4785
g70
I4
ssg71
Nsg64
(lp4786
g57
(g73
g59
NtRp4787
(dp4788
g62
(dp4789
sg71
g4783
sg64
(lp4790
g57
(g78
g59
NtRp4791
(dp4792
g62
(dp4793
sg71
g4787
sg64
(lp4794
g57
(g58
g59
NtRp4795
(dp4796
g62
(dp4797
g70
I4
ssg71
g4791
sg64
(lp4798
g57
(g66
g59
NtRp4799
(dp4800
g62
(dp4801
g70
I3
ssg71
Nsg64
(lp4802
g57
(g73
g59
NtRp4803
(dp4804
g62
(dp4805
sg71
g4799
sg64
(lp4806
g57
(g78
g59
NtRp4807
(dp4808
g62
(dp4809
sg71
g4803
sg64
(lp4810
g57
(g58
g59
NtRp4811
(dp4812
g62
(dp4813
g70
I3
ssg71
g4807
sg64
(lp4814
cgluon.languages
lazyT_unpickle
p4815
(S's\x0c\x00\x00\x00Room Vacancy'
tRp4816
asbasbasbag57
(g73
g59
NtRp4817
(dp4818
g62
(dp4819
sg71
g4799
sg64
(lp4820
g57
(g78
g59
NtRp4821
(dp4822
g62
(dp4823
sg71
g4817
sg64
(lp4824
g57
(g58
g59
NtRp4825
(dp4826
g62
(dp4827
g70
I3
ssg71
g4821
sg64
(lp4828
g100
asbasbasbag57
(g73
g59
NtRp4829
(dp4830
g62
(dp4831
sg71
g4799
sg64
(lp4832
g57
(g78
g59
NtRp4833
(dp4834
g62
(dp4835
sg71
g4829
sg64
(lp4836
g57
(g58
g59
NtRp4837
(dp4838
g62
(dp4839
g70
I3
ssg71
g4833
sg64
(lp4840
S'/sss/default/vacant_rooms'
p4841
asbasbasbag57
(g73
g59
NtRp4842
(dp4843
g62
(dp4844
sg71
g4799
sg64
(lp4845
g57
(g78
g59
NtRp4846
(dp4847
g62
(dp4848
sg71
g4842
sg64
(lp4849
g57
(g58
g59
NtRp4850
(dp4851
g62
(dp4852
g70
I3
ssg71
g4846
sg64
(lp4853
g57
(g66
g59
NtRp4854
(dp4855
g62
(dp4856
g70
I2
ssg71
Nsg64
(lp4857
sbasbasbasbasbasbasbasbasbasbasbasbag57
(g73
g59
NtRp4858
(dp4859
g62
(dp4860
sg71
g4737
sg64
(lp4861
g57
(g78
g59
NtRp4862
(dp4863
g62
(dp4864
g82
g83
ssg71
g4858
sg64
(lp4865
S'complaint'
p4866
asbag57
(g78
g59
NtRp4867
(dp4868
g62
(dp4869
g89
g90
ssg71
g4858
sg64
(lp4870
S':'
asbag57
(g78
g59
NtRp4871
(dp4872
g62
(dp4873
sg71
g4858
sg64
(lp4874
g57
(g58
g59
NtRp4875
(dp4876
g62
(dp4877
g70
I5
ssg71
g4871
sg64
(lp4878
g57
(g66
g59
NtRp4879
(dp4880
g62
(dp4881
g70
I4
ssg71
Nsg64
(lp4882
g57
(g73
g59
NtRp4883
(dp4884
g62
(dp4885
sg71
g4879
sg64
(lp4886
g57
(g78
g59
NtRp4887
(dp4888
g62
(dp4889
sg71
g4883
sg64
(lp4890
g57
(g58
g59
NtRp4891
(dp4892
g62
(dp4893
g70
I4
ssg71
g4887
sg64
(lp4894
g57
(g66
g59
NtRp4895
(dp4896
g62
(dp4897
g70
I3
ssg71
Nsg64
(lp4898
g57
(g73
g59
NtRp4899
(dp4900
g62
(dp4901
sg71
g4895
sg64
(lp4902
g57
(g78
g59
NtRp4903
(dp4904
g62
(dp4905
sg71
g4899
sg64
(lp4906
g57
(g58
g59
NtRp4907
(dp4908
g62
(dp4909
g70
I3
ssg71
g4903
sg64
(lp4910
g4815
(S't\t\x00\x00\x00COMPLAINT'
tRp4911
asbasbasbag57
(g73
g59
NtRp4912
(dp4913
g62
(dp4914
sg71
g4895
sg64
(lp4915
g57
(g78
g59
NtRp4916
(dp4917
g62
(dp4918
sg71
g4912
sg64
(lp4919
g57
(g58
g59
NtRp4920
(dp4921
g62
(dp4922
g70
I3
ssg71
g4916
sg64
(lp4923
g100
asbasbasbag57
(g73
g59
NtRp4924
(dp4925
g62
(dp4926
sg71
g4895
sg64
(lp4927
g57
(g78
g59
NtRp4928
(dp4929
g62
(dp4930
sg71
g4924
sg64
(lp4931
g57
(g58
g59
NtRp4932
(dp4933
g62
(dp4934
g70
I3
ssg71
g4928
sg64
(lp4935
S'/sss/default/complaint'
p4936
asbasbasbag57
(g73
g59
NtRp4937
(dp4938
g62
(dp4939
sg71
g4895
sg64
(lp4940
g57
(g78
g59
NtRp4941
(dp4942
g62
(dp4943
sg71
g4937
sg64
(lp4944
g57
(g58
g59
NtRp4945
(dp4946
g62
(dp4947
g70
I3
ssg71
g4941
sg64
(lp4948
g57
(g66
g59
NtRp4949
(dp4950
g62
(dp4951
g70
I2
ssg71
Nsg64
(lp4952
sbasbasbasbasbasbasbasbasbasbasbasbag57
(g73
g59
NtRp4953
(dp4954
g62
(dp4955
sg71
g4737
sg64
(lp4956
g57
(g78
g59
NtRp4957
(dp4958
g62
(dp4959
g82
g83
ssg71
g4953
sg64
(lp4960
g256
asbag57
(g78
g59
NtRp4961
(dp4962
g62
(dp4963
g89
g90
ssg71
g4953
sg64
(lp4964
S':'
asbag57
(g78
g59
NtRp4965
(dp4966
g62
(dp4967
sg71
g4953
sg64
(lp4968
g57
(g58
g59
NtRp4969
(dp4970
g62
(dp4971
g70
I5
ssg71
g4965
sg64
(lp4972
g57
(g66
g59
NtRp4973
(dp4974
g62
(dp4975
g70
I4
ssg71
Nsg64
(lp4976
g57
(g73
g59
NtRp4977
(dp4978
g62
(dp4979
sg71
g4973
sg64
(lp4980
g57
(g78
g59
NtRp4981
(dp4982
g62
(dp4983
g82
g83
ssg71
g4977
sg64
(lp4984
S'session_id_sss'
p4985
asbag57
(g78
g59
NtRp4986
(dp4987
g62
(dp4988
g89
g90
ssg71
g4977
sg64
(lp4989
S':'
asbag57
(g78
g59
NtRp4990
(dp4991
g62
(dp4992
sg71
g4977
sg64
(lp4993
g57
(g58
g59
NtRp4994
(dp4995
g62
(dp4996
g70
I4
ssg71
g4990
sg64
(lp4997
g1046
ag57
(g66
g59
NtRp4998
(dp4999
g62
(dp5000
g70
I3
ssg71
Nsg64
(lp5001
g57
(g73
g59
NtRp5002
(dp5003
g62
(dp5004
sg71
g4998
sg64
(lp5005
g57
(g78
g59
NtRp5006
(dp5007
g62
(dp5008
g82
g83
ssg71
g5002
sg64
(lp5009
g307
asbag57
(g78
g59
NtRp5010
(dp5011
g62
(dp5012
g89
g90
ssg71
g5002
sg64
(lp5013
S':'
asbag57
(g78
g59
NtRp5014
(dp5015
g62
(dp5016
sg71
g5002
sg64
(lp5017
g57
(g58
g59
NtRp5018
(dp5019
g62
(dp5020
g70
I3
ssg71
g5014
sg64
(lp5021
S''
asbasbasbag57
(g73
g59
NtRp5022
(dp5023
g62
(dp5024
sg71
g4998
sg64
(lp5025
g57
(g78
g59
NtRp5026
(dp5027
g62
(dp5028
g82
g83
ssg71
g5022
sg64
(lp5029
g328
asbag57
(g78
g59
NtRp5030
(dp5031
g62
(dp5032
g89
g90
ssg71
g5022
sg64
(lp5033
S':'
asbag57
(g78
g59
NtRp5034
(dp5035
g62
(dp5036
sg71
g5022
sg64
(lp5037
g57
(g58
g59
NtRp5038
(dp5039
g62
(dp5040
g70
I3
ssg71
g5034
sg64
(lp5041
S''
asbasbasbag57
(g73
g59
NtRp5042
(dp5043
g62
(dp5044
sg71
g4998
sg64
(lp5045
g57
(g78
g59
NtRp5046
(dp5047
g62
(dp5048
g82
g83
ssg71
g5042
sg64
(lp5049
g349
asbag57
(g78
g59
NtRp5050
(dp5051
g62
(dp5052
g89
g90
ssg71
g5042
sg64
(lp5053
S':'
asbag57
(g78
g59
NtRp5054
(dp5055
g62
(dp5056
sg71
g5042
sg64
(lp5057
g57
(g58
g59
NtRp5058
(dp5059
g62
(dp5060
g70
I3
ssg71
g5054
sg64
(lp5061
S''
asbasbasbag57
(g73
g59
NtRp5062
(dp5063
g62
(dp5064
sg71
g4998
sg64
(lp5065
g57
(g78
g59
NtRp5066
(dp5067
g62
(dp5068
g82
g83
ssg71
g5062
sg64
(lp5069
g370
asbag57
(g78
g59
NtRp5070
(dp5071
g62
(dp5072
g89
g90
ssg71
g5062
sg64
(lp5073
S':'
asbag57
(g78
g59
NtRp5074
(dp5075
g62
(dp5076
sg71
g5062
sg64
(lp5077
g57
(g58
g59
NtRp5078
(dp5079
g62
(dp5080
g70
I3
ssg71
g5074
sg64
(lp5081
S''
asbasbasbag57
(g73
g59
NtRp5082
(dp5083
g62
(dp5084
sg71
g4998
sg64
(lp5085
g57
(g78
g59
NtRp5086
(dp5087
g62
(dp5088
g82
g83
ssg71
g5082
sg64
(lp5089
g391
asbag57
(g78
g59
NtRp5090
(dp5091
g62
(dp5092
g89
g90
ssg71
g5082
sg64
(lp5093
S':'
asbag57
(g78
g59
NtRp5094
(dp5095
g62
(dp5096
sg71
g5082
sg64
(lp5097
g57
(g58
g59
NtRp5098
(dp5099
g62
(dp5100
g70
I3
ssg71
g5094
sg64
(lp5101
S''
asbasbasbag57
(g73
g59
NtRp5102
(dp5103
g62
(dp5104
sg71
g4998
sg64
(lp5105
g57
(g78
g59
NtRp5106
(dp5107
g62
(dp5108
g82
g83
ssg71
g5102
sg64
(lp5109
g412
asbag57
(g78
g59
NtRp5110
(dp5111
g62
(dp5112
g89
g90
ssg71
g5102
sg64
(lp5113
S':'
asbag57
(g78
g59
NtRp5114
(dp5115
g62
(dp5116
sg71
g5102
sg64
(lp5117
g57
(g58
g59
NtRp5118
(dp5119
g62
(dp5120
g70
I3
ssg71
g5114
sg64
(lp5121
S'/'
asbasbasbag57
(g73
g59
NtRp5122
(dp5123
g62
(dp5124
sg71
g4998
sg64
(lp5125
g57
(g78
g59
NtRp5126
(dp5127
g62
(dp5128
g82
g83
ssg71
g5122
sg64
(lp5129
g433
asbag57
(g78
g59
NtRp5130
(dp5131
g62
(dp5132
g89
g90
ssg71
g5122
sg64
(lp5133
S':'
asbag57
(g78
g59
NtRp5134
(dp5135
g62
(dp5136
sg71
g5122
sg64
(lp5137
g57
(g58
g59
NtRp5138
(dp5139
g62
(dp5140
g70
I3
ssg71
g5134
sg64
(lp5141
S''
asbasbasbag57
(g73
g59
NtRp5142
(dp5143
g62
(dp5144
sg71
g4998
sg64
(lp5145
g57
(g78
g59
NtRp5146
(dp5147
g62
(dp5148
g82
g83
ssg71
g5142
sg64
(lp5149
g454
asbag57
(g78
g59
NtRp5150
(dp5151
g62
(dp5152
g89
g90
ssg71
g5142
sg64
(lp5153
S':'
asbag57
(g78
g59
NtRp5154
(dp5155
g62
(dp5156
sg71
g5142
sg64
(lp5157
g57
(g58
g59
NtRp5158
(dp5159
g62
(dp5160
g70
I3
ssg71
g5154
sg64
(lp5161
S''
asbasbasbasbasbasbasbasbasbasbasbag57
(g73
g59
NtRp5162
(dp5163
g62
(dp5164
sg71
g4737
sg64
(lp5165
g57
(g78
g59
NtRp5166
(dp5167
g62
(dp5168
g82
g83
ssg71
g5162
sg64
(lp5169
S'delimiters'
p5170
asbag57
(g78
g59
NtRp5171
(dp5172
g62
(dp5173
g89
g90
ssg71
g5162
sg64
(lp5174
S':'
asbag57
(g78
g59
NtRp5175
(dp5176
g62
(dp5177
sg71
g5162
sg64
(lp5178
g57
(g58
g59
NtRp5179
(dp5180
g62
(dp5181
g70
I5
ssg71
g5175
sg64
(lp5182
g57
(g66
g59
NtRp5183
(dp5184
g62
(dp5185
g70
I4
ssg71
Nsg64
(lp5186
g57
(g73
g59
NtRp5187
(dp5188
g62
(dp5189
sg71
g5183
sg64
(lp5190
g57
(g78
g59
NtRp5191
(dp5192
g62
(dp5193
sg71
g5187
sg64
(lp5194
g57
(g58
g59
NtRp5195
(dp5196
g62
(dp5197
g70
I4
ssg71
g5191
sg64
(lp5198
S'{{'
p5199
asbasbasbag57
(g73
g59
NtRp5200
(dp5201
g62
(dp5202
sg71
g5183
sg64
(lp5203
g57
(g78
g59
NtRp5204
(dp5205
g62
(dp5206
sg71
g5200
sg64
(lp5207
g57
(g58
g59
NtRp5208
(dp5209
g62
(dp5210
g70
I4
ssg71
g5204
sg64
(lp5211
S'}}'
p5212
asbasbasbasbasbasbasbag57
(g73
g59
NtRp5213
(dp5214
g62
(dp5215
sg71
g4737
sg64
(lp5216
g57
(g78
g59
NtRp5217
(dp5218
g62
(dp5219
g82
g83
ssg71
g5213
sg64
(lp5220
S'enter_laptop_details'
p5221
asbag57
(g78
g59
NtRp5222
(dp5223
g62
(dp5224
g89
g90
ssg71
g5213
sg64
(lp5225
S':'
asbag57
(g78
g59
NtRp5226
(dp5227
g62
(dp5228
sg71
g5213
sg64
(lp5229
g57
(g58
g59
NtRp5230
(dp5231
g62
(dp5232
g70
I5
ssg71
g5226
sg64
(lp5233
g57
(g66
g59
NtRp5234
(dp5235
g62
(dp5236
g70
I4
ssg71
Nsg64
(lp5237
g57
(g73
g59
NtRp5238
(dp5239
g62
(dp5240
sg71
g5234
sg64
(lp5241
g57
(g78
g59
NtRp5242
(dp5243
g62
(dp5244
sg71
g5238
sg64
(lp5245
g57
(g58
g59
NtRp5246
(dp5247
g62
(dp5248
g70
I4
ssg71
g5242
sg64
(lp5249
g57
(g66
g59
NtRp5250
(dp5251
g62
(dp5252
g70
I3
ssg71
Nsg64
(lp5253
g57
(g73
g59
NtRp5254
(dp5255
g62
(dp5256
sg71
g5250
sg64
(lp5257
g57
(g78
g59
NtRp5258
(dp5259
g62
(dp5260
sg71
g5254
sg64
(lp5261
g57
(g58
g59
NtRp5262
(dp5263
g62
(dp5264
g70
I3
ssg71
g5258
sg64
(lp5265
g4815
(S's\x0e\x00\x00\x00Laptop Records'
tRp5266
asbasbasbag57
(g73
g59
NtRp5267
(dp5268
g62
(dp5269
sg71
g5250
sg64
(lp5270
g57
(g78
g59
NtRp5271
(dp5272
g62
(dp5273
sg71
g5267
sg64
(lp5274
g57
(g58
g59
NtRp5275
(dp5276
g62
(dp5277
g70
I3
ssg71
g5271
sg64
(lp5278
g100
asbasbasbag57
(g73
g59
NtRp5279
(dp5280
g62
(dp5281
sg71
g5250
sg64
(lp5282
g57
(g78
g59
NtRp5283
(dp5284
g62
(dp5285
sg71
g5279
sg64
(lp5286
g57
(g58
g59
NtRp5287
(dp5288
g62
(dp5289
g70
I3
ssg71
g5283
sg64
(lp5290
S'/sss/default/enter_laptop_details'
p5291
asbasbasbag57
(g73
g59
NtRp5292
(dp5293
g62
(dp5294
sg71
g5250
sg64
(lp5295
g57
(g78
g59
NtRp5296
(dp5297
g62
(dp5298
sg71
g5292
sg64
(lp5299
g57
(g58
g59
NtRp5300
(dp5301
g62
(dp5302
g70
I3
ssg71
g5296
sg64
(lp5303
g57
(g66
g59
NtRp5304
(dp5305
g62
(dp5306
g70
I2
ssg71
Nsg64
(lp5307
sbasbasbasbasbasbasbasbasbasbasbasbag57
(g73
g59
NtRp5308
(dp5309
g62
(dp5310
sg71
g4737
sg64
(lp5311
g57
(g78
g59
NtRp5312
(dp5313
g62
(dp5314
g82
g83
ssg71
g5308
sg64
(lp5315
S'files'
p5316
asbag57
(g78
g59
NtRp5317
(dp5318
g62
(dp5319
g89
g90
ssg71
g5308
sg64
(lp5320
S':'
asbag57
(g78
g59
NtRp5321
(dp5322
g62
(dp5323
sg71
g5308
sg64
(lp5324
g57
(g58
g59
NtRp5325
(dp5326
g62
(dp5327
g70
I5
ssg71
g5321
sg64
(lp5328
g57
(g66
g59
NtRp5329
(dp5330
g62
(dp5331
g70
I4
ssg71
Nsg64
(lp5332
g57
(g73
g59
NtRp5333
(dp5334
g62
(dp5335
sg71
g5329
sg64
(lp5336
g57
(g78
g59
NtRp5337
(dp5338
g62
(dp5339
sg71
g5333
sg64
(lp5340
g57
(g58
g59
NtRp5341
(dp5342
g62
(dp5343
g70
I4
ssg71
g5337
sg64
(lp5344
S'/sss/static/js/jquery.js'
p5345
asbasbasbag57
(g73
g59
NtRp5346
(dp5347
g62
(dp5348
sg71
g5329
sg64
(lp5349
g57
(g78
g59
NtRp5350
(dp5351
g62
(dp5352
sg71
g5346
sg64
(lp5353
g57
(g58
g59
NtRp5354
(dp5355
g62
(dp5356
g70
I4
ssg71
g5350
sg64
(lp5357
S'/sss/static/css/calendar.css'
p5358
asbasbasbag57
(g73
g59
NtRp5359
(dp5360
g62
(dp5361
sg71
g5329
sg64
(lp5362
g57
(g78
g59
NtRp5363
(dp5364
g62
(dp5365
sg71
g5359
sg64
(lp5366
g57
(g58
g59
NtRp5367
(dp5368
g62
(dp5369
g70
I4
ssg71
g5363
sg64
(lp5370
S'/sss/static/js/calendar.js'
p5371
asbasbasbag57
(g73
g59
NtRp5372
(dp5373
g62
(dp5374
sg71
g5329
sg64
(lp5375
g57
(g78
g59
NtRp5376
(dp5377
g62
(dp5378
sg71
g5372
sg64
(lp5379
g57
(g58
g59
NtRp5380
(dp5381
g62
(dp5382
g70
I4
ssg71
g5376
sg64
(lp5383
S'/sss/static/js/web2py.js'
p5384
asbasbasbag57
(g73
g59
NtRp5385
(dp5386
g62
(dp5387
sg71
g5329
sg64
(lp5388
g57
(g78
g59
NtRp5389
(dp5390
g62
(dp5391
sg71
g5385
sg64
(lp5392
g57
(g58
g59
NtRp5393
(dp5394
g62
(dp5395
g70
I4
ssg71
g5389
sg64
(lp5396
S'/sss/static/plugin_layouts/layouts/Interlude/default.css'
p5397
asbasbasbag57
(g73
g59
NtRp5398
(dp5399
g62
(dp5400
sg71
g5329
sg64
(lp5401
g57
(g78
g59
NtRp5402
(dp5403
g62
(dp5404
sg71
g5398
sg64
(lp5405
g57
(g58
g59
NtRp5406
(dp5407
g62
(dp5408
g70
I4
ssg71
g5402
sg64
(lp5409
S'/sss/static/plugin_layouts/superfish.js'
p5410
asbasbasbasbasbasbasbag57
(g73
g59
NtRp5411
(dp5412
g62
(dp5413
sg71
g4737
sg64
(lp5414
g57
(g78
g59
NtRp5415
(dp5416
g62
(dp5417
g82
g83
ssg71
g5411
sg64
(lp5418
S'flash'
p5419
asbag57
(g78
g59
NtRp5420
(dp5421
g62
(dp5422
g89
g90
ssg71
g5411
sg64
(lp5423
S':'
asbag57
(g78
g59
NtRp5424
(dp5425
g62
(dp5426
sg71
g5411
sg64
(lp5427
g57
(g58
g59
NtRp5428
(dp5429
g62
(dp5430
g70
I5
ssg71
g5424
sg64
(lp5431
S''
asbasbasbag57
(g73
g59
NtRp5432
(dp5433
g62
(dp5434
sg71
g4737
sg64
(lp5435
g57
(g78
g59
NtRp5436
(dp5437
g62
(dp5438
g82
g83
ssg71
g5432
sg64
(lp5439
S'generic_patterns'
p5440
asbag57
(g78
g59
NtRp5441
(dp5442
g62
(dp5443
g89
g90
ssg71
g5432
sg64
(lp5444
S':'
asbag57
(g78
g59
NtRp5445
(dp5446
g62
(dp5447
sg71
g5432
sg64
(lp5448
g57
(g58
g59
NtRp5449
(dp5450
g62
(dp5451
g70
I5
ssg71
g5445
sg64
(lp5452
g57
(g66
g59
NtRp5453
(dp5454
g62
(dp5455
g70
I4
ssg71
Nsg64
(lp5456
g57
(g73
g59
NtRp5457
(dp5458
g62
(dp5459
sg71
g5453
sg64
(lp5460
g57
(g78
g59
NtRp5461
(dp5462
g62
(dp5463
sg71
g5457
sg64
(lp5464
g57
(g58
g59
NtRp5465
(dp5466
g62
(dp5467
g70
I4
ssg71
g5461
sg64
(lp5468
S'*'
asbasbasbasbasbasbasbag57
(g73
g59
NtRp5469
(dp5470
g62
(dp5471
sg71
g4737
sg64
(lp5472
g57
(g78
g59
NtRp5473
(dp5474
g62
(dp5475
g82
g83
ssg71
g5469
sg64
(lp5476
S'headers'
p5477
asbag57
(g78
g59
NtRp5478
(dp5479
g62
(dp5480
g89
g90
ssg71
g5469
sg64
(lp5481
S':'
asbag57
(g78
g59
NtRp5482
(dp5483
g62
(dp5484
sg71
g5469
sg64
(lp5485
g57
(g58
g59
NtRp5486
(dp5487
g62
(dp5488
g70
I5
ssg71
g5482
sg64
(lp5489
g57
(g66
g59
NtRp5490
(dp5491
g62
(dp5492
g70
I4
ssg71
Nsg64
(lp5493
g57
(g73
g59
NtRp5494
(dp5495
g62
(dp5496
sg71
g5490
sg64
(lp5497
g57
(g78
g59
NtRp5498
(dp5499
g62
(dp5500
g82
g83
ssg71
g5494
sg64
(lp5501
S'X-Powered-By'
p5502
asbag57
(g78
g59
NtRp5503
(dp5504
g62
(dp5505
g89
g90
ssg71
g5494
sg64
(lp5506
S':'
asbag57
(g78
g59
NtRp5507
(dp5508
g62
(dp5509
sg71
g5494
sg64
(lp5510
g57
(g58
g59
NtRp5511
(dp5512
g62
(dp5513
g70
I4
ssg71
g5507
sg64
(lp5514
S'web2py'
p5515
asbasbasbasbasbasbasbag57
(g73
g59
NtRp5516
(dp5517
g62
(dp5518
sg71
g4737
sg64
(lp5519
g57
(g78
g59
NtRp5520
(dp5521
g62
(dp5522
g82
g83
ssg71
g5516
sg64
(lp5523
S'laptop_out_details'
p5524
asbag57
(g78
g59
NtRp5525
(dp5526
g62
(dp5527
g89
g90
ssg71
g5516
sg64
(lp5528
S':'
asbag57
(g78
g59
NtRp5529
(dp5530
g62
(dp5531
sg71
g5516
sg64
(lp5532
g57
(g58
g59
NtRp5533
(dp5534
g62
(dp5535
g70
I5
ssg71
g5529
sg64
(lp5536
g57
(g66
g59
NtRp5537
(dp5538
g62
(dp5539
g70
I4
ssg71
Nsg64
(lp5540
g57
(g73
g59
NtRp5541
(dp5542
g62
(dp5543
sg71
g5537
sg64
(lp5544
g57
(g78
g59
NtRp5545
(dp5546
g62
(dp5547
sg71
g5541
sg64
(lp5548
g57
(g58
g59
NtRp5549
(dp5550
g62
(dp5551
g70
I4
ssg71
g5545
sg64
(lp5552
g57
(g66
g59
NtRp5553
(dp5554
g62
(dp5555
g70
I3
ssg71
Nsg64
(lp5556
g57
(g73
g59
NtRp5557
(dp5558
g62
(dp5559
sg71
g5553
sg64
(lp5560
g57
(g78
g59
NtRp5561
(dp5562
g62
(dp5563
sg71
g5557
sg64
(lp5564
g57
(g58
g59
NtRp5565
(dp5566
g62
(dp5567
g70
I3
ssg71
g5561
sg64
(lp5568
g4815
(S's\x0f\x00\x00\x00Laptop Movement'
tRp5569
asbasbasbag57
(g73
g59
NtRp5570
(dp5571
g62
(dp5572
sg71
g5553
sg64
(lp5573
g57
(g78
g59
NtRp5574
(dp5575
g62
(dp5576
sg71
g5570
sg64
(lp5577
g57
(g58
g59
NtRp5578
(dp5579
g62
(dp5580
g70
I3
ssg71
g5574
sg64
(lp5581
g100
asbasbasbag57
(g73
g59
NtRp5582
(dp5583
g62
(dp5584
sg71
g5553
sg64
(lp5585
g57
(g78
g59
NtRp5586
(dp5587
g62
(dp5588
sg71
g5582
sg64
(lp5589
g57
(g58
g59
NtRp5590
(dp5591
g62
(dp5592
g70
I3
ssg71
g5586
sg64
(lp5593
S'/sss/default/laptop_out_details'
p5594
asbasbasbag57
(g73
g59
NtRp5595
(dp5596
g62
(dp5597
sg71
g5553
sg64
(lp5598
g57
(g78
g59
NtRp5599
(dp5600
g62
(dp5601
sg71
g5595
sg64
(lp5602
g57
(g58
g59
NtRp5603
(dp5604
g62
(dp5605
g70
I3
ssg71
g5599
sg64
(lp5606
g57
(g66
g59
NtRp5607
(dp5608
g62
(dp5609
g70
I2
ssg71
Nsg64
(lp5610
sbasbasbasbasbasbasbasbasbasbasbasbag57
(g73
g59
NtRp5611
(dp5612
g62
(dp5613
sg71
g4737
sg64
(lp5614
g57
(g78
g59
NtRp5615
(dp5616
g62
(dp5617
g82
g83
ssg71
g5611
sg64
(lp5618
S'medical'
p5619
asbag57
(g78
g59
NtRp5620
(dp5621
g62
(dp5622
g89
g90
ssg71
g5611
sg64
(lp5623
S':'
asbag57
(g78
g59
NtRp5624
(dp5625
g62
(dp5626
sg71
g5611
sg64
(lp5627
g57
(g58
g59
NtRp5628
(dp5629
g62
(dp5630
g70
I5
ssg71
g5624
sg64
(lp5631
g57
(g66
g59
NtRp5632
(dp5633
g62
(dp5634
g70
I4
ssg71
Nsg64
(lp5635
g57
(g73
g59
NtRp5636
(dp5637
g62
(dp5638
sg71
g5632
sg64
(lp5639
g57
(g78
g59
NtRp5640
(dp5641
g62
(dp5642
sg71
g5636
sg64
(lp5643
g57
(g58
g59
NtRp5644
(dp5645
g62
(dp5646
g70
I4
ssg71
g5640
sg64
(lp5647
g57
(g66
g59
NtRp5648
(dp5649
g62
(dp5650
g70
I3
ssg71
Nsg64
(lp5651
g57
(g73
g59
NtRp5652
(dp5653
g62
(dp5654
sg71
g5648
sg64
(lp5655
g57
(g78
g59
NtRp5656
(dp5657
g62
(dp5658
sg71
g5652
sg64
(lp5659
g57
(g58
g59
NtRp5660
(dp5661
g62
(dp5662
g70
I3
ssg71
g5656
sg64
(lp5663
g4815
(S's\x10\x00\x00\x00Medical Requests'
tRp5664
asbasbasbag57
(g73
g59
NtRp5665
(dp5666
g62
(dp5667
sg71
g5648
sg64
(lp5668
g57
(g78
g59
NtRp5669
(dp5670
g62
(dp5671
sg71
g5665
sg64
(lp5672
g57
(g58
g59
NtRp5673
(dp5674
g62
(dp5675
g70
I3
ssg71
g5669
sg64
(lp5676
g100
asbasbasbag57
(g73
g59
NtRp5677
(dp5678
g62
(dp5679
sg71
g5648
sg64
(lp5680
g57
(g78
g59
NtRp5681
(dp5682
g62
(dp5683
sg71
g5677
sg64
(lp5684
g57
(g58
g59
NtRp5685
(dp5686
g62
(dp5687
g70
I3
ssg71
g5681
sg64
(lp5688
S'/sss/default/byroll'
p5689
asbasbasbag57
(g73
g59
NtRp5690
(dp5691
g62
(dp5692
sg71
g5648
sg64
(lp5693
g57
(g78
g59
NtRp5694
(dp5695
g62
(dp5696
sg71
g5690
sg64
(lp5697
g57
(g58
g59
NtRp5698
(dp5699
g62
(dp5700
g70
I3
ssg71
g5694
sg64
(lp5701
g57
(g66
g59
NtRp5702
(dp5703
g62
(dp5704
g70
I2
ssg71
Nsg64
(lp5705
sbasbasbasbasbasbasbasbasbasbasbasbag57
(g73
g59
NtRp5706
(dp5707
g62
(dp5708
sg71
g4737
sg64
(lp5709
g57
(g78
g59
NtRp5710
(dp5711
g62
(dp5712
g82
g83
ssg71
g5706
sg64
(lp5713
S'menu'
p5714
asbag57
(g78
g59
NtRp5715
(dp5716
g62
(dp5717
g89
g90
ssg71
g5706
sg64
(lp5718
S':'
asbag57
(g78
g59
NtRp5719
(dp5720
g62
(dp5721
sg71
g5706
sg64
(lp5722
g57
(g58
g59
NtRp5723
(dp5724
g62
(dp5725
g70
I5
ssg71
g5719
sg64
(lp5726
g57
(g66
g59
NtRp5727
(dp5728
g62
(dp5729
g70
I4
ssg71
Nsg64
(lp5730
g57
(g73
g59
NtRp5731
(dp5732
g62
(dp5733
sg71
g5727
sg64
(lp5734
g57
(g78
g59
NtRp5735
(dp5736
g62
(dp5737
sg71
g5731
sg64
(lp5738
g57
(g58
g59
NtRp5739
(dp5740
g62
(dp5741
g70
I4
ssg71
g5735
sg64
(lp5742
g57
(g66
g59
NtRp5743
(dp5744
g62
(dp5745
g70
I3
ssg71
Nsg64
(lp5746
g57
(g73
g59
NtRp5747
(dp5748
g62
(dp5749
sg71
g5743
sg64
(lp5750
g57
(g78
g59
NtRp5751
(dp5752
g62
(dp5753
sg71
g5747
sg64
(lp5754
g57
(g58
g59
NtRp5755
(dp5756
g62
(dp5757
g70
I3
ssg71
g5751
sg64
(lp5758
g4815
(S't\x04\x00\x00\x00HOME'
tRp5759
asbasbasbag57
(g73
g59
NtRp5760
(dp5761
g62
(dp5762
sg71
g5743
sg64
(lp5763
g57
(g78
g59
NtRp5764
(dp5765
g62
(dp5766
sg71
g5760
sg64
(lp5767
g57
(g58
g59
NtRp5768
(dp5769
g62
(dp5770
g70
I3
ssg71
g5764
sg64
(lp5771
g100
asbasbasbag57
(g73
g59
NtRp5772
(dp5773
g62
(dp5774
sg71
g5743
sg64
(lp5775
g57
(g78
g59
NtRp5776
(dp5777
g62
(dp5778
sg71
g5772
sg64
(lp5779
g57
(g58
g59
NtRp5780
(dp5781
g62
(dp5782
g70
I3
ssg71
g5776
sg64
(lp5783
S'/sss/default/index'
p5784
asbasbasbag57
(g73
g59
NtRp5785
(dp5786
g62
(dp5787
sg71
g5743
sg64
(lp5788
g57
(g78
g59
NtRp5789
(dp5790
g62
(dp5791
sg71
g5785
sg64
(lp5792
g57
(g58
g59
NtRp5793
(dp5794
g62
(dp5795
g70
I3
ssg71
g5789
sg64
(lp5796
g57
(g66
g59
NtRp5797
(dp5798
g62
(dp5799
g70
I2
ssg71
Nsg64
(lp5800
sbasbasbasbasbasbasbasbasbasbasbasbag57
(g73
g59
NtRp5801
(dp5802
g62
(dp5803
sg71
g4737
sg64
(lp5804
g57
(g78
g59
NtRp5805
(dp5806
g62
(dp5807
g82
g83
ssg71
g5801
sg64
(lp5808
S'meta'
p5809
asbag57
(g78
g59
NtRp5810
(dp5811
g62
(dp5812
g89
g90
ssg71
g5801
sg64
(lp5813
S':'
asbag57
(g78
g59
NtRp5814
(dp5815
g62
(dp5816
sg71
g5801
sg64
(lp5817
g57
(g58
g59
NtRp5818
(dp5819
g62
(dp5820
g70
I5
ssg71
g5814
sg64
(lp5821
g57
(g66
g59
NtRp5822
(dp5823
g62
(dp5824
g70
I4
ssg71
Nsg64
(lp5825
g57
(g73
g59
NtRp5826
(dp5827
g62
(dp5828
sg71
g5822
sg64
(lp5829
g57
(g78
g59
NtRp5830
(dp5831
g62
(dp5832
g82
g83
ssg71
g5826
sg64
(lp5833
S'author'
p5834
asbag57
(g78
g59
NtRp5835
(dp5836
g62
(dp5837
g89
g90
ssg71
g5826
sg64
(lp5838
S':'
asbag57
(g78
g59
NtRp5839
(dp5840
g62
(dp5841
sg71
g5826
sg64
(lp5842
g57
(g58
g59
NtRp5843
(dp5844
g62
(dp5845
g70
I4
ssg71
g5839
sg64
(lp5846
S'you <you@example.com>'
p5847
asbasbasbag57
(g73
g59
NtRp5848
(dp5849
g62
(dp5850
sg71
g5822
sg64
(lp5851
g57
(g78
g59
NtRp5852
(dp5853
g62
(dp5854
g82
g83
ssg71
g5848
sg64
(lp5855
S'description'
p5856
asbag57
(g78
g59
NtRp5857
(dp5858
g62
(dp5859
g89
g90
ssg71
g5848
sg64
(lp5860
S':'
asbag57
(g78
g59
NtRp5861
(dp5862
g62
(dp5863
sg71
g5848
sg64
(lp5864
g57
(g58
g59
NtRp5865
(dp5866
g62
(dp5867
g70
I4
ssg71
g5861
sg64
(lp5868
S''
asbasbasbag57
(g73
g59
NtRp5869
(dp5870
g62
(dp5871
sg71
g5822
sg64
(lp5872
g57
(g78
g59
NtRp5873
(dp5874
g62
(dp5875
g82
g83
ssg71
g5869
sg64
(lp5876
S'keywords'
p5877
asbag57
(g78
g59
NtRp5878
(dp5879
g62
(dp5880
g89
g90
ssg71
g5869
sg64
(lp5881
S':'
asbag57
(g78
g59
NtRp5882
(dp5883
g62
(dp5884
sg71
g5869
sg64
(lp5885
g57
(g58
g59
NtRp5886
(dp5887
g62
(dp5888
g70
I4
ssg71
g5882
sg64
(lp5889
S''
asbasbasbasbasbasbasbag57
(g73
g59
NtRp5890
(dp5891
g62
(dp5892
sg71
g4737
sg64
(lp5893
g57
(g78
g59
NtRp5894
(dp5895
g62
(dp5896
g82
g83
ssg71
g5890
sg64
(lp5897
S'models_to_run'
p5898
asbag57
(g78
g59
NtRp5899
(dp5900
g62
(dp5901
g89
g90
ssg71
g5890
sg64
(lp5902
S':'
asbag57
(g78
g59
NtRp5903
(dp5904
g62
(dp5905
sg71
g5890
sg64
(lp5906
g57
(g58
g59
NtRp5907
(dp5908
g62
(dp5909
g70
I5
ssg71
g5903
sg64
(lp5910
g57
(g66
g59
NtRp5911
(dp5912
g62
(dp5913
g70
I4
ssg71
Nsg64
(lp5914
g57
(g73
g59
NtRp5915
(dp5916
g62
(dp5917
sg71
g5911
sg64
(lp5918
g57
(g78
g59
NtRp5919
(dp5920
g62
(dp5921
sg71
g5915
sg64
(lp5922
g57
(g58
g59
NtRp5923
(dp5924
g62
(dp5925
g70
I4
ssg71
g5919
sg64
(lp5926
S'^\\w+\\.py$'
p5927
asbasbasbag57
(g73
g59
NtRp5928
(dp5929
g62
(dp5930
sg71
g5911
sg64
(lp5931
g57
(g78
g59
NtRp5932
(dp5933
g62
(dp5934
sg71
g5928
sg64
(lp5935
g57
(g58
g59
NtRp5936
(dp5937
g62
(dp5938
g70
I4
ssg71
g5932
sg64
(lp5939
S'^default/\\w+\\.py$'
p5940
asbasbasbag57
(g73
g59
NtRp5941
(dp5942
g62
(dp5943
sg71
g5911
sg64
(lp5944
g57
(g78
g59
NtRp5945
(dp5946
g62
(dp5947
sg71
g5941
sg64
(lp5948
g57
(g58
g59
NtRp5949
(dp5950
g62
(dp5951
g70
I4
ssg71
g5945
sg64
(lp5952
S'^default/show_laptop_details/\\w+\\.py$'
p5953
asbasbasbasbasbasbasbag57
(g73
g59
NtRp5954
(dp5955
g62
(dp5956
sg71
g4737
sg64
(lp5957
g57
(g78
g59
NtRp5958
(dp5959
g62
(dp5960
g82
g83
ssg71
g5954
sg64
(lp5961
S'postprocessing'
p5962
asbag57
(g78
g59
NtRp5963
(dp5964
g62
(dp5965
g89
g90
ssg71
g5954
sg64
(lp5966
S':'
asbag57
(g78
g59
NtRp5967
(dp5968
g62
(dp5969
sg71
g5954
sg64
(lp5970
g57
(g58
g59
NtRp5971
(dp5972
g62
(dp5973
g70
I5
ssg71
g5967
sg64
(lp5974
g57
(g66
g59
NtRp5975
(dp5976
g62
(dp5977
g70
I4
ssg71
Nsg64
(lp5978
sbasbasbasbag57
(g73
g59
NtRp5979
(dp5980
g62
(dp5981
sg71
g4737
sg64
(lp5982
g57
(g78
g59
NtRp5983
(dp5984
g62
(dp5985
g82
g83
ssg71
g5979
sg64
(lp5986
S'search'
p5987
asbag57
(g78
g59
NtRp5988
(dp5989
g62
(dp5990
g89
g90
ssg71
g5979
sg64
(lp5991
S':'
asbag57
(g78
g59
NtRp5992
(dp5993
g62
(dp5994
sg71
g5979
sg64
(lp5995
g57
(g58
g59
NtRp5996
(dp5997
g62
(dp5998
g70
I5
ssg71
g5992
sg64
(lp5999
g57
(g66
g59
NtRp6000
(dp6001
g62
(dp6002
g70
I4
ssg71
Nsg64
(lp6003
g57
(g73
g59
NtRp6004
(dp6005
g62
(dp6006
sg71
g6000
sg64
(lp6007
g57
(g78
g59
NtRp6008
(dp6009
g62
(dp6010
sg71
g6004
sg64
(lp6011
g57
(g58
g59
NtRp6012
(dp6013
g62
(dp6014
g70
I4
ssg71
g6008
sg64
(lp6015
g57
(g66
g59
NtRp6016
(dp6017
g62
(dp6018
g70
I3
ssg71
Nsg64
(lp6019
g57
(g73
g59
NtRp6020
(dp6021
g62
(dp6022
sg71
g6016
sg64
(lp6023
g57
(g78
g59
NtRp6024
(dp6025
g62
(dp6026
sg71
g6020
sg64
(lp6027
g57
(g58
g59
NtRp6028
(dp6029
g62
(dp6030
g70
I3
ssg71
g6024
sg64
(lp6031
g4815
(S't\x06\x00\x00\x00SEARCH'
tRp6032
asbasbasbag57
(g73
g59
NtRp6033
(dp6034
g62
(dp6035
sg71
g6016
sg64
(lp6036
g57
(g78
g59
NtRp6037
(dp6038
g62
(dp6039
sg71
g6033
sg64
(lp6040
g57
(g58
g59
NtRp6041
(dp6042
g62
(dp6043
g70
I3
ssg71
g6037
sg64
(lp6044
g100
asbasbasbag57
(g73
g59
NtRp6045
(dp6046
g62
(dp6047
sg71
g6016
sg64
(lp6048
g57
(g78
g59
NtRp6049
(dp6050
g62
(dp6051
sg71
g6045
sg64
(lp6052
g57
(g58
g59
NtRp6053
(dp6054
g62
(dp6055
g70
I3
ssg71
g6049
sg64
(lp6056
S'/sss/default/search'
p6057
asbasbasbag57
(g73
g59
NtRp6058
(dp6059
g62
(dp6060
sg71
g6016
sg64
(lp6061
g57
(g78
g59
NtRp6062
(dp6063
g62
(dp6064
sg71
g6058
sg64
(lp6065
g57
(g58
g59
NtRp6066
(dp6067
g62
(dp6068
g70
I3
ssg71
g6062
sg64
(lp6069
g57
(g66
g59
NtRp6070
(dp6071
g62
(dp6072
g70
I2
ssg71
Nsg64
(lp6073
sbasbasbasbasbasbasbasbasbasbasbasbag57
(g73
g59
NtRp6074
(dp6075
g62
(dp6076
sg71
g4737
sg64
(lp6077
g57
(g78
g59
NtRp6078
(dp6079
g62
(dp6080
g82
g83
ssg71
g6074
sg64
(lp6081
S'session_cookie_expires'
p6082
asbag57
(g78
g59
NtRp6083
(dp6084
g62
(dp6085
g89
g90
ssg71
g6074
sg64
(lp6086
S':'
asbag57
(g78
g59
NtRp6087
(dp6088
g62
(dp6089
sg71
g6074
sg64
(lp6090
g57
(g58
g59
NtRp6091
(dp6092
g62
(dp6093
g70
I5
ssg71
g6087
sg64
(lp6094
S'None'
p6095
asbasbasbag57
(g73
g59
NtRp6096
(dp6097
g62
(dp6098
sg71
g4737
sg64
(lp6099
g57
(g78
g59
NtRp6100
(dp6101
g62
(dp6102
g82
g83
ssg71
g6096
sg64
(lp6103
S'session_data_name'
p6104
asbag57
(g78
g59
NtRp6105
(dp6106
g62
(dp6107
g89
g90
ssg71
g6096
sg64
(lp6108
S':'
asbag57
(g78
g59
NtRp6109
(dp6110
g62
(dp6111
sg71
g6096
sg64
(lp6112
g57
(g58
g59
NtRp6113
(dp6114
g62
(dp6115
g70
I5
ssg71
g6109
sg64
(lp6116
S'session_data_sss'
p6117
asbasbasbag57
(g73
g59
NtRp6118
(dp6119
g62
(dp6120
sg71
g4737
sg64
(lp6121
g57
(g78
g59
NtRp6122
(dp6123
g62
(dp6124
g82
g83
ssg71
g6118
sg64
(lp6125
S'session_file'
p6126
asbag57
(g78
g59
NtRp6127
(dp6128
g62
(dp6129
g89
g90
ssg71
g6118
sg64
(lp6130
S':'
asbag57
(g78
g59
NtRp6131
(dp6132
g62
(dp6133
sg71
g6118
sg64
(lp6134
g57
(g58
g59
NtRp6135
(dp6136
g62
(dp6137
g70
I5
ssg71
g6131
sg64
(lp6138
S"<open file '/home/bhanu/web2py/applications/sss/sessions/127.0.0.1-ba9f9498-77ca-43cf-8cca-4cd1b55c3984', mode 'rb+' at 0x7f08902e5930>"
p6139
asbasbasbag57
(g73
g59
NtRp6140
(dp6141
g62
(dp6142
sg71
g4737
sg64
(lp6143
g57
(g78
g59
NtRp6144
(dp6145
g62
(dp6146
g82
g83
ssg71
g6140
sg64
(lp6147
S'session_filename'
p6148
asbag57
(g78
g59
NtRp6149
(dp6150
g62
(dp6151
g89
g90
ssg71
g6140
sg64
(lp6152
S':'
asbag57
(g78
g59
NtRp6153
(dp6154
g62
(dp6155
sg71
g6140
sg64
(lp6156
g57
(g58
g59
NtRp6157
(dp6158
g62
(dp6159
g70
I5
ssg71
g6153
sg64
(lp6160
S'/home/bhanu/web2py/applications/sss/sessions/127.0.0.1-ba9f9498-77ca-43cf-8cca-4cd1b55c3984'
p6161
asbasbasbag57
(g73
g59
NtRp6162
(dp6163
g62
(dp6164
sg71
g4737
sg64
(lp6165
g57
(g78
g59
NtRp6166
(dp6167
g62
(dp6168
g82
g83
ssg71
g6162
sg64
(lp6169
S'session_id'
p6170
asbag57
(g78
g59
NtRp6171
(dp6172
g62
(dp6173
g89
g90
ssg71
g6162
sg64
(lp6174
S':'
asbag57
(g78
g59
NtRp6175
(dp6176
g62
(dp6177
sg71
g6162
sg64
(lp6178
g57
(g58
g59
NtRp6179
(dp6180
g62
(dp6181
g70
I5
ssg71
g6175
sg64
(lp6182
g1046
asbasbasbag57
(g73
g59
NtRp6183
(dp6184
g62
(dp6185
sg71
g4737
sg64
(lp6186
g57
(g78
g59
NtRp6187
(dp6188
g62
(dp6189
g82
g83
ssg71
g6183
sg64
(lp6190
S'session_id_name'
p6191
asbag57
(g78
g59
NtRp6192
(dp6193
g62
(dp6194
g89
g90
ssg71
g6183
sg64
(lp6195
S':'
asbag57
(g78
g59
NtRp6196
(dp6197
g62
(dp6198
sg71
g6183
sg64
(lp6199
g57
(g58
g59
NtRp6200
(dp6201
g62
(dp6202
g70
I5
ssg71
g6196
sg64
(lp6203
g4985
asbasbasbag57
(g73
g59
NtRp6204
(dp6205
g62
(dp6206
sg71
g4737
sg64
(lp6207
g57
(g78
g59
NtRp6208
(dp6209
g62
(dp6210
g82
g83
ssg71
g6204
sg64
(lp6211
S'session_locked'
p6212
asbag57
(g78
g59
NtRp6213
(dp6214
g62
(dp6215
g89
g90
ssg71
g6204
sg64
(lp6216
S':'
asbag57
(g78
g59
NtRp6217
(dp6218
g62
(dp6219
sg71
g6204
sg64
(lp6220
g57
(g58
g59
NtRp6221
(dp6222
g62
(dp6223
g70
I5
ssg71
g6217
sg64
(lp6224
g3105
asbasbasbag57
(g73
g59
NtRp6225
(dp6226
g62
(dp6227
sg71
g4737
sg64
(lp6228
g57
(g78
g59
NtRp6229
(dp6230
g62
(dp6231
g82
g83
ssg71
g6225
sg64
(lp6232
S'session_new'
p6233
asbag57
(g78
g59
NtRp6234
(dp6235
g62
(dp6236
g89
g90
ssg71
g6225
sg64
(lp6237
S':'
asbag57
(g78
g59
NtRp6238
(dp6239
g62
(dp6240
sg71
g6225
sg64
(lp6241
g57
(g58
g59
NtRp6242
(dp6243
g62
(dp6244
g70
I5
ssg71
g6238
sg64
(lp6245
g100
asbasbasbag57
(g73
g59
NtRp6246
(dp6247
g62
(dp6248
sg71
g4737
sg64
(lp6249
g57
(g78
g59
NtRp6250
(dp6251
g62
(dp6252
g82
g83
ssg71
g6246
sg64
(lp6253
S'session_storage_type'
p6254
asbag57
(g78
g59
NtRp6255
(dp6256
g62
(dp6257
g89
g90
ssg71
g6246
sg64
(lp6258
S':'
asbag57
(g78
g59
NtRp6259
(dp6260
g62
(dp6261
sg71
g6246
sg64
(lp6262
g57
(g58
g59
NtRp6263
(dp6264
g62
(dp6265
g70
I5
ssg71
g6259
sg64
(lp6266
g4558
asbasbasbag57
(g73
g59
NtRp6267
(dp6268
g62
(dp6269
sg71
g4737
sg64
(lp6270
g57
(g78
g59
NtRp6271
(dp6272
g62
(dp6273
g82
g83
ssg71
g6267
sg64
(lp6274
S'staff'
p6275
asbag57
(g78
g59
NtRp6276
(dp6277
g62
(dp6278
g89
g90
ssg71
g6267
sg64
(lp6279
S':'
asbag57
(g78
g59
NtRp6280
(dp6281
g62
(dp6282
sg71
g6267
sg64
(lp6283
g57
(g58
g59
NtRp6284
(dp6285
g62
(dp6286
g70
I5
ssg71
g6280
sg64
(lp6287
g57
(g66
g59
NtRp6288
(dp6289
g62
(dp6290
g70
I4
ssg71
Nsg64
(lp6291
g57
(g73
g59
NtRp6292
(dp6293
g62
(dp6294
sg71
g6288
sg64
(lp6295
g57
(g78
g59
NtRp6296
(dp6297
g62
(dp6298
sg71
g6292
sg64
(lp6299
g57
(g58
g59
NtRp6300
(dp6301
g62
(dp6302
g70
I4
ssg71
g6296
sg64
(lp6303
g57
(g66
g59
NtRp6304
(dp6305
g62
(dp6306
g70
I3
ssg71
Nsg64
(lp6307
g57
(g73
g59
NtRp6308
(dp6309
g62
(dp6310
sg71
g6304
sg64
(lp6311
g57
(g78
g59
NtRp6312
(dp6313
g62
(dp6314
sg71
g6308
sg64
(lp6315
g57
(g58
g59
NtRp6316
(dp6317
g62
(dp6318
g70
I3
ssg71
g6312
sg64
(lp6319
g5759
asbasbasbag57
(g73
g59
NtRp6320
(dp6321
g62
(dp6322
sg71
g6304
sg64
(lp6323
g57
(g78
g59
NtRp6324
(dp6325
g62
(dp6326
sg71
g6320
sg64
(lp6327
g57
(g58
g59
NtRp6328
(dp6329
g62
(dp6330
g70
I3
ssg71
g6324
sg64
(lp6331
g100
asbasbasbag57
(g73
g59
NtRp6332
(dp6333
g62
(dp6334
sg71
g6304
sg64
(lp6335
g57
(g78
g59
NtRp6336
(dp6337
g62
(dp6338
sg71
g6332
sg64
(lp6339
g57
(g58
g59
NtRp6340
(dp6341
g62
(dp6342
g70
I3
ssg71
g6336
sg64
(lp6343
g5784
asbasbasbag57
(g73
g59
NtRp6344
(dp6345
g62
(dp6346
sg71
g6304
sg64
(lp6347
g57
(g78
g59
NtRp6348
(dp6349
g62
(dp6350
sg71
g6344
sg64
(lp6351
g57
(g58
g59
NtRp6352
(dp6353
g62
(dp6354
g70
I3
ssg71
g6348
sg64
(lp6355
g57
(g66
g59
NtRp6356
(dp6357
g62
(dp6358
g70
I2
ssg71
Nsg64
(lp6359
sbasbasbasbasbasbasbasbag57
(g73
g59
NtRp6360
(dp6361
g62
(dp6362
sg71
g6288
sg64
(lp6363
g57
(g78
g59
NtRp6364
(dp6365
g62
(dp6366
sg71
g6360
sg64
(lp6367
g57
(g58
g59
NtRp6368
(dp6369
g62
(dp6370
g70
I4
ssg71
g6364
sg64
(lp6371
g57
(g66
g59
NtRp6372
(dp6373
g62
(dp6374
g70
I3
ssg71
Nsg64
(lp6375
g57
(g73
g59
NtRp6376
(dp6377
g62
(dp6378
sg71
g6372
sg64
(lp6379
g57
(g78
g59
NtRp6380
(dp6381
g62
(dp6382
sg71
g6376
sg64
(lp6383
g57
(g58
g59
NtRp6384
(dp6385
g62
(dp6386
g70
I3
ssg71
g6380
sg64
(lp6387
g4815
(S's\x0f\x00\x00\x00View Complaints'
tRp6388
asbasbasbag57
(g73
g59
NtRp6389
(dp6390
g62
(dp6391
sg71
g6372
sg64
(lp6392
g57
(g78
g59
NtRp6393
(dp6394
g62
(dp6395
sg71
g6389
sg64
(lp6396
g57
(g58
g59
NtRp6397
(dp6398
g62
(dp6399
g70
I3
ssg71
g6393
sg64
(lp6400
g100
asbasbasbag57
(g73
g59
NtRp6401
(dp6402
g62
(dp6403
sg71
g6372
sg64
(lp6404
g57
(g78
g59
NtRp6405
(dp6406
g62
(dp6407
sg71
g6401
sg64
(lp6408
g57
(g58
g59
NtRp6409
(dp6410
g62
(dp6411
g70
I3
ssg71
g6405
sg64
(lp6412
S'/sss/default/vcomplaint'
p6413
asbasbasbag57
(g73
g59
NtRp6414
(dp6415
g62
(dp6416
sg71
g6372
sg64
(lp6417
g57
(g78
g59
NtRp6418
(dp6419
g62
(dp6420
sg71
g6414
sg64
(lp6421
g57
(g58
g59
NtRp6422
(dp6423
g62
(dp6424
g70
I3
ssg71
g6418
sg64
(lp6425
g57
(g66
g59
NtRp6426
(dp6427
g62
(dp6428
g70
I2
ssg71
Nsg64
(lp6429
sbasbasbasbasbasbasbasbag57
(g73
g59
NtRp6430
(dp6431
g62
(dp6432
sg71
g6288
sg64
(lp6433
g57
(g78
g59
NtRp6434
(dp6435
g62
(dp6436
sg71
g6430
sg64
(lp6437
g57
(g58
g59
NtRp6438
(dp6439
g62
(dp6440
g70
I4
ssg71
g6434
sg64
(lp6441
g57
(g66
g59
NtRp6442
(dp6443
g62
(dp6444
g70
I3
ssg71
Nsg64
(lp6445
g57
(g73
g59
NtRp6446
(dp6447
g62
(dp6448
sg71
g6442
sg64
(lp6449
g57
(g78
g59
NtRp6450
(dp6451
g62
(dp6452
sg71
g6446
sg64
(lp6453
g57
(g58
g59
NtRp6454
(dp6455
g62
(dp6456
g70
I3
ssg71
g6450
sg64
(lp6457
g4815
(S's\x10\x00\x00\x00Medical Requests'
tRp6458
asbasbasbag57
(g73
g59
NtRp6459
(dp6460
g62
(dp6461
sg71
g6442
sg64
(lp6462
g57
(g78
g59
NtRp6463
(dp6464
g62
(dp6465
sg71
g6459
sg64
(lp6466
g57
(g58
g59
NtRp6467
(dp6468
g62
(dp6469
g70
I3
ssg71
g6463
sg64
(lp6470
g100
asbasbasbag57
(g73
g59
NtRp6471
(dp6472
g62
(dp6473
sg71
g6442
sg64
(lp6474
g57
(g78
g59
NtRp6475
(dp6476
g62
(dp6477
sg71
g6471
sg64
(lp6478
g57
(g58
g59
NtRp6479
(dp6480
g62
(dp6481
g70
I3
ssg71
g6475
sg64
(lp6482
S'/sss/default/vmedical'
p6483
asbasbasbag57
(g73
g59
NtRp6484
(dp6485
g62
(dp6486
sg71
g6442
sg64
(lp6487
g57
(g78
g59
NtRp6488
(dp6489
g62
(dp6490
sg71
g6484
sg64
(lp6491
g57
(g58
g59
NtRp6492
(dp6493
g62
(dp6494
g70
I3
ssg71
g6488
sg64
(lp6495
g57
(g66
g59
NtRp6496
(dp6497
g62
(dp6498
g70
I2
ssg71
Nsg64
(lp6499
sbasbasbasbasbasbasbasbag57
(g73
g59
NtRp6500
(dp6501
g62
(dp6502
sg71
g6288
sg64
(lp6503
g57
(g78
g59
NtRp6504
(dp6505
g62
(dp6506
sg71
g6500
sg64
(lp6507
g57
(g58
g59
NtRp6508
(dp6509
g62
(dp6510
g70
I4
ssg71
g6504
sg64
(lp6511
g57
(g66
g59
NtRp6512
(dp6513
g62
(dp6514
g70
I3
ssg71
Nsg64
(lp6515
g57
(g73
g59
NtRp6516
(dp6517
g62
(dp6518
sg71
g6512
sg64
(lp6519
g57
(g78
g59
NtRp6520
(dp6521
g62
(dp6522
sg71
g6516
sg64
(lp6523
g57
(g58
g59
NtRp6524
(dp6525
g62
(dp6526
g70
I3
ssg71
g6520
sg64
(lp6527
g4816
asbasbasbag57
(g73
g59
NtRp6528
(dp6529
g62
(dp6530
sg71
g6512
sg64
(lp6531
g57
(g78
g59
NtRp6532
(dp6533
g62
(dp6534
sg71
g6528
sg64
(lp6535
g57
(g58
g59
NtRp6536
(dp6537
g62
(dp6538
g70
I3
ssg71
g6532
sg64
(lp6539
g100
asbasbasbag57
(g73
g59
NtRp6540
(dp6541
g62
(dp6542
sg71
g6512
sg64
(lp6543
g57
(g78
g59
NtRp6544
(dp6545
g62
(dp6546
sg71
g6540
sg64
(lp6547
g57
(g58
g59
NtRp6548
(dp6549
g62
(dp6550
g70
I3
ssg71
g6544
sg64
(lp6551
g4841
asbasbasbag57
(g73
g59
NtRp6552
(dp6553
g62
(dp6554
sg71
g6512
sg64
(lp6555
g57
(g78
g59
NtRp6556
(dp6557
g62
(dp6558
sg71
g6552
sg64
(lp6559
g57
(g58
g59
NtRp6560
(dp6561
g62
(dp6562
g70
I3
ssg71
g6556
sg64
(lp6563
g57
(g66
g59
NtRp6564
(dp6565
g62
(dp6566
g70
I2
ssg71
Nsg64
(lp6567
sbasbasbasbasbasbasbasbag57
(g73
g59
NtRp6568
(dp6569
g62
(dp6570
sg71
g6288
sg64
(lp6571
g57
(g78
g59
NtRp6572
(dp6573
g62
(dp6574
sg71
g6568
sg64
(lp6575
g57
(g58
g59
NtRp6576
(dp6577
g62
(dp6578
g70
I4
ssg71
g6572
sg64
(lp6579
g57
(g66
g59
NtRp6580
(dp6581
g62
(dp6582
g70
I3
ssg71
Nsg64
(lp6583
g57
(g73
g59
NtRp6584
(dp6585
g62
(dp6586
sg71
g6580
sg64
(lp6587
g57
(g78
g59
NtRp6588
(dp6589
g62
(dp6590
sg71
g6584
sg64
(lp6591
g57
(g58
g59
NtRp6592
(dp6593
g62
(dp6594
g70
I3
ssg71
g6588
sg64
(lp6595
g5266
asbasbasbag57
(g73
g59
NtRp6596
(dp6597
g62
(dp6598
sg71
g6580
sg64
(lp6599
g57
(g78
g59
NtRp6600
(dp6601
g62
(dp6602
sg71
g6596
sg64
(lp6603
g57
(g58
g59
NtRp6604
(dp6605
g62
(dp6606
g70
I3
ssg71
g6600
sg64
(lp6607
g100
asbasbasbag57
(g73
g59
NtRp6608
(dp6609
g62
(dp6610
sg71
g6580
sg64
(lp6611
g57
(g78
g59
NtRp6612
(dp6613
g62
(dp6614
sg71
g6608
sg64
(lp6615
g57
(g58
g59
NtRp6616
(dp6617
g62
(dp6618
g70
I3
ssg71
g6612
sg64
(lp6619
g5291
asbasbasbag57
(g73
g59
NtRp6620
(dp6621
g62
(dp6622
sg71
g6580
sg64
(lp6623
g57
(g78
g59
NtRp6624
(dp6625
g62
(dp6626
sg71
g6620
sg64
(lp6627
g57
(g58
g59
NtRp6628
(dp6629
g62
(dp6630
g70
I3
ssg71
g6624
sg64
(lp6631
g57
(g66
g59
NtRp6632
(dp6633
g62
(dp6634
g70
I2
ssg71
Nsg64
(lp6635
sbasbasbasbasbasbasbasbag57
(g73
g59
NtRp6636
(dp6637
g62
(dp6638
sg71
g6288
sg64
(lp6639
g57
(g78
g59
NtRp6640
(dp6641
g62
(dp6642
sg71
g6636
sg64
(lp6643
g57
(g58
g59
NtRp6644
(dp6645
g62
(dp6646
g70
I4
ssg71
g6640
sg64
(lp6647
g57
(g66
g59
NtRp6648
(dp6649
g62
(dp6650
g70
I3
ssg71
Nsg64
(lp6651
g57
(g73
g59
NtRp6652
(dp6653
g62
(dp6654
sg71
g6648
sg64
(lp6655
g57
(g78
g59
NtRp6656
(dp6657
g62
(dp6658
sg71
g6652
sg64
(lp6659
g57
(g58
g59
NtRp6660
(dp6661
g62
(dp6662
g70
I3
ssg71
g6656
sg64
(lp6663
g4815
(S's\x0e\x00\x00\x00Outing Details'
tRp6664
asbasbasbag57
(g73
g59
NtRp6665
(dp6666
g62
(dp6667
sg71
g6648
sg64
(lp6668
g57
(g78
g59
NtRp6669
(dp6670
g62
(dp6671
sg71
g6665
sg64
(lp6672
g57
(g58
g59
NtRp6673
(dp6674
g62
(dp6675
g70
I3
ssg71
g6669
sg64
(lp6676
g100
asbasbasbag57
(g73
g59
NtRp6677
(dp6678
g62
(dp6679
sg71
g6648
sg64
(lp6680
g57
(g78
g59
NtRp6681
(dp6682
g62
(dp6683
sg71
g6677
sg64
(lp6684
g57
(g58
g59
NtRp6685
(dp6686
g62
(dp6687
g70
I3
ssg71
g6681
sg64
(lp6688
S'/sss/default/student_out_details'
p6689
asbasbasbag57
(g73
g59
NtRp6690
(dp6691
g62
(dp6692
sg71
g6648
sg64
(lp6693
g57
(g78
g59
NtRp6694
(dp6695
g62
(dp6696
sg71
g6690
sg64
(lp6697
g57
(g58
g59
NtRp6698
(dp6699
g62
(dp6700
g70
I3
ssg71
g6694
sg64
(lp6701
g57
(g66
g59
NtRp6702
(dp6703
g62
(dp6704
g70
I2
ssg71
Nsg64
(lp6705
sbasbasbasbasbasbasbasbasbasbasbasbag57
(g73
g59
NtRp6706
(dp6707
g62
(dp6708
sg71
g4737
sg64
(lp6709
g57
(g78
g59
NtRp6710
(dp6711
g62
(dp6712
g82
g83
ssg71
g6706
sg64
(lp6713
S'status'
p6714
asbag57
(g78
g59
NtRp6715
(dp6716
g62
(dp6717
g89
g90
ssg71
g6706
sg64
(lp6718
S':'
asbag57
(g78
g59
NtRp6719
(dp6720
g62
(dp6721
sg71
g6706
sg64
(lp6722
g57
(g58
g59
NtRp6723
(dp6724
g62
(dp6725
g70
I5
ssg71
g6719
sg64
(lp6726
S'200'
p6727
asbasbasbag57
(g73
g59
NtRp6728
(dp6729
g62
(dp6730
sg71
g4737
sg64
(lp6731
g57
(g78
g59
NtRp6732
(dp6733
g62
(dp6734
g82
g83
ssg71
g6728
sg64
(lp6735
S'student'
p6736
asbag57
(g78
g59
NtRp6737
(dp6738
g62
(dp6739
g89
g90
ssg71
g6728
sg64
(lp6740
S':'
asbag57
(g78
g59
NtRp6741
(dp6742
g62
(dp6743
sg71
g6728
sg64
(lp6744
g57
(g58
g59
NtRp6745
(dp6746
g62
(dp6747
g70
I5
ssg71
g6741
sg64
(lp6748
g57
(g66
g59
NtRp6749
(dp6750
g62
(dp6751
g70
I4
ssg71
Nsg64
(lp6752
g57
(g73
g59
NtRp6753
(dp6754
g62
(dp6755
sg71
g6749
sg64
(lp6756
g57
(g78
g59
NtRp6757
(dp6758
g62
(dp6759
sg71
g6753
sg64
(lp6760
g57
(g58
g59
NtRp6761
(dp6762
g62
(dp6763
g70
I4
ssg71
g6757
sg64
(lp6764
g57
(g66
g59
NtRp6765
(dp6766
g62
(dp6767
g70
I3
ssg71
Nsg64
(lp6768
g57
(g73
g59
NtRp6769
(dp6770
g62
(dp6771
sg71
g6765
sg64
(lp6772
g57
(g78
g59
NtRp6773
(dp6774
g62
(dp6775
sg71
g6769
sg64
(lp6776
g57
(g58
g59
NtRp6777
(dp6778
g62
(dp6779
g70
I3
ssg71
g6773
sg64
(lp6780
g5759
asbasbasbag57
(g73
g59
NtRp6781
(dp6782
g62
(dp6783
sg71
g6765
sg64
(lp6784
g57
(g78
g59
NtRp6785
(dp6786
g62
(dp6787
sg71
g6781
sg64
(lp6788
g57
(g58
g59
NtRp6789
(dp6790
g62
(dp6791
g70
I3
ssg71
g6785
sg64
(lp6792
g100
asbasbasbag57
(g73
g59
NtRp6793
(dp6794
g62
(dp6795
sg71
g6765
sg64
(lp6796
g57
(g78
g59
NtRp6797
(dp6798
g62
(dp6799
sg71
g6793
sg64
(lp6800
g57
(g58
g59
NtRp6801
(dp6802
g62
(dp6803
g70
I3
ssg71
g6797
sg64
(lp6804
g5784
asbasbasbag57
(g73
g59
NtRp6805
(dp6806
g62
(dp6807
sg71
g6765
sg64
(lp6808
g57
(g78
g59
NtRp6809
(dp6810
g62
(dp6811
sg71
g6805
sg64
(lp6812
g57
(g58
g59
NtRp6813
(dp6814
g62
(dp6815
g70
I3
ssg71
g6809
sg64
(lp6816
g57
(g66
g59
NtRp6817
(dp6818
g62
(dp6819
g70
I2
ssg71
Nsg64
(lp6820
sbasbasbasbasbasbasbasbag57
(g73
g59
NtRp6821
(dp6822
g62
(dp6823
sg71
g6749
sg64
(lp6824
g57
(g78
g59
NtRp6825
(dp6826
g62
(dp6827
sg71
g6821
sg64
(lp6828
g57
(g58
g59
NtRp6829
(dp6830
g62
(dp6831
g70
I4
ssg71
g6825
sg64
(lp6832
g57
(g66
g59
NtRp6833
(dp6834
g62
(dp6835
g70
I3
ssg71
Nsg64
(lp6836
g57
(g73
g59
NtRp6837
(dp6838
g62
(dp6839
sg71
g6833
sg64
(lp6840
g57
(g78
g59
NtRp6841
(dp6842
g62
(dp6843
sg71
g6837
sg64
(lp6844
g57
(g58
g59
NtRp6845
(dp6846
g62
(dp6847
g70
I3
ssg71
g6841
sg64
(lp6848
g4911
asbasbasbag57
(g73
g59
NtRp6849
(dp6850
g62
(dp6851
sg71
g6833
sg64
(lp6852
g57
(g78
g59
NtRp6853
(dp6854
g62
(dp6855
sg71
g6849
sg64
(lp6856
g57
(g58
g59
NtRp6857
(dp6858
g62
(dp6859
g70
I3
ssg71
g6853
sg64
(lp6860
g100
asbasbasbag57
(g73
g59
NtRp6861
(dp6862
g62
(dp6863
sg71
g6833
sg64
(lp6864
g57
(g78
g59
NtRp6865
(dp6866
g62
(dp6867
sg71
g6861
sg64
(lp6868
g57
(g58
g59
NtRp6869
(dp6870
g62
(dp6871
g70
I3
ssg71
g6865
sg64
(lp6872
g4936
asbasbasbag57
(g73
g59
NtRp6873
(dp6874
g62
(dp6875
sg71
g6833
sg64
(lp6876
g57
(g78
g59
NtRp6877
(dp6878
g62
(dp6879
sg71
g6873
sg64
(lp6880
g57
(g58
g59
NtRp6881
(dp6882
g62
(dp6883
g70
I3
ssg71
g6877
sg64
(lp6884
g57
(g66
g59
NtRp6885
(dp6886
g62
(dp6887
g70
I2
ssg71
Nsg64
(lp6888
sbasbasbasbasbasbasbasbag57
(g73
g59
NtRp6889
(dp6890
g62
(dp6891
sg71
g6749
sg64
(lp6892
g57
(g78
g59
NtRp6893
(dp6894
g62
(dp6895
sg71
g6889
sg64
(lp6896
g57
(g58
g59
NtRp6897
(dp6898
g62
(dp6899
g70
I4
ssg71
g6893
sg64
(lp6900
g57
(g66
g59
NtRp6901
(dp6902
g62
(dp6903
g70
I3
ssg71
Nsg64
(lp6904
g57
(g73
g59
NtRp6905
(dp6906
g62
(dp6907
sg71
g6901
sg64
(lp6908
g57
(g78
g59
NtRp6909
(dp6910
g62
(dp6911
sg71
g6905
sg64
(lp6912
g57
(g58
g59
NtRp6913
(dp6914
g62
(dp6915
g70
I3
ssg71
g6909
sg64
(lp6916
g4815
(S's\x0c\x00\x00\x00Room Vacancy'
tRp6917
asbasbasbag57
(g73
g59
NtRp6918
(dp6919
g62
(dp6920
sg71
g6901
sg64
(lp6921
g57
(g78
g59
NtRp6922
(dp6923
g62
(dp6924
sg71
g6918
sg64
(lp6925
g57
(g58
g59
NtRp6926
(dp6927
g62
(dp6928
g70
I3
ssg71
g6922
sg64
(lp6929
g100
asbasbasbag57
(g73
g59
NtRp6930
(dp6931
g62
(dp6932
sg71
g6901
sg64
(lp6933
g57
(g78
g59
NtRp6934
(dp6935
g62
(dp6936
sg71
g6930
sg64
(lp6937
g57
(g58
g59
NtRp6938
(dp6939
g62
(dp6940
g70
I3
ssg71
g6934
sg64
(lp6941
S'/sss/default/view_vacant_rooms'
p6942
asbasbasbag57
(g73
g59
NtRp6943
(dp6944
g62
(dp6945
sg71
g6901
sg64
(lp6946
g57
(g78
g59
NtRp6947
(dp6948
g62
(dp6949
sg71
g6943
sg64
(lp6950
g57
(g58
g59
NtRp6951
(dp6952
g62
(dp6953
g70
I3
ssg71
g6947
sg64
(lp6954
g57
(g66
g59
NtRp6955
(dp6956
g62
(dp6957
g70
I2
ssg71
Nsg64
(lp6958
sbasbasbasbasbasbasbasbag57
(g73
g59
NtRp6959
(dp6960
g62
(dp6961
sg71
g6749
sg64
(lp6962
g57
(g78
g59
NtRp6963
(dp6964
g62
(dp6965
sg71
g6959
sg64
(lp6966
g57
(g58
g59
NtRp6967
(dp6968
g62
(dp6969
g70
I4
ssg71
g6963
sg64
(lp6970
g57
(g66
g59
NtRp6971
(dp6972
g62
(dp6973
g70
I3
ssg71
Nsg64
(lp6974
g57
(g73
g59
NtRp6975
(dp6976
g62
(dp6977
sg71
g6971
sg64
(lp6978
g57
(g78
g59
NtRp6979
(dp6980
g62
(dp6981
sg71
g6975
sg64
(lp6982
g57
(g58
g59
NtRp6983
(dp6984
g62
(dp6985
g70
I3
ssg71
g6979
sg64
(lp6986
g5664
asbasbasbag57
(g73
g59
NtRp6987
(dp6988
g62
(dp6989
sg71
g6971
sg64
(lp6990
g57
(g78
g59
NtRp6991
(dp6992
g62
(dp6993
sg71
g6987
sg64
(lp6994
g57
(g58
g59
NtRp6995
(dp6996
g62
(dp6997
g70
I3
ssg71
g6991
sg64
(lp6998
g100
asbasbasbag57
(g73
g59
NtRp6999
(dp7000
g62
(dp7001
sg71
g6971
sg64
(lp7002
g57
(g78
g59
NtRp7003
(dp7004
g62
(dp7005
sg71
g6999
sg64
(lp7006
g57
(g58
g59
NtRp7007
(dp7008
g62
(dp7009
g70
I3
ssg71
g7003
sg64
(lp7010
g5689
asbasbasbag57
(g73
g59
NtRp7011
(dp7012
g62
(dp7013
sg71
g6971
sg64
(lp7014
g57
(g78
g59
NtRp7015
(dp7016
g62
(dp7017
sg71
g7011
sg64
(lp7018
g57
(g58
g59
NtRp7019
(dp7020
g62
(dp7021
g70
I3
ssg71
g7015
sg64
(lp7022
g57
(g66
g59
NtRp7023
(dp7024
g62
(dp7025
g70
I2
ssg71
Nsg64
(lp7026
sbasbasbasbasbasbasbasbasbasbasbasbag57
(g73
g59
NtRp7027
(dp7028
g62
(dp7029
sg71
g4737
sg64
(lp7030
g57
(g78
g59
NtRp7031
(dp7032
g62
(dp7033
g82
g83
ssg71
g7027
sg64
(lp7034
S'student_out_details'
p7035
asbag57
(g78
g59
NtRp7036
(dp7037
g62
(dp7038
g89
g90
ssg71
g7027
sg64
(lp7039
S':'
asbag57
(g78
g59
NtRp7040
(dp7041
g62
(dp7042
sg71
g7027
sg64
(lp7043
g57
(g58
g59
NtRp7044
(dp7045
g62
(dp7046
g70
I5
ssg71
g7040
sg64
(lp7047
g57
(g66
g59
NtRp7048
(dp7049
g62
(dp7050
g70
I4
ssg71
Nsg64
(lp7051
g57
(g73
g59
NtRp7052
(dp7053
g62
(dp7054
sg71
g7048
sg64
(lp7055
g57
(g78
g59
NtRp7056
(dp7057
g62
(dp7058
sg71
g7052
sg64
(lp7059
g57
(g58
g59
NtRp7060
(dp7061
g62
(dp7062
g70
I4
ssg71
g7056
sg64
(lp7063
g57
(g66
g59
NtRp7064
(dp7065
g62
(dp7066
g70
I3
ssg71
Nsg64
(lp7067
g57
(g73
g59
NtRp7068
(dp7069
g62
(dp7070
sg71
g7064
sg64
(lp7071
g57
(g78
g59
NtRp7072
(dp7073
g62
(dp7074
sg71
g7068
sg64
(lp7075
g57
(g58
g59
NtRp7076
(dp7077
g62
(dp7078
g70
I3
ssg71
g7072
sg64
(lp7079
g6664
asbasbasbag57
(g73
g59
NtRp7080
(dp7081
g62
(dp7082
sg71
g7064
sg64
(lp7083
g57
(g78
g59
NtRp7084
(dp7085
g62
(dp7086
sg71
g7080
sg64
(lp7087
g57
(g58
g59
NtRp7088
(dp7089
g62
(dp7090
g70
I3
ssg71
g7084
sg64
(lp7091
g100
asbasbasbag57
(g73
g59
NtRp7092
(dp7093
g62
(dp7094
sg71
g7064
sg64
(lp7095
g57
(g78
g59
NtRp7096
(dp7097
g62
(dp7098
sg71
g7092
sg64
(lp7099
g57
(g58
g59
NtRp7100
(dp7101
g62
(dp7102
g70
I3
ssg71
g7096
sg64
(lp7103
g6689
asbasbasbag57
(g73
g59
NtRp7104
(dp7105
g62
(dp7106
sg71
g7064
sg64
(lp7107
g57
(g78
g59
NtRp7108
(dp7109
g62
(dp7110
sg71
g7104
sg64
(lp7111
g57
(g58
g59
NtRp7112
(dp7113
g62
(dp7114
g70
I3
ssg71
g7108
sg64
(lp7115
g57
(g66
g59
NtRp7116
(dp7117
g62
(dp7118
g70
I2
ssg71
Nsg64
(lp7119
sbasbasbasbasbasbasbasbasbasbasbasbag57
(g73
g59
NtRp7120
(dp7121
g62
(dp7122
sg71
g4737
sg64
(lp7123
g57
(g78
g59
NtRp7124
(dp7125
g62
(dp7126
g82
g83
ssg71
g7120
sg64
(lp7127
S'subtitle'
p7128
asbag57
(g78
g59
NtRp7129
(dp7130
g62
(dp7131
g89
g90
ssg71
g7120
sg64
(lp7132
S':'
asbag57
(g78
g59
NtRp7133
(dp7134
g62
(dp7135
sg71
g7120
sg64
(lp7136
g57
(g58
g59
NtRp7137
(dp7138
g62
(dp7139
g70
I5
ssg71
g7133
sg64
(lp7140
S'powered by web2py'
p7141
asbasbasbag57
(g73
g59
NtRp7142
(dp7143
g62
(dp7144
sg71
g4737
sg64
(lp7145
g57
(g78
g59
NtRp7146
(dp7147
g62
(dp7148
g82
g83
ssg71
g7142
sg64
(lp7149
S'title'
p7150
asbag57
(g78
g59
NtRp7151
(dp7152
g62
(dp7153
g89
g90
ssg71
g7142
sg64
(lp7154
S':'
asbag57
(g78
g59
NtRp7155
(dp7156
g62
(dp7157
sg71
g7142
sg64
(lp7158
g57
(g58
g59
NtRp7159
(dp7160
g62
(dp7161
g70
I5
ssg71
g7155
sg64
(lp7162
S'IIIT-H Hostel Management Portal'
p7163
asbasbasbag57
(g73
g59
NtRp7164
(dp7165
g62
(dp7166
sg71
g4737
sg64
(lp7167
g57
(g78
g59
NtRp7168
(dp7169
g62
(dp7170
g82
g83
ssg71
g7164
sg64
(lp7171
S'vcomplaint'
p7172
asbag57
(g78
g59
NtRp7173
(dp7174
g62
(dp7175
g89
g90
ssg71
g7164
sg64
(lp7176
S':'
asbag57
(g78
g59
NtRp7177
(dp7178
g62
(dp7179
sg71
g7164
sg64
(lp7180
g57
(g58
g59
NtRp7181
(dp7182
g62
(dp7183
g70
I5
ssg71
g7177
sg64
(lp7184
g57
(g66
g59
NtRp7185
(dp7186
g62
(dp7187
g70
I4
ssg71
Nsg64
(lp7188
g57
(g73
g59
NtRp7189
(dp7190
g62
(dp7191
sg71
g7185
sg64
(lp7192
g57
(g78
g59
NtRp7193
(dp7194
g62
(dp7195
sg71
g7189
sg64
(lp7196
g57
(g58
g59
NtRp7197
(dp7198
g62
(dp7199
g70
I4
ssg71
g7193
sg64
(lp7200
g57
(g66
g59
NtRp7201
(dp7202
g62
(dp7203
g70
I3
ssg71
Nsg64
(lp7204
g57
(g73
g59
NtRp7205
(dp7206
g62
(dp7207
sg71
g7201
sg64
(lp7208
g57
(g78
g59
NtRp7209
(dp7210
g62
(dp7211
sg71
g7205
sg64
(lp7212
g57
(g58
g59
NtRp7213
(dp7214
g62
(dp7215
g70
I3
ssg71
g7209
sg64
(lp7216
g6388
asbasbasbag57
(g73
g59
NtRp7217
(dp7218
g62
(dp7219
sg71
g7201
sg64
(lp7220
g57
(g78
g59
NtRp7221
(dp7222
g62
(dp7223
sg71
g7217
sg64
(lp7224
g57
(g58
g59
NtRp7225
(dp7226
g62
(dp7227
g70
I3
ssg71
g7221
sg64
(lp7228
g100
asbasbasbag57
(g73
g59
NtRp7229
(dp7230
g62
(dp7231
sg71
g7201
sg64
(lp7232
g57
(g78
g59
NtRp7233
(dp7234
g62
(dp7235
sg71
g7229
sg64
(lp7236
g57
(g58
g59
NtRp7237
(dp7238
g62
(dp7239
g70
I3
ssg71
g7233
sg64
(lp7240
g6413
asbasbasbag57
(g73
g59
NtRp7241
(dp7242
g62
(dp7243
sg71
g7201
sg64
(lp7244
g57
(g78
g59
NtRp7245
(dp7246
g62
(dp7247
sg71
g7241
sg64
(lp7248
g57
(g58
g59
NtRp7249
(dp7250
g62
(dp7251
g70
I3
ssg71
g7245
sg64
(lp7252
g57
(g66
g59
NtRp7253
(dp7254
g62
(dp7255
g70
I2
ssg71
Nsg64
(lp7256
sbasbasbasbasbasbasbasbasbasbasbasbag57
(g73
g59
NtRp7257
(dp7258
g62
(dp7259
sg71
g4737
sg64
(lp7260
g57
(g78
g59
NtRp7261
(dp7262
g62
(dp7263
g82
g83
ssg71
g7257
sg64
(lp7264
S'view'
p7265
asbag57
(g78
g59
NtRp7266
(dp7267
g62
(dp7268
g89
g90
ssg71
g7257
sg64
(lp7269
S':'
asbag57
(g78
g59
NtRp7270
(dp7271
g62
(dp7272
sg71
g7257
sg64
(lp7273
g57
(g58
g59
NtRp7274
(dp7275
g62
(dp7276
g70
I5
ssg71
g7270
sg64
(lp7277
S'default/show_laptop_details.html'
p7278
asbasbasbag57
(g73
g59
NtRp7279
(dp7280
g62
(dp7281
sg71
g4737
sg64
(lp7282
g57
(g78
g59
NtRp7283
(dp7284
g62
(dp7285
g82
g83
ssg71
g7279
sg64
(lp7286
S'view_rooms'
p7287
asbag57
(g78
g59
NtRp7288
(dp7289
g62
(dp7290
g89
g90
ssg71
g7279
sg64
(lp7291
S':'
asbag57
(g78
g59
NtRp7292
(dp7293
g62
(dp7294
sg71
g7279
sg64
(lp7295
g57
(g58
g59
NtRp7296
(dp7297
g62
(dp7298
g70
I5
ssg71
g7292
sg64
(lp7299
g57
(g66
g59
NtRp7300
(dp7301
g62
(dp7302
g70
I4
ssg71
Nsg64
(lp7303
g57
(g73
g59
NtRp7304
(dp7305
g62
(dp7306
sg71
g7300
sg64
(lp7307
g57
(g78
g59
NtRp7308
(dp7309
g62
(dp7310
sg71
g7304
sg64
(lp7311
g57
(g58
g59
NtRp7312
(dp7313
g62
(dp7314
g70
I4
ssg71
g7308
sg64
(lp7315
g57
(g66
g59
NtRp7316
(dp7317
g62
(dp7318
g70
I3
ssg71
Nsg64
(lp7319
g57
(g73
g59
NtRp7320
(dp7321
g62
(dp7322
sg71
g7316
sg64
(lp7323
g57
(g78
g59
NtRp7324
(dp7325
g62
(dp7326
sg71
g7320
sg64
(lp7327
g57
(g58
g59
NtRp7328
(dp7329
g62
(dp7330
g70
I3
ssg71
g7324
sg64
(lp7331
g6917
asbasbasbag57
(g73
g59
NtRp7332
(dp7333
g62
(dp7334
sg71
g7316
sg64
(lp7335
g57
(g78
g59
NtRp7336
(dp7337
g62
(dp7338
sg71
g7332
sg64
(lp7339
g57
(g58
g59
NtRp7340
(dp7341
g62
(dp7342
g70
I3
ssg71
g7336
sg64
(lp7343
g100
asbasbasbag57
(g73
g59
NtRp7344
(dp7345
g62
(dp7346
sg71
g7316
sg64
(lp7347
g57
(g78
g59
NtRp7348
(dp7349
g62
(dp7350
sg71
g7344
sg64
(lp7351
g57
(g58
g59
NtRp7352
(dp7353
g62
(dp7354
g70
I3
ssg71
g7348
sg64
(lp7355
g6942
asbasbasbag57
(g73
g59
NtRp7356
(dp7357
g62
(dp7358
sg71
g7316
sg64
(lp7359
g57
(g78
g59
NtRp7360
(dp7361
g62
(dp7362
sg71
g7356
sg64
(lp7363
g57
(g58
g59
NtRp7364
(dp7365
g62
(dp7366
g70
I3
ssg71
g7360
sg64
(lp7367
g57
(g66
g59
NtRp7368
(dp7369
g62
(dp7370
g70
I2
ssg71
Nsg64
(lp7371
sbasbasbasbasbasbasbasbasbasbasbasbag57
(g73
g59
NtRp7372
(dp7373
g62
(dp7374
sg71
g4737
sg64
(lp7375
g57
(g78
g59
NtRp7376
(dp7377
g62
(dp7378
g82
g83
ssg71
g7372
sg64
(lp7379
S'vmedical'
p7380
asbag57
(g78
g59
NtRp7381
(dp7382
g62
(dp7383
g89
g90
ssg71
g7372
sg64
(lp7384
S':'
asbag57
(g78
g59
NtRp7385
(dp7386
g62
(dp7387
sg71
g7372
sg64
(lp7388
g57
(g58
g59
NtRp7389
(dp7390
g62
(dp7391
g70
I5
ssg71
g7385
sg64
(lp7392
g57
(g66
g59
NtRp7393
(dp7394
g62
(dp7395
g70
I4
ssg71
Nsg64
(lp7396
g57
(g73
g59
NtRp7397
(dp7398
g62
(dp7399
sg71
g7393
sg64
(lp7400
g57
(g78
g59
NtRp7401
(dp7402
g62
(dp7403
sg71
g7397
sg64
(lp7404
g57
(g58
g59
NtRp7405
(dp7406
g62
(dp7407
g70
I4
ssg71
g7401
sg64
(lp7408
g57
(g66
g59
NtRp7409
(dp7410
g62
(dp7411
g70
I3
ssg71
Nsg64
(lp7412
g57
(g73
g59
NtRp7413
(dp7414
g62
(dp7415
sg71
g7409
sg64
(lp7416
g57
(g78
g59
NtRp7417
(dp7418
g62
(dp7419
sg71
g7413
sg64
(lp7420
g57
(g58
g59
NtRp7421
(dp7422
g62
(dp7423
g70
I3
ssg71
g7417
sg64
(lp7424
g6458
asbasbasbag57
(g73
g59
NtRp7425
(dp7426
g62
(dp7427
sg71
g7409
sg64
(lp7428
g57
(g78
g59
NtRp7429
(dp7430
g62
(dp7431
sg71
g7425
sg64
(lp7432
g57
(g58
g59
NtRp7433
(dp7434
g62
(dp7435
g70
I3
ssg71
g7429
sg64
(lp7436
g100
asbasbasbag57
(g73
g59
NtRp7437
(dp7438
g62
(dp7439
sg71
g7409
sg64
(lp7440
g57
(g78
g59
NtRp7441
(dp7442
g62
(dp7443
sg71
g7437
sg64
(lp7444
g57
(g58
g59
NtRp7445
(dp7446
g62
(dp7447
g70
I3
ssg71
g7441
sg64
(lp7448
g6483
asbasbasbag57
(g73
g59
NtRp7449
(dp7450
g62
(dp7451
sg71
g7409
sg64
(lp7452
g57
(g78
g59
NtRp7453
(dp7454
g62
(dp7455
sg71
g7449
sg64
(lp7456
g57
(g58
g59
NtRp7457
(dp7458
g62
(dp7459
g70
I3
ssg71
g7453
sg64
(lp7460
g57
(g66
g59
NtRp7461
(dp7462
g62
(dp7463
g70
I2
ssg71
Nsg64
(lp7464
sbasbasbasbasbasbasbasbasbasbasbasbasbasbsS'locals'
p7465
(dp7466
S'Service'
p7467
S"<class 'gluon.tools.Service'>"
p7468
sS'OBJECT'
p7469
S"<class 'gluon.html.OBJECT'>"
p7470
sS'SQLDB'
p7471
S"<class 'gluon.dal.DAL'>"
p7472
sg4611
S"<Storage {'_formkey[other_laptop_out/create]': '...ssion_hash': '74e6804c17ab94555fc372364fdd6eff'}>"
p7473
sS'LINK'
p7474
S"<class 'gluon.html.LINK'>"
p7475
sS'BR'
p7476
S"<class 'gluon.html.BR'>"
p7477
sS'local_import'
p7478
S'<function <lambda>>'
p7479
sS'OPTGROUP'
p7480
S"<class 'gluon.html.OPTGROUP'>"
p7481
sS'__package__'
p7482
S'None'
p7483
sS'PRE'
p7484
S"<class 'gluon.html.PRE'>"
p7485
sS'IS_INT_IN_RANGE'
p7486
S"<class 'gluon.validators.IS_INT_IN_RANGE'>"
p7487
sS'_CAS_logout'
p7488
S'<function _CAS_logout>'
p7489
sS'IS_LOWER'
p7490
S"<class 'gluon.validators.IS_LOWER'>"
p7491
sS'IS_STRONG'
p7492
S"<class 'gluon.validators.IS_STRONG'>"
p7493
sS'cache'
p7494
S'<gluon.cache.Cache object>'
p7495
sS'IS_IN_DB'
p7496
S"<class 'gluon.validators.IS_IN_DB'>"
p7497
sS'TAG'
p7498
S'<gluon.html.__TAG__ object>'
p7499
sS'SQLField'
p7500
S"<class 'gluon.dal.Field'>"
p7501
sS'mail'
p7502
S'<gluon.tools.Mail object>'
p7503
sS'BODY'
p7504
S"<class 'gluon.html.BODY'>"
p7505
sS'IS_DATE_IN_RANGE'
p7506
S"<class 'gluon.validators.IS_DATE_IN_RANGE'>"
p7507
sS'IFRAME'
p7508
S"<class 'gluon.html.IFRAME'>"
p7509
sS'URL'
p7510
S'<function URL>'
p7511
sS'__file__'
p7512
S"'/home/bhanu/web2py/applications/sss/views/default/show_laptop_details.html'"
p7513
sS'db'
p7514
S'<DAL uri="sqlite://storage.sqlite">'
p7515
sS'auth'
p7516
S'<gluon.tools.Auth object>'
p7517
sS'P'
S"<class 'gluon.html.P'>"
p7518
sS'TFOOT'
p7519
S"<class 'gluon.html.TFOOT'>"
p7520
sS'XHTML'
p7521
S"<class 'gluon.html.XHTML'>"
p7522
sS'ON'
p7523
g3105
sS'OL'
p7524
S"<class 'gluon.html.OL'>"
p7525
sS'TEXTAREA'
p7526
S"<class 'gluon.html.TEXTAREA'>"
p7527
sS'settings'
p7528
S"<Storage {'layout_theme': 'Default', 'subtitle':...l_server': 'localhost', 'login_method': 'local'}>"
p7529
sS'MENU'
p7530
S"<class 'gluon.html.MENU'>"
p7531
sS'IS_IMAGE'
p7532
S"<class 'gluon.validators.IS_IMAGE'>"
p7533
sS'EM'
p7534
S"<class 'gluon.html.EM'>"
p7535
sS'CODE'
p7536
S"<class 'gluon.html.CODE'>"
p7537
sS'HTTP'
p7538
S"<class 'gluon.http.HTTP'>"
p7539
sS'HR'
p7540
S"<class 'gluon.html.HR'>"
p7541
sS'IS_DATETIME'
p7542
S"<class 'gluon.validators.IS_DATETIME'>"
p7543
sS'Storage'
p7544
S"<class 'gluon.storage.Storage'>"
p7545
sS'STYLE'
p7546
S"<class 'gluon.html.STYLE'>"
p7547
sS'LABEL'
p7548
S"<class 'gluon.html.LABEL'>"
p7549
sS'CLEANUP'
p7550
S"<class 'gluon.validators.CLEANUP'>"
p7551
sS'plugins'
p7552
S'<gluon.tools.PluginManager object>'
p7553
sS'SELECT'
p7554
S"<class 'gluon.html.SELECT'>"
p7555
sS'use_janrain'
p7556
S'<function use_janrain>'
p7557
sS'CENTER'
p7558
S"<class 'gluon.html.CENTER'>"
p7559
sS'prettydate'
p7560
S'<function prettydate>'
p7561
sS'Crud'
p7562
S"<class 'gluon.tools.Crud'>"
p7563
sS'Auth'
p7564
S"<class 'gluon.tools.Auth'>"
p7565
sS'__builtins__'
p7566
S"{'ArithmeticError': <type 'exceptions.ArithmeticError'>, 'AssertionError': <type 'exceptions.AssertionError'>, 'AttributeError': <type 'exceptions.AttributeError'>, 'BaseException': <type 'exceptions.BaseException'>, 'BufferError': <type 'exceptions.BufferError'>, 'BytesWarning': <type 'exceptions.BytesWarning'>, 'DeprecationWarning': <type 'exceptions.DeprecationWarning'>, 'EOFError': <type 'exceptions.EOFError'>, 'Ellipsis': Ellipsis, 'EnvironmentError': <type 'exceptions.EnvironmentError'>, ...}"
p7567
sS'HTML'
p7568
S"<class 'gluon.html.HTML'>"
p7569
sS'SQLFORM'
p7570
S"<class 'gluon.sqlhtml.SQLFORM'>"
p7571
sS'LOAD'
p7572
S'<function LOAD>'
p7573
sS'redirect'
p7574
S'<function redirect>'
p7575
sS'FIELDSET'
p7576
S"<class 'gluon.html.FIELDSET'>"
p7577
sS'IS_EQUAL_TO'
p7578
S"<class 'gluon.validators.IS_EQUAL_TO'>"
p7579
sS'embed64'
p7580
S'<function embed64>'
p7581
sS'IS_LIST_OF'
p7582
S"<class 'gluon.validators.IS_LIST_OF'>"
p7583
sS'INPUT'
p7584
S"<class 'gluon.html.INPUT'>"
p7585
sS'EMBED'
p7586
S"<class 'gluon.html.EMBED'>"
p7587
sS'FORM'
p7588
S"<class 'gluon.html.FORM'>"
p7589
sS'H2'
p7590
S"<class 'gluon.html.H2'>"
p7591
sS'H3'
p7592
S"<class 'gluon.html.H3'>"
p7593
sS'BUTTON'
p7594
S"<class 'gluon.html.BUTTON'>"
p7595
sS'H1'
p7596
S"<class 'gluon.html.H1'>"
p7597
sS'H6'
p7598
S"<class 'gluon.html.H6'>"
p7599
sS'H4'
p7600
S"<class 'gluon.html.H4'>"
p7601
sS'H5'
p7602
S"<class 'gluon.html.H5'>"
p7603
sS'UL'
p7604
S"<class 'gluon.html.UL'>"
p7605
sS'IS_UPPER'
p7606
S"<class 'gluon.validators.IS_UPPER'>"
p7607
sS'xmlescape'
p7608
S'<function xmlescape>'
p7609
sS'IS_TIME'
p7610
S"<class 'gluon.validators.IS_TIME'>"
p7611
sS'OPTION'
p7612
S"<class 'gluon.html.OPTION'>"
p7613
sS'TITLE'
p7614
S"<class 'gluon.html.TITLE'>"
p7615
sS'CRYPT'
p7616
S"<class 'gluon.validators.CRYPT'>"
p7617
sS'IS_EMPTY_OR'
p7618
S"<class 'gluon.validators.IS_EMPTY_OR'>"
p7619
sS'MARKMIN'
p7620
S"<class 'gluon.html.MARKMIN'>"
p7621
sS'gluon'
p7622
S"<module 'gluon' from '/home/bhanu/web2py/gluon/__init__.pyc'>"
p7623
sS'__name__'
p7624
S"'__restricted__'"
p7625
sS'STRONG'
p7626
S"<class 'gluon.html.STRONG'>"
p7627
sS'COL'
p7628
S"<class 'gluon.html.COL'>"
p7629
sS'service'
p7630
S'<gluon.tools.Service object>'
p7631
sS'SCRIPT'
p7632
S"<class 'gluon.html.SCRIPT'>"
p7633
sS'IS_NOT_EMPTY'
p7634
S"<class 'gluon.validators.IS_NOT_EMPTY'>"
p7635
sS'TABLE'
p7636
S"<class 'gluon.html.TABLE'>"
p7637
sS'IS_IPV4'
p7638
S"<class 'gluon.validators.IS_IPV4'>"
p7639
sS'IS_LENGTH'
p7640
S"<class 'gluon.validators.IS_LENGTH'>"
p7641
sS'XML'
p7642
S"<class 'gluon.html.XML'>"
p7643
sS'B'
S"<class 'gluon.html.B'>"
p7644
sS'IMG'
p7645
S"<class 'gluon.html.IMG'>"
p7646
sS'SQLTABLE'
p7647
S"<class 'gluon.sqlhtml.SQLTABLE'>"
p7648
sS'IS_MATCH'
p7649
S"<class 'gluon.validators.IS_MATCH'>"
p7650
sS'IS_ALPHANUMERIC'
p7651
S"<class 'gluon.validators.IS_ALPHANUMERIC'>"
p7652
sS'HOST'
p7653
S"'127.0.0.1:8000'"
p7654
sS'SPAN'
p7655
S"<class 'gluon.html.SPAN'>"
p7656
sS'f'
S"<Row {'company': 'APPLE', 'service_tag': '1222', 'id': 44, 'roll_no': '201102082'}>"
p7657
sS'IS_SLUG'
p7658
S"<class 'gluon.validators.IS_SLUG'>"
p7659
sS'BEAUTIFY'
p7660
S"<class 'gluon.html.BEAUTIFY'>"
p7661
sS'META'
p7662
S"<class 'gluon.html.META'>"
p7663
sS'IS_DATE'
p7664
S"<class 'gluon.validators.IS_DATE'>"
p7665
sS'IS_EMAIL'
p7666
S"<class 'gluon.validators.IS_EMAIL'>"
p7667
sS'CAS'
p7668
S"<Storage {'check_url': 'https://login.iiit.ac.in...url': 'http://127.0.0.1:8000/sss/default/login'}>"
p7669
sS'IS_FLOAT_IN_RANGE'
p7670
S"<class 'gluon.validators.IS_FLOAT_IN_RANGE'>"
p7671
sS'TBODY'
p7672
S"<class 'gluon.html.TBODY'>"
p7673
sS'CAT'
p7674
S"<class 'gluon.html.CAT'>"
p7675
sS'Field'
p7676
S"<class 'gluon.dal.Field'>"
p7677
sS'_CAS_login'
p7678
S'<function _CAS_login>'
p7679
sS'DIV'
p7680
S"<class 'gluon.html.DIV'>"
p7681
sS'LEGEND'
p7682
S"<class 'gluon.html.LEGEND'>"
p7683
sS'form'
p7684
S'<Rows (4)>'
p7685
sS'COLGROUP'
p7686
S"<class 'gluon.html.COLGROUP'>"
p7687
sS'DAL'
p7688
S"<class 'gluon.dal.DAL'>"
p7689
sS'TT'
p7690
S"<class 'gluon.html.TT'>"
p7691
sS'TR'
p7692
S"<class 'gluon.html.TR'>"
p7693
sS'LI'
p7694
S"<class 'gluon.html.LI'>"
p7695
sS'TH'
p7696
S"<class 'gluon.html.TH'>"
p7697
sS'TD'
p7698
S"<class 'gluon.html.TD'>"
p7699
sS'PluginManager'
p7700
S"<class 'gluon.tools.PluginManager'>"
p7701
sS'IS_URL'
p7702
S"<class 'gluon.validators.IS_URL'>"
p7703
sS'A'
S"<class 'gluon.html.A'>"
p7704
sS'HEAD'
p7705
S"<class 'gluon.html.HEAD'>"
p7706
sS'IS_DATETIME_IN_RANGE'
p7707
S"<class 'gluon.validators.IS_DATETIME_IN_RANGE'>"
p7708
sS'populate'
p7709
S'<function populate>'
p7710
sS'I'
S"<class 'gluon.html.I'>"
p7711
sS'crud'
p7712
S'<gluon.tools.Crud object>'
p7713
sS'IS_NOT_IN_DB'
p7714
S"<class 'gluon.validators.IS_NOT_IN_DB'>"
p7715
sg4732
S"<Storage {'body': <cStringIO.StringO object at 0...])], 'view': 'default/show_laptop_details.html'}>"
p7716
sS'THEAD'
p7717
S"<class 'gluon.html.THEAD'>"
p7718
sS'IS_NULL_OR'
p7719
S"<class 'gluon.validators.IS_EMPTY_OR'>"
p7720
sS'i'
S'4'
sg56
S"<Storage {'function': 'show_laptop_details', 'bo...y/applications/sss/', 'post_vars': <Storage {}>}>"
p7721
sS'IS_EXPR'
p7722
S"<class 'gluon.validators.IS_EXPR'>"
p7723
sS'T'
S'<gluon.languages.translator object>'
p7724
sS'IS_IN_SET'
p7725
S"<class 'gluon.validators.IS_IN_SET'>"
p7726
sS'IS_UPLOAD_FILENAME'
p7727
S"<class 'gluon.validators.IS_UPLOAD_FILENAME'>"
p7728
sS'IS_DECIMAL_IN_RANGE'
p7729
S"<class 'gluon.validators.IS_DECIMAL_IN_RANGE'>"
p7730
sssS'traceback'
p7731
S'Traceback (most recent call last):\n  File "/home/bhanu/web2py/gluon/restricted.py", line 212, in restricted\n    exec ccode in environment\n  File "/home/bhanu/web2py/applications/sss/views/default/show_laptop_details.html", line 48, in <module>\nNameError: name \'roll\' is not defined\n'
p7732
s.