(dp1
S'output'
p2
S"<type 'exceptions.IndexError'> list index out of range"
p3
sS'layer'
p4
S'/home/bhanu/web2py/applications/hostel/controllers/default.py'
p5
sS'code'
p6
S'# -*- coding: utf-8 -*-\n### required - do no delete\n\nresponse.title="IIIT-H Hostel Management Portal"\n\nfrom gluon.sqlhtml import form_factory\nimport socket\nimport re\nsession.pdf1=0\nsession.place=\'All\'\n\nCAS.login_url=\'https://login.iiit.ac.in/cas/login\'\nCAS.check_url=\'https://login.iiit.ac.in/cas/validate\'\nCAS.logout_url=\'https://login.iiit.ac.in/cas/logout\'\nCAS.my_url=\'http://127.0.0.1:8000/hostel/default/login\'\n\nif not session.token and not request.function==\'login\':\n   redirect(URL(r=request, f=\'login\'))\n#session.name="aaa"\n#session.token="chaluvadibhanu.dev@students.iiit.ac.in"\n#session.login = 1 \n\n\n#login with cas\ndef login():\n    session.login = 0 \n    session.token = CAS.login(request)\n    name=db(db.students.email==str(session.token)).select(db.students.ALL);\n    session.name=name[0].name\n    session.roll_no=name[0].roll_no\n    session.room=name[0].room_no\n    print session.room\n    session.hs=name[0].hostel\n\n    session.email = session.token.split(\'@\')[0]\n    redirect(URL(r=request, f=\'index\'))\n    return dict()\n    \ndef logout():\n    session.token=None\n    session.name=""\n    CAS.logout()\n\n\ndef user(): return dict(form=auth())\ndef download(): return response.download(request,db)\ndef call(): return service()\n### end requires\n#@auth.requires_login()\n\n#creating a new poll\ndef poll():\n    return dict()\n#@auth.requires_login()\n#voting a poll\ndef sr():\n    l=len(request.args)\n    db.poll.insert(question=request.args(0),options_no=l-1,posted_by=session.name)\n    q=db(db.poll.question==request.args(0)).select(db.poll.ALL)\n    pid=q[0].id\n    i=1\n    while i<l :\n        db.options.insert(option=request.args(i),qid=pid)\n        i=i+1\n\n     \n    if session.login==2:\n        db(db.poll.id==pid).update(flag=1)    \n        session.flash="New Poll Created"\n    else:\n        db(db.poll.id==pid).update(flag=0)    \n        session.flash="Your request has been sent"\n    #redirect(URL(r=request,f=\'index\'))\n    return dict(a=request.args,l=l)\n\n#@auth.requires_login()\n\n#search by roll\ndef searchbyroll():\n    roll=request.vars.name\n    print roll\n    query=(db.students.roll_no.startswith(roll))\n    set=db(query)\n    result=set.select()\n    return dict(result=result)\n\n\n#request for doctors appointment\ndef medreq():\n    form=SQLFORM(db.medical)\n    now = time.localtime(time.time())\n    year, month, day, hour, minute, second, weekday, yearday, daylight = now\n    db.medical.posted_by.default=session.name\n    db.medical.Date.default=datetime.datetime.today()\n    db.medical.Time.default="%02d:%02d:%02d" % (hour, minute, second)\n    db.medical.Flag.default=1\n    name=db(db.students.email==str(session.token)).select(db.students.ALL);\n    mobile=name[0].mobile\n    form.vars.mobile=mobile\n   \n    if form.accepts(request.vars,session):\n          session.flash="Request recorded"\n          redirect(URL(r=request,f=\'byroll\'))\n    \n    return dict(form=form)\n\n#adding new doctor details\ndef amedreq():\n\n    form=SQLFORM(db.medical)\n    now = time.localtime(time.time())\n    year, month, day, hour, minute, second, weekday, yearday, daylight = now\n    db.medical.posted_by.default=session.name\n    db.medical.Date.default=datetime.datetime.today()\n    db.medical.Time.default="%02d:%02d:%02d" % (hour, minute, second)\n    db.medical.Flag.default=1\n    name=db(db.students.email==str(session.token)).select(db.students.ALL);\n    mobile=name[0].mobile\n    form.vars.mobile=mobile\n    \n    doctor=db().select(db.docs.ALL)\n  \n    \n    if form.accepts(request.vars,session):\n          session.flash="Request recorded"\n          #redirect(URL(r=request,f=\'index\'))\n    form1=SQLFORM(db.docs)\n    if form1.accepts(request.vars,session):\n          session.flash="Request recorded"\n          redirect(URL(r=request,f=\'amedreq\'))\n    return dict(form=form,form1=form1,doctor=doctor)\n\n#participate in a poll-enter vote\ndef sr1():\n    l=len(request.vars.q1Options)\n    db.poll.insert(question=request.vars.question,options_no=l,posted_by=session.name)\n    \n    print l\n    q=db(db.poll.question==request.vars.question).select(db.poll.ALL)\n    pid=q[0].id\n    i=0\n    print request.vars.q1Options\n    while i<l :\n         db.options.insert(option=request.vars.q1Options[i],qid=pid)\n         i=i+1\n    if session.login==2:\n        db(db.poll.id==pid).update(flag=1)    \n        session.flash="New Poll Created"\n    else:\n        db(db.poll.id==pid).update(flag=0)    \n        session.flash="Your request has been sent"\n\n#view medical requests-for staff\ndef vmedical():\n    return dict(form=db(db.medical.Flag==1).select(db.medical.ALL,orderby=db.medical.Doctor|~ db.medical.id))\n\n#search a student by room\ndef searchbyroom():\n    room=request.vars.name\n    hostel=request.vars.hostel\n    print hostel\n    query=(db.students.room_no==room)&(db.students.hostel==hostel)\n    set=db(query)\n    result=set.select()\n    return dict(result=result)\n\n#search a student by name\ndef searchbyname():\n    name=request.vars.name.lower()\n    query=db.students.name.lower().startswith(name)\n    set=db(query)\n    result=set.select()\n    return dict(result=result)\n#mark complaint as completed-by staff\ndef markcom():\n     if type(request.vars.option)==str:\n         l=1\n         db(db.complaint.id==request.vars.option).update(Flag=0) \n         \n     else:\n         l=len(request.vars.option)\n         for i in range(l):\n             db(db.complaint.id==request.vars.option[i]).update(Flag=0) \n     redirect(URL(r=request,f=\'vcomplaint\'))\n     return dict(form=l)\n#mark a medical requwst as processed-staff\ndef markcom_med():\n     if type(request.vars.option)==str:\n         l=1\n         db(db.medical.id==request.vars.option).update(Flag=0) \n         \n     else:\n         l=len(request.vars.option)\n         for i in range(l):\n             db(db.medical.id==request.vars.option[i]).update(Flag=0) \n     redirect(URL(r=request,f=\'vmedical\'))\n     return dict(form=l)\n\n#main function (home) this redirects  users to their respective pages(staff,admin..)\ndef index():\n  session.flash=response.flash\n  if session.login==0:\n        \n\n        if db(db.admin.email==session.token).select(db.admin.ALL) :\n                session.login = 4\n                print "l"\n                redirect(URL(r=request, f=\'admin\'))\n        \n        if db(db.puser.email==session.token).select(db.puser.ALL) :\n                session.login = 2\n                redirect(URL(r=request, f=\'puser\'))\n  \n        \n\n                      \n        if db(db.staff.email==session.token).select(db.staff.ALL) :\n                session.login = 3\n                redirect(URL(r=request, f=\'staff\'))\n\n        else: \n                print "lll"\n                session.login = 1\n                redirect(URL(r=request, f=\'student\'))\n  else:\n         if session.login==1:\n                redirect(URL(r=request, f=\'student\'))\n                \n         if session.login==2:\n                redirect(URL(r=request, f=\'puser\'))\n                \n         if session.login==3:\n                redirect(URL(r=request, f=\'staff\'))\n                \n         if session.login==4:\n                redirect(URL(r=request, f=\'admin\'))                                                 \n\n\n#view requests for polls and newsfeed -puser \ndef requests():\n    poll=db(db.poll.flag==0).select(db.poll.ALL)\n    newsfeed=db(db.news_feed.flag==0).select(db.news_feed.ALL)\n   # query=((db.poll.flag==0))\n    #query2=((db.news_feed.flag==0))\n    #newsfeed=SQLFORM.smartgrid(newsfeed=newsfeed)\n    #form1=SQLFORM.grid(query=query)\n    \n    #form2=SQLFORM.grid(query=query2)\n    if not (poll or  newsfeed):\n        session.flash="All requests processed"\n        redirect(URL(r=request,f=\'index\'))\n    return dict(form1=poll,form2=newsfeed)\n#update status of requests of poll -puser    \ndef request_poll():\n    i=request.args\n    if i[1]=="1":\n        db(db.poll.id==i[0]).update(flag=1)\n    if i[1]=="-1":\n        db(db.poll.id==i[0]).delete()\n        db(db.options.qid==i[0]).delete()\n    redirect(URL(r=request,f=\'requests\'))\n    return dict()\n#update status of requests of newsfeed-puser\ndef request_newsfeed():\n    i=request.args\n    if i[1]=="1":\n        db(db.news_feed.id==i[0]).update(flag=1)\n    if i[1]=="-1":\n        db(db.news_feed.id==i[0]).delete()\n    redirect(URL(r=request,f=\'requests\'))\n    return dict()    \n\n\n#add or request newsfeed\ndef add_news_feed():\n    form=SQLFORM(db.news_feed);\n    form.vars.posted_by=session.name\n    \n    if session.login==2:\n            form.vars.flag=1\n    else:\n            form.vars.flag=0\n            \n    if form.accepts(request.vars,session):\n        if session.login==2:\n            session.flash="Newsfeed Added"\n\n        else:\n            session.flash="Your request has been sent"\n\n        redirect(URL(r=request,f=\'index\'))\n    return dict(form=form)\n      \n#student home page -has view of his functions(menu),polls,newsfeed\ndef student():\n    variable=0\n    if request.vars.option!=None:\n        k=request.vars.option\n        l=db(db.options.id==k).select(db.options.ALL)\n        \n        la=l[0].qid\n        l=l[0].counter\n        db(db.options.id==k).update(counter=l+1)\n        l2=db(db.poll.id==la).select(db.poll.ALL)\n        l2=l2[0].counter\n        db(db.poll.id==la).update(counter=l2+1)\n        db.vote.insert(qid=la,voted_by=session.name)\n        redirect(URL(r=request,f=\'index\'))\n    if len(request.args) > 0:\n        variable=1\n    newsfeed=db().select(db.news_feed.ALL,orderby=~db.news_feed.id)\n    polls=db().select(db.poll.ALL,orderby=~db.poll.id)\n    \n    form=SQLFORM(db.news_feed);\n    form.vars.posted_by=session.name\n    \n    if session.login==2:\n            form.vars.flag=1\n    else:\n            form.vars.flag=0\n            \n    if form.accepts(request.vars,session):\n        if session.login==2:\n            session.flash="Newsfeed Added"\n\n        else:\n            session.flash="Your request has been sent"\n\n        redirect(URL(r=request,f=\'index\'))    \n    return dict(newsfeed=newsfeed,polls=polls,form=form,variable=variable)\n#previlised user homepage \ndef puser():\n    variable=0\n    if request.vars.option!=None:\n        k=request.vars.option\n        l=db(db.options.id==k).select(db.options.ALL)\n        \n        la=l[0].qid\n        l=l[0].counter\n        db(db.options.id==k).update(counter=l+1)\n        l2=db(db.poll.id==la).select(db.poll.ALL)\n        l2=l2[0].counter\n        db(db.poll.id==la).update(counter=l2+1)\n        db.vote.insert(qid=la,voted_by=session.name)\n        redirect(URL(r=request,f=\'index\'))\n    if len(request.args) > 0:\n        variable=1\n    newsfeed=db().select(db.news_feed.ALL,orderby=~db.news_feed.id)\n    polls=db().select(db.poll.ALL,orderby=~db.poll.id)\n    \n    form=SQLFORM(db.news_feed);\n    form.vars.posted_by=session.name\n    \n    if session.login==2:\n            form.vars.flag=1\n    else:\n            form.vars.flag=0\n            \n    if form.accepts(request.vars,session):\n        if session.login==2:\n            session.flash="Newsfeed Added"\n\n        else:\n            session.flash="Your request has been sent"\n\n        redirect(URL(r=request,f=\'index\'))    \n    return dict(newsfeed=newsfeed,polls=polls,form=form,variable=variable)\n #staff homepage contains menu and enter laptop details form         \ndef staff():\n    form2=SQLFORM(db.other_laptop_out)\n    if form2.accepts(request.vars,session):\n        session.flash="Laptop Details Entered"\n        redirect(URL(r=request,f=\'staff\'))\n    form=SQLFORM(db.laptop_out)\n    if form.accepts(request.vars,session):\n        session.flash="Laptop Details Entered"\n        redirect(URL(r=request,f=\'show_laptop_details\',args=form.vars.roll_no))\n    return dict(form=form,form2=form2)\n   \n#return a page for form view \ndef one(): \n    return dict()\n\n\n#view edit add vacant rooms\ndef vacant_rooms():\n    #request.vars=None\n    if request.vars.hostel!=None:\n        k=request.vars.hostel\n        l=request.vars.room_no\n        db.vacant_rooms.insert(hostel=k,room_no=l)\n        redirect(URL(r=request,f=\'vacant_rooms\'))\n    form=db().select(db.vacant_rooms.ALL)\n    return dict(form=form)\n#delete vacant rooms\ndef delete_vacant_rooms():\n    db(db.vacant_rooms.id==request.args[0]).delete()\n    redirect(URL(r=request,f=\'vacant_rooms\'))\n#view vacant rooms-student\ndef view_vacant_rooms():\n    return dict()\n#admin homepage has previliges \ndef admin():\n        if request.vars:\n            m=request.vars.id\n            f=request.vars.fro\n            t=request.vars.to\n           \n            if(db(db[request.vars.fro].email==m).delete()):\n                if(t=="admin"):\n                    db.admin.insert(email=m)\n                if(t=="puser"):\n                    db.puser.insert(email=m)\n                if(t=="staff"):\n                    db.staff.insert(email=m)\n                if(t=="user"):\n                    db.nuser.insert(email=m)\n                session.flash="Promotion successfull"\n            else:\n                session.flash="Invalid Promotion"\n            redirect(URL(\'admin\'))\n        return dict()    \n  \n#error page         \ndef error():\n    return dict()\n    \nimport datetime\nimport time\n#view laptop details and edit-staff \ndef enter_laptop_details():\n    form=""\n    if request.vars.roll!=None:\n        form=db(db.laptop.roll_no==request.vars.roll).select()\n       # redirect(URL(r=request,f=\'index\'))\n    return dict(form=form,roll=request.vars.roll)\n#delete laptop details of a student\ndef delete_laptop():\n    db(db.laptop.id==request.args[0]).delete()\n    redirect(URL(r=request,f=\'enter_laptop_details\'+\'?roll=\'+request.args[1]))\n#add a new laptop \ndef add_laptop():\n    db.laptop.insert(roll_no=request.vars.roll,service_tag=request.vars.service_tag,company=request.vars.company)            \n    redirect(URL(r=request,f=\'enter_laptop_details\'+\'?roll=\'+request.vars.roll))        \n#taking laptop outside          \ndef laptop_out_details():\n    form=SQLFORM(db.laptop_out)\n    if form.accepts(request.vars,session):\n        session.flash="Laptop Details Entered"\n        redirect(URL(r=request,f=\'show_laptop_details\',args=form.vars.roll_no))\n    return dict(form=form)\n#view laptop outing records    \ndef view_laptop_out_details():\n    if request.vars.number!=None:\n        n=request.vars.number\n    else:\n        n=25\n    return dict(form=db().select(db.laptop_out.ALL,limitby=(0,int(n))),number=n)\n#view student outing details\ndef view_student_out_details():\n    if request.vars.number!=None:\n        n=request.vars.number\n    else:\n        n=25\n    return dict(form=db().select(db.student_out.ALL,limitby=(0,int(n))),number=n)\n#add student outing details\ndef student_out_details():\n    form=SQLFORM(db.student_out)\n    if form.accepts(request.vars,session):\n        session.flash="student Details Entered"\n        if form.vars.laptop_presence=="present":\n            db.laptop_out.insert(roll_no=form.vars.roll_no,reason="outside campus")\n            redirect(URL(r=request,f=\'show_laptop_details\',args=form.vars.roll_no))\n        else:\n            redirect(URL(r=request,f=\'index\'))\n    return dict(form=form)\n#view students laptop details\ndef show_laptop_details():\n    i=request.args\n    \n    laptop=db(db.laptop.roll_no==i[0]).select(db.laptop.ALL)\n    if not laptop:\n        session.flash="No Record Found Enter Details"\n        redirect(URL(r=request,f= enter_laptop_details))\n    name=db(db.students.roll_no==i[0]).select(db.students.name)\n    \n    return dict(form=laptop,roll=i[0])\n##file a new complaint    \ndef regcomplaint():\n    now = time.localtime(time.time())\n    year, month, day, hour, minute, second, weekday, yearday, daylight = now\n    db.complaint.User.default=session.name\n    db.complaint.Date.default=datetime.datetime.today()\n    db.complaint.Time.default="%02d:%02d:%02d" % (hour, minute, second)\n    db.complaint.room.default=session.room\n    db.complaint.Flag.default=1\n    form = SQLFORM(db.complaint)\n    w=0\n    if form.process().accepted:\n        session.flash = \'your complaint is registered\'\n        redirect(URL(r=request,f=\'complaint\'))\n    else:\n        w=1  \n    if not request.vars.place:\n        query=(db.complaint.User==session.name)\n        set=db(query)\n        complaints=set.select(orderby=~db.complaint.Flag|~ db.complaint.Date|~db.complaint.Time ,limitby=(0,5))\n        filtered_by="All"\n    else:\n        if(request.vars.place=="All"):\n            query=(db.complaint.User==session.name)\n        else:\n            query=(db.complaint.User==session.name)&(db.complaint.category==request.vars.place) \n        set=db(query)\n        complaints=set.select(orderby=~db.complaint.Flag|~ db.complaint.Date|~db.complaint.Time,limitby=(0,5))\n        filtered_by=request.vars.place\n     \n    if not request.vars.place2:\n        query=(db.complaint.access!="Private") & (db.complaint.Flag!=0)\n        set=db(query)\n        complaints2=set.select(orderby=~ db.complaint.Date|~db.complaint.Time)\n        filtered_by2="All"\n    else:\n        if(request.vars.place2=="All"):\n            query=(db.complaint.access!="Private") & (db.complaint.Flag!=0)\n        else:\n            query=(db.complaint.access!="Private")&(db.complaint.category==request.vars.place2) & (db.complaint.Flag!=0)\n        set=db(query)\n        complaints2=set.select(orderby=~ db.complaint.Date|~db.complaint.Time)\n        filtered_by2=request.vars.place2\n    return dict(w=w,complaints=complaints,complaints2=complaints2,filtered_by=filtered_by,filtered_by2=filtered_by2,form=form)    \n \n#@auth.requires_login()\n#complaints view page\ndef complaint():\n    if not request.vars.place:\n        query=(db.complaint.User==session.name)\n        set=db(query)\n        complaints=set.select(orderby=~db.complaint.Flag|~ db.complaint.Date|~db.complaint.Time ,limitby=(0,5))\n        filtered_by="All"\n    else:\n        if(request.vars.place=="All"):\n            query=(db.complaint.User==session.name)\n        else:\n            query=(db.complaint.User==session.name)&(db.complaint.category==request.vars.place) \n        set=db(query)\n        complaints=set.select(orderby=~db.complaint.Flag|~ db.complaint.Date|~db.complaint.Time,limitby=(0,5))\n        filtered_by=request.vars.place\n     \n    if not request.vars.place2:\n        query=(db.complaint.access!="Private") & (db.complaint.Flag!=0)\n        set=db(query)\n        complaints2=set.select(orderby=~ db.complaint.Date|~db.complaint.Time)\n        filtered_by2="All"\n    else:\n        if(request.vars.place2=="All"):\n            query=(db.complaint.access!="Private") & (db.complaint.Flag!=0)\n        else:\n            query=(db.complaint.access!="Private")&(db.complaint.category==request.vars.place2) & (db.complaint.Flag!=0)\n        set=db(query)\n        complaints2=set.select(orderby=~ db.complaint.Date|~db.complaint.Time)\n        filtered_by2=request.vars.place2\n    return dict(complaints=complaints,complaints2=complaints2,filtered_by=filtered_by,filtered_by2=filtered_by2)\n     \n#view complaints     \ndef showcomplaint():\n    return dict()\n#view private complaints\ndef viewprivate():\n    if(request.args(0)==\'1\'):\n        query=(db.complaint.User==session.name) & (db.complaint.Flag==1)\n        set=db(query)\n        complaints=set.select()\n        return dict(complaints=complaints)\n    else:\n        if(request.vars.place==\'1\'):\n            query=(db.complaint.User==session.name) & (db.complaint.Flag==1)\n        else:\n            query=(db.complaint.User==session.name)&(db.complaint.category==request.vars.place) & (db.complaint.Flag==1)\n        set=db(query)\n        complaints=set.select()\n        return dict(complaints=complaints)\n#del complaint\ndef delcomplaint():\n    remove = db(db.complaint.id==request.args(0)).delete()\n    if remove:\n        response.flash=\'complaint deleted succesfully\'\n        redirect(URL(\'viewprivate\'))\n    else:\n        response.flash=\'image deletion failed\'\ndef viewpublic():\n    query=(db.complaint.access!="Private") & (db.complaint.Flag!=0)\n    set=db(query)\n    complaints=set.select()\n    return dict(complaints=complaints)\n#mark as completed\ndef metcomplaint():\n    db(db.complaint.id==request.args(0)).update(Flag=0)\n    response.flash=\'Removed the complaint succesfully\'\n    redirect(URL(\'viewprivate\'))\ndef search():\n    return dict()\ndef byname():\n    return dict()\n#by blood grp search and roll_no search\ndef byroll():\n#here complaints means students list result\n    complaints=""\n    if request.vars.blood_grp!=None:\n        if request.vars.roll_no!=None:\n            query= ( db.students.roll_no.startswith(request.vars.roll_no) ) & (db.students.blood_grp==request.vars.blood_grp)\n            set=db(query)\n            complaints=set.select()\n        else:\n            complaints=db(db.students.blood_grp==response.vars.blood_grp).select()\n            \n    return dict(result=complaints,grp=request.vars.blood_grp,roll=request.vars.roll_no)\n            \n    return dict()\ndef byroom():\n    return dict()\n\n#profile of a student\ndef viewprofile():\n    query=(db.students.roll_no==request.args(0))\n    set=db(query)\n    prof=set.select()\n    return dict(prof=prof)\n#edit profile-admin\ndef editprofile():\n    query=(db.students.roll_no==request.vars.roll)\n    set=db(query)\n    prof=set.select()\n    studentid=prof[0].id\n    form=SQLFORM(db.students,studentid)\n    if form.accepts(request.vars,session):\n          session.flash="Profile edited"\n          redirect(URL(r=request,f=\'index\'))\n    return dict(form=form)\n#view complaints-admin\ndef vcomplaint():\n    m=""\n    n=""\n    \n    if(session.pdf1==0):\n        session.place=request.vars.place\n    if(session.place==None):\n        complaints = db().select(db.complaint.ALL,orderby=~db.complaint.Date|~db.complaint.Time)\n        filtered_by="All"\n    else:\n         if(session.place==\'1\'):\n            m=request.vars.end\n            n=request.vars.start\n            if(m==\'\'):\n                m=datetime.datetime.today()\n            n=request.vars.start\n            if(n==\'\'):\n               today = datetime.datetime.today()\n               DD = datetime.timedelta(days=90)\n               n=today - DD\n            query=(db.complaint.Date>=n)&(db.complaint.Date<=m)\n            set=db(query)\n            complaints=set.select(orderby=~db.complaint.Date|~db.complaint.Time)\n            filtered_by="All"\n         else:\n            m=request.vars.end\n            n=request.vars.start\n            if(m==\'\'):\n                m=datetime.datetime.today()\n            n=request.vars.start\n            if(n==\'\'):\n               today = datetime.datetime.today()\n               DD = datetime.timedelta(days=90)\n               n=today - DD\n            query=(db.complaint.category==session.place)& (db.complaint.Date>=n)&(db.complaint.Date<=m)\n            set=db(query)\n            complaints=set.select(orderby=~db.complaint.Date|~db.complaint.Time)\n            filtered_by=session.place\n            \n    if session.pdf1==1 :\n        o=[]\n        for row in complaints:\n            o=o+[row.access]\n            o=o+[row.category]\n            o=o+[row.AvailableTime]\n            o=o+[row.complaint_body]\n            print 1\n            print o\n        return o\n    else:\n        return dict(complaints=complaints,filtered_by=filtered_by,start=request.vars.start,end=request.vars.end)    \n\n#view complaints-staff    \ndef staff_vcomplaint():\n    if(session.pdf1==0):\n        session.place=request.vars.place\n    if(session.place==None):\n        complaints = db(db.complaint.Flag==1).select(db.complaint.ALL,orderby=~ db.complaint.Date|~db.complaint.Time)\n        filtered_by="All"\n    else:\n         if(session.place==\'ALL\'):\n           complaints = db(db.complaint.Flag==1).select(db.complaint.ALL,orderby=~ db.complaint.Date|~db.complaint.Time)\n           filtered_by="ALL"\n         else:\n            query=(db.complaint.category==request.vars.place)& (db.complaint.Flag==1)\n\n            set=db(query)\n            complaints=set.select(orderby=~db.complaint.Date|~db.complaint.Time)\n            filtered_by=session.place\n    o=[]\n    print session.pdf1\n    if session.pdf1==1 :\n        for row in complaints:\n            o=o+[row.access]\n            o=o+[row.category]\n            o=o+[row.AvailableTime]\n            o=o+[row.room]\n            o=o+[row.complaint_body]\n            \n            print 1\n            print o\n        return o\n    else:\n            return dict(complaints=complaints,filtered_by=filtered_by)\n            \n                \n #takes month as input-search-ajax                       \ndef month_input():\n    return dict()\n#ajax search\ndef month_selector():\n    if not request.vars.name:\n        return \'\'\n    pattern = request.vars.name.capitalize() + \'%\'\n    selected = [row.name for row in db(db.students.name.like(pattern)).select()]\n    return \'\'.join([DIV(k,\n                 _onclick="jQuery(\'#name\').val(\'%s\')" % k,\n                 _onmouseover="this.style.backgroundColor=\'yellow\'",\n                 _onmouseout="this.style.backgroundColor=\'white\'"\n                 ).xml() for k in selected])\n\n\n#rules edit,view\ndef rules():\n    rules=db().select(db.rules.ALL)\n    form = SQLFORM(db.rules)\n    if form.process().accepted:\n        session.flash = \'New rule added\'\n        redirect(URL(r=request,f=\'rules\'))\n    else:\n        w=1  \n    return dict(rules=rules,form=form)\n#del rule    \ndef delrule():\n    remove = db(db.rules.id==request.args(0)).delete()\n    if remove:\n        session.flash=\'rule deleted succesfully\'\n        redirect(URL(\'rules\'))\n    else:\n        session.flash=\'rule deletion failed\'\n#add rule\ndef uprule():\n    m=request.args(0)\n    for k in db(db.rules.id==m).select():\n        db.rules.rule.default=k.rule\n    form = SQLFORM(db.rules)\n    if form.process().accepted:\n        response.flash = \'Rule Updated\'\n        db(db.rules.id==request.args(0)).delete()\n        redirect(URL(r=request,f=\'rules\'))   \n    return dict(form=form)\n    \n\n#del a doctor name   \ndef deldoc():\n    remove = db(db.docs.id==request.args(0)).delete()\n    if remove:\n        session.flash=\'Entry deleted succesfully\'\n        redirect(URL(\'amedreq\'))\n    else:\n        session.flash=\'entry deletion failed\'\n#add a doctor name\ndef updoc():\n    m=request.args(0)\n    for k in db(db.docs.id==m).select():\n        db.docs.Doctor_Name.default=k.Doctor_Name\n        db.docs.Phone_No.default=k.Phone_No\n        db.docs.Available_day_and_time.default=k.Available_day_and_time\n    form = SQLFORM(db.docs)\n    if form.process().accepted:\n        response.flash = \'Entry Updated\'\n        db(db.docs.id==request.args(0)).delete()\n        redirect(URL(r=request,f=\'amedreq\'))   \n    return dict(form=form)\n\n#view rules-students\ndef studentrules():\n    rules=db().select(db.rules.ALL)\n    return dict(rules=rules)\n    \n    \n#promote users to puser/admin/staff/demote-admin   \ndef promote():\n        if request.vars:\n            m=request.vars.id\n            f=request.vars.fro\n            t=request.vars.to\n            if(db(db[request.vars.fro].email==m).delete()):\n                if(t=="admin"):\n                    db.admin.insert(email=m)\n                if(t=="puser"):\n                    db.puser.insert(email=m)\n                if(t=="staff"):\n                    db.staff.insert(email=m)\n                if(t=="user"):\n                    db.nuser.insert(email=m)\n                session.flash="Promotion successfull"\n            else:\n                session.flash="Invalid Promotion"\n            redirect(URL(\'promote\'))\n        return dict()\n\n\n#pdf generator\ndef listing():\n    response.title = "Complaints"\n    l=request.vars.function\n    session.pdf1=1\n    session.place=request.vars.place\n    print session.pdf1\n    o=eval(l)()\n    session.place=None\n    session.pdf1=0\n    print o\n    # define header and footers:\n    head = THEAD(TR(TH("User",_width="10%"), \n                    TH("Category",_width="10%"),\n                    TH("Room No",_width="10%"),\n                   TH("Time",_width="10%"),\n                  TH("Complaint",_width="60%"), \n                    _bgcolor="#A0A0A0"))\n    \n    \n    # create several rows:\n    rows = []\n    i=-4\n    k=len(o)/4\n    \n    for i1 in range(k):\n        print "poi"\n        i=i+5\n        col = i % 5 and "#F0F0F0" or "#FFFFFF"\n        rows.append(TR(TD(o[i],_align="center"),\n                           TD(o[i+1] ,_align="center"),\n                            TD(o[i+2] ,_align="center"),\n                       TD(o[i+3], _align="center"),\n                       _bgcolor=col)) \n\n    # make the table object\n    body = TBODY(*rows)\n    table = TABLE(*[head, body], \n                  _border="1", _align="center", _width="100%")\n\n    if request.extension=="pdf":\n        from gluon.contrib.pyfpdf import FPDF, HTMLMixin\n\n        # define our FPDF class (move to modules if it is reused  frequently)\n        class MyFPDF(FPDF, HTMLMixin):\n            def header(self):\n                self.set_font(\'Arial\',\'B\',15)\n                self.cell(0,10, response.title ,1,0,\'C\')\n                self.ln(20)\n                \n            def footer(self):\n                self.set_y(-15)\n                self.set_font(\'Arial\',\'I\',8)\n                txt = \'Page %s of %s\' % (self.page_no(), self.alias_nb_pages())\n                self.cell(0,10,txt,0,0,\'C\')\n                    \n        pdf=MyFPDF()\n        pdf.add_page()\n        pdf.write_html(str(XML(table, sanitize=True)))\n        response.headers[\'Content-Type\']=\'application/pdf\'\n        return pdf.output(dest=\'S\')\n    else:\n        return dict(table=table)\n\nresponse._vars=response._caller(login)\n'
p7
sS'snapshot'
p8
(dp9
S'exception'
p10
(dp11
S'__hash__'
p12
S"<method-wrapper '__hash__' of exceptions.IndexError object>"
p13
sS'__setattr__'
p14
S"<method-wrapper '__setattr__' of exceptions.IndexError object>"
p15
sS'__reduce_ex__'
p16
S'<built-in method __reduce_ex__ of exceptions.IndexError object>'
p17
sS'__getslice__'
p18
S"<method-wrapper '__getslice__' of exceptions.IndexError object>"
p19
sS'__getitem__'
p20
S"<method-wrapper '__getitem__' of exceptions.IndexError object>"
p21
sS'__setstate__'
p22
S'<built-in method __setstate__ of exceptions.IndexError object>'
p23
sS'args'
p24
S"('list index out of range',)"
p25
sS'__reduce__'
p26
S'<built-in method __reduce__ of exceptions.IndexError object>'
p27
sS'__str__'
p28
S"<method-wrapper '__str__' of exceptions.IndexError object>"
p29
sS'__format__'
p30
S'<built-in method __format__ of exceptions.IndexError object>'
p31
sS'__getattribute__'
p32
S"<method-wrapper '__getattribute__' of exceptions.IndexError object>"
p33
sS'__class__'
p34
S"<type 'exceptions.IndexError'>"
p35
sS'__unicode__'
p36
S'<built-in method __unicode__ of exceptions.IndexError object>'
p37
sS'__delattr__'
p38
S"<method-wrapper '__delattr__' of exceptions.IndexError object>"
p39
sS'__subclasshook__'
p40
S'<built-in method __subclasshook__ of type object>'
p41
sS'__repr__'
p42
S"<method-wrapper '__repr__' of exceptions.IndexError object>"
p43
sS'__dict__'
p44
S'{}'
p45
sS'__sizeof__'
p46
S'<built-in method __sizeof__ of exceptions.IndexError object>'
p47
sS'__doc__'
p48
S"'Sequence index out of range.'"
p49
sS'__init__'
p50
S"<method-wrapper '__init__' of exceptions.IndexError object>"
p51
sS'__new__'
p52
S'<built-in method __new__ of type object>'
p53
ssS'evalue'
p54
S'list index out of range'
p55
sS'request'
p56
ccopy_reg
_reconstructor
p57
(cgluon.html
BEAUTIFY
p58
c__builtin__
object
p59
NtRp60
(dp61
S'attributes'
p62
(dp63
sS'components'
p64
(lp65
g57
(cgluon.html
TABLE
p66
g59
NtRp67
(dp68
g62
(dp69
S'level'
p70
I5
ssS'parent'
p71
Nsg64
(lp72
g57
(cgluon.html
TR
p73
g59
NtRp74
(dp75
g62
(dp76
sg71
g67
sg64
(lp77
g57
(cgluon.html
TD
p78
g59
NtRp79
(dp80
g62
(dp81
S'_style'
p82
S'font-weight:bold;vertical-align:top'
p83
ssg71
g74
sg64
(lp84
S'ajax'
p85
asbag57
(g78
g59
NtRp86
(dp87
g62
(dp88
S'_valign'
p89
S'top'
p90
ssg71
g74
sg64
(lp91
S':'
asbag57
(g78
g59
NtRp92
(dp93
g62
(dp94
sg71
g74
sg64
(lp95
g57
(g58
g59
NtRp96
(dp97
g62
(dp98
g70
I5
ssg71
g92
sg64
(lp99
S'False'
p100
asbasbasbag57
(g73
g59
NtRp101
(dp102
g62
(dp103
sg71
g67
sg64
(lp104
g57
(g78
g59
NtRp105
(dp106
g62
(dp107
g82
g83
ssg71
g101
sg64
(lp108
S'application'
p109
asbag57
(g78
g59
NtRp110
(dp111
g62
(dp112
g89
g90
ssg71
g101
sg64
(lp113
S':'
asbag57
(g78
g59
NtRp114
(dp115
g62
(dp116
sg71
g101
sg64
(lp117
g57
(g58
g59
NtRp118
(dp119
g62
(dp120
g70
I5
ssg71
g114
sg64
(lp121
S'hostel'
p122
asbasbasbag57
(g73
g59
NtRp123
(dp124
g62
(dp125
sg71
g67
sg64
(lp126
g57
(g78
g59
NtRp127
(dp128
g62
(dp129
g82
g83
ssg71
g123
sg64
(lp130
g24
asbag57
(g78
g59
NtRp131
(dp132
g62
(dp133
g89
g90
ssg71
g123
sg64
(lp134
S':'
asbag57
(g78
g59
NtRp135
(dp136
g62
(dp137
sg71
g123
sg64
(lp138
g57
(g58
g59
NtRp139
(dp140
g62
(dp141
g70
I5
ssg71
g135
sg64
(lp142
g57
(g66
g59
NtRp143
(dp144
g62
(dp145
g70
I4
ssg71
Nsg64
(lp146
sbasbasbasbag57
(g73
g59
NtRp147
(dp148
g62
(dp149
sg71
g67
sg64
(lp150
g57
(g78
g59
NtRp151
(dp152
g62
(dp153
g82
g83
ssg71
g147
sg64
(lp154
S'body'
p155
asbag57
(g78
g59
NtRp156
(dp157
g62
(dp158
g89
g90
ssg71
g147
sg64
(lp159
S':'
asbag57
(g78
g59
NtRp160
(dp161
g62
(dp162
sg71
g147
sg64
(lp163
g57
(g58
g59
NtRp164
(dp165
g62
(dp166
g70
I5
ssg71
g160
sg64
(lp167
S'<cStringIO.StringO object at 0x7f6a486cc340>'
p168
asbasbasbag57
(g73
g59
NtRp169
(dp170
g62
(dp171
sg71
g67
sg64
(lp172
g57
(g78
g59
NtRp173
(dp174
g62
(dp175
g82
g83
ssg71
g169
sg64
(lp176
S'cid'
p177
asbag57
(g78
g59
NtRp178
(dp179
g62
(dp180
g89
g90
ssg71
g169
sg64
(lp181
S':'
asbag57
(g78
g59
NtRp182
(dp183
g62
(dp184
sg71
g169
sg64
(lp185
g57
(g58
g59
NtRp186
(dp187
g62
(dp188
g70
I5
ssg71
g182
sg64
(lp189
S'None'
p190
asbasbasbag57
(g73
g59
NtRp191
(dp192
g62
(dp193
sg71
g67
sg64
(lp194
g57
(g78
g59
NtRp195
(dp196
g62
(dp197
g82
g83
ssg71
g191
sg64
(lp198
S'client'
p199
asbag57
(g78
g59
NtRp200
(dp201
g62
(dp202
g89
g90
ssg71
g191
sg64
(lp203
S':'
asbag57
(g78
g59
NtRp204
(dp205
g62
(dp206
sg71
g191
sg64
(lp207
g57
(g58
g59
NtRp208
(dp209
g62
(dp210
g70
I5
ssg71
g204
sg64
(lp211
S'127.0.0.1'
p212
asbasbasbag57
(g73
g59
NtRp213
(dp214
g62
(dp215
sg71
g67
sg64
(lp216
g57
(g78
g59
NtRp217
(dp218
g62
(dp219
g82
g83
ssg71
g213
sg64
(lp220
S'controller'
p221
asbag57
(g78
g59
NtRp222
(dp223
g62
(dp224
g89
g90
ssg71
g213
sg64
(lp225
S':'
asbag57
(g78
g59
NtRp226
(dp227
g62
(dp228
sg71
g213
sg64
(lp229
g57
(g58
g59
NtRp230
(dp231
g62
(dp232
g70
I5
ssg71
g226
sg64
(lp233
S'default'
p234
asbasbasbag57
(g73
g59
NtRp235
(dp236
g62
(dp237
sg71
g67
sg64
(lp238
g57
(g78
g59
NtRp239
(dp240
g62
(dp241
g82
g83
ssg71
g235
sg64
(lp242
S'cookies'
p243
asbag57
(g78
g59
NtRp244
(dp245
g62
(dp246
g89
g90
ssg71
g235
sg64
(lp247
S':'
asbag57
(g78
g59
NtRp248
(dp249
g62
(dp250
sg71
g235
sg64
(lp251
g57
(g58
g59
NtRp252
(dp253
g62
(dp254
g70
I5
ssg71
g248
sg64
(lp255
g57
(g66
g59
NtRp256
(dp257
g62
(dp258
g70
I4
ssg71
Nsg64
(lp259
g57
(g73
g59
NtRp260
(dp261
g62
(dp262
sg71
g256
sg64
(lp263
g57
(g78
g59
NtRp264
(dp265
g62
(dp266
g82
g83
ssg71
g260
sg64
(lp267
S'session_id_admin'
p268
asbag57
(g78
g59
NtRp269
(dp270
g62
(dp271
g89
g90
ssg71
g260
sg64
(lp272
S':'
asbag57
(g78
g59
NtRp273
(dp274
g62
(dp275
sg71
g260
sg64
(lp276
g57
(g58
g59
NtRp277
(dp278
g62
(dp279
g70
I4
ssg71
g273
sg64
(lp280
S'127.0.0.1-59685fbb-afa3-4ab8-9b9f-ca931480341b'
p281
ag57
(g66
g59
NtRp282
(dp283
g62
(dp284
g70
I3
ssg71
Nsg64
(lp285
g57
(g73
g59
NtRp286
(dp287
g62
(dp288
sg71
g282
sg64
(lp289
g57
(g78
g59
NtRp290
(dp291
g62
(dp292
g82
g83
ssg71
g286
sg64
(lp293
S'comment'
p294
asbag57
(g78
g59
NtRp295
(dp296
g62
(dp297
g89
g90
ssg71
g286
sg64
(lp298
S':'
asbag57
(g78
g59
NtRp299
(dp300
g62
(dp301
sg71
g286
sg64
(lp302
g57
(g58
g59
NtRp303
(dp304
g62
(dp305
g70
I3
ssg71
g299
sg64
(lp306
S''
asbasbasbag57
(g73
g59
NtRp307
(dp308
g62
(dp309
sg71
g282
sg64
(lp310
g57
(g78
g59
NtRp311
(dp312
g62
(dp313
g82
g83
ssg71
g307
sg64
(lp314
S'domain'
p315
asbag57
(g78
g59
NtRp316
(dp317
g62
(dp318
g89
g90
ssg71
g307
sg64
(lp319
S':'
asbag57
(g78
g59
NtRp320
(dp321
g62
(dp322
sg71
g307
sg64
(lp323
g57
(g58
g59
NtRp324
(dp325
g62
(dp326
g70
I3
ssg71
g320
sg64
(lp327
S''
asbasbasbag57
(g73
g59
NtRp328
(dp329
g62
(dp330
sg71
g282
sg64
(lp331
g57
(g78
g59
NtRp332
(dp333
g62
(dp334
g82
g83
ssg71
g328
sg64
(lp335
S'expires'
p336
asbag57
(g78
g59
NtRp337
(dp338
g62
(dp339
g89
g90
ssg71
g328
sg64
(lp340
S':'
asbag57
(g78
g59
NtRp341
(dp342
g62
(dp343
sg71
g328
sg64
(lp344
g57
(g58
g59
NtRp345
(dp346
g62
(dp347
g70
I3
ssg71
g341
sg64
(lp348
S''
asbasbasbag57
(g73
g59
NtRp349
(dp350
g62
(dp351
sg71
g282
sg64
(lp352
g57
(g78
g59
NtRp353
(dp354
g62
(dp355
g82
g83
ssg71
g349
sg64
(lp356
S'httponly'
p357
asbag57
(g78
g59
NtRp358
(dp359
g62
(dp360
g89
g90
ssg71
g349
sg64
(lp361
S':'
asbag57
(g78
g59
NtRp362
(dp363
g62
(dp364
sg71
g349
sg64
(lp365
g57
(g58
g59
NtRp366
(dp367
g62
(dp368
g70
I3
ssg71
g362
sg64
(lp369
S''
asbasbasbag57
(g73
g59
NtRp370
(dp371
g62
(dp372
sg71
g282
sg64
(lp373
g57
(g78
g59
NtRp374
(dp375
g62
(dp376
g82
g83
ssg71
g370
sg64
(lp377
S'max-age'
p378
asbag57
(g78
g59
NtRp379
(dp380
g62
(dp381
g89
g90
ssg71
g370
sg64
(lp382
S':'
asbag57
(g78
g59
NtRp383
(dp384
g62
(dp385
sg71
g370
sg64
(lp386
g57
(g58
g59
NtRp387
(dp388
g62
(dp389
g70
I3
ssg71
g383
sg64
(lp390
S''
asbasbasbag57
(g73
g59
NtRp391
(dp392
g62
(dp393
sg71
g282
sg64
(lp394
g57
(g78
g59
NtRp395
(dp396
g62
(dp397
g82
g83
ssg71
g391
sg64
(lp398
S'path'
p399
asbag57
(g78
g59
NtRp400
(dp401
g62
(dp402
g89
g90
ssg71
g391
sg64
(lp403
S':'
asbag57
(g78
g59
NtRp404
(dp405
g62
(dp406
sg71
g391
sg64
(lp407
g57
(g58
g59
NtRp408
(dp409
g62
(dp410
g70
I3
ssg71
g404
sg64
(lp411
S''
asbasbasbag57
(g73
g59
NtRp412
(dp413
g62
(dp414
sg71
g282
sg64
(lp415
g57
(g78
g59
NtRp416
(dp417
g62
(dp418
g82
g83
ssg71
g412
sg64
(lp419
S'secure'
p420
asbag57
(g78
g59
NtRp421
(dp422
g62
(dp423
g89
g90
ssg71
g412
sg64
(lp424
S':'
asbag57
(g78
g59
NtRp425
(dp426
g62
(dp427
sg71
g412
sg64
(lp428
g57
(g58
g59
NtRp429
(dp430
g62
(dp431
g70
I3
ssg71
g425
sg64
(lp432
S''
asbasbasbag57
(g73
g59
NtRp433
(dp434
g62
(dp435
sg71
g282
sg64
(lp436
g57
(g78
g59
NtRp437
(dp438
g62
(dp439
g82
g83
ssg71
g433
sg64
(lp440
S'version'
p441
asbag57
(g78
g59
NtRp442
(dp443
g62
(dp444
g89
g90
ssg71
g433
sg64
(lp445
S':'
asbag57
(g78
g59
NtRp446
(dp447
g62
(dp448
sg71
g433
sg64
(lp449
g57
(g58
g59
NtRp450
(dp451
g62
(dp452
g70
I3
ssg71
g446
sg64
(lp453
S''
asbasbasbasbasbasbasbag57
(g73
g59
NtRp454
(dp455
g62
(dp456
sg71
g256
sg64
(lp457
g57
(g78
g59
NtRp458
(dp459
g62
(dp460
g82
g83
ssg71
g454
sg64
(lp461
S'session_id_basesss'
p462
asbag57
(g78
g59
NtRp463
(dp464
g62
(dp465
g89
g90
ssg71
g454
sg64
(lp466
S':'
asbag57
(g78
g59
NtRp467
(dp468
g62
(dp469
sg71
g454
sg64
(lp470
g57
(g58
g59
NtRp471
(dp472
g62
(dp473
g70
I4
ssg71
g467
sg64
(lp474
S'127.0.0.1-4f26cda5-3406-489d-bcfa-1fcee4c5822a'
p475
ag57
(g66
g59
NtRp476
(dp477
g62
(dp478
g70
I3
ssg71
Nsg64
(lp479
g57
(g73
g59
NtRp480
(dp481
g62
(dp482
sg71
g476
sg64
(lp483
g57
(g78
g59
NtRp484
(dp485
g62
(dp486
g82
g83
ssg71
g480
sg64
(lp487
g294
asbag57
(g78
g59
NtRp488
(dp489
g62
(dp490
g89
g90
ssg71
g480
sg64
(lp491
S':'
asbag57
(g78
g59
NtRp492
(dp493
g62
(dp494
sg71
g480
sg64
(lp495
g57
(g58
g59
NtRp496
(dp497
g62
(dp498
g70
I3
ssg71
g492
sg64
(lp499
S''
asbasbasbag57
(g73
g59
NtRp500
(dp501
g62
(dp502
sg71
g476
sg64
(lp503
g57
(g78
g59
NtRp504
(dp505
g62
(dp506
g82
g83
ssg71
g500
sg64
(lp507
g315
asbag57
(g78
g59
NtRp508
(dp509
g62
(dp510
g89
g90
ssg71
g500
sg64
(lp511
S':'
asbag57
(g78
g59
NtRp512
(dp513
g62
(dp514
sg71
g500
sg64
(lp515
g57
(g58
g59
NtRp516
(dp517
g62
(dp518
g70
I3
ssg71
g512
sg64
(lp519
S''
asbasbasbag57
(g73
g59
NtRp520
(dp521
g62
(dp522
sg71
g476
sg64
(lp523
g57
(g78
g59
NtRp524
(dp525
g62
(dp526
g82
g83
ssg71
g520
sg64
(lp527
g336
asbag57
(g78
g59
NtRp528
(dp529
g62
(dp530
g89
g90
ssg71
g520
sg64
(lp531
S':'
asbag57
(g78
g59
NtRp532
(dp533
g62
(dp534
sg71
g520
sg64
(lp535
g57
(g58
g59
NtRp536
(dp537
g62
(dp538
g70
I3
ssg71
g532
sg64
(lp539
S''
asbasbasbag57
(g73
g59
NtRp540
(dp541
g62
(dp542
sg71
g476
sg64
(lp543
g57
(g78
g59
NtRp544
(dp545
g62
(dp546
g82
g83
ssg71
g540
sg64
(lp547
g357
asbag57
(g78
g59
NtRp548
(dp549
g62
(dp550
g89
g90
ssg71
g540
sg64
(lp551
S':'
asbag57
(g78
g59
NtRp552
(dp553
g62
(dp554
sg71
g540
sg64
(lp555
g57
(g58
g59
NtRp556
(dp557
g62
(dp558
g70
I3
ssg71
g552
sg64
(lp559
S''
asbasbasbag57
(g73
g59
NtRp560
(dp561
g62
(dp562
sg71
g476
sg64
(lp563
g57
(g78
g59
NtRp564
(dp565
g62
(dp566
g82
g83
ssg71
g560
sg64
(lp567
g378
asbag57
(g78
g59
NtRp568
(dp569
g62
(dp570
g89
g90
ssg71
g560
sg64
(lp571
S':'
asbag57
(g78
g59
NtRp572
(dp573
g62
(dp574
sg71
g560
sg64
(lp575
g57
(g58
g59
NtRp576
(dp577
g62
(dp578
g70
I3
ssg71
g572
sg64
(lp579
S''
asbasbasbag57
(g73
g59
NtRp580
(dp581
g62
(dp582
sg71
g476
sg64
(lp583
g57
(g78
g59
NtRp584
(dp585
g62
(dp586
g82
g83
ssg71
g580
sg64
(lp587
g399
asbag57
(g78
g59
NtRp588
(dp589
g62
(dp590
g89
g90
ssg71
g580
sg64
(lp591
S':'
asbag57
(g78
g59
NtRp592
(dp593
g62
(dp594
sg71
g580
sg64
(lp595
g57
(g58
g59
NtRp596
(dp597
g62
(dp598
g70
I3
ssg71
g592
sg64
(lp599
S''
asbasbasbag57
(g73
g59
NtRp600
(dp601
g62
(dp602
sg71
g476
sg64
(lp603
g57
(g78
g59
NtRp604
(dp605
g62
(dp606
g82
g83
ssg71
g600
sg64
(lp607
g420
asbag57
(g78
g59
NtRp608
(dp609
g62
(dp610
g89
g90
ssg71
g600
sg64
(lp611
S':'
asbag57
(g78
g59
NtRp612
(dp613
g62
(dp614
sg71
g600
sg64
(lp615
g57
(g58
g59
NtRp616
(dp617
g62
(dp618
g70
I3
ssg71
g612
sg64
(lp619
S''
asbasbasbag57
(g73
g59
NtRp620
(dp621
g62
(dp622
sg71
g476
sg64
(lp623
g57
(g78
g59
NtRp624
(dp625
g62
(dp626
g82
g83
ssg71
g620
sg64
(lp627
g441
asbag57
(g78
g59
NtRp628
(dp629
g62
(dp630
g89
g90
ssg71
g620
sg64
(lp631
S':'
asbag57
(g78
g59
NtRp632
(dp633
g62
(dp634
sg71
g620
sg64
(lp635
g57
(g58
g59
NtRp636
(dp637
g62
(dp638
g70
I3
ssg71
g632
sg64
(lp639
S''
asbasbasbasbasbasbasbag57
(g73
g59
NtRp640
(dp641
g62
(dp642
sg71
g256
sg64
(lp643
g57
(g78
g59
NtRp644
(dp645
g62
(dp646
g82
g83
ssg71
g640
sg64
(lp647
S'session_id_hostel'
p648
asbag57
(g78
g59
NtRp649
(dp650
g62
(dp651
g89
g90
ssg71
g640
sg64
(lp652
S':'
asbag57
(g78
g59
NtRp653
(dp654
g62
(dp655
sg71
g640
sg64
(lp656
g57
(g58
g59
NtRp657
(dp658
g62
(dp659
g70
I4
ssg71
g653
sg64
(lp660
S'127.0.0.1-24f604c9-d849-42bd-b1c9-f622a7f2389e'
p661
ag57
(g66
g59
NtRp662
(dp663
g62
(dp664
g70
I3
ssg71
Nsg64
(lp665
g57
(g73
g59
NtRp666
(dp667
g62
(dp668
sg71
g662
sg64
(lp669
g57
(g78
g59
NtRp670
(dp671
g62
(dp672
g82
g83
ssg71
g666
sg64
(lp673
g294
asbag57
(g78
g59
NtRp674
(dp675
g62
(dp676
g89
g90
ssg71
g666
sg64
(lp677
S':'
asbag57
(g78
g59
NtRp678
(dp679
g62
(dp680
sg71
g666
sg64
(lp681
g57
(g58
g59
NtRp682
(dp683
g62
(dp684
g70
I3
ssg71
g678
sg64
(lp685
S''
asbasbasbag57
(g73
g59
NtRp686
(dp687
g62
(dp688
sg71
g662
sg64
(lp689
g57
(g78
g59
NtRp690
(dp691
g62
(dp692
g82
g83
ssg71
g686
sg64
(lp693
g315
asbag57
(g78
g59
NtRp694
(dp695
g62
(dp696
g89
g90
ssg71
g686
sg64
(lp697
S':'
asbag57
(g78
g59
NtRp698
(dp699
g62
(dp700
sg71
g686
sg64
(lp701
g57
(g58
g59
NtRp702
(dp703
g62
(dp704
g70
I3
ssg71
g698
sg64
(lp705
S''
asbasbasbag57
(g73
g59
NtRp706
(dp707
g62
(dp708
sg71
g662
sg64
(lp709
g57
(g78
g59
NtRp710
(dp711
g62
(dp712
g82
g83
ssg71
g706
sg64
(lp713
g336
asbag57
(g78
g59
NtRp714
(dp715
g62
(dp716
g89
g90
ssg71
g706
sg64
(lp717
S':'
asbag57
(g78
g59
NtRp718
(dp719
g62
(dp720
sg71
g706
sg64
(lp721
g57
(g58
g59
NtRp722
(dp723
g62
(dp724
g70
I3
ssg71
g718
sg64
(lp725
S''
asbasbasbag57
(g73
g59
NtRp726
(dp727
g62
(dp728
sg71
g662
sg64
(lp729
g57
(g78
g59
NtRp730
(dp731
g62
(dp732
g82
g83
ssg71
g726
sg64
(lp733
g357
asbag57
(g78
g59
NtRp734
(dp735
g62
(dp736
g89
g90
ssg71
g726
sg64
(lp737
S':'
asbag57
(g78
g59
NtRp738
(dp739
g62
(dp740
sg71
g726
sg64
(lp741
g57
(g58
g59
NtRp742
(dp743
g62
(dp744
g70
I3
ssg71
g738
sg64
(lp745
S''
asbasbasbag57
(g73
g59
NtRp746
(dp747
g62
(dp748
sg71
g662
sg64
(lp749
g57
(g78
g59
NtRp750
(dp751
g62
(dp752
g82
g83
ssg71
g746
sg64
(lp753
g378
asbag57
(g78
g59
NtRp754
(dp755
g62
(dp756
g89
g90
ssg71
g746
sg64
(lp757
S':'
asbag57
(g78
g59
NtRp758
(dp759
g62
(dp760
sg71
g746
sg64
(lp761
g57
(g58
g59
NtRp762
(dp763
g62
(dp764
g70
I3
ssg71
g758
sg64
(lp765
S''
asbasbasbag57
(g73
g59
NtRp766
(dp767
g62
(dp768
sg71
g662
sg64
(lp769
g57
(g78
g59
NtRp770
(dp771
g62
(dp772
g82
g83
ssg71
g766
sg64
(lp773
g399
asbag57
(g78
g59
NtRp774
(dp775
g62
(dp776
g89
g90
ssg71
g766
sg64
(lp777
S':'
asbag57
(g78
g59
NtRp778
(dp779
g62
(dp780
sg71
g766
sg64
(lp781
g57
(g58
g59
NtRp782
(dp783
g62
(dp784
g70
I3
ssg71
g778
sg64
(lp785
S''
asbasbasbag57
(g73
g59
NtRp786
(dp787
g62
(dp788
sg71
g662
sg64
(lp789
g57
(g78
g59
NtRp790
(dp791
g62
(dp792
g82
g83
ssg71
g786
sg64
(lp793
g420
asbag57
(g78
g59
NtRp794
(dp795
g62
(dp796
g89
g90
ssg71
g786
sg64
(lp797
S':'
asbag57
(g78
g59
NtRp798
(dp799
g62
(dp800
sg71
g786
sg64
(lp801
g57
(g58
g59
NtRp802
(dp803
g62
(dp804
g70
I3
ssg71
g798
sg64
(lp805
S''
asbasbasbag57
(g73
g59
NtRp806
(dp807
g62
(dp808
sg71
g662
sg64
(lp809
g57
(g78
g59
NtRp810
(dp811
g62
(dp812
g82
g83
ssg71
g806
sg64
(lp813
g441
asbag57
(g78
g59
NtRp814
(dp815
g62
(dp816
g89
g90
ssg71
g806
sg64
(lp817
S':'
asbag57
(g78
g59
NtRp818
(dp819
g62
(dp820
sg71
g806
sg64
(lp821
g57
(g58
g59
NtRp822
(dp823
g62
(dp824
g70
I3
ssg71
g818
sg64
(lp825
S''
asbasbasbasbasbasbasbag57
(g73
g59
NtRp826
(dp827
g62
(dp828
sg71
g256
sg64
(lp829
g57
(g78
g59
NtRp830
(dp831
g62
(dp832
g82
g83
ssg71
g826
sg64
(lp833
S'session_id_sss'
p834
asbag57
(g78
g59
NtRp835
(dp836
g62
(dp837
g89
g90
ssg71
g826
sg64
(lp838
S':'
asbag57
(g78
g59
NtRp839
(dp840
g62
(dp841
sg71
g826
sg64
(lp842
g57
(g58
g59
NtRp843
(dp844
g62
(dp845
g70
I4
ssg71
g839
sg64
(lp846
S'127.0.0.1-4e3ca64c-b1b0-4445-8832-f6ac95fca766'
p847
ag57
(g66
g59
NtRp848
(dp849
g62
(dp850
g70
I3
ssg71
Nsg64
(lp851
g57
(g73
g59
NtRp852
(dp853
g62
(dp854
sg71
g848
sg64
(lp855
g57
(g78
g59
NtRp856
(dp857
g62
(dp858
g82
g83
ssg71
g852
sg64
(lp859
g294
asbag57
(g78
g59
NtRp860
(dp861
g62
(dp862
g89
g90
ssg71
g852
sg64
(lp863
S':'
asbag57
(g78
g59
NtRp864
(dp865
g62
(dp866
sg71
g852
sg64
(lp867
g57
(g58
g59
NtRp868
(dp869
g62
(dp870
g70
I3
ssg71
g864
sg64
(lp871
S''
asbasbasbag57
(g73
g59
NtRp872
(dp873
g62
(dp874
sg71
g848
sg64
(lp875
g57
(g78
g59
NtRp876
(dp877
g62
(dp878
g82
g83
ssg71
g872
sg64
(lp879
g315
asbag57
(g78
g59
NtRp880
(dp881
g62
(dp882
g89
g90
ssg71
g872
sg64
(lp883
S':'
asbag57
(g78
g59
NtRp884
(dp885
g62
(dp886
sg71
g872
sg64
(lp887
g57
(g58
g59
NtRp888
(dp889
g62
(dp890
g70
I3
ssg71
g884
sg64
(lp891
S''
asbasbasbag57
(g73
g59
NtRp892
(dp893
g62
(dp894
sg71
g848
sg64
(lp895
g57
(g78
g59
NtRp896
(dp897
g62
(dp898
g82
g83
ssg71
g892
sg64
(lp899
g336
asbag57
(g78
g59
NtRp900
(dp901
g62
(dp902
g89
g90
ssg71
g892
sg64
(lp903
S':'
asbag57
(g78
g59
NtRp904
(dp905
g62
(dp906
sg71
g892
sg64
(lp907
g57
(g58
g59
NtRp908
(dp909
g62
(dp910
g70
I3
ssg71
g904
sg64
(lp911
S''
asbasbasbag57
(g73
g59
NtRp912
(dp913
g62
(dp914
sg71
g848
sg64
(lp915
g57
(g78
g59
NtRp916
(dp917
g62
(dp918
g82
g83
ssg71
g912
sg64
(lp919
g357
asbag57
(g78
g59
NtRp920
(dp921
g62
(dp922
g89
g90
ssg71
g912
sg64
(lp923
S':'
asbag57
(g78
g59
NtRp924
(dp925
g62
(dp926
sg71
g912
sg64
(lp927
g57
(g58
g59
NtRp928
(dp929
g62
(dp930
g70
I3
ssg71
g924
sg64
(lp931
S''
asbasbasbag57
(g73
g59
NtRp932
(dp933
g62
(dp934
sg71
g848
sg64
(lp935
g57
(g78
g59
NtRp936
(dp937
g62
(dp938
g82
g83
ssg71
g932
sg64
(lp939
g378
asbag57
(g78
g59
NtRp940
(dp941
g62
(dp942
g89
g90
ssg71
g932
sg64
(lp943
S':'
asbag57
(g78
g59
NtRp944
(dp945
g62
(dp946
sg71
g932
sg64
(lp947
g57
(g58
g59
NtRp948
(dp949
g62
(dp950
g70
I3
ssg71
g944
sg64
(lp951
S''
asbasbasbag57
(g73
g59
NtRp952
(dp953
g62
(dp954
sg71
g848
sg64
(lp955
g57
(g78
g59
NtRp956
(dp957
g62
(dp958
g82
g83
ssg71
g952
sg64
(lp959
g399
asbag57
(g78
g59
NtRp960
(dp961
g62
(dp962
g89
g90
ssg71
g952
sg64
(lp963
S':'
asbag57
(g78
g59
NtRp964
(dp965
g62
(dp966
sg71
g952
sg64
(lp967
g57
(g58
g59
NtRp968
(dp969
g62
(dp970
g70
I3
ssg71
g964
sg64
(lp971
S''
asbasbasbag57
(g73
g59
NtRp972
(dp973
g62
(dp974
sg71
g848
sg64
(lp975
g57
(g78
g59
NtRp976
(dp977
g62
(dp978
g82
g83
ssg71
g972
sg64
(lp979
g420
asbag57
(g78
g59
NtRp980
(dp981
g62
(dp982
g89
g90
ssg71
g972
sg64
(lp983
S':'
asbag57
(g78
g59
NtRp984
(dp985
g62
(dp986
sg71
g972
sg64
(lp987
g57
(g58
g59
NtRp988
(dp989
g62
(dp990
g70
I3
ssg71
g984
sg64
(lp991
S''
asbasbasbag57
(g73
g59
NtRp992
(dp993
g62
(dp994
sg71
g848
sg64
(lp995
g57
(g78
g59
NtRp996
(dp997
g62
(dp998
g82
g83
ssg71
g992
sg64
(lp999
g441
asbag57
(g78
g59
NtRp1000
(dp1001
g62
(dp1002
g89
g90
ssg71
g992
sg64
(lp1003
S':'
asbag57
(g78
g59
NtRp1004
(dp1005
g62
(dp1006
sg71
g992
sg64
(lp1007
g57
(g58
g59
NtRp1008
(dp1009
g62
(dp1010
g70
I3
ssg71
g1004
sg64
(lp1011
S''
asbasbasbasbasbasbasbag57
(g73
g59
NtRp1012
(dp1013
g62
(dp1014
sg71
g256
sg64
(lp1015
g57
(g78
g59
NtRp1016
(dp1017
g62
(dp1018
g82
g83
ssg71
g1012
sg64
(lp1019
S'session_id_sssq'
p1020
asbag57
(g78
g59
NtRp1021
(dp1022
g62
(dp1023
g89
g90
ssg71
g1012
sg64
(lp1024
S':'
asbag57
(g78
g59
NtRp1025
(dp1026
g62
(dp1027
sg71
g1012
sg64
(lp1028
g57
(g58
g59
NtRp1029
(dp1030
g62
(dp1031
g70
I4
ssg71
g1025
sg64
(lp1032
S'127.0.0.1-b4cab2e8-2ebe-4305-be52-aa738691edea'
p1033
ag57
(g66
g59
NtRp1034
(dp1035
g62
(dp1036
g70
I3
ssg71
Nsg64
(lp1037
g57
(g73
g59
NtRp1038
(dp1039
g62
(dp1040
sg71
g1034
sg64
(lp1041
g57
(g78
g59
NtRp1042
(dp1043
g62
(dp1044
g82
g83
ssg71
g1038
sg64
(lp1045
g294
asbag57
(g78
g59
NtRp1046
(dp1047
g62
(dp1048
g89
g90
ssg71
g1038
sg64
(lp1049
S':'
asbag57
(g78
g59
NtRp1050
(dp1051
g62
(dp1052
sg71
g1038
sg64
(lp1053
g57
(g58
g59
NtRp1054
(dp1055
g62
(dp1056
g70
I3
ssg71
g1050
sg64
(lp1057
S''
asbasbasbag57
(g73
g59
NtRp1058
(dp1059
g62
(dp1060
sg71
g1034
sg64
(lp1061
g57
(g78
g59
NtRp1062
(dp1063
g62
(dp1064
g82
g83
ssg71
g1058
sg64
(lp1065
g315
asbag57
(g78
g59
NtRp1066
(dp1067
g62
(dp1068
g89
g90
ssg71
g1058
sg64
(lp1069
S':'
asbag57
(g78
g59
NtRp1070
(dp1071
g62
(dp1072
sg71
g1058
sg64
(lp1073
g57
(g58
g59
NtRp1074
(dp1075
g62
(dp1076
g70
I3
ssg71
g1070
sg64
(lp1077
S''
asbasbasbag57
(g73
g59
NtRp1078
(dp1079
g62
(dp1080
sg71
g1034
sg64
(lp1081
g57
(g78
g59
NtRp1082
(dp1083
g62
(dp1084
g82
g83
ssg71
g1078
sg64
(lp1085
g336
asbag57
(g78
g59
NtRp1086
(dp1087
g62
(dp1088
g89
g90
ssg71
g1078
sg64
(lp1089
S':'
asbag57
(g78
g59
NtRp1090
(dp1091
g62
(dp1092
sg71
g1078
sg64
(lp1093
g57
(g58
g59
NtRp1094
(dp1095
g62
(dp1096
g70
I3
ssg71
g1090
sg64
(lp1097
S''
asbasbasbag57
(g73
g59
NtRp1098
(dp1099
g62
(dp1100
sg71
g1034
sg64
(lp1101
g57
(g78
g59
NtRp1102
(dp1103
g62
(dp1104
g82
g83
ssg71
g1098
sg64
(lp1105
g357
asbag57
(g78
g59
NtRp1106
(dp1107
g62
(dp1108
g89
g90
ssg71
g1098
sg64
(lp1109
S':'
asbag57
(g78
g59
NtRp1110
(dp1111
g62
(dp1112
sg71
g1098
sg64
(lp1113
g57
(g58
g59
NtRp1114
(dp1115
g62
(dp1116
g70
I3
ssg71
g1110
sg64
(lp1117
S''
asbasbasbag57
(g73
g59
NtRp1118
(dp1119
g62
(dp1120
sg71
g1034
sg64
(lp1121
g57
(g78
g59
NtRp1122
(dp1123
g62
(dp1124
g82
g83
ssg71
g1118
sg64
(lp1125
g378
asbag57
(g78
g59
NtRp1126
(dp1127
g62
(dp1128
g89
g90
ssg71
g1118
sg64
(lp1129
S':'
asbag57
(g78
g59
NtRp1130
(dp1131
g62
(dp1132
sg71
g1118
sg64
(lp1133
g57
(g58
g59
NtRp1134
(dp1135
g62
(dp1136
g70
I3
ssg71
g1130
sg64
(lp1137
S''
asbasbasbag57
(g73
g59
NtRp1138
(dp1139
g62
(dp1140
sg71
g1034
sg64
(lp1141
g57
(g78
g59
NtRp1142
(dp1143
g62
(dp1144
g82
g83
ssg71
g1138
sg64
(lp1145
g399
asbag57
(g78
g59
NtRp1146
(dp1147
g62
(dp1148
g89
g90
ssg71
g1138
sg64
(lp1149
S':'
asbag57
(g78
g59
NtRp1150
(dp1151
g62
(dp1152
sg71
g1138
sg64
(lp1153
g57
(g58
g59
NtRp1154
(dp1155
g62
(dp1156
g70
I3
ssg71
g1150
sg64
(lp1157
S''
asbasbasbag57
(g73
g59
NtRp1158
(dp1159
g62
(dp1160
sg71
g1034
sg64
(lp1161
g57
(g78
g59
NtRp1162
(dp1163
g62
(dp1164
g82
g83
ssg71
g1158
sg64
(lp1165
g420
asbag57
(g78
g59
NtRp1166
(dp1167
g62
(dp1168
g89
g90
ssg71
g1158
sg64
(lp1169
S':'
asbag57
(g78
g59
NtRp1170
(dp1171
g62
(dp1172
sg71
g1158
sg64
(lp1173
g57
(g58
g59
NtRp1174
(dp1175
g62
(dp1176
g70
I3
ssg71
g1170
sg64
(lp1177
S''
asbasbasbag57
(g73
g59
NtRp1178
(dp1179
g62
(dp1180
sg71
g1034
sg64
(lp1181
g57
(g78
g59
NtRp1182
(dp1183
g62
(dp1184
g82
g83
ssg71
g1178
sg64
(lp1185
g441
asbag57
(g78
g59
NtRp1186
(dp1187
g62
(dp1188
g89
g90
ssg71
g1178
sg64
(lp1189
S':'
asbag57
(g78
g59
NtRp1190
(dp1191
g62
(dp1192
sg71
g1178
sg64
(lp1193
g57
(g58
g59
NtRp1194
(dp1195
g62
(dp1196
g70
I3
ssg71
g1190
sg64
(lp1197
S''
asbasbasbasbasbasbasbag57
(g73
g59
NtRp1198
(dp1199
g62
(dp1200
sg71
g256
sg64
(lp1201
g57
(g78
g59
NtRp1202
(dp1203
g62
(dp1204
g82
g83
ssg71
g1198
sg64
(lp1205
S'session_id_welcome'
p1206
asbag57
(g78
g59
NtRp1207
(dp1208
g62
(dp1209
g89
g90
ssg71
g1198
sg64
(lp1210
S':'
asbag57
(g78
g59
NtRp1211
(dp1212
g62
(dp1213
sg71
g1198
sg64
(lp1214
g57
(g58
g59
NtRp1215
(dp1216
g62
(dp1217
g70
I4
ssg71
g1211
sg64
(lp1218
S'127.0.0.1-462ed6bd-1ae1-4d19-81df-709c35d09865'
p1219
ag57
(g66
g59
NtRp1220
(dp1221
g62
(dp1222
g70
I3
ssg71
Nsg64
(lp1223
g57
(g73
g59
NtRp1224
(dp1225
g62
(dp1226
sg71
g1220
sg64
(lp1227
g57
(g78
g59
NtRp1228
(dp1229
g62
(dp1230
g82
g83
ssg71
g1224
sg64
(lp1231
g294
asbag57
(g78
g59
NtRp1232
(dp1233
g62
(dp1234
g89
g90
ssg71
g1224
sg64
(lp1235
S':'
asbag57
(g78
g59
NtRp1236
(dp1237
g62
(dp1238
sg71
g1224
sg64
(lp1239
g57
(g58
g59
NtRp1240
(dp1241
g62
(dp1242
g70
I3
ssg71
g1236
sg64
(lp1243
S''
asbasbasbag57
(g73
g59
NtRp1244
(dp1245
g62
(dp1246
sg71
g1220
sg64
(lp1247
g57
(g78
g59
NtRp1248
(dp1249
g62
(dp1250
g82
g83
ssg71
g1244
sg64
(lp1251
g315
asbag57
(g78
g59
NtRp1252
(dp1253
g62
(dp1254
g89
g90
ssg71
g1244
sg64
(lp1255
S':'
asbag57
(g78
g59
NtRp1256
(dp1257
g62
(dp1258
sg71
g1244
sg64
(lp1259
g57
(g58
g59
NtRp1260
(dp1261
g62
(dp1262
g70
I3
ssg71
g1256
sg64
(lp1263
S''
asbasbasbag57
(g73
g59
NtRp1264
(dp1265
g62
(dp1266
sg71
g1220
sg64
(lp1267
g57
(g78
g59
NtRp1268
(dp1269
g62
(dp1270
g82
g83
ssg71
g1264
sg64
(lp1271
g336
asbag57
(g78
g59
NtRp1272
(dp1273
g62
(dp1274
g89
g90
ssg71
g1264
sg64
(lp1275
S':'
asbag57
(g78
g59
NtRp1276
(dp1277
g62
(dp1278
sg71
g1264
sg64
(lp1279
g57
(g58
g59
NtRp1280
(dp1281
g62
(dp1282
g70
I3
ssg71
g1276
sg64
(lp1283
S''
asbasbasbag57
(g73
g59
NtRp1284
(dp1285
g62
(dp1286
sg71
g1220
sg64
(lp1287
g57
(g78
g59
NtRp1288
(dp1289
g62
(dp1290
g82
g83
ssg71
g1284
sg64
(lp1291
g357
asbag57
(g78
g59
NtRp1292
(dp1293
g62
(dp1294
g89
g90
ssg71
g1284
sg64
(lp1295
S':'
asbag57
(g78
g59
NtRp1296
(dp1297
g62
(dp1298
sg71
g1284
sg64
(lp1299
g57
(g58
g59
NtRp1300
(dp1301
g62
(dp1302
g70
I3
ssg71
g1296
sg64
(lp1303
S''
asbasbasbag57
(g73
g59
NtRp1304
(dp1305
g62
(dp1306
sg71
g1220
sg64
(lp1307
g57
(g78
g59
NtRp1308
(dp1309
g62
(dp1310
g82
g83
ssg71
g1304
sg64
(lp1311
g378
asbag57
(g78
g59
NtRp1312
(dp1313
g62
(dp1314
g89
g90
ssg71
g1304
sg64
(lp1315
S':'
asbag57
(g78
g59
NtRp1316
(dp1317
g62
(dp1318
sg71
g1304
sg64
(lp1319
g57
(g58
g59
NtRp1320
(dp1321
g62
(dp1322
g70
I3
ssg71
g1316
sg64
(lp1323
S''
asbasbasbag57
(g73
g59
NtRp1324
(dp1325
g62
(dp1326
sg71
g1220
sg64
(lp1327
g57
(g78
g59
NtRp1328
(dp1329
g62
(dp1330
g82
g83
ssg71
g1324
sg64
(lp1331
g399
asbag57
(g78
g59
NtRp1332
(dp1333
g62
(dp1334
g89
g90
ssg71
g1324
sg64
(lp1335
S':'
asbag57
(g78
g59
NtRp1336
(dp1337
g62
(dp1338
sg71
g1324
sg64
(lp1339
g57
(g58
g59
NtRp1340
(dp1341
g62
(dp1342
g70
I3
ssg71
g1336
sg64
(lp1343
S''
asbasbasbag57
(g73
g59
NtRp1344
(dp1345
g62
(dp1346
sg71
g1220
sg64
(lp1347
g57
(g78
g59
NtRp1348
(dp1349
g62
(dp1350
g82
g83
ssg71
g1344
sg64
(lp1351
g420
asbag57
(g78
g59
NtRp1352
(dp1353
g62
(dp1354
g89
g90
ssg71
g1344
sg64
(lp1355
S':'
asbag57
(g78
g59
NtRp1356
(dp1357
g62
(dp1358
sg71
g1344
sg64
(lp1359
g57
(g58
g59
NtRp1360
(dp1361
g62
(dp1362
g70
I3
ssg71
g1356
sg64
(lp1363
S''
asbasbasbag57
(g73
g59
NtRp1364
(dp1365
g62
(dp1366
sg71
g1220
sg64
(lp1367
g57
(g78
g59
NtRp1368
(dp1369
g62
(dp1370
g82
g83
ssg71
g1364
sg64
(lp1371
g441
asbag57
(g78
g59
NtRp1372
(dp1373
g62
(dp1374
g89
g90
ssg71
g1364
sg64
(lp1375
S':'
asbag57
(g78
g59
NtRp1376
(dp1377
g62
(dp1378
sg71
g1364
sg64
(lp1379
g57
(g58
g59
NtRp1380
(dp1381
g62
(dp1382
g70
I3
ssg71
g1376
sg64
(lp1383
S''
asbasbasbasbasbasbasbasbasbasbasbag57
(g73
g59
NtRp1384
(dp1385
g62
(dp1386
sg71
g67
sg64
(lp1387
g57
(g78
g59
NtRp1388
(dp1389
g62
(dp1390
g82
g83
ssg71
g1384
sg64
(lp1391
S'env'
p1392
asbag57
(g78
g59
NtRp1393
(dp1394
g62
(dp1395
g89
g90
ssg71
g1384
sg64
(lp1396
S':'
asbag57
(g78
g59
NtRp1397
(dp1398
g62
(dp1399
sg71
g1384
sg64
(lp1400
g57
(g58
g59
NtRp1401
(dp1402
g62
(dp1403
g70
I5
ssg71
g1397
sg64
(lp1404
g57
(g66
g59
NtRp1405
(dp1406
g62
(dp1407
g70
I4
ssg71
Nsg64
(lp1408
g57
(g73
g59
NtRp1409
(dp1410
g62
(dp1411
sg71
g1405
sg64
(lp1412
g57
(g78
g59
NtRp1413
(dp1414
g62
(dp1415
g82
g83
ssg71
g1409
sg64
(lp1416
S'app_folders'
p1417
asbag57
(g78
g59
NtRp1418
(dp1419
g62
(dp1420
g89
g90
ssg71
g1409
sg64
(lp1421
S':'
asbag57
(g78
g59
NtRp1422
(dp1423
g62
(dp1424
sg71
g1409
sg64
(lp1425
g57
(g58
g59
NtRp1426
(dp1427
g62
(dp1428
g70
I4
ssg71
g1422
sg64
(lp1429
S"set(['/home/bhanu/web2py/applications/admin/', '/home/bhanu/web2py/applications/welcome/', '/home/bhanu/web2py/applications/sss/', '/home/bhanu/web2py/applications/sssq/', '/home/bhanu/web2py/applications/hostel/'])"
p1430
asbasbasbag57
(g73
g59
NtRp1431
(dp1432
g62
(dp1433
sg71
g1405
sg64
(lp1434
g57
(g78
g59
NtRp1435
(dp1436
g62
(dp1437
g82
g83
ssg71
g1431
sg64
(lp1438
S'applications_parent'
p1439
asbag57
(g78
g59
NtRp1440
(dp1441
g62
(dp1442
g89
g90
ssg71
g1431
sg64
(lp1443
S':'
asbag57
(g78
g59
NtRp1444
(dp1445
g62
(dp1446
sg71
g1431
sg64
(lp1447
g57
(g58
g59
NtRp1448
(dp1449
g62
(dp1450
g70
I4
ssg71
g1444
sg64
(lp1451
S'/home/bhanu/web2py'
p1452
asbasbasbag57
(g73
g59
NtRp1453
(dp1454
g62
(dp1455
sg71
g1405
sg64
(lp1456
g57
(g78
g59
NtRp1457
(dp1458
g62
(dp1459
g82
g83
ssg71
g1453
sg64
(lp1460
S'cmd_args'
p1461
asbag57
(g78
g59
NtRp1462
(dp1463
g62
(dp1464
g89
g90
ssg71
g1453
sg64
(lp1465
S':'
asbag57
(g78
g59
NtRp1466
(dp1467
g62
(dp1468
sg71
g1453
sg64
(lp1469
g57
(g58
g59
NtRp1470
(dp1471
g62
(dp1472
g70
I4
ssg71
g1466
sg64
(lp1473
g57
(g66
g59
NtRp1474
(dp1475
g62
(dp1476
g70
I3
ssg71
Nsg64
(lp1477
sbasbasbasbag57
(g73
g59
NtRp1478
(dp1479
g62
(dp1480
sg71
g1405
sg64
(lp1481
g57
(g78
g59
NtRp1482
(dp1483
g62
(dp1484
g82
g83
ssg71
g1478
sg64
(lp1485
S'cmd_options'
p1486
asbag57
(g78
g59
NtRp1487
(dp1488
g62
(dp1489
g89
g90
ssg71
g1478
sg64
(lp1490
S':'
asbag57
(g78
g59
NtRp1491
(dp1492
g62
(dp1493
sg71
g1478
sg64
(lp1494
g57
(g58
g59
NtRp1495
(dp1496
g62
(dp1497
g70
I4
ssg71
g1491
sg64
(lp1498
S"<Values at 0x2d18f80: {'verbose': False, 'ip': '127.0.0.1', 'with_scheduler': False, 'ips': ['127.0.1.1'], 'shutdown_timeout': 5, 'taskbar': False, 'port': 8000, 'maxthreads': None, 'softcron': False, 'server_name': 'bhanu-Dell-System-XPS-L502X', 'bpython': False, 'nogui': False, 'pid_filename': 'httpserver.pid', 'extcron': False, 'runcron': False, 'run_system_tests': False, 'test': None, 'folder': '/home/bhanu/web2py', 'config': '', 'minthreads': None, 'winservice': '', 'shell': None, 'run': '', 'log_filename': 'httpserver.log', 'debuglevel': 30, 'args': [''], 'socket_timeout': 5, 'ssl_ca_certificate': None, 'scheduler': None, 'profiler_filename': None, 'ssl_private_key': '', 'scheduler_groups': None, 'password': 'p', 'request_queue_size': 5, 'ssl_certificate': '', 'cronjob': False, 'numthreads': None, 'quiet': False, 'interfaces': None, 'import_models': False, 'timeout': 10, 'plain': False, 'nobanner': False}>"
p1499
asbasbasbag57
(g73
g59
NtRp1500
(dp1501
g62
(dp1502
sg71
g1405
sg64
(lp1503
g57
(g78
g59
NtRp1504
(dp1505
g62
(dp1506
g82
g83
ssg71
g1500
sg64
(lp1507
S'db_sessions'
p1508
asbag57
(g78
g59
NtRp1509
(dp1510
g62
(dp1511
g89
g90
ssg71
g1500
sg64
(lp1512
S':'
asbag57
(g78
g59
NtRp1513
(dp1514
g62
(dp1515
sg71
g1500
sg64
(lp1516
g57
(g58
g59
NtRp1517
(dp1518
g62
(dp1519
g70
I4
ssg71
g1513
sg64
(lp1520
S'set([])'
p1521
asbasbasbag57
(g73
g59
NtRp1522
(dp1523
g62
(dp1524
sg71
g1405
sg64
(lp1525
g57
(g78
g59
NtRp1526
(dp1527
g62
(dp1528
g82
g83
ssg71
g1522
sg64
(lp1529
S'debugging'
p1530
asbag57
(g78
g59
NtRp1531
(dp1532
g62
(dp1533
g89
g90
ssg71
g1522
sg64
(lp1534
S':'
asbag57
(g78
g59
NtRp1535
(dp1536
g62
(dp1537
sg71
g1522
sg64
(lp1538
g57
(g58
g59
NtRp1539
(dp1540
g62
(dp1541
g70
I4
ssg71
g1535
sg64
(lp1542
g100
asbasbasbag57
(g73
g59
NtRp1543
(dp1544
g62
(dp1545
sg71
g1405
sg64
(lp1546
g57
(g78
g59
NtRp1547
(dp1548
g62
(dp1549
g82
g83
ssg71
g1543
sg64
(lp1550
S'gluon_parent'
p1551
asbag57
(g78
g59
NtRp1552
(dp1553
g62
(dp1554
g89
g90
ssg71
g1543
sg64
(lp1555
S':'
asbag57
(g78
g59
NtRp1556
(dp1557
g62
(dp1558
sg71
g1543
sg64
(lp1559
g57
(g58
g59
NtRp1560
(dp1561
g62
(dp1562
g70
I4
ssg71
g1556
sg64
(lp1563
S'/home/bhanu/web2py'
p1564
asbasbasbag57
(g73
g59
NtRp1565
(dp1566
g62
(dp1567
sg71
g1405
sg64
(lp1568
g57
(g78
g59
NtRp1569
(dp1570
g62
(dp1571
g82
g83
ssg71
g1565
sg64
(lp1572
S'http_accept'
p1573
asbag57
(g78
g59
NtRp1574
(dp1575
g62
(dp1576
g89
g90
ssg71
g1565
sg64
(lp1577
S':'
asbag57
(g78
g59
NtRp1578
(dp1579
g62
(dp1580
sg71
g1565
sg64
(lp1581
g57
(g58
g59
NtRp1582
(dp1583
g62
(dp1584
g70
I4
ssg71
g1578
sg64
(lp1585
S'text/html,application/xhtml+xml,application/xml;q=0.9,*/*;q=0.8'
p1586
asbasbasbag57
(g73
g59
NtRp1587
(dp1588
g62
(dp1589
sg71
g1405
sg64
(lp1590
g57
(g78
g59
NtRp1591
(dp1592
g62
(dp1593
g82
g83
ssg71
g1587
sg64
(lp1594
S'http_accept_encoding'
p1595
asbag57
(g78
g59
NtRp1596
(dp1597
g62
(dp1598
g89
g90
ssg71
g1587
sg64
(lp1599
S':'
asbag57
(g78
g59
NtRp1600
(dp1601
g62
(dp1602
sg71
g1587
sg64
(lp1603
g57
(g58
g59
NtRp1604
(dp1605
g62
(dp1606
g70
I4
ssg71
g1600
sg64
(lp1607
S'gzip, deflate'
p1608
asbasbasbag57
(g73
g59
NtRp1609
(dp1610
g62
(dp1611
sg71
g1405
sg64
(lp1612
g57
(g78
g59
NtRp1613
(dp1614
g62
(dp1615
g82
g83
ssg71
g1609
sg64
(lp1616
S'http_accept_language'
p1617
asbag57
(g78
g59
NtRp1618
(dp1619
g62
(dp1620
g89
g90
ssg71
g1609
sg64
(lp1621
S':'
asbag57
(g78
g59
NtRp1622
(dp1623
g62
(dp1624
sg71
g1609
sg64
(lp1625
g57
(g58
g59
NtRp1626
(dp1627
g62
(dp1628
g70
I4
ssg71
g1622
sg64
(lp1629
S'en-US,en;q=0.5'
p1630
asbasbasbag57
(g73
g59
NtRp1631
(dp1632
g62
(dp1633
sg71
g1405
sg64
(lp1634
g57
(g78
g59
NtRp1635
(dp1636
g62
(dp1637
g82
g83
ssg71
g1631
sg64
(lp1638
S'http_connection'
p1639
asbag57
(g78
g59
NtRp1640
(dp1641
g62
(dp1642
g89
g90
ssg71
g1631
sg64
(lp1643
S':'
asbag57
(g78
g59
NtRp1644
(dp1645
g62
(dp1646
sg71
g1631
sg64
(lp1647
g57
(g58
g59
NtRp1648
(dp1649
g62
(dp1650
g70
I4
ssg71
g1644
sg64
(lp1651
S'keep-alive'
p1652
asbasbasbag57
(g73
g59
NtRp1653
(dp1654
g62
(dp1655
sg71
g1405
sg64
(lp1656
g57
(g78
g59
NtRp1657
(dp1658
g62
(dp1659
g82
g83
ssg71
g1653
sg64
(lp1660
S'http_cookie'
p1661
asbag57
(g78
g59
NtRp1662
(dp1663
g62
(dp1664
g89
g90
ssg71
g1653
sg64
(lp1665
S':'
asbag57
(g78
g59
NtRp1666
(dp1667
g62
(dp1668
sg71
g1653
sg64
(lp1669
g57
(g58
g59
NtRp1670
(dp1671
g62
(dp1672
g70
I4
ssg71
g1666
sg64
(lp1673
S'session_id_basesss=127.0.0.1-4f26cda5-3406-489d-bcfa-1fcee4c5822a; session_id_sssq=127.0.0.1-b4cab2e8-2ebe-4305-be52-aa738691edea; session_id_sss=127.0.0.1-4e3ca64c-b1b0-4445-8832-f6ac95fca766; session_id_admin=127.0.0.1-59685fbb-afa3-4ab8-9b9f-ca931480341b; session_id_welcome=127.0.0.1-462ed6bd-1ae1-4d19-81df-709c35d09865; session_id_hostel=127.0.0.1-24f604c9-d849-42bd-b1c9-f622a7f2389e'
p1674
asbasbasbag57
(g73
g59
NtRp1675
(dp1676
g62
(dp1677
sg71
g1405
sg64
(lp1678
g57
(g78
g59
NtRp1679
(dp1680
g62
(dp1681
g82
g83
ssg71
g1675
sg64
(lp1682
S'http_host'
p1683
asbag57
(g78
g59
NtRp1684
(dp1685
g62
(dp1686
g89
g90
ssg71
g1675
sg64
(lp1687
S':'
asbag57
(g78
g59
NtRp1688
(dp1689
g62
(dp1690
sg71
g1675
sg64
(lp1691
g57
(g58
g59
NtRp1692
(dp1693
g62
(dp1694
g70
I4
ssg71
g1688
sg64
(lp1695
S'127.0.0.1:8000'
p1696
asbasbasbag57
(g73
g59
NtRp1697
(dp1698
g62
(dp1699
sg71
g1405
sg64
(lp1700
g57
(g78
g59
NtRp1701
(dp1702
g62
(dp1703
g82
g83
ssg71
g1697
sg64
(lp1704
S'http_user_agent'
p1705
asbag57
(g78
g59
NtRp1706
(dp1707
g62
(dp1708
g89
g90
ssg71
g1697
sg64
(lp1709
S':'
asbag57
(g78
g59
NtRp1710
(dp1711
g62
(dp1712
sg71
g1697
sg64
(lp1713
g57
(g58
g59
NtRp1714
(dp1715
g62
(dp1716
g70
I4
ssg71
g1710
sg64
(lp1717
S'Mozilla/5.0 (X11; Ubuntu; Linux x86_64; rv:16.0) Gecko/20100101 Firefox/16.0'
p1718
asbasbasbag57
(g73
g59
NtRp1719
(dp1720
g62
(dp1721
sg71
g1405
sg64
(lp1722
g57
(g78
g59
NtRp1723
(dp1724
g62
(dp1725
g82
g83
ssg71
g1719
sg64
(lp1726
S'is_jython'
p1727
asbag57
(g78
g59
NtRp1728
(dp1729
g62
(dp1730
g89
g90
ssg71
g1719
sg64
(lp1731
S':'
asbag57
(g78
g59
NtRp1732
(dp1733
g62
(dp1734
sg71
g1719
sg64
(lp1735
g57
(g58
g59
NtRp1736
(dp1737
g62
(dp1738
g70
I4
ssg71
g1732
sg64
(lp1739
g100
asbasbasbag57
(g73
g59
NtRp1740
(dp1741
g62
(dp1742
sg71
g1405
sg64
(lp1743
g57
(g78
g59
NtRp1744
(dp1745
g62
(dp1746
g82
g83
ssg71
g1740
sg64
(lp1747
S'is_pypy'
p1748
asbag57
(g78
g59
NtRp1749
(dp1750
g62
(dp1751
g89
g90
ssg71
g1740
sg64
(lp1752
S':'
asbag57
(g78
g59
NtRp1753
(dp1754
g62
(dp1755
sg71
g1740
sg64
(lp1756
g57
(g58
g59
NtRp1757
(dp1758
g62
(dp1759
g70
I4
ssg71
g1753
sg64
(lp1760
g100
asbasbasbag57
(g73
g59
NtRp1761
(dp1762
g62
(dp1763
sg71
g1405
sg64
(lp1764
g57
(g78
g59
NtRp1765
(dp1766
g62
(dp1767
g82
g83
ssg71
g1761
sg64
(lp1768
S'local_hosts'
p1769
asbag57
(g78
g59
NtRp1770
(dp1771
g62
(dp1772
g89
g90
ssg71
g1761
sg64
(lp1773
S':'
asbag57
(g78
g59
NtRp1774
(dp1775
g62
(dp1776
sg71
g1761
sg64
(lp1777
g57
(g58
g59
NtRp1778
(dp1779
g62
(dp1780
g70
I4
ssg71
g1774
sg64
(lp1781
g57
(g66
g59
NtRp1782
(dp1783
g62
(dp1784
g70
I3
ssg71
Nsg64
(lp1785
g57
(g73
g59
NtRp1786
(dp1787
g62
(dp1788
sg71
g1782
sg64
(lp1789
g57
(g78
g59
NtRp1790
(dp1791
g62
(dp1792
sg71
g1786
sg64
(lp1793
g57
(g58
g59
NtRp1794
(dp1795
g62
(dp1796
g70
I3
ssg71
g1790
sg64
(lp1797
S'127.0.0.1'
p1798
asbasbasbag57
(g73
g59
NtRp1799
(dp1800
g62
(dp1801
sg71
g1782
sg64
(lp1802
g57
(g78
g59
NtRp1803
(dp1804
g62
(dp1805
sg71
g1799
sg64
(lp1806
g57
(g58
g59
NtRp1807
(dp1808
g62
(dp1809
g70
I3
ssg71
g1803
sg64
(lp1810
S'::ffff:127.0.0.1'
p1811
asbasbasbag57
(g73
g59
NtRp1812
(dp1813
g62
(dp1814
sg71
g1782
sg64
(lp1815
g57
(g78
g59
NtRp1816
(dp1817
g62
(dp1818
sg71
g1812
sg64
(lp1819
g57
(g58
g59
NtRp1820
(dp1821
g62
(dp1822
g70
I3
ssg71
g1816
sg64
(lp1823
S'bhanu-Dell-System-XPS-L502X'
p1824
asbasbasbag57
(g73
g59
NtRp1825
(dp1826
g62
(dp1827
sg71
g1782
sg64
(lp1828
g57
(g78
g59
NtRp1829
(dp1830
g62
(dp1831
sg71
g1825
sg64
(lp1832
g57
(g58
g59
NtRp1833
(dp1834
g62
(dp1835
g70
I3
ssg71
g1829
sg64
(lp1836
S'bhanu-Dell-System-XPS-L502X'
p1837
asbasbasbag57
(g73
g59
NtRp1838
(dp1839
g62
(dp1840
sg71
g1782
sg64
(lp1841
g57
(g78
g59
NtRp1842
(dp1843
g62
(dp1844
sg71
g1838
sg64
(lp1845
g57
(g58
g59
NtRp1846
(dp1847
g62
(dp1848
g70
I3
ssg71
g1842
sg64
(lp1849
S'127.0.1.1'
p1850
asbasbasbasbasbasbasbag57
(g73
g59
NtRp1851
(dp1852
g62
(dp1853
sg71
g1405
sg64
(lp1854
g57
(g78
g59
NtRp1855
(dp1856
g62
(dp1857
g82
g83
ssg71
g1851
sg64
(lp1858
S'path_info'
p1859
asbag57
(g78
g59
NtRp1860
(dp1861
g62
(dp1862
g89
g90
ssg71
g1851
sg64
(lp1863
S':'
asbag57
(g78
g59
NtRp1864
(dp1865
g62
(dp1866
sg71
g1851
sg64
(lp1867
g57
(g58
g59
NtRp1868
(dp1869
g62
(dp1870
g70
I4
ssg71
g1864
sg64
(lp1871
S'/hostel/default/login'
p1872
asbasbasbag57
(g73
g59
NtRp1873
(dp1874
g62
(dp1875
sg71
g1405
sg64
(lp1876
g57
(g78
g59
NtRp1877
(dp1878
g62
(dp1879
g82
g83
ssg71
g1873
sg64
(lp1880
S'query_string'
p1881
asbag57
(g78
g59
NtRp1882
(dp1883
g62
(dp1884
g89
g90
ssg71
g1873
sg64
(lp1885
S':'
asbag57
(g78
g59
NtRp1886
(dp1887
g62
(dp1888
sg71
g1873
sg64
(lp1889
g57
(g58
g59
NtRp1890
(dp1891
g62
(dp1892
g70
I4
ssg71
g1886
sg64
(lp1893
S'ticket=ST-86269-z2EywVSoEnVD0fNz016Y-cas'
p1894
asbasbasbag57
(g73
g59
NtRp1895
(dp1896
g62
(dp1897
sg71
g1405
sg64
(lp1898
g57
(g78
g59
NtRp1899
(dp1900
g62
(dp1901
g82
g83
ssg71
g1895
sg64
(lp1902
S'remote_addr'
p1903
asbag57
(g78
g59
NtRp1904
(dp1905
g62
(dp1906
g89
g90
ssg71
g1895
sg64
(lp1907
S':'
asbag57
(g78
g59
NtRp1908
(dp1909
g62
(dp1910
sg71
g1895
sg64
(lp1911
g57
(g58
g59
NtRp1912
(dp1913
g62
(dp1914
g70
I4
ssg71
g1908
sg64
(lp1915
g212
asbasbasbag57
(g73
g59
NtRp1916
(dp1917
g62
(dp1918
sg71
g1405
sg64
(lp1919
g57
(g78
g59
NtRp1920
(dp1921
g62
(dp1922
g82
g83
ssg71
g1916
sg64
(lp1923
S'remote_port'
p1924
asbag57
(g78
g59
NtRp1925
(dp1926
g62
(dp1927
g89
g90
ssg71
g1916
sg64
(lp1928
S':'
asbag57
(g78
g59
NtRp1929
(dp1930
g62
(dp1931
sg71
g1916
sg64
(lp1932
g57
(g58
g59
NtRp1933
(dp1934
g62
(dp1935
g70
I4
ssg71
g1929
sg64
(lp1936
S'59821'
p1937
asbasbasbag57
(g73
g59
NtRp1938
(dp1939
g62
(dp1940
sg71
g1405
sg64
(lp1941
g57
(g78
g59
NtRp1942
(dp1943
g62
(dp1944
g82
g83
ssg71
g1938
sg64
(lp1945
S'request_method'
p1946
asbag57
(g78
g59
NtRp1947
(dp1948
g62
(dp1949
g89
g90
ssg71
g1938
sg64
(lp1950
S':'
asbag57
(g78
g59
NtRp1951
(dp1952
g62
(dp1953
sg71
g1938
sg64
(lp1954
g57
(g58
g59
NtRp1955
(dp1956
g62
(dp1957
g70
I4
ssg71
g1951
sg64
(lp1958
S'GET'
p1959
asbasbasbag57
(g73
g59
NtRp1960
(dp1961
g62
(dp1962
sg71
g1405
sg64
(lp1963
g57
(g78
g59
NtRp1964
(dp1965
g62
(dp1966
g82
g83
ssg71
g1960
sg64
(lp1967
S'request_uri'
p1968
asbag57
(g78
g59
NtRp1969
(dp1970
g62
(dp1971
g89
g90
ssg71
g1960
sg64
(lp1972
S':'
asbag57
(g78
g59
NtRp1973
(dp1974
g62
(dp1975
sg71
g1960
sg64
(lp1976
g57
(g58
g59
NtRp1977
(dp1978
g62
(dp1979
g70
I4
ssg71
g1973
sg64
(lp1980
S'/hostel/default/login?ticket=ST-86269-z2EywVSoEnVD0fNz016Y-cas'
p1981
asbasbasbag57
(g73
g59
NtRp1982
(dp1983
g62
(dp1984
sg71
g1405
sg64
(lp1985
g57
(g78
g59
NtRp1986
(dp1987
g62
(dp1988
g82
g83
ssg71
g1982
sg64
(lp1989
S'script_name'
p1990
asbag57
(g78
g59
NtRp1991
(dp1992
g62
(dp1993
g89
g90
ssg71
g1982
sg64
(lp1994
S':'
asbag57
(g78
g59
NtRp1995
(dp1996
g62
(dp1997
sg71
g1982
sg64
(lp1998
g57
(g58
g59
NtRp1999
(dp2000
g62
(dp2001
g70
I4
ssg71
g1995
sg64
(lp2002
S''
asbasbasbag57
(g73
g59
NtRp2003
(dp2004
g62
(dp2005
sg71
g1405
sg64
(lp2006
g57
(g78
g59
NtRp2007
(dp2008
g62
(dp2009
g82
g83
ssg71
g2003
sg64
(lp2010
S'server_name'
p2011
asbag57
(g78
g59
NtRp2012
(dp2013
g62
(dp2014
g89
g90
ssg71
g2003
sg64
(lp2015
S':'
asbag57
(g78
g59
NtRp2016
(dp2017
g62
(dp2018
sg71
g2003
sg64
(lp2019
g57
(g58
g59
NtRp2020
(dp2021
g62
(dp2022
g70
I4
ssg71
g2016
sg64
(lp2023
g1837
asbasbasbag57
(g73
g59
NtRp2024
(dp2025
g62
(dp2026
sg71
g1405
sg64
(lp2027
g57
(g78
g59
NtRp2028
(dp2029
g62
(dp2030
g82
g83
ssg71
g2024
sg64
(lp2031
S'server_port'
p2032
asbag57
(g78
g59
NtRp2033
(dp2034
g62
(dp2035
g89
g90
ssg71
g2024
sg64
(lp2036
S':'
asbag57
(g78
g59
NtRp2037
(dp2038
g62
(dp2039
sg71
g2024
sg64
(lp2040
g57
(g58
g59
NtRp2041
(dp2042
g62
(dp2043
g70
I4
ssg71
g2037
sg64
(lp2044
S'8000'
p2045
asbasbasbag57
(g73
g59
NtRp2046
(dp2047
g62
(dp2048
sg71
g1405
sg64
(lp2049
g57
(g78
g59
NtRp2050
(dp2051
g62
(dp2052
g82
g83
ssg71
g2046
sg64
(lp2053
S'server_protocol'
p2054
asbag57
(g78
g59
NtRp2055
(dp2056
g62
(dp2057
g89
g90
ssg71
g2046
sg64
(lp2058
S':'
asbag57
(g78
g59
NtRp2059
(dp2060
g62
(dp2061
sg71
g2046
sg64
(lp2062
g57
(g58
g59
NtRp2063
(dp2064
g62
(dp2065
g70
I4
ssg71
g2059
sg64
(lp2066
S'HTTP/1.1'
p2067
asbasbasbag57
(g73
g59
NtRp2068
(dp2069
g62
(dp2070
sg71
g1405
sg64
(lp2071
g57
(g78
g59
NtRp2072
(dp2073
g62
(dp2074
g82
g83
ssg71
g2068
sg64
(lp2075
S'server_software'
p2076
asbag57
(g78
g59
NtRp2077
(dp2078
g62
(dp2079
g89
g90
ssg71
g2068
sg64
(lp2080
S':'
asbag57
(g78
g59
NtRp2081
(dp2082
g62
(dp2083
sg71
g2068
sg64
(lp2084
g57
(g58
g59
NtRp2085
(dp2086
g62
(dp2087
g70
I4
ssg71
g2081
sg64
(lp2088
S'Rocket 1.2.5'
p2089
asbasbasbag57
(g73
g59
NtRp2090
(dp2091
g62
(dp2092
sg71
g1405
sg64
(lp2093
g57
(g78
g59
NtRp2094
(dp2095
g62
(dp2096
g82
g83
ssg71
g2090
sg64
(lp2097
S'web2py_path'
p2098
asbag57
(g78
g59
NtRp2099
(dp2100
g62
(dp2101
g89
g90
ssg71
g2090
sg64
(lp2102
S':'
asbag57
(g78
g59
NtRp2103
(dp2104
g62
(dp2105
sg71
g2090
sg64
(lp2106
g57
(g58
g59
NtRp2107
(dp2108
g62
(dp2109
g70
I4
ssg71
g2103
sg64
(lp2110
g1452
asbasbasbag57
(g73
g59
NtRp2111
(dp2112
g62
(dp2113
sg71
g1405
sg64
(lp2114
g57
(g78
g59
NtRp2115
(dp2116
g62
(dp2117
g82
g83
ssg71
g2111
sg64
(lp2118
S'web2py_version'
p2119
asbag57
(g78
g59
NtRp2120
(dp2121
g62
(dp2122
g89
g90
ssg71
g2111
sg64
(lp2123
S':'
asbag57
(g78
g59
NtRp2124
(dp2125
g62
(dp2126
sg71
g2111
sg64
(lp2127
g57
(g58
g59
NtRp2128
(dp2129
g62
(dp2130
g70
I4
ssg71
g2124
sg64
(lp2131
g57
(g66
g59
NtRp2132
(dp2133
g62
(dp2134
g70
I3
ssg71
Nsg64
(lp2135
g57
(g73
g59
NtRp2136
(dp2137
g62
(dp2138
sg71
g2132
sg64
(lp2139
g57
(g78
g59
NtRp2140
(dp2141
g62
(dp2142
sg71
g2136
sg64
(lp2143
g57
(g58
g59
NtRp2144
(dp2145
g62
(dp2146
g70
I3
ssg71
g2140
sg64
(lp2147
S'2'
asbasbasbag57
(g73
g59
NtRp2148
(dp2149
g62
(dp2150
sg71
g2132
sg64
(lp2151
g57
(g78
g59
NtRp2152
(dp2153
g62
(dp2154
sg71
g2148
sg64
(lp2155
g57
(g58
g59
NtRp2156
(dp2157
g62
(dp2158
g70
I3
ssg71
g2152
sg64
(lp2159
S'2'
asbasbasbag57
(g73
g59
NtRp2160
(dp2161
g62
(dp2162
sg71
g2132
sg64
(lp2163
g57
(g78
g59
NtRp2164
(dp2165
g62
(dp2166
sg71
g2160
sg64
(lp2167
g57
(g58
g59
NtRp2168
(dp2169
g62
(dp2170
g70
I3
ssg71
g2164
sg64
(lp2171
S'1'
asbasbasbag57
(g73
g59
NtRp2172
(dp2173
g62
(dp2174
sg71
g2132
sg64
(lp2175
g57
(g78
g59
NtRp2176
(dp2177
g62
(dp2178
sg71
g2172
sg64
(lp2179
g57
(g58
g59
NtRp2180
(dp2181
g62
(dp2182
g70
I3
ssg71
g2176
sg64
(lp2183
S'datetime.datetime(2012, 10, 21, 16, 57, 4)'
p2184
asbasbasbag57
(g73
g59
NtRp2185
(dp2186
g62
(dp2187
sg71
g2132
sg64
(lp2188
g57
(g78
g59
NtRp2189
(dp2190
g62
(dp2191
sg71
g2185
sg64
(lp2192
g57
(g58
g59
NtRp2193
(dp2194
g62
(dp2195
g70
I3
ssg71
g2189
sg64
(lp2196
S'stable'
p2197
asbasbasbasbasbasbasbag57
(g73
g59
NtRp2198
(dp2199
g62
(dp2200
sg71
g1405
sg64
(lp2201
g57
(g78
g59
NtRp2202
(dp2203
g62
(dp2204
g82
g83
ssg71
g2198
sg64
(lp2205
S'wsgi_errors'
p2206
asbag57
(g78
g59
NtRp2207
(dp2208
g62
(dp2209
g89
g90
ssg71
g2198
sg64
(lp2210
S':'
asbag57
(g78
g59
NtRp2211
(dp2212
g62
(dp2213
sg71
g2198
sg64
(lp2214
g57
(g58
g59
NtRp2215
(dp2216
g62
(dp2217
g70
I4
ssg71
g2211
sg64
(lp2218
S"<open file '<stderr>', mode 'w' at 0x7f6a7415d270>"
p2219
asbasbasbag57
(g73
g59
NtRp2220
(dp2221
g62
(dp2222
sg71
g1405
sg64
(lp2223
g57
(g78
g59
NtRp2224
(dp2225
g62
(dp2226
g82
g83
ssg71
g2220
sg64
(lp2227
S'wsgi_file_wrapper'
p2228
asbag57
(g78
g59
NtRp2229
(dp2230
g62
(dp2231
g89
g90
ssg71
g2220
sg64
(lp2232
S':'
asbag57
(g78
g59
NtRp2233
(dp2234
g62
(dp2235
sg71
g2220
sg64
(lp2236
g57
(g58
g59
NtRp2237
(dp2238
g62
(dp2239
g70
I4
ssg71
g2233
sg64
(lp2240
S'<class wsgiref.util.FileWrapper at 0x2c4cd50>'
p2241
asbasbasbag57
(g73
g59
NtRp2242
(dp2243
g62
(dp2244
sg71
g1405
sg64
(lp2245
g57
(g78
g59
NtRp2246
(dp2247
g62
(dp2248
g82
g83
ssg71
g2242
sg64
(lp2249
S'wsgi_input'
p2250
asbag57
(g78
g59
NtRp2251
(dp2252
g62
(dp2253
g89
g90
ssg71
g2242
sg64
(lp2254
S':'
asbag57
(g78
g59
NtRp2255
(dp2256
g62
(dp2257
sg71
g2242
sg64
(lp2258
g57
(g58
g59
NtRp2259
(dp2260
g62
(dp2261
g70
I4
ssg71
g2255
sg64
(lp2262
S'<socket._fileobject object at 0x7f6a68857250>'
p2263
asbasbasbag57
(g73
g59
NtRp2264
(dp2265
g62
(dp2266
sg71
g1405
sg64
(lp2267
g57
(g78
g59
NtRp2268
(dp2269
g62
(dp2270
g82
g83
ssg71
g2264
sg64
(lp2271
S'wsgi_multiprocess'
p2272
asbag57
(g78
g59
NtRp2273
(dp2274
g62
(dp2275
g89
g90
ssg71
g2264
sg64
(lp2276
S':'
asbag57
(g78
g59
NtRp2277
(dp2278
g62
(dp2279
sg71
g2264
sg64
(lp2280
g57
(g58
g59
NtRp2281
(dp2282
g62
(dp2283
g70
I4
ssg71
g2277
sg64
(lp2284
g100
asbasbasbag57
(g73
g59
NtRp2285
(dp2286
g62
(dp2287
sg71
g1405
sg64
(lp2288
g57
(g78
g59
NtRp2289
(dp2290
g62
(dp2291
g82
g83
ssg71
g2285
sg64
(lp2292
S'wsgi_multithread'
p2293
asbag57
(g78
g59
NtRp2294
(dp2295
g62
(dp2296
g89
g90
ssg71
g2285
sg64
(lp2297
S':'
asbag57
(g78
g59
NtRp2298
(dp2299
g62
(dp2300
sg71
g2285
sg64
(lp2301
g57
(g58
g59
NtRp2302
(dp2303
g62
(dp2304
g70
I4
ssg71
g2298
sg64
(lp2305
S'True'
p2306
asbasbasbag57
(g73
g59
NtRp2307
(dp2308
g62
(dp2309
sg71
g1405
sg64
(lp2310
g57
(g78
g59
NtRp2311
(dp2312
g62
(dp2313
g82
g83
ssg71
g2307
sg64
(lp2314
S'wsgi_run_once'
p2315
asbag57
(g78
g59
NtRp2316
(dp2317
g62
(dp2318
g89
g90
ssg71
g2307
sg64
(lp2319
S':'
asbag57
(g78
g59
NtRp2320
(dp2321
g62
(dp2322
sg71
g2307
sg64
(lp2323
g57
(g58
g59
NtRp2324
(dp2325
g62
(dp2326
g70
I4
ssg71
g2320
sg64
(lp2327
g100
asbasbasbag57
(g73
g59
NtRp2328
(dp2329
g62
(dp2330
sg71
g1405
sg64
(lp2331
g57
(g78
g59
NtRp2332
(dp2333
g62
(dp2334
g82
g83
ssg71
g2328
sg64
(lp2335
S'wsgi_url_scheme'
p2336
asbag57
(g78
g59
NtRp2337
(dp2338
g62
(dp2339
g89
g90
ssg71
g2328
sg64
(lp2340
S':'
asbag57
(g78
g59
NtRp2341
(dp2342
g62
(dp2343
sg71
g2328
sg64
(lp2344
g57
(g58
g59
NtRp2345
(dp2346
g62
(dp2347
g70
I4
ssg71
g2341
sg64
(lp2348
S'http'
p2349
asbasbasbag57
(g73
g59
NtRp2350
(dp2351
g62
(dp2352
sg71
g1405
sg64
(lp2353
g57
(g78
g59
NtRp2354
(dp2355
g62
(dp2356
g82
g83
ssg71
g2350
sg64
(lp2357
S'wsgi_version'
p2358
asbag57
(g78
g59
NtRp2359
(dp2360
g62
(dp2361
g89
g90
ssg71
g2350
sg64
(lp2362
S':'
asbag57
(g78
g59
NtRp2363
(dp2364
g62
(dp2365
sg71
g2350
sg64
(lp2366
g57
(g58
g59
NtRp2367
(dp2368
g62
(dp2369
g70
I4
ssg71
g2363
sg64
(lp2370
g57
(g66
g59
NtRp2371
(dp2372
g62
(dp2373
g70
I3
ssg71
Nsg64
(lp2374
g57
(g73
g59
NtRp2375
(dp2376
g62
(dp2377
sg71
g2371
sg64
(lp2378
g57
(g78
g59
NtRp2379
(dp2380
g62
(dp2381
sg71
g2375
sg64
(lp2382
g57
(g58
g59
NtRp2383
(dp2384
g62
(dp2385
g70
I3
ssg71
g2379
sg64
(lp2386
S'1'
asbasbasbag57
(g73
g59
NtRp2387
(dp2388
g62
(dp2389
sg71
g2371
sg64
(lp2390
g57
(g78
g59
NtRp2391
(dp2392
g62
(dp2393
sg71
g2387
sg64
(lp2394
g57
(g58
g59
NtRp2395
(dp2396
g62
(dp2397
g70
I3
ssg71
g2391
sg64
(lp2398
S'0'
asbasbasbasbasbasbasbasbasbasbasbag57
(g73
g59
NtRp2399
(dp2400
g62
(dp2401
sg71
g67
sg64
(lp2402
g57
(g78
g59
NtRp2403
(dp2404
g62
(dp2405
g82
g83
ssg71
g2399
sg64
(lp2406
S'extension'
p2407
asbag57
(g78
g59
NtRp2408
(dp2409
g62
(dp2410
g89
g90
ssg71
g2399
sg64
(lp2411
S':'
asbag57
(g78
g59
NtRp2412
(dp2413
g62
(dp2414
sg71
g2399
sg64
(lp2415
g57
(g58
g59
NtRp2416
(dp2417
g62
(dp2418
g70
I5
ssg71
g2412
sg64
(lp2419
S'html'
p2420
asbasbasbag57
(g73
g59
NtRp2421
(dp2422
g62
(dp2423
sg71
g67
sg64
(lp2424
g57
(g78
g59
NtRp2425
(dp2426
g62
(dp2427
g82
g83
ssg71
g2421
sg64
(lp2428
S'folder'
p2429
asbag57
(g78
g59
NtRp2430
(dp2431
g62
(dp2432
g89
g90
ssg71
g2421
sg64
(lp2433
S':'
asbag57
(g78
g59
NtRp2434
(dp2435
g62
(dp2436
sg71
g2421
sg64
(lp2437
g57
(g58
g59
NtRp2438
(dp2439
g62
(dp2440
g70
I5
ssg71
g2434
sg64
(lp2441
S'/home/bhanu/web2py/applications/hostel/'
p2442
asbasbasbag57
(g73
g59
NtRp2443
(dp2444
g62
(dp2445
sg71
g67
sg64
(lp2446
g57
(g78
g59
NtRp2447
(dp2448
g62
(dp2449
g82
g83
ssg71
g2443
sg64
(lp2450
S'function'
p2451
asbag57
(g78
g59
NtRp2452
(dp2453
g62
(dp2454
g89
g90
ssg71
g2443
sg64
(lp2455
S':'
asbag57
(g78
g59
NtRp2456
(dp2457
g62
(dp2458
sg71
g2443
sg64
(lp2459
g57
(g58
g59
NtRp2460
(dp2461
g62
(dp2462
g70
I5
ssg71
g2456
sg64
(lp2463
S'login'
p2464
asbasbasbag57
(g73
g59
NtRp2465
(dp2466
g62
(dp2467
sg71
g67
sg64
(lp2468
g57
(g78
g59
NtRp2469
(dp2470
g62
(dp2471
g82
g83
ssg71
g2465
sg64
(lp2472
S'get_vars'
p2473
asbag57
(g78
g59
NtRp2474
(dp2475
g62
(dp2476
g89
g90
ssg71
g2465
sg64
(lp2477
S':'
asbag57
(g78
g59
NtRp2478
(dp2479
g62
(dp2480
sg71
g2465
sg64
(lp2481
g57
(g58
g59
NtRp2482
(dp2483
g62
(dp2484
g70
I5
ssg71
g2478
sg64
(lp2485
g57
(g66
g59
NtRp2486
(dp2487
g62
(dp2488
g70
I4
ssg71
Nsg64
(lp2489
g57
(g73
g59
NtRp2490
(dp2491
g62
(dp2492
sg71
g2486
sg64
(lp2493
g57
(g78
g59
NtRp2494
(dp2495
g62
(dp2496
g82
g83
ssg71
g2490
sg64
(lp2497
S'ticket'
p2498
asbag57
(g78
g59
NtRp2499
(dp2500
g62
(dp2501
g89
g90
ssg71
g2490
sg64
(lp2502
S':'
asbag57
(g78
g59
NtRp2503
(dp2504
g62
(dp2505
sg71
g2490
sg64
(lp2506
g57
(g58
g59
NtRp2507
(dp2508
g62
(dp2509
g70
I4
ssg71
g2503
sg64
(lp2510
S'ST-86269-z2EywVSoEnVD0fNz016Y-cas'
p2511
asbasbasbasbasbasbasbag57
(g73
g59
NtRp2512
(dp2513
g62
(dp2514
sg71
g67
sg64
(lp2515
g57
(g78
g59
NtRp2516
(dp2517
g62
(dp2518
g82
g83
ssg71
g2512
sg64
(lp2519
S'global_settings'
p2520
asbag57
(g78
g59
NtRp2521
(dp2522
g62
(dp2523
g89
g90
ssg71
g2512
sg64
(lp2524
S':'
asbag57
(g78
g59
NtRp2525
(dp2526
g62
(dp2527
sg71
g2512
sg64
(lp2528
g57
(g58
g59
NtRp2529
(dp2530
g62
(dp2531
g70
I5
ssg71
g2525
sg64
(lp2532
g57
(g66
g59
NtRp2533
(dp2534
g62
(dp2535
g70
I4
ssg71
Nsg64
(lp2536
g57
(g73
g59
NtRp2537
(dp2538
g62
(dp2539
sg71
g2533
sg64
(lp2540
g57
(g78
g59
NtRp2541
(dp2542
g62
(dp2543
g82
g83
ssg71
g2537
sg64
(lp2544
g1417
asbag57
(g78
g59
NtRp2545
(dp2546
g62
(dp2547
g89
g90
ssg71
g2537
sg64
(lp2548
S':'
asbag57
(g78
g59
NtRp2549
(dp2550
g62
(dp2551
sg71
g2537
sg64
(lp2552
g57
(g58
g59
NtRp2553
(dp2554
g62
(dp2555
g70
I4
ssg71
g2549
sg64
(lp2556
S"set(['/home/bhanu/web2py/applications/admin/', '/home/bhanu/web2py/applications/welcome/', '/home/bhanu/web2py/applications/sss/', '/home/bhanu/web2py/applications/sssq/', '/home/bhanu/web2py/applications/hostel/'])"
p2557
asbasbasbag57
(g73
g59
NtRp2558
(dp2559
g62
(dp2560
sg71
g2533
sg64
(lp2561
g57
(g78
g59
NtRp2562
(dp2563
g62
(dp2564
g82
g83
ssg71
g2558
sg64
(lp2565
g1439
asbag57
(g78
g59
NtRp2566
(dp2567
g62
(dp2568
g89
g90
ssg71
g2558
sg64
(lp2569
S':'
asbag57
(g78
g59
NtRp2570
(dp2571
g62
(dp2572
sg71
g2558
sg64
(lp2573
g57
(g58
g59
NtRp2574
(dp2575
g62
(dp2576
g70
I4
ssg71
g2570
sg64
(lp2577
g1452
asbasbasbag57
(g73
g59
NtRp2578
(dp2579
g62
(dp2580
sg71
g2533
sg64
(lp2581
g57
(g78
g59
NtRp2582
(dp2583
g62
(dp2584
g82
g83
ssg71
g2578
sg64
(lp2585
g1461
asbag57
(g78
g59
NtRp2586
(dp2587
g62
(dp2588
g89
g90
ssg71
g2578
sg64
(lp2589
S':'
asbag57
(g78
g59
NtRp2590
(dp2591
g62
(dp2592
sg71
g2578
sg64
(lp2593
g57
(g58
g59
NtRp2594
(dp2595
g62
(dp2596
g70
I4
ssg71
g2590
sg64
(lp2597
g57
(g66
g59
NtRp2598
(dp2599
g62
(dp2600
g70
I3
ssg71
Nsg64
(lp2601
sbasbasbasbag57
(g73
g59
NtRp2602
(dp2603
g62
(dp2604
sg71
g2533
sg64
(lp2605
g57
(g78
g59
NtRp2606
(dp2607
g62
(dp2608
g82
g83
ssg71
g2602
sg64
(lp2609
g1486
asbag57
(g78
g59
NtRp2610
(dp2611
g62
(dp2612
g89
g90
ssg71
g2602
sg64
(lp2613
S':'
asbag57
(g78
g59
NtRp2614
(dp2615
g62
(dp2616
sg71
g2602
sg64
(lp2617
g57
(g58
g59
NtRp2618
(dp2619
g62
(dp2620
g70
I4
ssg71
g2614
sg64
(lp2621
S"<Values at 0x2d18f80: {'verbose': False, 'ip': '127.0.0.1', 'with_scheduler': False, 'ips': ['127.0.1.1'], 'shutdown_timeout': 5, 'taskbar': False, 'port': 8000, 'maxthreads': None, 'softcron': False, 'server_name': 'bhanu-Dell-System-XPS-L502X', 'bpython': False, 'nogui': False, 'pid_filename': 'httpserver.pid', 'extcron': False, 'runcron': False, 'run_system_tests': False, 'test': None, 'folder': '/home/bhanu/web2py', 'config': '', 'minthreads': None, 'winservice': '', 'shell': None, 'run': '', 'log_filename': 'httpserver.log', 'debuglevel': 30, 'args': [''], 'socket_timeout': 5, 'ssl_ca_certificate': None, 'scheduler': None, 'profiler_filename': None, 'ssl_private_key': '', 'scheduler_groups': None, 'password': 'p', 'request_queue_size': 5, 'ssl_certificate': '', 'cronjob': False, 'numthreads': None, 'quiet': False, 'interfaces': None, 'import_models': False, 'timeout': 10, 'plain': False, 'nobanner': False}>"
p2622
asbasbasbag57
(g73
g59
NtRp2623
(dp2624
g62
(dp2625
sg71
g2533
sg64
(lp2626
g57
(g78
g59
NtRp2627
(dp2628
g62
(dp2629
g82
g83
ssg71
g2623
sg64
(lp2630
g1508
asbag57
(g78
g59
NtRp2631
(dp2632
g62
(dp2633
g89
g90
ssg71
g2623
sg64
(lp2634
S':'
asbag57
(g78
g59
NtRp2635
(dp2636
g62
(dp2637
sg71
g2623
sg64
(lp2638
g57
(g58
g59
NtRp2639
(dp2640
g62
(dp2641
g70
I4
ssg71
g2635
sg64
(lp2642
S'set([])'
p2643
asbasbasbag57
(g73
g59
NtRp2644
(dp2645
g62
(dp2646
sg71
g2533
sg64
(lp2647
g57
(g78
g59
NtRp2648
(dp2649
g62
(dp2650
g82
g83
ssg71
g2644
sg64
(lp2651
g1530
asbag57
(g78
g59
NtRp2652
(dp2653
g62
(dp2654
g89
g90
ssg71
g2644
sg64
(lp2655
S':'
asbag57
(g78
g59
NtRp2656
(dp2657
g62
(dp2658
sg71
g2644
sg64
(lp2659
g57
(g58
g59
NtRp2660
(dp2661
g62
(dp2662
g70
I4
ssg71
g2656
sg64
(lp2663
g100
asbasbasbag57
(g73
g59
NtRp2664
(dp2665
g62
(dp2666
sg71
g2533
sg64
(lp2667
g57
(g78
g59
NtRp2668
(dp2669
g62
(dp2670
g82
g83
ssg71
g2664
sg64
(lp2671
g1551
asbag57
(g78
g59
NtRp2672
(dp2673
g62
(dp2674
g89
g90
ssg71
g2664
sg64
(lp2675
S':'
asbag57
(g78
g59
NtRp2676
(dp2677
g62
(dp2678
sg71
g2664
sg64
(lp2679
g57
(g58
g59
NtRp2680
(dp2681
g62
(dp2682
g70
I4
ssg71
g2676
sg64
(lp2683
g1564
asbasbasbag57
(g73
g59
NtRp2684
(dp2685
g62
(dp2686
sg71
g2533
sg64
(lp2687
g57
(g78
g59
NtRp2688
(dp2689
g62
(dp2690
g82
g83
ssg71
g2684
sg64
(lp2691
g1727
asbag57
(g78
g59
NtRp2692
(dp2693
g62
(dp2694
g89
g90
ssg71
g2684
sg64
(lp2695
S':'
asbag57
(g78
g59
NtRp2696
(dp2697
g62
(dp2698
sg71
g2684
sg64
(lp2699
g57
(g58
g59
NtRp2700
(dp2701
g62
(dp2702
g70
I4
ssg71
g2696
sg64
(lp2703
g100
asbasbasbag57
(g73
g59
NtRp2704
(dp2705
g62
(dp2706
sg71
g2533
sg64
(lp2707
g57
(g78
g59
NtRp2708
(dp2709
g62
(dp2710
g82
g83
ssg71
g2704
sg64
(lp2711
g1748
asbag57
(g78
g59
NtRp2712
(dp2713
g62
(dp2714
g89
g90
ssg71
g2704
sg64
(lp2715
S':'
asbag57
(g78
g59
NtRp2716
(dp2717
g62
(dp2718
sg71
g2704
sg64
(lp2719
g57
(g58
g59
NtRp2720
(dp2721
g62
(dp2722
g70
I4
ssg71
g2716
sg64
(lp2723
g100
asbasbasbag57
(g73
g59
NtRp2724
(dp2725
g62
(dp2726
sg71
g2533
sg64
(lp2727
g57
(g78
g59
NtRp2728
(dp2729
g62
(dp2730
g82
g83
ssg71
g2724
sg64
(lp2731
g1769
asbag57
(g78
g59
NtRp2732
(dp2733
g62
(dp2734
g89
g90
ssg71
g2724
sg64
(lp2735
S':'
asbag57
(g78
g59
NtRp2736
(dp2737
g62
(dp2738
sg71
g2724
sg64
(lp2739
g57
(g58
g59
NtRp2740
(dp2741
g62
(dp2742
g70
I4
ssg71
g2736
sg64
(lp2743
g57
(g66
g59
NtRp2744
(dp2745
g62
(dp2746
g70
I3
ssg71
Nsg64
(lp2747
g57
(g73
g59
NtRp2748
(dp2749
g62
(dp2750
sg71
g2744
sg64
(lp2751
g57
(g78
g59
NtRp2752
(dp2753
g62
(dp2754
sg71
g2748
sg64
(lp2755
g57
(g58
g59
NtRp2756
(dp2757
g62
(dp2758
g70
I3
ssg71
g2752
sg64
(lp2759
g1798
asbasbasbag57
(g73
g59
NtRp2760
(dp2761
g62
(dp2762
sg71
g2744
sg64
(lp2763
g57
(g78
g59
NtRp2764
(dp2765
g62
(dp2766
sg71
g2760
sg64
(lp2767
g57
(g58
g59
NtRp2768
(dp2769
g62
(dp2770
g70
I3
ssg71
g2764
sg64
(lp2771
g1811
asbasbasbag57
(g73
g59
NtRp2772
(dp2773
g62
(dp2774
sg71
g2744
sg64
(lp2775
g57
(g78
g59
NtRp2776
(dp2777
g62
(dp2778
sg71
g2772
sg64
(lp2779
g57
(g58
g59
NtRp2780
(dp2781
g62
(dp2782
g70
I3
ssg71
g2776
sg64
(lp2783
g1824
asbasbasbag57
(g73
g59
NtRp2784
(dp2785
g62
(dp2786
sg71
g2744
sg64
(lp2787
g57
(g78
g59
NtRp2788
(dp2789
g62
(dp2790
sg71
g2784
sg64
(lp2791
g57
(g58
g59
NtRp2792
(dp2793
g62
(dp2794
g70
I3
ssg71
g2788
sg64
(lp2795
g1837
asbasbasbag57
(g73
g59
NtRp2796
(dp2797
g62
(dp2798
sg71
g2744
sg64
(lp2799
g57
(g78
g59
NtRp2800
(dp2801
g62
(dp2802
sg71
g2796
sg64
(lp2803
g57
(g58
g59
NtRp2804
(dp2805
g62
(dp2806
g70
I3
ssg71
g2800
sg64
(lp2807
g1850
asbasbasbasbasbasbasbag57
(g73
g59
NtRp2808
(dp2809
g62
(dp2810
sg71
g2533
sg64
(lp2811
g57
(g78
g59
NtRp2812
(dp2813
g62
(dp2814
g82
g83
ssg71
g2808
sg64
(lp2815
g2119
asbag57
(g78
g59
NtRp2816
(dp2817
g62
(dp2818
g89
g90
ssg71
g2808
sg64
(lp2819
S':'
asbag57
(g78
g59
NtRp2820
(dp2821
g62
(dp2822
sg71
g2808
sg64
(lp2823
g57
(g58
g59
NtRp2824
(dp2825
g62
(dp2826
g70
I4
ssg71
g2820
sg64
(lp2827
g57
(g66
g59
NtRp2828
(dp2829
g62
(dp2830
g70
I3
ssg71
Nsg64
(lp2831
g57
(g73
g59
NtRp2832
(dp2833
g62
(dp2834
sg71
g2828
sg64
(lp2835
g57
(g78
g59
NtRp2836
(dp2837
g62
(dp2838
sg71
g2832
sg64
(lp2839
g57
(g58
g59
NtRp2840
(dp2841
g62
(dp2842
g70
I3
ssg71
g2836
sg64
(lp2843
S'2'
asbasbasbag57
(g73
g59
NtRp2844
(dp2845
g62
(dp2846
sg71
g2828
sg64
(lp2847
g57
(g78
g59
NtRp2848
(dp2849
g62
(dp2850
sg71
g2844
sg64
(lp2851
g57
(g58
g59
NtRp2852
(dp2853
g62
(dp2854
g70
I3
ssg71
g2848
sg64
(lp2855
S'2'
asbasbasbag57
(g73
g59
NtRp2856
(dp2857
g62
(dp2858
sg71
g2828
sg64
(lp2859
g57
(g78
g59
NtRp2860
(dp2861
g62
(dp2862
sg71
g2856
sg64
(lp2863
g57
(g58
g59
NtRp2864
(dp2865
g62
(dp2866
g70
I3
ssg71
g2860
sg64
(lp2867
S'1'
asbasbasbag57
(g73
g59
NtRp2868
(dp2869
g62
(dp2870
sg71
g2828
sg64
(lp2871
g57
(g78
g59
NtRp2872
(dp2873
g62
(dp2874
sg71
g2868
sg64
(lp2875
g57
(g58
g59
NtRp2876
(dp2877
g62
(dp2878
g70
I3
ssg71
g2872
sg64
(lp2879
S'datetime.datetime(2012, 10, 21, 16, 57, 4)'
p2880
asbasbasbag57
(g73
g59
NtRp2881
(dp2882
g62
(dp2883
sg71
g2828
sg64
(lp2884
g57
(g78
g59
NtRp2885
(dp2886
g62
(dp2887
sg71
g2881
sg64
(lp2888
g57
(g58
g59
NtRp2889
(dp2890
g62
(dp2891
g70
I3
ssg71
g2885
sg64
(lp2892
g2197
asbasbasbasbasbasbasbasbasbasbasbag57
(g73
g59
NtRp2893
(dp2894
g62
(dp2895
sg71
g67
sg64
(lp2896
g57
(g78
g59
NtRp2897
(dp2898
g62
(dp2899
g82
g83
ssg71
g2893
sg64
(lp2900
S'is_https'
p2901
asbag57
(g78
g59
NtRp2902
(dp2903
g62
(dp2904
g89
g90
ssg71
g2893
sg64
(lp2905
S':'
asbag57
(g78
g59
NtRp2906
(dp2907
g62
(dp2908
sg71
g2893
sg64
(lp2909
g57
(g58
g59
NtRp2910
(dp2911
g62
(dp2912
g70
I5
ssg71
g2906
sg64
(lp2913
g100
asbasbasbag57
(g73
g59
NtRp2914
(dp2915
g62
(dp2916
sg71
g67
sg64
(lp2917
g57
(g78
g59
NtRp2918
(dp2919
g62
(dp2920
g82
g83
ssg71
g2914
sg64
(lp2921
S'is_local'
p2922
asbag57
(g78
g59
NtRp2923
(dp2924
g62
(dp2925
g89
g90
ssg71
g2914
sg64
(lp2926
S':'
asbag57
(g78
g59
NtRp2927
(dp2928
g62
(dp2929
sg71
g2914
sg64
(lp2930
g57
(g58
g59
NtRp2931
(dp2932
g62
(dp2933
g70
I5
ssg71
g2927
sg64
(lp2934
g2306
asbasbasbag57
(g73
g59
NtRp2935
(dp2936
g62
(dp2937
sg71
g67
sg64
(lp2938
g57
(g78
g59
NtRp2939
(dp2940
g62
(dp2941
g82
g83
ssg71
g2935
sg64
(lp2942
S'is_restful'
p2943
asbag57
(g78
g59
NtRp2944
(dp2945
g62
(dp2946
g89
g90
ssg71
g2935
sg64
(lp2947
S':'
asbag57
(g78
g59
NtRp2948
(dp2949
g62
(dp2950
sg71
g2935
sg64
(lp2951
g57
(g58
g59
NtRp2952
(dp2953
g62
(dp2954
g70
I5
ssg71
g2948
sg64
(lp2955
g100
asbasbasbag57
(g73
g59
NtRp2956
(dp2957
g62
(dp2958
sg71
g67
sg64
(lp2959
g57
(g78
g59
NtRp2960
(dp2961
g62
(dp2962
g82
g83
ssg71
g2956
sg64
(lp2963
S'now'
p2964
asbag57
(g78
g59
NtRp2965
(dp2966
g62
(dp2967
g89
g90
ssg71
g2956
sg64
(lp2968
S':'
asbag57
(g78
g59
NtRp2969
(dp2970
g62
(dp2971
sg71
g2956
sg64
(lp2972
g57
(g58
g59
NtRp2973
(dp2974
g62
(dp2975
g70
I5
ssg71
g2969
sg64
(lp2976
S'datetime.datetime(2012, 11, 16, 12, 32, 40, 381992)'
p2977
asbasbasbag57
(g73
g59
NtRp2978
(dp2979
g62
(dp2980
sg71
g67
sg64
(lp2981
g57
(g78
g59
NtRp2982
(dp2983
g62
(dp2984
g82
g83
ssg71
g2978
sg64
(lp2985
S'post_vars'
p2986
asbag57
(g78
g59
NtRp2987
(dp2988
g62
(dp2989
g89
g90
ssg71
g2978
sg64
(lp2990
S':'
asbag57
(g78
g59
NtRp2991
(dp2992
g62
(dp2993
sg71
g2978
sg64
(lp2994
g57
(g58
g59
NtRp2995
(dp2996
g62
(dp2997
g70
I5
ssg71
g2991
sg64
(lp2998
g57
(g66
g59
NtRp2999
(dp3000
g62
(dp3001
g70
I4
ssg71
Nsg64
(lp3002
sbasbasbasbag57
(g73
g59
NtRp3003
(dp3004
g62
(dp3005
sg71
g67
sg64
(lp3006
g57
(g78
g59
NtRp3007
(dp3008
g62
(dp3009
g82
g83
ssg71
g3003
sg64
(lp3010
S'raw_args'
p3011
asbag57
(g78
g59
NtRp3012
(dp3013
g62
(dp3014
g89
g90
ssg71
g3003
sg64
(lp3015
S':'
asbag57
(g78
g59
NtRp3016
(dp3017
g62
(dp3018
sg71
g3003
sg64
(lp3019
g57
(g58
g59
NtRp3020
(dp3021
g62
(dp3022
g70
I5
ssg71
g3016
sg64
(lp3023
S''
asbasbasbag57
(g73
g59
NtRp3024
(dp3025
g62
(dp3026
sg71
g67
sg64
(lp3027
g57
(g78
g59
NtRp3028
(dp3029
g62
(dp3030
g82
g83
ssg71
g3024
sg64
(lp3031
S'raw_extension'
p3032
asbag57
(g78
g59
NtRp3033
(dp3034
g62
(dp3035
g89
g90
ssg71
g3024
sg64
(lp3036
S':'
asbag57
(g78
g59
NtRp3037
(dp3038
g62
(dp3039
sg71
g3024
sg64
(lp3040
g57
(g58
g59
NtRp3041
(dp3042
g62
(dp3043
g70
I5
ssg71
g3037
sg64
(lp3044
S'None'
p3045
asbasbasbag57
(g73
g59
NtRp3046
(dp3047
g62
(dp3048
sg71
g67
sg64
(lp3049
g57
(g78
g59
NtRp3050
(dp3051
g62
(dp3052
g82
g83
ssg71
g3046
sg64
(lp3053
S'url'
p3054
asbag57
(g78
g59
NtRp3055
(dp3056
g62
(dp3057
g89
g90
ssg71
g3046
sg64
(lp3058
S':'
asbag57
(g78
g59
NtRp3059
(dp3060
g62
(dp3061
sg71
g3046
sg64
(lp3062
g57
(g58
g59
NtRp3063
(dp3064
g62
(dp3065
g70
I5
ssg71
g3059
sg64
(lp3066
g1872
asbasbasbag57
(g73
g59
NtRp3067
(dp3068
g62
(dp3069
sg71
g67
sg64
(lp3070
g57
(g78
g59
NtRp3071
(dp3072
g62
(dp3073
g82
g83
ssg71
g3067
sg64
(lp3074
S'utcnow'
p3075
asbag57
(g78
g59
NtRp3076
(dp3077
g62
(dp3078
g89
g90
ssg71
g3067
sg64
(lp3079
S':'
asbag57
(g78
g59
NtRp3080
(dp3081
g62
(dp3082
sg71
g3067
sg64
(lp3083
g57
(g58
g59
NtRp3084
(dp3085
g62
(dp3086
g70
I5
ssg71
g3080
sg64
(lp3087
S'datetime.datetime(2012, 11, 16, 7, 2, 40, 382043)'
p3088
asbasbasbag57
(g73
g59
NtRp3089
(dp3090
g62
(dp3091
sg71
g67
sg64
(lp3092
g57
(g78
g59
NtRp3093
(dp3094
g62
(dp3095
g82
g83
ssg71
g3089
sg64
(lp3096
S'uuid'
p3097
asbag57
(g78
g59
NtRp3098
(dp3099
g62
(dp3100
g89
g90
ssg71
g3089
sg64
(lp3101
S':'
asbag57
(g78
g59
NtRp3102
(dp3103
g62
(dp3104
sg71
g3089
sg64
(lp3105
g57
(g58
g59
NtRp3106
(dp3107
g62
(dp3108
g70
I5
ssg71
g3102
sg64
(lp3109
S'hostel/127.0.0.1.2012-11-16.12-32-40.849f199b-6d0e-4d14-9637-3c01a532727f'
p3110
asbasbasbag57
(g73
g59
NtRp3111
(dp3112
g62
(dp3113
sg71
g67
sg64
(lp3114
g57
(g78
g59
NtRp3115
(dp3116
g62
(dp3117
g82
g83
ssg71
g3111
sg64
(lp3118
S'vars'
p3119
asbag57
(g78
g59
NtRp3120
(dp3121
g62
(dp3122
g89
g90
ssg71
g3111
sg64
(lp3123
S':'
asbag57
(g78
g59
NtRp3124
(dp3125
g62
(dp3126
sg71
g3111
sg64
(lp3127
g57
(g58
g59
NtRp3128
(dp3129
g62
(dp3130
g70
I5
ssg71
g3124
sg64
(lp3131
g57
(g66
g59
NtRp3132
(dp3133
g62
(dp3134
g70
I4
ssg71
Nsg64
(lp3135
g57
(g73
g59
NtRp3136
(dp3137
g62
(dp3138
sg71
g3132
sg64
(lp3139
g57
(g78
g59
NtRp3140
(dp3141
g62
(dp3142
g82
g83
ssg71
g3136
sg64
(lp3143
g2498
asbag57
(g78
g59
NtRp3144
(dp3145
g62
(dp3146
g89
g90
ssg71
g3136
sg64
(lp3147
S':'
asbag57
(g78
g59
NtRp3148
(dp3149
g62
(dp3150
sg71
g3136
sg64
(lp3151
g57
(g58
g59
NtRp3152
(dp3153
g62
(dp3154
g70
I4
ssg71
g3148
sg64
(lp3155
g2511
asbasbasbasbasbasbasbag57
(g73
g59
NtRp3156
(dp3157
g62
(dp3158
sg71
g67
sg64
(lp3159
g57
(g78
g59
NtRp3160
(dp3161
g62
(dp3162
g82
g83
ssg71
g3156
sg64
(lp3163
S'wsgi'
p3164
asbag57
(g78
g59
NtRp3165
(dp3166
g62
(dp3167
g89
g90
ssg71
g3156
sg64
(lp3168
S':'
asbag57
(g78
g59
NtRp3169
(dp3170
g62
(dp3171
sg71
g3156
sg64
(lp3172
g57
(g58
g59
NtRp3173
(dp3174
g62
(dp3175
g70
I5
ssg71
g3169
sg64
(lp3176
g57
(g66
g59
NtRp3177
(dp3178
g62
(dp3179
g70
I4
ssg71
Nsg64
(lp3180
g57
(g73
g59
NtRp3181
(dp3182
g62
(dp3183
sg71
g3177
sg64
(lp3184
g57
(g78
g59
NtRp3185
(dp3186
g62
(dp3187
g82
g83
ssg71
g3181
sg64
(lp3188
S'environ'
p3189
asbag57
(g78
g59
NtRp3190
(dp3191
g62
(dp3192
g89
g90
ssg71
g3181
sg64
(lp3193
S':'
asbag57
(g78
g59
NtRp3194
(dp3195
g62
(dp3196
sg71
g3181
sg64
(lp3197
g57
(g58
g59
NtRp3198
(dp3199
g62
(dp3200
g70
I4
ssg71
g3194
sg64
(lp3201
g57
(g66
g59
NtRp3202
(dp3203
g62
(dp3204
g70
I3
ssg71
Nsg64
(lp3205
g57
(g73
g59
NtRp3206
(dp3207
g62
(dp3208
sg71
g3202
sg64
(lp3209
g57
(g78
g59
NtRp3210
(dp3211
g62
(dp3212
g82
g83
ssg71
g3206
sg64
(lp3213
S'HTTP_ACCEPT'
p3214
asbag57
(g78
g59
NtRp3215
(dp3216
g62
(dp3217
g89
g90
ssg71
g3206
sg64
(lp3218
S':'
asbag57
(g78
g59
NtRp3219
(dp3220
g62
(dp3221
sg71
g3206
sg64
(lp3222
g57
(g58
g59
NtRp3223
(dp3224
g62
(dp3225
g70
I3
ssg71
g3219
sg64
(lp3226
g1586
asbasbasbag57
(g73
g59
NtRp3227
(dp3228
g62
(dp3229
sg71
g3202
sg64
(lp3230
g57
(g78
g59
NtRp3231
(dp3232
g62
(dp3233
g82
g83
ssg71
g3227
sg64
(lp3234
S'HTTP_ACCEPT_ENCODING'
p3235
asbag57
(g78
g59
NtRp3236
(dp3237
g62
(dp3238
g89
g90
ssg71
g3227
sg64
(lp3239
S':'
asbag57
(g78
g59
NtRp3240
(dp3241
g62
(dp3242
sg71
g3227
sg64
(lp3243
g57
(g58
g59
NtRp3244
(dp3245
g62
(dp3246
g70
I3
ssg71
g3240
sg64
(lp3247
g1608
asbasbasbag57
(g73
g59
NtRp3248
(dp3249
g62
(dp3250
sg71
g3202
sg64
(lp3251
g57
(g78
g59
NtRp3252
(dp3253
g62
(dp3254
g82
g83
ssg71
g3248
sg64
(lp3255
S'HTTP_ACCEPT_LANGUAGE'
p3256
asbag57
(g78
g59
NtRp3257
(dp3258
g62
(dp3259
g89
g90
ssg71
g3248
sg64
(lp3260
S':'
asbag57
(g78
g59
NtRp3261
(dp3262
g62
(dp3263
sg71
g3248
sg64
(lp3264
g57
(g58
g59
NtRp3265
(dp3266
g62
(dp3267
g70
I3
ssg71
g3261
sg64
(lp3268
g1630
asbasbasbag57
(g73
g59
NtRp3269
(dp3270
g62
(dp3271
sg71
g3202
sg64
(lp3272
g57
(g78
g59
NtRp3273
(dp3274
g62
(dp3275
g82
g83
ssg71
g3269
sg64
(lp3276
S'HTTP_CONNECTION'
p3277
asbag57
(g78
g59
NtRp3278
(dp3279
g62
(dp3280
g89
g90
ssg71
g3269
sg64
(lp3281
S':'
asbag57
(g78
g59
NtRp3282
(dp3283
g62
(dp3284
sg71
g3269
sg64
(lp3285
g57
(g58
g59
NtRp3286
(dp3287
g62
(dp3288
g70
I3
ssg71
g3282
sg64
(lp3289
g1652
asbasbasbag57
(g73
g59
NtRp3290
(dp3291
g62
(dp3292
sg71
g3202
sg64
(lp3293
g57
(g78
g59
NtRp3294
(dp3295
g62
(dp3296
g82
g83
ssg71
g3290
sg64
(lp3297
S'HTTP_COOKIE'
p3298
asbag57
(g78
g59
NtRp3299
(dp3300
g62
(dp3301
g89
g90
ssg71
g3290
sg64
(lp3302
S':'
asbag57
(g78
g59
NtRp3303
(dp3304
g62
(dp3305
sg71
g3290
sg64
(lp3306
g57
(g58
g59
NtRp3307
(dp3308
g62
(dp3309
g70
I3
ssg71
g3303
sg64
(lp3310
g1674
asbasbasbag57
(g73
g59
NtRp3311
(dp3312
g62
(dp3313
sg71
g3202
sg64
(lp3314
g57
(g78
g59
NtRp3315
(dp3316
g62
(dp3317
g82
g83
ssg71
g3311
sg64
(lp3318
S'HTTP_HOST'
p3319
asbag57
(g78
g59
NtRp3320
(dp3321
g62
(dp3322
g89
g90
ssg71
g3311
sg64
(lp3323
S':'
asbag57
(g78
g59
NtRp3324
(dp3325
g62
(dp3326
sg71
g3311
sg64
(lp3327
g57
(g58
g59
NtRp3328
(dp3329
g62
(dp3330
g70
I3
ssg71
g3324
sg64
(lp3331
g1696
asbasbasbag57
(g73
g59
NtRp3332
(dp3333
g62
(dp3334
sg71
g3202
sg64
(lp3335
g57
(g78
g59
NtRp3336
(dp3337
g62
(dp3338
g82
g83
ssg71
g3332
sg64
(lp3339
S'HTTP_USER_AGENT'
p3340
asbag57
(g78
g59
NtRp3341
(dp3342
g62
(dp3343
g89
g90
ssg71
g3332
sg64
(lp3344
S':'
asbag57
(g78
g59
NtRp3345
(dp3346
g62
(dp3347
sg71
g3332
sg64
(lp3348
g57
(g58
g59
NtRp3349
(dp3350
g62
(dp3351
g70
I3
ssg71
g3345
sg64
(lp3352
g1718
asbasbasbag57
(g73
g59
NtRp3353
(dp3354
g62
(dp3355
sg71
g3202
sg64
(lp3356
g57
(g78
g59
NtRp3357
(dp3358
g62
(dp3359
g82
g83
ssg71
g3353
sg64
(lp3360
S'PATH_INFO'
p3361
asbag57
(g78
g59
NtRp3362
(dp3363
g62
(dp3364
g89
g90
ssg71
g3353
sg64
(lp3365
S':'
asbag57
(g78
g59
NtRp3366
(dp3367
g62
(dp3368
sg71
g3353
sg64
(lp3369
g57
(g58
g59
NtRp3370
(dp3371
g62
(dp3372
g70
I3
ssg71
g3366
sg64
(lp3373
g1872
asbasbasbag57
(g73
g59
NtRp3374
(dp3375
g62
(dp3376
sg71
g3202
sg64
(lp3377
g57
(g78
g59
NtRp3378
(dp3379
g62
(dp3380
g82
g83
ssg71
g3374
sg64
(lp3381
S'QUERY_STRING'
p3382
asbag57
(g78
g59
NtRp3383
(dp3384
g62
(dp3385
g89
g90
ssg71
g3374
sg64
(lp3386
S':'
asbag57
(g78
g59
NtRp3387
(dp3388
g62
(dp3389
sg71
g3374
sg64
(lp3390
g57
(g58
g59
NtRp3391
(dp3392
g62
(dp3393
g70
I3
ssg71
g3387
sg64
(lp3394
g1894
asbasbasbag57
(g73
g59
NtRp3395
(dp3396
g62
(dp3397
sg71
g3202
sg64
(lp3398
g57
(g78
g59
NtRp3399
(dp3400
g62
(dp3401
g82
g83
ssg71
g3395
sg64
(lp3402
S'REMOTE_ADDR'
p3403
asbag57
(g78
g59
NtRp3404
(dp3405
g62
(dp3406
g89
g90
ssg71
g3395
sg64
(lp3407
S':'
asbag57
(g78
g59
NtRp3408
(dp3409
g62
(dp3410
sg71
g3395
sg64
(lp3411
g57
(g58
g59
NtRp3412
(dp3413
g62
(dp3414
g70
I3
ssg71
g3408
sg64
(lp3415
g212
asbasbasbag57
(g73
g59
NtRp3416
(dp3417
g62
(dp3418
sg71
g3202
sg64
(lp3419
g57
(g78
g59
NtRp3420
(dp3421
g62
(dp3422
g82
g83
ssg71
g3416
sg64
(lp3423
S'REMOTE_PORT'
p3424
asbag57
(g78
g59
NtRp3425
(dp3426
g62
(dp3427
g89
g90
ssg71
g3416
sg64
(lp3428
S':'
asbag57
(g78
g59
NtRp3429
(dp3430
g62
(dp3431
sg71
g3416
sg64
(lp3432
g57
(g58
g59
NtRp3433
(dp3434
g62
(dp3435
g70
I3
ssg71
g3429
sg64
(lp3436
g1937
asbasbasbag57
(g73
g59
NtRp3437
(dp3438
g62
(dp3439
sg71
g3202
sg64
(lp3440
g57
(g78
g59
NtRp3441
(dp3442
g62
(dp3443
g82
g83
ssg71
g3437
sg64
(lp3444
S'REQUEST_METHOD'
p3445
asbag57
(g78
g59
NtRp3446
(dp3447
g62
(dp3448
g89
g90
ssg71
g3437
sg64
(lp3449
S':'
asbag57
(g78
g59
NtRp3450
(dp3451
g62
(dp3452
sg71
g3437
sg64
(lp3453
g57
(g58
g59
NtRp3454
(dp3455
g62
(dp3456
g70
I3
ssg71
g3450
sg64
(lp3457
g1959
asbasbasbag57
(g73
g59
NtRp3458
(dp3459
g62
(dp3460
sg71
g3202
sg64
(lp3461
g57
(g78
g59
NtRp3462
(dp3463
g62
(dp3464
g82
g83
ssg71
g3458
sg64
(lp3465
S'REQUEST_URI'
p3466
asbag57
(g78
g59
NtRp3467
(dp3468
g62
(dp3469
g89
g90
ssg71
g3458
sg64
(lp3470
S':'
asbag57
(g78
g59
NtRp3471
(dp3472
g62
(dp3473
sg71
g3458
sg64
(lp3474
g57
(g58
g59
NtRp3475
(dp3476
g62
(dp3477
g70
I3
ssg71
g3471
sg64
(lp3478
g1981
asbasbasbag57
(g73
g59
NtRp3479
(dp3480
g62
(dp3481
sg71
g3202
sg64
(lp3482
g57
(g78
g59
NtRp3483
(dp3484
g62
(dp3485
g82
g83
ssg71
g3479
sg64
(lp3486
S'SCRIPT_NAME'
p3487
asbag57
(g78
g59
NtRp3488
(dp3489
g62
(dp3490
g89
g90
ssg71
g3479
sg64
(lp3491
S':'
asbag57
(g78
g59
NtRp3492
(dp3493
g62
(dp3494
sg71
g3479
sg64
(lp3495
g57
(g58
g59
NtRp3496
(dp3497
g62
(dp3498
g70
I3
ssg71
g3492
sg64
(lp3499
S''
asbasbasbag57
(g73
g59
NtRp3500
(dp3501
g62
(dp3502
sg71
g3202
sg64
(lp3503
g57
(g78
g59
NtRp3504
(dp3505
g62
(dp3506
g82
g83
ssg71
g3500
sg64
(lp3507
S'SERVER_NAME'
p3508
asbag57
(g78
g59
NtRp3509
(dp3510
g62
(dp3511
g89
g90
ssg71
g3500
sg64
(lp3512
S':'
asbag57
(g78
g59
NtRp3513
(dp3514
g62
(dp3515
sg71
g3500
sg64
(lp3516
g57
(g58
g59
NtRp3517
(dp3518
g62
(dp3519
g70
I3
ssg71
g3513
sg64
(lp3520
g1837
asbasbasbag57
(g73
g59
NtRp3521
(dp3522
g62
(dp3523
sg71
g3202
sg64
(lp3524
g57
(g78
g59
NtRp3525
(dp3526
g62
(dp3527
g82
g83
ssg71
g3521
sg64
(lp3528
S'SERVER_PORT'
p3529
asbag57
(g78
g59
NtRp3530
(dp3531
g62
(dp3532
g89
g90
ssg71
g3521
sg64
(lp3533
S':'
asbag57
(g78
g59
NtRp3534
(dp3535
g62
(dp3536
sg71
g3521
sg64
(lp3537
g57
(g58
g59
NtRp3538
(dp3539
g62
(dp3540
g70
I3
ssg71
g3534
sg64
(lp3541
g2045
asbasbasbag57
(g73
g59
NtRp3542
(dp3543
g62
(dp3544
sg71
g3202
sg64
(lp3545
g57
(g78
g59
NtRp3546
(dp3547
g62
(dp3548
g82
g83
ssg71
g3542
sg64
(lp3549
S'SERVER_PROTOCOL'
p3550
asbag57
(g78
g59
NtRp3551
(dp3552
g62
(dp3553
g89
g90
ssg71
g3542
sg64
(lp3554
S':'
asbag57
(g78
g59
NtRp3555
(dp3556
g62
(dp3557
sg71
g3542
sg64
(lp3558
g57
(g58
g59
NtRp3559
(dp3560
g62
(dp3561
g70
I3
ssg71
g3555
sg64
(lp3562
g2067
asbasbasbag57
(g73
g59
NtRp3563
(dp3564
g62
(dp3565
sg71
g3202
sg64
(lp3566
g57
(g78
g59
NtRp3567
(dp3568
g62
(dp3569
g82
g83
ssg71
g3563
sg64
(lp3570
S'SERVER_SOFTWARE'
p3571
asbag57
(g78
g59
NtRp3572
(dp3573
g62
(dp3574
g89
g90
ssg71
g3563
sg64
(lp3575
S':'
asbag57
(g78
g59
NtRp3576
(dp3577
g62
(dp3578
sg71
g3563
sg64
(lp3579
g57
(g58
g59
NtRp3580
(dp3581
g62
(dp3582
g70
I3
ssg71
g3576
sg64
(lp3583
g2089
asbasbasbag57
(g73
g59
NtRp3584
(dp3585
g62
(dp3586
sg71
g3202
sg64
(lp3587
g57
(g78
g59
NtRp3588
(dp3589
g62
(dp3590
g82
g83
ssg71
g3584
sg64
(lp3591
S'wsgi.errors'
p3592
asbag57
(g78
g59
NtRp3593
(dp3594
g62
(dp3595
g89
g90
ssg71
g3584
sg64
(lp3596
S':'
asbag57
(g78
g59
NtRp3597
(dp3598
g62
(dp3599
sg71
g3584
sg64
(lp3600
g57
(g58
g59
NtRp3601
(dp3602
g62
(dp3603
g70
I3
ssg71
g3597
sg64
(lp3604
S"<open file '<stderr>', mode 'w' at 0x7f6a7415d270>"
p3605
asbasbasbag57
(g73
g59
NtRp3606
(dp3607
g62
(dp3608
sg71
g3202
sg64
(lp3609
g57
(g78
g59
NtRp3610
(dp3611
g62
(dp3612
g82
g83
ssg71
g3606
sg64
(lp3613
S'wsgi.file_wrapper'
p3614
asbag57
(g78
g59
NtRp3615
(dp3616
g62
(dp3617
g89
g90
ssg71
g3606
sg64
(lp3618
S':'
asbag57
(g78
g59
NtRp3619
(dp3620
g62
(dp3621
sg71
g3606
sg64
(lp3622
g57
(g58
g59
NtRp3623
(dp3624
g62
(dp3625
g70
I3
ssg71
g3619
sg64
(lp3626
S'<class wsgiref.util.FileWrapper at 0x2c4cd50>'
p3627
asbasbasbag57
(g73
g59
NtRp3628
(dp3629
g62
(dp3630
sg71
g3202
sg64
(lp3631
g57
(g78
g59
NtRp3632
(dp3633
g62
(dp3634
g82
g83
ssg71
g3628
sg64
(lp3635
S'wsgi.input'
p3636
asbag57
(g78
g59
NtRp3637
(dp3638
g62
(dp3639
g89
g90
ssg71
g3628
sg64
(lp3640
S':'
asbag57
(g78
g59
NtRp3641
(dp3642
g62
(dp3643
sg71
g3628
sg64
(lp3644
g57
(g58
g59
NtRp3645
(dp3646
g62
(dp3647
g70
I3
ssg71
g3641
sg64
(lp3648
S'<cStringIO.StringO object at 0x7f6a486cc340>'
p3649
asbasbasbag57
(g73
g59
NtRp3650
(dp3651
g62
(dp3652
sg71
g3202
sg64
(lp3653
g57
(g78
g59
NtRp3654
(dp3655
g62
(dp3656
g82
g83
ssg71
g3650
sg64
(lp3657
S'wsgi.multiprocess'
p3658
asbag57
(g78
g59
NtRp3659
(dp3660
g62
(dp3661
g89
g90
ssg71
g3650
sg64
(lp3662
S':'
asbag57
(g78
g59
NtRp3663
(dp3664
g62
(dp3665
sg71
g3650
sg64
(lp3666
g57
(g58
g59
NtRp3667
(dp3668
g62
(dp3669
g70
I3
ssg71
g3663
sg64
(lp3670
g100
asbasbasbag57
(g73
g59
NtRp3671
(dp3672
g62
(dp3673
sg71
g3202
sg64
(lp3674
g57
(g78
g59
NtRp3675
(dp3676
g62
(dp3677
g82
g83
ssg71
g3671
sg64
(lp3678
S'wsgi.multithread'
p3679
asbag57
(g78
g59
NtRp3680
(dp3681
g62
(dp3682
g89
g90
ssg71
g3671
sg64
(lp3683
S':'
asbag57
(g78
g59
NtRp3684
(dp3685
g62
(dp3686
sg71
g3671
sg64
(lp3687
g57
(g58
g59
NtRp3688
(dp3689
g62
(dp3690
g70
I3
ssg71
g3684
sg64
(lp3691
g2306
asbasbasbag57
(g73
g59
NtRp3692
(dp3693
g62
(dp3694
sg71
g3202
sg64
(lp3695
g57
(g78
g59
NtRp3696
(dp3697
g62
(dp3698
g82
g83
ssg71
g3692
sg64
(lp3699
S'wsgi.run_once'
p3700
asbag57
(g78
g59
NtRp3701
(dp3702
g62
(dp3703
g89
g90
ssg71
g3692
sg64
(lp3704
S':'
asbag57
(g78
g59
NtRp3705
(dp3706
g62
(dp3707
sg71
g3692
sg64
(lp3708
g57
(g58
g59
NtRp3709
(dp3710
g62
(dp3711
g70
I3
ssg71
g3705
sg64
(lp3712
g100
asbasbasbag57
(g73
g59
NtRp3713
(dp3714
g62
(dp3715
sg71
g3202
sg64
(lp3716
g57
(g78
g59
NtRp3717
(dp3718
g62
(dp3719
g82
g83
ssg71
g3713
sg64
(lp3720
S'wsgi.url_scheme'
p3721
asbag57
(g78
g59
NtRp3722
(dp3723
g62
(dp3724
g89
g90
ssg71
g3713
sg64
(lp3725
S':'
asbag57
(g78
g59
NtRp3726
(dp3727
g62
(dp3728
sg71
g3713
sg64
(lp3729
g57
(g58
g59
NtRp3730
(dp3731
g62
(dp3732
g70
I3
ssg71
g3726
sg64
(lp3733
g2349
asbasbasbag57
(g73
g59
NtRp3734
(dp3735
g62
(dp3736
sg71
g3202
sg64
(lp3737
g57
(g78
g59
NtRp3738
(dp3739
g62
(dp3740
g82
g83
ssg71
g3734
sg64
(lp3741
S'wsgi.version'
p3742
asbag57
(g78
g59
NtRp3743
(dp3744
g62
(dp3745
g89
g90
ssg71
g3734
sg64
(lp3746
S':'
asbag57
(g78
g59
NtRp3747
(dp3748
g62
(dp3749
sg71
g3734
sg64
(lp3750
g57
(g58
g59
NtRp3751
(dp3752
g62
(dp3753
g70
I3
ssg71
g3747
sg64
(lp3754
S'1'
asbasbasbasbasbasbasbasbasbasbasbasbasbsS'frames'
p3755
(lp3756
(dp3757
S'file'
p3758
S'/home/bhanu/web2py/gluon/restricted.py'
p3759
sS'dump'
p3760
(dp3761
S'environment'
p3762
S"{'A': <class 'gluon.html.A'>, 'Auth': <class 'gluon.tools.Auth'>, 'B': <class 'gluon.html.B'>, 'BEAUTIFY': <class 'gluon.html.BEAUTIFY'>, 'BODY': <class 'gluon.html.BODY'>, 'BR': <class 'gluon.html.BR'>, 'BUTTON': <class 'gluon.html.BUTTON'>, 'CAS': <Storage {'check_url': 'https://login.iiit.ac.in...': 'http://127.0.0.1:8000/hostel/default/login'}>, 'CAT': <class 'gluon.html.CAT'>, 'CENTER': <class 'gluon.html.CENTER'>, ...}"
p3763
sS'ccode'
p3764
S'<code object <module> at 0x7f6a542c3cb0, file "/...lications/hostel/controllers/default.py", line 4>'
p3765
ssS'lnum'
p3766
I212
sS'lines'
p3767
(dp3768
I207
S'    try:'
p3769
sI208
S'        if isinstance(code, types.CodeType):'
p3770
sI209
S'            ccode = code'
p3771
sI210
S'        else:'
p3772
sI211
S'            ccode = compile2(code, layer)'
p3773
sI212
S'        exec ccode in environment'
p3774
sI213
S'    except HTTP:'
p3775
sI214
S'        raise'
p3776
sI215
S'    except RestrictedError:'
p3777
sI216
S'        # do not encapsulate (obfuscate) the original RestrictedError'
p3778
ssS'call'
p3779
S"(code='# -*- coding: utf-8 -*-\\n### required - do no del...e=table)\\n\\nresponse._vars=response._caller(login)\\n', environment={'A': <class 'gluon.html.A'>, 'Auth': <class 'gluon.tools.Auth'>, 'B': <class 'gluon.html.B'>, 'BEAUTIFY': <class 'gluon.html.BEAUTIFY'>, 'BODY': <class 'gluon.html.BODY'>, 'BR': <class 'gluon.html.BR'>, 'BUTTON': <class 'gluon.html.BUTTON'>, 'CAS': <Storage {'check_url': 'https://login.iiit.ac.in...': 'http://127.0.0.1:8000/hostel/default/login'}>, 'CAT': <class 'gluon.html.CAT'>, 'CENTER': <class 'gluon.html.CENTER'>, ...}, layer='/home/bhanu/web2py/applications/hostel/controllers/default.py')"
p3780
sS'func'
p3781
S'restricted'
p3782
sa(dp3783
g3758
S'/home/bhanu/web2py/applications/hostel/controllers/default.py'
p3784
sg3760
(dp3785
sg3766
I888
sg3767
(dp3786
I877
S"                txt = 'Page %s of %s' % (self.page_no(), self.alias_nb_pages())"
p3787
sI878
S"                self.cell(0,10,txt,0,0,'C')"
p3788
sI879
S''
sI880
S'        pdf=MyFPDF()'
p3789
sI881
S'        pdf.add_page()'
p3790
sI882
S'        pdf.write_html(str(XML(table, sanitize=True)))'
p3791
sI883
S"        response.headers['Content-Type']='application/pdf'"
p3792
sI884
S"        return pdf.output(dest='S')"
p3793
sI885
S'    else:'
p3794
sI886
S'        return dict(table=table)'
p3795
ssg3779
S'()'
p3796
sg3781
S'<module>'
p3797
sa(dp3798
g3758
S'/home/bhanu/web2py/gluon/globals.py'
p3799
sg3760
(dp3800
S'self'
p3801
S'undefined'
p3802
sS'f'
S'<function login>'
p3803
ssg3766
I188
sg3767
(dp3804
I192
S''
sI183
S'        self.menu = []             # used by the default view layout'
p3805
sI184
S'        self.files = []            # used by web2py_ajax.html'
p3806
sI185
S'        self.generic_patterns = []  # patterns to allow generic views'
p3807
sI186
S"        self.delimiters = ('{{', '}}')"
p3808
sI187
S'        self._vars = None'
p3809
sI188
S'        self._caller = lambda f: f()'
p3810
sI189
S'        self._view_environment = None'
p3811
sI190
S'        self._custom_commit = None'
p3812
sI191
S'        self._custom_rollback = None'
p3813
ssg3779
S'(f=<function login>)'
p3814
sg3781
S'<lambda>'
p3815
sa(dp3816
g3758
S'/home/bhanu/web2py/applications/hostel/controllers/default.py'
p3817
sg3760
(dp3818
S'session.name'
p3819
S"''"
p3820
sS'global session'
p3821
S"<Storage {'_formkey[admin/create]': '97c5a661-86...298dfc5683d963dafc76b0', 'roll_no': '201102019'}>"
p3822
sS'name'
p3823
S'<Rows (0)>'
p3824
sS'].name'
p3825
g3802
ssg3766
I29
sg3767
(dp3826
I32
S'    print session.room'
p3827
sI33
S'    session.hs=name[0].hostel'
p3828
sI24
S'#login with cas'
p3829
sI25
S'def login():'
p3830
sI26
S'    session.login = 0'
p3831
sI27
S'    session.token = CAS.login(request)'
p3832
sI28
S'    name=db(db.students.email==str(session.token)).select(db.students.ALL);'
p3833
sI29
S'    session.name=name[0].name'
p3834
sI30
S'    session.roll_no=name[0].roll_no'
p3835
sI31
S'    session.room=name[0].room_no'
p3836
ssg3779
S'()'
p3837
sg3781
S'login'
p3838
sa(dp3839
g3758
S'/home/bhanu/web2py/gluon/dal.py'
p3840
sg3760
(dp3841
S'i'
S'0'
sS'self'
p3842
S'<Rows (0)>'
p3843
sS'self.records'
p3844
S'[]'
p3845
sS'row'
p3846
g3802
ssg3766
I9051
sg3767
(dp3847
I9046
S''
sI9047
S'    def __getslice__(self, a, b):'
p3848
sI9048
S'        return Rows(self.db,self.records[a:b],self.colnames)'
p3849
sI9049
S''
sI9050
S'    def __getitem__(self, i):'
p3850
sI9051
S'        row = self.records[i]'
p3851
sI9052
S'        keys = row.keys()'
p3852
sI9053
S"        if self.compact and len(keys) == 1 and keys[0] != '_extra':"
p3853
sI9054
S'            return row[row.keys()[0]]'
p3854
sI9055
S'        return row'
p3855
ssg3779
S'(self=<Rows (0)>, i=0)'
p3856
sg3781
g20
sasS'pyver'
p3857
S'Python 2.7.3: /usr/bin/python'
p3858
sS'session'
p3859
g57
(g58
g59
NtRp3860
(dp3861
g62
(dp3862
sg64
(lp3863
g57
(g66
g59
NtRp3864
(dp3865
g62
(dp3866
g70
I5
ssg71
Nsg64
(lp3867
g57
(g73
g59
NtRp3868
(dp3869
g62
(dp3870
sg71
g3864
sg64
(lp3871
g57
(g78
g59
NtRp3872
(dp3873
g62
(dp3874
g82
g83
ssg71
g3868
sg64
(lp3875
S'email'
p3876
asbag57
(g78
g59
NtRp3877
(dp3878
g62
(dp3879
g89
g90
ssg71
g3868
sg64
(lp3880
S':'
asbag57
(g78
g59
NtRp3881
(dp3882
g62
(dp3883
sg71
g3868
sg64
(lp3884
g57
(g58
g59
NtRp3885
(dp3886
g62
(dp3887
g70
I5
ssg71
g3881
sg64
(lp3888
S'krishnateja.yadavalli'
p3889
asbasbasbag57
(g73
g59
NtRp3890
(dp3891
g62
(dp3892
sg71
g3864
sg64
(lp3893
g57
(g78
g59
NtRp3894
(dp3895
g62
(dp3896
g82
g83
ssg71
g3890
sg64
(lp3897
S'flash'
p3898
asbag57
(g78
g59
NtRp3899
(dp3900
g62
(dp3901
g89
g90
ssg71
g3890
sg64
(lp3902
S':'
asbag57
(g78
g59
NtRp3903
(dp3904
g62
(dp3905
sg71
g3890
sg64
(lp3906
g57
(g58
g59
NtRp3907
(dp3908
g62
(dp3909
g70
I5
ssg71
g3903
sg64
(lp3910
S''
asbasbasbag57
(g73
g59
NtRp3911
(dp3912
g62
(dp3913
sg71
g3864
sg64
(lp3914
g57
(g78
g59
NtRp3915
(dp3916
g62
(dp3917
g82
g83
ssg71
g3911
sg64
(lp3918
S'hs'
p3919
asbag57
(g78
g59
NtRp3920
(dp3921
g62
(dp3922
g89
g90
ssg71
g3911
sg64
(lp3923
S':'
asbag57
(g78
g59
NtRp3924
(dp3925
g62
(dp3926
sg71
g3911
sg64
(lp3927
g57
(g58
g59
NtRp3928
(dp3929
g62
(dp3930
g70
I5
ssg71
g3924
sg64
(lp3931
S'OBH'
p3932
asbasbasbag57
(g73
g59
NtRp3933
(dp3934
g62
(dp3935
sg71
g3864
sg64
(lp3936
g57
(g78
g59
NtRp3937
(dp3938
g62
(dp3939
g82
g83
ssg71
g3933
sg64
(lp3940
S'last_orderby'
p3941
asbag57
(g78
g59
NtRp3942
(dp3943
g62
(dp3944
g89
g90
ssg71
g3933
sg64
(lp3945
S':'
asbag57
(g78
g59
NtRp3946
(dp3947
g62
(dp3948
sg71
g3933
sg64
(lp3949
g57
(g58
g59
NtRp3950
(dp3951
g62
(dp3952
g70
I5
ssg71
g3946
sg64
(lp3953
S'None'
p3954
asbasbasbag57
(g73
g59
NtRp3955
(dp3956
g62
(dp3957
sg71
g3864
sg64
(lp3958
g57
(g78
g59
NtRp3959
(dp3960
g62
(dp3961
g82
g83
ssg71
g3955
sg64
(lp3962
S'last_query'
p3963
asbag57
(g78
g59
NtRp3964
(dp3965
g62
(dp3966
g89
g90
ssg71
g3955
sg64
(lp3967
S':'
asbag57
(g78
g59
NtRp3968
(dp3969
g62
(dp3970
sg71
g3955
sg64
(lp3971
g57
(g58
g59
NtRp3972
(dp3973
g62
(dp3974
g70
I5
ssg71
g3968
sg64
(lp3975
S'db.admin.id>0'
p3976
asbasbasbag57
(g73
g59
NtRp3977
(dp3978
g62
(dp3979
sg71
g3864
sg64
(lp3980
g57
(g78
g59
NtRp3981
(dp3982
g62
(dp3983
g82
g83
ssg71
g3977
sg64
(lp3984
S'login'
p3985
asbag57
(g78
g59
NtRp3986
(dp3987
g62
(dp3988
g89
g90
ssg71
g3977
sg64
(lp3989
S':'
asbag57
(g78
g59
NtRp3990
(dp3991
g62
(dp3992
sg71
g3977
sg64
(lp3993
g57
(g58
g59
NtRp3994
(dp3995
g62
(dp3996
g70
I5
ssg71
g3990
sg64
(lp3997
S'0'
asbasbasbag57
(g73
g59
NtRp3998
(dp3999
g62
(dp4000
sg71
g3864
sg64
(lp4001
g57
(g78
g59
NtRp4002
(dp4003
g62
(dp4004
g82
g83
ssg71
g3998
sg64
(lp4005
S'name'
p4006
asbag57
(g78
g59
NtRp4007
(dp4008
g62
(dp4009
g89
g90
ssg71
g3998
sg64
(lp4010
S':'
asbag57
(g78
g59
NtRp4011
(dp4012
g62
(dp4013
sg71
g3998
sg64
(lp4014
g57
(g58
g59
NtRp4015
(dp4016
g62
(dp4017
g70
I5
ssg71
g4011
sg64
(lp4018
S''
asbasbasbag57
(g73
g59
NtRp4019
(dp4020
g62
(dp4021
sg71
g3864
sg64
(lp4022
g57
(g78
g59
NtRp4023
(dp4024
g62
(dp4025
g82
g83
ssg71
g4019
sg64
(lp4026
S'pdf1'
p4027
asbag57
(g78
g59
NtRp4028
(dp4029
g62
(dp4030
g89
g90
ssg71
g4019
sg64
(lp4031
S':'
asbag57
(g78
g59
NtRp4032
(dp4033
g62
(dp4034
sg71
g4019
sg64
(lp4035
g57
(g58
g59
NtRp4036
(dp4037
g62
(dp4038
g70
I5
ssg71
g4032
sg64
(lp4039
S'0'
asbasbasbag57
(g73
g59
NtRp4040
(dp4041
g62
(dp4042
sg71
g3864
sg64
(lp4043
g57
(g78
g59
NtRp4044
(dp4045
g62
(dp4046
g82
g83
ssg71
g4040
sg64
(lp4047
S'place'
p4048
asbag57
(g78
g59
NtRp4049
(dp4050
g62
(dp4051
g89
g90
ssg71
g4040
sg64
(lp4052
S':'
asbag57
(g78
g59
NtRp4053
(dp4054
g62
(dp4055
sg71
g4040
sg64
(lp4056
g57
(g58
g59
NtRp4057
(dp4058
g62
(dp4059
g70
I5
ssg71
g4053
sg64
(lp4060
S'All'
p4061
asbasbasbag57
(g73
g59
NtRp4062
(dp4063
g62
(dp4064
sg71
g3864
sg64
(lp4065
g57
(g78
g59
NtRp4066
(dp4067
g62
(dp4068
g82
g83
ssg71
g4062
sg64
(lp4069
S'roll_no'
p4070
asbag57
(g78
g59
NtRp4071
(dp4072
g62
(dp4073
g89
g90
ssg71
g4062
sg64
(lp4074
S':'
asbag57
(g78
g59
NtRp4075
(dp4076
g62
(dp4077
sg71
g4062
sg64
(lp4078
g57
(g58
g59
NtRp4079
(dp4080
g62
(dp4081
g70
I5
ssg71
g4075
sg64
(lp4082
S'201102019'
p4083
asbasbasbag57
(g73
g59
NtRp4084
(dp4085
g62
(dp4086
sg71
g3864
sg64
(lp4087
g57
(g78
g59
NtRp4088
(dp4089
g62
(dp4090
g82
g83
ssg71
g4084
sg64
(lp4091
S'room'
p4092
asbag57
(g78
g59
NtRp4093
(dp4094
g62
(dp4095
g89
g90
ssg71
g4084
sg64
(lp4096
S':'
asbag57
(g78
g59
NtRp4097
(dp4098
g62
(dp4099
sg71
g4084
sg64
(lp4100
g57
(g58
g59
NtRp4101
(dp4102
g62
(dp4103
g70
I5
ssg71
g4097
sg64
(lp4104
S'201'
p4105
asbasbasbag57
(g73
g59
NtRp4106
(dp4107
g62
(dp4108
sg71
g3864
sg64
(lp4109
g57
(g78
g59
NtRp4110
(dp4111
g62
(dp4112
g82
g83
ssg71
g4106
sg64
(lp4113
S'token'
p4114
asbag57
(g78
g59
NtRp4115
(dp4116
g62
(dp4117
g89
g90
ssg71
g4106
sg64
(lp4118
S':'
asbag57
(g78
g59
NtRp4119
(dp4120
g62
(dp4121
sg71
g4106
sg64
(lp4122
g57
(g58
g59
NtRp4123
(dp4124
g62
(dp4125
g70
I5
ssg71
g4119
sg64
(lp4126
S'yaramaneniravi.teja@students.iiit.ac.in'
p4127
asbasbasbasbasbsS'etype'
p4128
S"<type 'exceptions.IndexError'>"
p4129
sS'date'
p4130
S'Fri Nov 16 12:32:40 2012'
p4131
sS'response'
p4132
g57
(g58
g59
NtRp4133
(dp4134
g62
(dp4135
sg64
(lp4136
g57
(g66
g59
NtRp4137
(dp4138
g62
(dp4139
g70
I5
ssg71
Nsg64
(lp4140
g57
(g73
g59
NtRp4141
(dp4142
g62
(dp4143
sg71
g4137
sg64
(lp4144
g57
(g78
g59
NtRp4145
(dp4146
g62
(dp4147
g82
g83
ssg71
g4141
sg64
(lp4148
S'admin'
p4149
asbag57
(g78
g59
NtRp4150
(dp4151
g62
(dp4152
g89
g90
ssg71
g4141
sg64
(lp4153
S':'
asbag57
(g78
g59
NtRp4154
(dp4155
g62
(dp4156
sg71
g4141
sg64
(lp4157
g57
(g58
g59
NtRp4158
(dp4159
g62
(dp4160
g70
I5
ssg71
g4154
sg64
(lp4161
g57
(g66
g59
NtRp4162
(dp4163
g62
(dp4164
g70
I4
ssg71
Nsg64
(lp4165
g57
(g73
g59
NtRp4166
(dp4167
g62
(dp4168
sg71
g4162
sg64
(lp4169
g57
(g78
g59
NtRp4170
(dp4171
g62
(dp4172
sg71
g4166
sg64
(lp4173
g57
(g58
g59
NtRp4174
(dp4175
g62
(dp4176
g70
I4
ssg71
g4170
sg64
(lp4177
g57
(g66
g59
NtRp4178
(dp4179
g62
(dp4180
g70
I3
ssg71
Nsg64
(lp4181
g57
(g73
g59
NtRp4182
(dp4183
g62
(dp4184
sg71
g4178
sg64
(lp4185
g57
(g78
g59
NtRp4186
(dp4187
g62
(dp4188
sg71
g4182
sg64
(lp4189
g57
(g58
g59
NtRp4190
(dp4191
g62
(dp4192
g70
I3
ssg71
g4186
sg64
(lp4193
cgluon.languages
lazyT_unpickle
p4194
(S't\x04\x00\x00\x00HOME'
tRp4195
asbasbasbag57
(g73
g59
NtRp4196
(dp4197
g62
(dp4198
sg71
g4178
sg64
(lp4199
g57
(g78
g59
NtRp4200
(dp4201
g62
(dp4202
sg71
g4196
sg64
(lp4203
g57
(g58
g59
NtRp4204
(dp4205
g62
(dp4206
g70
I3
ssg71
g4200
sg64
(lp4207
g100
asbasbasbag57
(g73
g59
NtRp4208
(dp4209
g62
(dp4210
sg71
g4178
sg64
(lp4211
g57
(g78
g59
NtRp4212
(dp4213
g62
(dp4214
sg71
g4208
sg64
(lp4215
g57
(g58
g59
NtRp4216
(dp4217
g62
(dp4218
g70
I3
ssg71
g4212
sg64
(lp4219
S'/hostel/default/index'
p4220
asbasbasbag57
(g73
g59
NtRp4221
(dp4222
g62
(dp4223
sg71
g4178
sg64
(lp4224
g57
(g78
g59
NtRp4225
(dp4226
g62
(dp4227
sg71
g4221
sg64
(lp4228
g57
(g58
g59
NtRp4229
(dp4230
g62
(dp4231
g70
I3
ssg71
g4225
sg64
(lp4232
g57
(g66
g59
NtRp4233
(dp4234
g62
(dp4235
g70
I2
ssg71
Nsg64
(lp4236
sbasbasbasbasbasbasbasbag57
(g73
g59
NtRp4237
(dp4238
g62
(dp4239
sg71
g4162
sg64
(lp4240
g57
(g78
g59
NtRp4241
(dp4242
g62
(dp4243
sg71
g4237
sg64
(lp4244
g57
(g58
g59
NtRp4245
(dp4246
g62
(dp4247
g70
I4
ssg71
g4241
sg64
(lp4248
g57
(g66
g59
NtRp4249
(dp4250
g62
(dp4251
g70
I3
ssg71
Nsg64
(lp4252
g57
(g73
g59
NtRp4253
(dp4254
g62
(dp4255
sg71
g4249
sg64
(lp4256
g57
(g78
g59
NtRp4257
(dp4258
g62
(dp4259
sg71
g4253
sg64
(lp4260
g57
(g58
g59
NtRp4261
(dp4262
g62
(dp4263
g70
I3
ssg71
g4257
sg64
(lp4264
g4194
(S's\x0f\x00\x00\x00View Complaints'
tRp4265
asbasbasbag57
(g73
g59
NtRp4266
(dp4267
g62
(dp4268
sg71
g4249
sg64
(lp4269
g57
(g78
g59
NtRp4270
(dp4271
g62
(dp4272
sg71
g4266
sg64
(lp4273
g57
(g58
g59
NtRp4274
(dp4275
g62
(dp4276
g70
I3
ssg71
g4270
sg64
(lp4277
g100
asbasbasbag57
(g73
g59
NtRp4278
(dp4279
g62
(dp4280
sg71
g4249
sg64
(lp4281
g57
(g78
g59
NtRp4282
(dp4283
g62
(dp4284
sg71
g4278
sg64
(lp4285
g57
(g58
g59
NtRp4286
(dp4287
g62
(dp4288
g70
I3
ssg71
g4282
sg64
(lp4289
S'/hostel/default/vcomplaint'
p4290
asbasbasbag57
(g73
g59
NtRp4291
(dp4292
g62
(dp4293
sg71
g4249
sg64
(lp4294
g57
(g78
g59
NtRp4295
(dp4296
g62
(dp4297
sg71
g4291
sg64
(lp4298
g57
(g58
g59
NtRp4299
(dp4300
g62
(dp4301
g70
I3
ssg71
g4295
sg64
(lp4302
g57
(g66
g59
NtRp4303
(dp4304
g62
(dp4305
g70
I2
ssg71
Nsg64
(lp4306
sbasbasbasbasbasbasbasbag57
(g73
g59
NtRp4307
(dp4308
g62
(dp4309
sg71
g4162
sg64
(lp4310
g57
(g78
g59
NtRp4311
(dp4312
g62
(dp4313
sg71
g4307
sg64
(lp4314
g57
(g58
g59
NtRp4315
(dp4316
g62
(dp4317
g70
I4
ssg71
g4311
sg64
(lp4318
g57
(g66
g59
NtRp4319
(dp4320
g62
(dp4321
g70
I3
ssg71
Nsg64
(lp4322
g57
(g73
g59
NtRp4323
(dp4324
g62
(dp4325
sg71
g4319
sg64
(lp4326
g57
(g78
g59
NtRp4327
(dp4328
g62
(dp4329
sg71
g4323
sg64
(lp4330
g57
(g58
g59
NtRp4331
(dp4332
g62
(dp4333
g70
I3
ssg71
g4327
sg64
(lp4334
g4194
(S's\x0c\x00\x00\x00Room Vacancy'
tRp4335
asbasbasbag57
(g73
g59
NtRp4336
(dp4337
g62
(dp4338
sg71
g4319
sg64
(lp4339
g57
(g78
g59
NtRp4340
(dp4341
g62
(dp4342
sg71
g4336
sg64
(lp4343
g57
(g58
g59
NtRp4344
(dp4345
g62
(dp4346
g70
I3
ssg71
g4340
sg64
(lp4347
g100
asbasbasbag57
(g73
g59
NtRp4348
(dp4349
g62
(dp4350
sg71
g4319
sg64
(lp4351
g57
(g78
g59
NtRp4352
(dp4353
g62
(dp4354
sg71
g4348
sg64
(lp4355
g57
(g58
g59
NtRp4356
(dp4357
g62
(dp4358
g70
I3
ssg71
g4352
sg64
(lp4359
S'/hostel/default/vacant_rooms'
p4360
asbasbasbag57
(g73
g59
NtRp4361
(dp4362
g62
(dp4363
sg71
g4319
sg64
(lp4364
g57
(g78
g59
NtRp4365
(dp4366
g62
(dp4367
sg71
g4361
sg64
(lp4368
g57
(g58
g59
NtRp4369
(dp4370
g62
(dp4371
g70
I3
ssg71
g4365
sg64
(lp4372
g57
(g66
g59
NtRp4373
(dp4374
g62
(dp4375
g70
I2
ssg71
Nsg64
(lp4376
sbasbasbasbasbasbasbasbag57
(g73
g59
NtRp4377
(dp4378
g62
(dp4379
sg71
g4162
sg64
(lp4380
g57
(g78
g59
NtRp4381
(dp4382
g62
(dp4383
sg71
g4377
sg64
(lp4384
g57
(g58
g59
NtRp4385
(dp4386
g62
(dp4387
g70
I4
ssg71
g4381
sg64
(lp4388
g57
(g66
g59
NtRp4389
(dp4390
g62
(dp4391
g70
I3
ssg71
Nsg64
(lp4392
g57
(g73
g59
NtRp4393
(dp4394
g62
(dp4395
sg71
g4389
sg64
(lp4396
g57
(g78
g59
NtRp4397
(dp4398
g62
(dp4399
sg71
g4393
sg64
(lp4400
g57
(g58
g59
NtRp4401
(dp4402
g62
(dp4403
g70
I3
ssg71
g4397
sg64
(lp4404
g4194
(S's\n\x00\x00\x00Edit Rules'
tRp4405
asbasbasbag57
(g73
g59
NtRp4406
(dp4407
g62
(dp4408
sg71
g4389
sg64
(lp4409
g57
(g78
g59
NtRp4410
(dp4411
g62
(dp4412
sg71
g4406
sg64
(lp4413
g57
(g58
g59
NtRp4414
(dp4415
g62
(dp4416
g70
I3
ssg71
g4410
sg64
(lp4417
g100
asbasbasbag57
(g73
g59
NtRp4418
(dp4419
g62
(dp4420
sg71
g4389
sg64
(lp4421
g57
(g78
g59
NtRp4422
(dp4423
g62
(dp4424
sg71
g4418
sg64
(lp4425
g57
(g58
g59
NtRp4426
(dp4427
g62
(dp4428
g70
I3
ssg71
g4422
sg64
(lp4429
S'/hostel/default/rules'
p4430
asbasbasbag57
(g73
g59
NtRp4431
(dp4432
g62
(dp4433
sg71
g4389
sg64
(lp4434
g57
(g78
g59
NtRp4435
(dp4436
g62
(dp4437
sg71
g4431
sg64
(lp4438
g57
(g58
g59
NtRp4439
(dp4440
g62
(dp4441
g70
I3
ssg71
g4435
sg64
(lp4442
g57
(g66
g59
NtRp4443
(dp4444
g62
(dp4445
g70
I2
ssg71
Nsg64
(lp4446
sbasbasbasbasbasbasbasbag57
(g73
g59
NtRp4447
(dp4448
g62
(dp4449
sg71
g4162
sg64
(lp4450
g57
(g78
g59
NtRp4451
(dp4452
g62
(dp4453
sg71
g4447
sg64
(lp4454
g57
(g58
g59
NtRp4455
(dp4456
g62
(dp4457
g70
I4
ssg71
g4451
sg64
(lp4458
g57
(g66
g59
NtRp4459
(dp4460
g62
(dp4461
g70
I3
ssg71
Nsg64
(lp4462
g57
(g73
g59
NtRp4463
(dp4464
g62
(dp4465
sg71
g4459
sg64
(lp4466
g57
(g78
g59
NtRp4467
(dp4468
g62
(dp4469
sg71
g4463
sg64
(lp4470
g57
(g58
g59
NtRp4471
(dp4472
g62
(dp4473
g70
I3
ssg71
g4467
sg64
(lp4474
g4194
(S's\x14\x00\x00\x00Edit Doctor Details '
tRp4475
asbasbasbag57
(g73
g59
NtRp4476
(dp4477
g62
(dp4478
sg71
g4459
sg64
(lp4479
g57
(g78
g59
NtRp4480
(dp4481
g62
(dp4482
sg71
g4476
sg64
(lp4483
g57
(g58
g59
NtRp4484
(dp4485
g62
(dp4486
g70
I3
ssg71
g4480
sg64
(lp4487
g100
asbasbasbag57
(g73
g59
NtRp4488
(dp4489
g62
(dp4490
sg71
g4459
sg64
(lp4491
g57
(g78
g59
NtRp4492
(dp4493
g62
(dp4494
sg71
g4488
sg64
(lp4495
g57
(g58
g59
NtRp4496
(dp4497
g62
(dp4498
g70
I3
ssg71
g4492
sg64
(lp4499
S'/hostel/default/amedreq'
p4500
asbasbasbag57
(g73
g59
NtRp4501
(dp4502
g62
(dp4503
sg71
g4459
sg64
(lp4504
g57
(g78
g59
NtRp4505
(dp4506
g62
(dp4507
sg71
g4501
sg64
(lp4508
g57
(g58
g59
NtRp4509
(dp4510
g62
(dp4511
g70
I3
ssg71
g4505
sg64
(lp4512
g57
(g66
g59
NtRp4513
(dp4514
g62
(dp4515
g70
I2
ssg71
Nsg64
(lp4516
sbasbasbasbasbasbasbasbasbasbasbasbag57
(g73
g59
NtRp4517
(dp4518
g62
(dp4519
sg71
g4137
sg64
(lp4520
g57
(g78
g59
NtRp4521
(dp4522
g62
(dp4523
g82
g83
ssg71
g4517
sg64
(lp4524
g155
asbag57
(g78
g59
NtRp4525
(dp4526
g62
(dp4527
g89
g90
ssg71
g4517
sg64
(lp4528
S':'
asbag57
(g78
g59
NtRp4529
(dp4530
g62
(dp4531
sg71
g4517
sg64
(lp4532
g57
(g58
g59
NtRp4533
(dp4534
g62
(dp4535
g70
I5
ssg71
g4529
sg64
(lp4536
S'<cStringIO.StringO object at 0x7f6a486ccab0>'
p4537
asbasbasbag57
(g73
g59
NtRp4538
(dp4539
g62
(dp4540
sg71
g4137
sg64
(lp4541
g57
(g78
g59
NtRp4542
(dp4543
g62
(dp4544
g82
g83
ssg71
g4538
sg64
(lp4545
S'change_rooms'
p4546
asbag57
(g78
g59
NtRp4547
(dp4548
g62
(dp4549
g89
g90
ssg71
g4538
sg64
(lp4550
S':'
asbag57
(g78
g59
NtRp4551
(dp4552
g62
(dp4553
sg71
g4538
sg64
(lp4554
g57
(g58
g59
NtRp4555
(dp4556
g62
(dp4557
g70
I5
ssg71
g4551
sg64
(lp4558
g57
(g66
g59
NtRp4559
(dp4560
g62
(dp4561
g70
I4
ssg71
Nsg64
(lp4562
g57
(g73
g59
NtRp4563
(dp4564
g62
(dp4565
sg71
g4559
sg64
(lp4566
g57
(g78
g59
NtRp4567
(dp4568
g62
(dp4569
sg71
g4563
sg64
(lp4570
g57
(g58
g59
NtRp4571
(dp4572
g62
(dp4573
g70
I4
ssg71
g4567
sg64
(lp4574
g57
(g66
g59
NtRp4575
(dp4576
g62
(dp4577
g70
I3
ssg71
Nsg64
(lp4578
g57
(g73
g59
NtRp4579
(dp4580
g62
(dp4581
sg71
g4575
sg64
(lp4582
g57
(g78
g59
NtRp4583
(dp4584
g62
(dp4585
sg71
g4579
sg64
(lp4586
g57
(g58
g59
NtRp4587
(dp4588
g62
(dp4589
g70
I3
ssg71
g4583
sg64
(lp4590
g4335
asbasbasbag57
(g73
g59
NtRp4591
(dp4592
g62
(dp4593
sg71
g4575
sg64
(lp4594
g57
(g78
g59
NtRp4595
(dp4596
g62
(dp4597
sg71
g4591
sg64
(lp4598
g57
(g58
g59
NtRp4599
(dp4600
g62
(dp4601
g70
I3
ssg71
g4595
sg64
(lp4602
g100
asbasbasbag57
(g73
g59
NtRp4603
(dp4604
g62
(dp4605
sg71
g4575
sg64
(lp4606
g57
(g78
g59
NtRp4607
(dp4608
g62
(dp4609
sg71
g4603
sg64
(lp4610
g57
(g58
g59
NtRp4611
(dp4612
g62
(dp4613
g70
I3
ssg71
g4607
sg64
(lp4614
g4360
asbasbasbag57
(g73
g59
NtRp4615
(dp4616
g62
(dp4617
sg71
g4575
sg64
(lp4618
g57
(g78
g59
NtRp4619
(dp4620
g62
(dp4621
sg71
g4615
sg64
(lp4622
g57
(g58
g59
NtRp4623
(dp4624
g62
(dp4625
g70
I3
ssg71
g4619
sg64
(lp4626
g57
(g66
g59
NtRp4627
(dp4628
g62
(dp4629
g70
I2
ssg71
Nsg64
(lp4630
sbasbasbasbasbasbasbasbasbasbasbasbag57
(g73
g59
NtRp4631
(dp4632
g62
(dp4633
sg71
g4137
sg64
(lp4634
g57
(g78
g59
NtRp4635
(dp4636
g62
(dp4637
g82
g83
ssg71
g4631
sg64
(lp4638
S'complaint'
p4639
asbag57
(g78
g59
NtRp4640
(dp4641
g62
(dp4642
g89
g90
ssg71
g4631
sg64
(lp4643
S':'
asbag57
(g78
g59
NtRp4644
(dp4645
g62
(dp4646
sg71
g4631
sg64
(lp4647
g57
(g58
g59
NtRp4648
(dp4649
g62
(dp4650
g70
I5
ssg71
g4644
sg64
(lp4651
g57
(g66
g59
NtRp4652
(dp4653
g62
(dp4654
g70
I4
ssg71
Nsg64
(lp4655
g57
(g73
g59
NtRp4656
(dp4657
g62
(dp4658
sg71
g4652
sg64
(lp4659
g57
(g78
g59
NtRp4660
(dp4661
g62
(dp4662
sg71
g4656
sg64
(lp4663
g57
(g58
g59
NtRp4664
(dp4665
g62
(dp4666
g70
I4
ssg71
g4660
sg64
(lp4667
g57
(g66
g59
NtRp4668
(dp4669
g62
(dp4670
g70
I3
ssg71
Nsg64
(lp4671
g57
(g73
g59
NtRp4672
(dp4673
g62
(dp4674
sg71
g4668
sg64
(lp4675
g57
(g78
g59
NtRp4676
(dp4677
g62
(dp4678
sg71
g4672
sg64
(lp4679
g57
(g58
g59
NtRp4680
(dp4681
g62
(dp4682
g70
I3
ssg71
g4676
sg64
(lp4683
g4194
(S't\t\x00\x00\x00COMPLAINT'
tRp4684
asbasbasbag57
(g73
g59
NtRp4685
(dp4686
g62
(dp4687
sg71
g4668
sg64
(lp4688
g57
(g78
g59
NtRp4689
(dp4690
g62
(dp4691
sg71
g4685
sg64
(lp4692
g57
(g58
g59
NtRp4693
(dp4694
g62
(dp4695
g70
I3
ssg71
g4689
sg64
(lp4696
g100
asbasbasbag57
(g73
g59
NtRp4697
(dp4698
g62
(dp4699
sg71
g4668
sg64
(lp4700
g57
(g78
g59
NtRp4701
(dp4702
g62
(dp4703
sg71
g4697
sg64
(lp4704
g57
(g58
g59
NtRp4705
(dp4706
g62
(dp4707
g70
I3
ssg71
g4701
sg64
(lp4708
S'/hostel/default/complaint'
p4709
asbasbasbag57
(g73
g59
NtRp4710
(dp4711
g62
(dp4712
sg71
g4668
sg64
(lp4713
g57
(g78
g59
NtRp4714
(dp4715
g62
(dp4716
sg71
g4710
sg64
(lp4717
g57
(g58
g59
NtRp4718
(dp4719
g62
(dp4720
g70
I3
ssg71
g4714
sg64
(lp4721
g57
(g66
g59
NtRp4722
(dp4723
g62
(dp4724
g70
I2
ssg71
Nsg64
(lp4725
sbasbasbasbasbasbasbasbasbasbasbasbag57
(g73
g59
NtRp4726
(dp4727
g62
(dp4728
sg71
g4137
sg64
(lp4729
g57
(g78
g59
NtRp4730
(dp4731
g62
(dp4732
g82
g83
ssg71
g4726
sg64
(lp4733
g243
asbag57
(g78
g59
NtRp4734
(dp4735
g62
(dp4736
g89
g90
ssg71
g4726
sg64
(lp4737
S':'
asbag57
(g78
g59
NtRp4738
(dp4739
g62
(dp4740
sg71
g4726
sg64
(lp4741
g57
(g58
g59
NtRp4742
(dp4743
g62
(dp4744
g70
I5
ssg71
g4738
sg64
(lp4745
g57
(g66
g59
NtRp4746
(dp4747
g62
(dp4748
g70
I4
ssg71
Nsg64
(lp4749
g57
(g73
g59
NtRp4750
(dp4751
g62
(dp4752
sg71
g4746
sg64
(lp4753
g57
(g78
g59
NtRp4754
(dp4755
g62
(dp4756
g82
g83
ssg71
g4750
sg64
(lp4757
S'session_id_hostel'
p4758
asbag57
(g78
g59
NtRp4759
(dp4760
g62
(dp4761
g89
g90
ssg71
g4750
sg64
(lp4762
S':'
asbag57
(g78
g59
NtRp4763
(dp4764
g62
(dp4765
sg71
g4750
sg64
(lp4766
g57
(g58
g59
NtRp4767
(dp4768
g62
(dp4769
g70
I4
ssg71
g4763
sg64
(lp4770
g661
ag57
(g66
g59
NtRp4771
(dp4772
g62
(dp4773
g70
I3
ssg71
Nsg64
(lp4774
g57
(g73
g59
NtRp4775
(dp4776
g62
(dp4777
sg71
g4771
sg64
(lp4778
g57
(g78
g59
NtRp4779
(dp4780
g62
(dp4781
g82
g83
ssg71
g4775
sg64
(lp4782
g294
asbag57
(g78
g59
NtRp4783
(dp4784
g62
(dp4785
g89
g90
ssg71
g4775
sg64
(lp4786
S':'
asbag57
(g78
g59
NtRp4787
(dp4788
g62
(dp4789
sg71
g4775
sg64
(lp4790
g57
(g58
g59
NtRp4791
(dp4792
g62
(dp4793
g70
I3
ssg71
g4787
sg64
(lp4794
S''
asbasbasbag57
(g73
g59
NtRp4795
(dp4796
g62
(dp4797
sg71
g4771
sg64
(lp4798
g57
(g78
g59
NtRp4799
(dp4800
g62
(dp4801
g82
g83
ssg71
g4795
sg64
(lp4802
g315
asbag57
(g78
g59
NtRp4803
(dp4804
g62
(dp4805
g89
g90
ssg71
g4795
sg64
(lp4806
S':'
asbag57
(g78
g59
NtRp4807
(dp4808
g62
(dp4809
sg71
g4795
sg64
(lp4810
g57
(g58
g59
NtRp4811
(dp4812
g62
(dp4813
g70
I3
ssg71
g4807
sg64
(lp4814
S''
asbasbasbag57
(g73
g59
NtRp4815
(dp4816
g62
(dp4817
sg71
g4771
sg64
(lp4818
g57
(g78
g59
NtRp4819
(dp4820
g62
(dp4821
g82
g83
ssg71
g4815
sg64
(lp4822
g336
asbag57
(g78
g59
NtRp4823
(dp4824
g62
(dp4825
g89
g90
ssg71
g4815
sg64
(lp4826
S':'
asbag57
(g78
g59
NtRp4827
(dp4828
g62
(dp4829
sg71
g4815
sg64
(lp4830
g57
(g58
g59
NtRp4831
(dp4832
g62
(dp4833
g70
I3
ssg71
g4827
sg64
(lp4834
S''
asbasbasbag57
(g73
g59
NtRp4835
(dp4836
g62
(dp4837
sg71
g4771
sg64
(lp4838
g57
(g78
g59
NtRp4839
(dp4840
g62
(dp4841
g82
g83
ssg71
g4835
sg64
(lp4842
g357
asbag57
(g78
g59
NtRp4843
(dp4844
g62
(dp4845
g89
g90
ssg71
g4835
sg64
(lp4846
S':'
asbag57
(g78
g59
NtRp4847
(dp4848
g62
(dp4849
sg71
g4835
sg64
(lp4850
g57
(g58
g59
NtRp4851
(dp4852
g62
(dp4853
g70
I3
ssg71
g4847
sg64
(lp4854
S''
asbasbasbag57
(g73
g59
NtRp4855
(dp4856
g62
(dp4857
sg71
g4771
sg64
(lp4858
g57
(g78
g59
NtRp4859
(dp4860
g62
(dp4861
g82
g83
ssg71
g4855
sg64
(lp4862
g378
asbag57
(g78
g59
NtRp4863
(dp4864
g62
(dp4865
g89
g90
ssg71
g4855
sg64
(lp4866
S':'
asbag57
(g78
g59
NtRp4867
(dp4868
g62
(dp4869
sg71
g4855
sg64
(lp4870
g57
(g58
g59
NtRp4871
(dp4872
g62
(dp4873
g70
I3
ssg71
g4867
sg64
(lp4874
S''
asbasbasbag57
(g73
g59
NtRp4875
(dp4876
g62
(dp4877
sg71
g4771
sg64
(lp4878
g57
(g78
g59
NtRp4879
(dp4880
g62
(dp4881
g82
g83
ssg71
g4875
sg64
(lp4882
g399
asbag57
(g78
g59
NtRp4883
(dp4884
g62
(dp4885
g89
g90
ssg71
g4875
sg64
(lp4886
S':'
asbag57
(g78
g59
NtRp4887
(dp4888
g62
(dp4889
sg71
g4875
sg64
(lp4890
g57
(g58
g59
NtRp4891
(dp4892
g62
(dp4893
g70
I3
ssg71
g4887
sg64
(lp4894
S'/'
asbasbasbag57
(g73
g59
NtRp4895
(dp4896
g62
(dp4897
sg71
g4771
sg64
(lp4898
g57
(g78
g59
NtRp4899
(dp4900
g62
(dp4901
g82
g83
ssg71
g4895
sg64
(lp4902
g420
asbag57
(g78
g59
NtRp4903
(dp4904
g62
(dp4905
g89
g90
ssg71
g4895
sg64
(lp4906
S':'
asbag57
(g78
g59
NtRp4907
(dp4908
g62
(dp4909
sg71
g4895
sg64
(lp4910
g57
(g58
g59
NtRp4911
(dp4912
g62
(dp4913
g70
I3
ssg71
g4907
sg64
(lp4914
S''
asbasbasbag57
(g73
g59
NtRp4915
(dp4916
g62
(dp4917
sg71
g4771
sg64
(lp4918
g57
(g78
g59
NtRp4919
(dp4920
g62
(dp4921
g82
g83
ssg71
g4915
sg64
(lp4922
g441
asbag57
(g78
g59
NtRp4923
(dp4924
g62
(dp4925
g89
g90
ssg71
g4915
sg64
(lp4926
S':'
asbag57
(g78
g59
NtRp4927
(dp4928
g62
(dp4929
sg71
g4915
sg64
(lp4930
g57
(g58
g59
NtRp4931
(dp4932
g62
(dp4933
g70
I3
ssg71
g4927
sg64
(lp4934
S''
asbasbasbasbasbasbasbasbasbasbasbag57
(g73
g59
NtRp4935
(dp4936
g62
(dp4937
sg71
g4137
sg64
(lp4938
g57
(g78
g59
NtRp4939
(dp4940
g62
(dp4941
g82
g83
ssg71
g4935
sg64
(lp4942
S'delimiters'
p4943
asbag57
(g78
g59
NtRp4944
(dp4945
g62
(dp4946
g89
g90
ssg71
g4935
sg64
(lp4947
S':'
asbag57
(g78
g59
NtRp4948
(dp4949
g62
(dp4950
sg71
g4935
sg64
(lp4951
g57
(g58
g59
NtRp4952
(dp4953
g62
(dp4954
g70
I5
ssg71
g4948
sg64
(lp4955
g57
(g66
g59
NtRp4956
(dp4957
g62
(dp4958
g70
I4
ssg71
Nsg64
(lp4959
g57
(g73
g59
NtRp4960
(dp4961
g62
(dp4962
sg71
g4956
sg64
(lp4963
g57
(g78
g59
NtRp4964
(dp4965
g62
(dp4966
sg71
g4960
sg64
(lp4967
g57
(g58
g59
NtRp4968
(dp4969
g62
(dp4970
g70
I4
ssg71
g4964
sg64
(lp4971
S'{{'
p4972
asbasbasbag57
(g73
g59
NtRp4973
(dp4974
g62
(dp4975
sg71
g4956
sg64
(lp4976
g57
(g78
g59
NtRp4977
(dp4978
g62
(dp4979
sg71
g4973
sg64
(lp4980
g57
(g58
g59
NtRp4981
(dp4982
g62
(dp4983
g70
I4
ssg71
g4977
sg64
(lp4984
S'}}'
p4985
asbasbasbasbasbasbasbag57
(g73
g59
NtRp4986
(dp4987
g62
(dp4988
sg71
g4137
sg64
(lp4989
g57
(g78
g59
NtRp4990
(dp4991
g62
(dp4992
g82
g83
ssg71
g4986
sg64
(lp4993
S'editmedical'
p4994
asbag57
(g78
g59
NtRp4995
(dp4996
g62
(dp4997
g89
g90
ssg71
g4986
sg64
(lp4998
S':'
asbag57
(g78
g59
NtRp4999
(dp5000
g62
(dp5001
sg71
g4986
sg64
(lp5002
g57
(g58
g59
NtRp5003
(dp5004
g62
(dp5005
g70
I5
ssg71
g4999
sg64
(lp5006
g57
(g66
g59
NtRp5007
(dp5008
g62
(dp5009
g70
I4
ssg71
Nsg64
(lp5010
g57
(g73
g59
NtRp5011
(dp5012
g62
(dp5013
sg71
g5007
sg64
(lp5014
g57
(g78
g59
NtRp5015
(dp5016
g62
(dp5017
sg71
g5011
sg64
(lp5018
g57
(g58
g59
NtRp5019
(dp5020
g62
(dp5021
g70
I4
ssg71
g5015
sg64
(lp5022
g57
(g66
g59
NtRp5023
(dp5024
g62
(dp5025
g70
I3
ssg71
Nsg64
(lp5026
g57
(g73
g59
NtRp5027
(dp5028
g62
(dp5029
sg71
g5023
sg64
(lp5030
g57
(g78
g59
NtRp5031
(dp5032
g62
(dp5033
sg71
g5027
sg64
(lp5034
g57
(g58
g59
NtRp5035
(dp5036
g62
(dp5037
g70
I3
ssg71
g5031
sg64
(lp5038
g4475
asbasbasbag57
(g73
g59
NtRp5039
(dp5040
g62
(dp5041
sg71
g5023
sg64
(lp5042
g57
(g78
g59
NtRp5043
(dp5044
g62
(dp5045
sg71
g5039
sg64
(lp5046
g57
(g58
g59
NtRp5047
(dp5048
g62
(dp5049
g70
I3
ssg71
g5043
sg64
(lp5050
g100
asbasbasbag57
(g73
g59
NtRp5051
(dp5052
g62
(dp5053
sg71
g5023
sg64
(lp5054
g57
(g78
g59
NtRp5055
(dp5056
g62
(dp5057
sg71
g5051
sg64
(lp5058
g57
(g58
g59
NtRp5059
(dp5060
g62
(dp5061
g70
I3
ssg71
g5055
sg64
(lp5062
g4500
asbasbasbag57
(g73
g59
NtRp5063
(dp5064
g62
(dp5065
sg71
g5023
sg64
(lp5066
g57
(g78
g59
NtRp5067
(dp5068
g62
(dp5069
sg71
g5063
sg64
(lp5070
g57
(g58
g59
NtRp5071
(dp5072
g62
(dp5073
g70
I3
ssg71
g5067
sg64
(lp5074
g57
(g66
g59
NtRp5075
(dp5076
g62
(dp5077
g70
I2
ssg71
Nsg64
(lp5078
sbasbasbasbasbasbasbasbasbasbasbasbag57
(g73
g59
NtRp5079
(dp5080
g62
(dp5081
sg71
g4137
sg64
(lp5082
g57
(g78
g59
NtRp5083
(dp5084
g62
(dp5085
g82
g83
ssg71
g5079
sg64
(lp5086
S'enter_laptop_details'
p5087
asbag57
(g78
g59
NtRp5088
(dp5089
g62
(dp5090
g89
g90
ssg71
g5079
sg64
(lp5091
S':'
asbag57
(g78
g59
NtRp5092
(dp5093
g62
(dp5094
sg71
g5079
sg64
(lp5095
g57
(g58
g59
NtRp5096
(dp5097
g62
(dp5098
g70
I5
ssg71
g5092
sg64
(lp5099
g57
(g66
g59
NtRp5100
(dp5101
g62
(dp5102
g70
I4
ssg71
Nsg64
(lp5103
g57
(g73
g59
NtRp5104
(dp5105
g62
(dp5106
sg71
g5100
sg64
(lp5107
g57
(g78
g59
NtRp5108
(dp5109
g62
(dp5110
sg71
g5104
sg64
(lp5111
g57
(g58
g59
NtRp5112
(dp5113
g62
(dp5114
g70
I4
ssg71
g5108
sg64
(lp5115
g57
(g66
g59
NtRp5116
(dp5117
g62
(dp5118
g70
I3
ssg71
Nsg64
(lp5119
g57
(g73
g59
NtRp5120
(dp5121
g62
(dp5122
sg71
g5116
sg64
(lp5123
g57
(g78
g59
NtRp5124
(dp5125
g62
(dp5126
sg71
g5120
sg64
(lp5127
g57
(g58
g59
NtRp5128
(dp5129
g62
(dp5130
g70
I3
ssg71
g5124
sg64
(lp5131
g4194
(S's\x0e\x00\x00\x00Laptop Records'
tRp5132
asbasbasbag57
(g73
g59
NtRp5133
(dp5134
g62
(dp5135
sg71
g5116
sg64
(lp5136
g57
(g78
g59
NtRp5137
(dp5138
g62
(dp5139
sg71
g5133
sg64
(lp5140
g57
(g58
g59
NtRp5141
(dp5142
g62
(dp5143
g70
I3
ssg71
g5137
sg64
(lp5144
g100
asbasbasbag57
(g73
g59
NtRp5145
(dp5146
g62
(dp5147
sg71
g5116
sg64
(lp5148
g57
(g78
g59
NtRp5149
(dp5150
g62
(dp5151
sg71
g5145
sg64
(lp5152
g57
(g58
g59
NtRp5153
(dp5154
g62
(dp5155
g70
I3
ssg71
g5149
sg64
(lp5156
S'/hostel/default/enter_laptop_details'
p5157
asbasbasbag57
(g73
g59
NtRp5158
(dp5159
g62
(dp5160
sg71
g5116
sg64
(lp5161
g57
(g78
g59
NtRp5162
(dp5163
g62
(dp5164
sg71
g5158
sg64
(lp5165
g57
(g58
g59
NtRp5166
(dp5167
g62
(dp5168
g70
I3
ssg71
g5162
sg64
(lp5169
g57
(g66
g59
NtRp5170
(dp5171
g62
(dp5172
g70
I2
ssg71
Nsg64
(lp5173
sbasbasbasbasbasbasbasbasbasbasbasbag57
(g73
g59
NtRp5174
(dp5175
g62
(dp5176
sg71
g4137
sg64
(lp5177
g57
(g78
g59
NtRp5178
(dp5179
g62
(dp5180
g82
g83
ssg71
g5174
sg64
(lp5181
S'files'
p5182
asbag57
(g78
g59
NtRp5183
(dp5184
g62
(dp5185
g89
g90
ssg71
g5174
sg64
(lp5186
S':'
asbag57
(g78
g59
NtRp5187
(dp5188
g62
(dp5189
sg71
g5174
sg64
(lp5190
g57
(g58
g59
NtRp5191
(dp5192
g62
(dp5193
g70
I5
ssg71
g5187
sg64
(lp5194
g57
(g66
g59
NtRp5195
(dp5196
g62
(dp5197
g70
I4
ssg71
Nsg64
(lp5198
sbasbasbasbag57
(g73
g59
NtRp5199
(dp5200
g62
(dp5201
sg71
g4137
sg64
(lp5202
g57
(g78
g59
NtRp5203
(dp5204
g62
(dp5205
g82
g83
ssg71
g5199
sg64
(lp5206
S'flash'
p5207
asbag57
(g78
g59
NtRp5208
(dp5209
g62
(dp5210
g89
g90
ssg71
g5199
sg64
(lp5211
S':'
asbag57
(g78
g59
NtRp5212
(dp5213
g62
(dp5214
sg71
g5199
sg64
(lp5215
g57
(g58
g59
NtRp5216
(dp5217
g62
(dp5218
g70
I5
ssg71
g5212
sg64
(lp5219
S''
asbasbasbag57
(g73
g59
NtRp5220
(dp5221
g62
(dp5222
sg71
g4137
sg64
(lp5223
g57
(g78
g59
NtRp5224
(dp5225
g62
(dp5226
g82
g83
ssg71
g5220
sg64
(lp5227
S'generic_patterns'
p5228
asbag57
(g78
g59
NtRp5229
(dp5230
g62
(dp5231
g89
g90
ssg71
g5220
sg64
(lp5232
S':'
asbag57
(g78
g59
NtRp5233
(dp5234
g62
(dp5235
sg71
g5220
sg64
(lp5236
g57
(g58
g59
NtRp5237
(dp5238
g62
(dp5239
g70
I5
ssg71
g5233
sg64
(lp5240
g57
(g66
g59
NtRp5241
(dp5242
g62
(dp5243
g70
I4
ssg71
Nsg64
(lp5244
g57
(g73
g59
NtRp5245
(dp5246
g62
(dp5247
sg71
g5241
sg64
(lp5248
g57
(g78
g59
NtRp5249
(dp5250
g62
(dp5251
sg71
g5245
sg64
(lp5252
g57
(g58
g59
NtRp5253
(dp5254
g62
(dp5255
g70
I4
ssg71
g5249
sg64
(lp5256
S'*'
asbasbasbasbasbasbasbag57
(g73
g59
NtRp5257
(dp5258
g62
(dp5259
sg71
g4137
sg64
(lp5260
g57
(g78
g59
NtRp5261
(dp5262
g62
(dp5263
g82
g83
ssg71
g5257
sg64
(lp5264
S'headers'
p5265
asbag57
(g78
g59
NtRp5266
(dp5267
g62
(dp5268
g89
g90
ssg71
g5257
sg64
(lp5269
S':'
asbag57
(g78
g59
NtRp5270
(dp5271
g62
(dp5272
sg71
g5257
sg64
(lp5273
g57
(g58
g59
NtRp5274
(dp5275
g62
(dp5276
g70
I5
ssg71
g5270
sg64
(lp5277
g57
(g66
g59
NtRp5278
(dp5279
g62
(dp5280
g70
I4
ssg71
Nsg64
(lp5281
g57
(g73
g59
NtRp5282
(dp5283
g62
(dp5284
sg71
g5278
sg64
(lp5285
g57
(g78
g59
NtRp5286
(dp5287
g62
(dp5288
g82
g83
ssg71
g5282
sg64
(lp5289
S'X-Powered-By'
p5290
asbag57
(g78
g59
NtRp5291
(dp5292
g62
(dp5293
g89
g90
ssg71
g5282
sg64
(lp5294
S':'
asbag57
(g78
g59
NtRp5295
(dp5296
g62
(dp5297
sg71
g5282
sg64
(lp5298
g57
(g58
g59
NtRp5299
(dp5300
g62
(dp5301
g70
I4
ssg71
g5295
sg64
(lp5302
S'web2py'
p5303
asbasbasbasbasbasbasbag57
(g73
g59
NtRp5304
(dp5305
g62
(dp5306
sg71
g4137
sg64
(lp5307
g57
(g78
g59
NtRp5308
(dp5309
g62
(dp5310
g82
g83
ssg71
g5304
sg64
(lp5311
S'laptop_out_details'
p5312
asbag57
(g78
g59
NtRp5313
(dp5314
g62
(dp5315
g89
g90
ssg71
g5304
sg64
(lp5316
S':'
asbag57
(g78
g59
NtRp5317
(dp5318
g62
(dp5319
sg71
g5304
sg64
(lp5320
g57
(g58
g59
NtRp5321
(dp5322
g62
(dp5323
g70
I5
ssg71
g5317
sg64
(lp5324
g57
(g66
g59
NtRp5325
(dp5326
g62
(dp5327
g70
I4
ssg71
Nsg64
(lp5328
g57
(g73
g59
NtRp5329
(dp5330
g62
(dp5331
sg71
g5325
sg64
(lp5332
g57
(g78
g59
NtRp5333
(dp5334
g62
(dp5335
sg71
g5329
sg64
(lp5336
g57
(g58
g59
NtRp5337
(dp5338
g62
(dp5339
g70
I4
ssg71
g5333
sg64
(lp5340
g57
(g66
g59
NtRp5341
(dp5342
g62
(dp5343
g70
I3
ssg71
Nsg64
(lp5344
g57
(g73
g59
NtRp5345
(dp5346
g62
(dp5347
sg71
g5341
sg64
(lp5348
g57
(g78
g59
NtRp5349
(dp5350
g62
(dp5351
sg71
g5345
sg64
(lp5352
g57
(g58
g59
NtRp5353
(dp5354
g62
(dp5355
g70
I3
ssg71
g5349
sg64
(lp5356
g4194
(S's\x0f\x00\x00\x00Laptop Movement'
tRp5357
asbasbasbag57
(g73
g59
NtRp5358
(dp5359
g62
(dp5360
sg71
g5341
sg64
(lp5361
g57
(g78
g59
NtRp5362
(dp5363
g62
(dp5364
sg71
g5358
sg64
(lp5365
g57
(g58
g59
NtRp5366
(dp5367
g62
(dp5368
g70
I3
ssg71
g5362
sg64
(lp5369
g100
asbasbasbag57
(g73
g59
NtRp5370
(dp5371
g62
(dp5372
sg71
g5341
sg64
(lp5373
g57
(g78
g59
NtRp5374
(dp5375
g62
(dp5376
sg71
g5370
sg64
(lp5377
g57
(g58
g59
NtRp5378
(dp5379
g62
(dp5380
g70
I3
ssg71
g5374
sg64
(lp5381
S'/hostel/default/laptop_out_details'
p5382
asbasbasbag57
(g73
g59
NtRp5383
(dp5384
g62
(dp5385
sg71
g5341
sg64
(lp5386
g57
(g78
g59
NtRp5387
(dp5388
g62
(dp5389
sg71
g5383
sg64
(lp5390
g57
(g58
g59
NtRp5391
(dp5392
g62
(dp5393
g70
I3
ssg71
g5387
sg64
(lp5394
g57
(g66
g59
NtRp5395
(dp5396
g62
(dp5397
g70
I2
ssg71
Nsg64
(lp5398
sbasbasbasbasbasbasbasbasbasbasbasbag57
(g73
g59
NtRp5399
(dp5400
g62
(dp5401
sg71
g4137
sg64
(lp5402
g57
(g78
g59
NtRp5403
(dp5404
g62
(dp5405
g82
g83
ssg71
g5399
sg64
(lp5406
S'medical'
p5407
asbag57
(g78
g59
NtRp5408
(dp5409
g62
(dp5410
g89
g90
ssg71
g5399
sg64
(lp5411
S':'
asbag57
(g78
g59
NtRp5412
(dp5413
g62
(dp5414
sg71
g5399
sg64
(lp5415
g57
(g58
g59
NtRp5416
(dp5417
g62
(dp5418
g70
I5
ssg71
g5412
sg64
(lp5419
g57
(g66
g59
NtRp5420
(dp5421
g62
(dp5422
g70
I4
ssg71
Nsg64
(lp5423
g57
(g73
g59
NtRp5424
(dp5425
g62
(dp5426
sg71
g5420
sg64
(lp5427
g57
(g78
g59
NtRp5428
(dp5429
g62
(dp5430
sg71
g5424
sg64
(lp5431
g57
(g58
g59
NtRp5432
(dp5433
g62
(dp5434
g70
I4
ssg71
g5428
sg64
(lp5435
g57
(g66
g59
NtRp5436
(dp5437
g62
(dp5438
g70
I3
ssg71
Nsg64
(lp5439
g57
(g73
g59
NtRp5440
(dp5441
g62
(dp5442
sg71
g5436
sg64
(lp5443
g57
(g78
g59
NtRp5444
(dp5445
g62
(dp5446
sg71
g5440
sg64
(lp5447
g57
(g58
g59
NtRp5448
(dp5449
g62
(dp5450
g70
I3
ssg71
g5444
sg64
(lp5451
g4194
(S's\x10\x00\x00\x00Medical Requests'
tRp5452
asbasbasbag57
(g73
g59
NtRp5453
(dp5454
g62
(dp5455
sg71
g5436
sg64
(lp5456
g57
(g78
g59
NtRp5457
(dp5458
g62
(dp5459
sg71
g5453
sg64
(lp5460
g57
(g58
g59
NtRp5461
(dp5462
g62
(dp5463
g70
I3
ssg71
g5457
sg64
(lp5464
g100
asbasbasbag57
(g73
g59
NtRp5465
(dp5466
g62
(dp5467
sg71
g5436
sg64
(lp5468
g57
(g78
g59
NtRp5469
(dp5470
g62
(dp5471
sg71
g5465
sg64
(lp5472
g57
(g58
g59
NtRp5473
(dp5474
g62
(dp5475
g70
I3
ssg71
g5469
sg64
(lp5476
S'/hostel/default/byroll'
p5477
asbasbasbag57
(g73
g59
NtRp5478
(dp5479
g62
(dp5480
sg71
g5436
sg64
(lp5481
g57
(g78
g59
NtRp5482
(dp5483
g62
(dp5484
sg71
g5478
sg64
(lp5485
g57
(g58
g59
NtRp5486
(dp5487
g62
(dp5488
g70
I3
ssg71
g5482
sg64
(lp5489
g57
(g66
g59
NtRp5490
(dp5491
g62
(dp5492
g70
I2
ssg71
Nsg64
(lp5493
sbasbasbasbasbasbasbasbasbasbasbasbag57
(g73
g59
NtRp5494
(dp5495
g62
(dp5496
sg71
g4137
sg64
(lp5497
g57
(g78
g59
NtRp5498
(dp5499
g62
(dp5500
g82
g83
ssg71
g5494
sg64
(lp5501
S'menu'
p5502
asbag57
(g78
g59
NtRp5503
(dp5504
g62
(dp5505
g89
g90
ssg71
g5494
sg64
(lp5506
S':'
asbag57
(g78
g59
NtRp5507
(dp5508
g62
(dp5509
sg71
g5494
sg64
(lp5510
g57
(g58
g59
NtRp5511
(dp5512
g62
(dp5513
g70
I5
ssg71
g5507
sg64
(lp5514
g57
(g66
g59
NtRp5515
(dp5516
g62
(dp5517
g70
I4
ssg71
Nsg64
(lp5518
g57
(g73
g59
NtRp5519
(dp5520
g62
(dp5521
sg71
g5515
sg64
(lp5522
g57
(g78
g59
NtRp5523
(dp5524
g62
(dp5525
sg71
g5519
sg64
(lp5526
g57
(g58
g59
NtRp5527
(dp5528
g62
(dp5529
g70
I4
ssg71
g5523
sg64
(lp5530
g57
(g66
g59
NtRp5531
(dp5532
g62
(dp5533
g70
I3
ssg71
Nsg64
(lp5534
g57
(g73
g59
NtRp5535
(dp5536
g62
(dp5537
sg71
g5531
sg64
(lp5538
g57
(g78
g59
NtRp5539
(dp5540
g62
(dp5541
sg71
g5535
sg64
(lp5542
g57
(g58
g59
NtRp5543
(dp5544
g62
(dp5545
g70
I3
ssg71
g5539
sg64
(lp5546
g4195
asbasbasbag57
(g73
g59
NtRp5547
(dp5548
g62
(dp5549
sg71
g5531
sg64
(lp5550
g57
(g78
g59
NtRp5551
(dp5552
g62
(dp5553
sg71
g5547
sg64
(lp5554
g57
(g58
g59
NtRp5555
(dp5556
g62
(dp5557
g70
I3
ssg71
g5551
sg64
(lp5558
g100
asbasbasbag57
(g73
g59
NtRp5559
(dp5560
g62
(dp5561
sg71
g5531
sg64
(lp5562
g57
(g78
g59
NtRp5563
(dp5564
g62
(dp5565
sg71
g5559
sg64
(lp5566
g57
(g58
g59
NtRp5567
(dp5568
g62
(dp5569
g70
I3
ssg71
g5563
sg64
(lp5570
g4220
asbasbasbag57
(g73
g59
NtRp5571
(dp5572
g62
(dp5573
sg71
g5531
sg64
(lp5574
g57
(g78
g59
NtRp5575
(dp5576
g62
(dp5577
sg71
g5571
sg64
(lp5578
g57
(g58
g59
NtRp5579
(dp5580
g62
(dp5581
g70
I3
ssg71
g5575
sg64
(lp5582
g57
(g66
g59
NtRp5583
(dp5584
g62
(dp5585
g70
I2
ssg71
Nsg64
(lp5586
sbasbasbasbasbasbasbasbasbasbasbasbag57
(g73
g59
NtRp5587
(dp5588
g62
(dp5589
sg71
g4137
sg64
(lp5590
g57
(g78
g59
NtRp5591
(dp5592
g62
(dp5593
g82
g83
ssg71
g5587
sg64
(lp5594
S'meta'
p5595
asbag57
(g78
g59
NtRp5596
(dp5597
g62
(dp5598
g89
g90
ssg71
g5587
sg64
(lp5599
S':'
asbag57
(g78
g59
NtRp5600
(dp5601
g62
(dp5602
sg71
g5587
sg64
(lp5603
g57
(g58
g59
NtRp5604
(dp5605
g62
(dp5606
g70
I5
ssg71
g5600
sg64
(lp5607
g57
(g66
g59
NtRp5608
(dp5609
g62
(dp5610
g70
I4
ssg71
Nsg64
(lp5611
g57
(g73
g59
NtRp5612
(dp5613
g62
(dp5614
sg71
g5608
sg64
(lp5615
g57
(g78
g59
NtRp5616
(dp5617
g62
(dp5618
g82
g83
ssg71
g5612
sg64
(lp5619
S'author'
p5620
asbag57
(g78
g59
NtRp5621
(dp5622
g62
(dp5623
g89
g90
ssg71
g5612
sg64
(lp5624
S':'
asbag57
(g78
g59
NtRp5625
(dp5626
g62
(dp5627
sg71
g5612
sg64
(lp5628
g57
(g58
g59
NtRp5629
(dp5630
g62
(dp5631
g70
I4
ssg71
g5625
sg64
(lp5632
S'you <you@example.com>'
p5633
asbasbasbag57
(g73
g59
NtRp5634
(dp5635
g62
(dp5636
sg71
g5608
sg64
(lp5637
g57
(g78
g59
NtRp5638
(dp5639
g62
(dp5640
g82
g83
ssg71
g5634
sg64
(lp5641
S'description'
p5642
asbag57
(g78
g59
NtRp5643
(dp5644
g62
(dp5645
g89
g90
ssg71
g5634
sg64
(lp5646
S':'
asbag57
(g78
g59
NtRp5647
(dp5648
g62
(dp5649
sg71
g5634
sg64
(lp5650
g57
(g58
g59
NtRp5651
(dp5652
g62
(dp5653
g70
I4
ssg71
g5647
sg64
(lp5654
S''
asbasbasbag57
(g73
g59
NtRp5655
(dp5656
g62
(dp5657
sg71
g5608
sg64
(lp5658
g57
(g78
g59
NtRp5659
(dp5660
g62
(dp5661
g82
g83
ssg71
g5655
sg64
(lp5662
S'keywords'
p5663
asbag57
(g78
g59
NtRp5664
(dp5665
g62
(dp5666
g89
g90
ssg71
g5655
sg64
(lp5667
S':'
asbag57
(g78
g59
NtRp5668
(dp5669
g62
(dp5670
sg71
g5655
sg64
(lp5671
g57
(g58
g59
NtRp5672
(dp5673
g62
(dp5674
g70
I4
ssg71
g5668
sg64
(lp5675
S''
asbasbasbasbasbasbasbag57
(g73
g59
NtRp5676
(dp5677
g62
(dp5678
sg71
g4137
sg64
(lp5679
g57
(g78
g59
NtRp5680
(dp5681
g62
(dp5682
g82
g83
ssg71
g5676
sg64
(lp5683
S'models_to_run'
p5684
asbag57
(g78
g59
NtRp5685
(dp5686
g62
(dp5687
g89
g90
ssg71
g5676
sg64
(lp5688
S':'
asbag57
(g78
g59
NtRp5689
(dp5690
g62
(dp5691
sg71
g5676
sg64
(lp5692
g57
(g58
g59
NtRp5693
(dp5694
g62
(dp5695
g70
I5
ssg71
g5689
sg64
(lp5696
g57
(g66
g59
NtRp5697
(dp5698
g62
(dp5699
g70
I4
ssg71
Nsg64
(lp5700
g57
(g73
g59
NtRp5701
(dp5702
g62
(dp5703
sg71
g5697
sg64
(lp5704
g57
(g78
g59
NtRp5705
(dp5706
g62
(dp5707
sg71
g5701
sg64
(lp5708
g57
(g58
g59
NtRp5709
(dp5710
g62
(dp5711
g70
I4
ssg71
g5705
sg64
(lp5712
S'^\\w+\\.py$'
p5713
asbasbasbag57
(g73
g59
NtRp5714
(dp5715
g62
(dp5716
sg71
g5697
sg64
(lp5717
g57
(g78
g59
NtRp5718
(dp5719
g62
(dp5720
sg71
g5714
sg64
(lp5721
g57
(g58
g59
NtRp5722
(dp5723
g62
(dp5724
g70
I4
ssg71
g5718
sg64
(lp5725
S'^default/\\w+\\.py$'
p5726
asbasbasbag57
(g73
g59
NtRp5727
(dp5728
g62
(dp5729
sg71
g5697
sg64
(lp5730
g57
(g78
g59
NtRp5731
(dp5732
g62
(dp5733
sg71
g5727
sg64
(lp5734
g57
(g58
g59
NtRp5735
(dp5736
g62
(dp5737
g70
I4
ssg71
g5731
sg64
(lp5738
S'^default/login/\\w+\\.py$'
p5739
asbasbasbasbasbasbasbag57
(g73
g59
NtRp5740
(dp5741
g62
(dp5742
sg71
g4137
sg64
(lp5743
g57
(g78
g59
NtRp5744
(dp5745
g62
(dp5746
g82
g83
ssg71
g5740
sg64
(lp5747
S'postprocessing'
p5748
asbag57
(g78
g59
NtRp5749
(dp5750
g62
(dp5751
g89
g90
ssg71
g5740
sg64
(lp5752
S':'
asbag57
(g78
g59
NtRp5753
(dp5754
g62
(dp5755
sg71
g5740
sg64
(lp5756
g57
(g58
g59
NtRp5757
(dp5758
g62
(dp5759
g70
I5
ssg71
g5753
sg64
(lp5760
g57
(g66
g59
NtRp5761
(dp5762
g62
(dp5763
g70
I4
ssg71
Nsg64
(lp5764
sbasbasbasbag57
(g73
g59
NtRp5765
(dp5766
g62
(dp5767
sg71
g4137
sg64
(lp5768
g57
(g78
g59
NtRp5769
(dp5770
g62
(dp5771
g82
g83
ssg71
g5765
sg64
(lp5772
S'rules'
p5773
asbag57
(g78
g59
NtRp5774
(dp5775
g62
(dp5776
g89
g90
ssg71
g5765
sg64
(lp5777
S':'
asbag57
(g78
g59
NtRp5778
(dp5779
g62
(dp5780
sg71
g5765
sg64
(lp5781
g57
(g58
g59
NtRp5782
(dp5783
g62
(dp5784
g70
I5
ssg71
g5778
sg64
(lp5785
g57
(g66
g59
NtRp5786
(dp5787
g62
(dp5788
g70
I4
ssg71
Nsg64
(lp5789
g57
(g73
g59
NtRp5790
(dp5791
g62
(dp5792
sg71
g5786
sg64
(lp5793
g57
(g78
g59
NtRp5794
(dp5795
g62
(dp5796
sg71
g5790
sg64
(lp5797
g57
(g58
g59
NtRp5798
(dp5799
g62
(dp5800
g70
I4
ssg71
g5794
sg64
(lp5801
g57
(g66
g59
NtRp5802
(dp5803
g62
(dp5804
g70
I3
ssg71
Nsg64
(lp5805
g57
(g73
g59
NtRp5806
(dp5807
g62
(dp5808
sg71
g5802
sg64
(lp5809
g57
(g78
g59
NtRp5810
(dp5811
g62
(dp5812
sg71
g5806
sg64
(lp5813
g57
(g58
g59
NtRp5814
(dp5815
g62
(dp5816
g70
I3
ssg71
g5810
sg64
(lp5817
g4405
asbasbasbag57
(g73
g59
NtRp5818
(dp5819
g62
(dp5820
sg71
g5802
sg64
(lp5821
g57
(g78
g59
NtRp5822
(dp5823
g62
(dp5824
sg71
g5818
sg64
(lp5825
g57
(g58
g59
NtRp5826
(dp5827
g62
(dp5828
g70
I3
ssg71
g5822
sg64
(lp5829
g100
asbasbasbag57
(g73
g59
NtRp5830
(dp5831
g62
(dp5832
sg71
g5802
sg64
(lp5833
g57
(g78
g59
NtRp5834
(dp5835
g62
(dp5836
sg71
g5830
sg64
(lp5837
g57
(g58
g59
NtRp5838
(dp5839
g62
(dp5840
g70
I3
ssg71
g5834
sg64
(lp5841
g4430
asbasbasbag57
(g73
g59
NtRp5842
(dp5843
g62
(dp5844
sg71
g5802
sg64
(lp5845
g57
(g78
g59
NtRp5846
(dp5847
g62
(dp5848
sg71
g5842
sg64
(lp5849
g57
(g58
g59
NtRp5850
(dp5851
g62
(dp5852
g70
I3
ssg71
g5846
sg64
(lp5853
g57
(g66
g59
NtRp5854
(dp5855
g62
(dp5856
g70
I2
ssg71
Nsg64
(lp5857
sbasbasbasbasbasbasbasbasbasbasbasbag57
(g73
g59
NtRp5858
(dp5859
g62
(dp5860
sg71
g4137
sg64
(lp5861
g57
(g78
g59
NtRp5862
(dp5863
g62
(dp5864
g82
g83
ssg71
g5858
sg64
(lp5865
S'search'
p5866
asbag57
(g78
g59
NtRp5867
(dp5868
g62
(dp5869
g89
g90
ssg71
g5858
sg64
(lp5870
S':'
asbag57
(g78
g59
NtRp5871
(dp5872
g62
(dp5873
sg71
g5858
sg64
(lp5874
g57
(g58
g59
NtRp5875
(dp5876
g62
(dp5877
g70
I5
ssg71
g5871
sg64
(lp5878
g57
(g66
g59
NtRp5879
(dp5880
g62
(dp5881
g70
I4
ssg71
Nsg64
(lp5882
g57
(g73
g59
NtRp5883
(dp5884
g62
(dp5885
sg71
g5879
sg64
(lp5886
g57
(g78
g59
NtRp5887
(dp5888
g62
(dp5889
sg71
g5883
sg64
(lp5890
g57
(g58
g59
NtRp5891
(dp5892
g62
(dp5893
g70
I4
ssg71
g5887
sg64
(lp5894
g57
(g66
g59
NtRp5895
(dp5896
g62
(dp5897
g70
I3
ssg71
Nsg64
(lp5898
g57
(g73
g59
NtRp5899
(dp5900
g62
(dp5901
sg71
g5895
sg64
(lp5902
g57
(g78
g59
NtRp5903
(dp5904
g62
(dp5905
sg71
g5899
sg64
(lp5906
g57
(g58
g59
NtRp5907
(dp5908
g62
(dp5909
g70
I3
ssg71
g5903
sg64
(lp5910
g4194
(S't\x06\x00\x00\x00SEARCH'
tRp5911
asbasbasbag57
(g73
g59
NtRp5912
(dp5913
g62
(dp5914
sg71
g5895
sg64
(lp5915
g57
(g78
g59
NtRp5916
(dp5917
g62
(dp5918
sg71
g5912
sg64
(lp5919
g57
(g58
g59
NtRp5920
(dp5921
g62
(dp5922
g70
I3
ssg71
g5916
sg64
(lp5923
g100
asbasbasbag57
(g73
g59
NtRp5924
(dp5925
g62
(dp5926
sg71
g5895
sg64
(lp5927
g57
(g78
g59
NtRp5928
(dp5929
g62
(dp5930
sg71
g5924
sg64
(lp5931
g57
(g58
g59
NtRp5932
(dp5933
g62
(dp5934
g70
I3
ssg71
g5928
sg64
(lp5935
S'/hostel/default/search'
p5936
asbasbasbag57
(g73
g59
NtRp5937
(dp5938
g62
(dp5939
sg71
g5895
sg64
(lp5940
g57
(g78
g59
NtRp5941
(dp5942
g62
(dp5943
sg71
g5937
sg64
(lp5944
g57
(g58
g59
NtRp5945
(dp5946
g62
(dp5947
g70
I3
ssg71
g5941
sg64
(lp5948
g57
(g66
g59
NtRp5949
(dp5950
g62
(dp5951
g70
I2
ssg71
Nsg64
(lp5952
sbasbasbasbasbasbasbasbasbasbasbasbag57
(g73
g59
NtRp5953
(dp5954
g62
(dp5955
sg71
g4137
sg64
(lp5956
g57
(g78
g59
NtRp5957
(dp5958
g62
(dp5959
g82
g83
ssg71
g5953
sg64
(lp5960
S'session_cookie_expires'
p5961
asbag57
(g78
g59
NtRp5962
(dp5963
g62
(dp5964
g89
g90
ssg71
g5953
sg64
(lp5965
S':'
asbag57
(g78
g59
NtRp5966
(dp5967
g62
(dp5968
sg71
g5953
sg64
(lp5969
g57
(g58
g59
NtRp5970
(dp5971
g62
(dp5972
g70
I5
ssg71
g5966
sg64
(lp5973
S'None'
p5974
asbasbasbag57
(g73
g59
NtRp5975
(dp5976
g62
(dp5977
sg71
g4137
sg64
(lp5978
g57
(g78
g59
NtRp5979
(dp5980
g62
(dp5981
g82
g83
ssg71
g5975
sg64
(lp5982
S'session_data_name'
p5983
asbag57
(g78
g59
NtRp5984
(dp5985
g62
(dp5986
g89
g90
ssg71
g5975
sg64
(lp5987
S':'
asbag57
(g78
g59
NtRp5988
(dp5989
g62
(dp5990
sg71
g5975
sg64
(lp5991
g57
(g58
g59
NtRp5992
(dp5993
g62
(dp5994
g70
I5
ssg71
g5988
sg64
(lp5995
S'session_data_hostel'
p5996
asbasbasbag57
(g73
g59
NtRp5997
(dp5998
g62
(dp5999
sg71
g4137
sg64
(lp6000
g57
(g78
g59
NtRp6001
(dp6002
g62
(dp6003
g82
g83
ssg71
g5997
sg64
(lp6004
S'session_file'
p6005
asbag57
(g78
g59
NtRp6006
(dp6007
g62
(dp6008
g89
g90
ssg71
g5997
sg64
(lp6009
S':'
asbag57
(g78
g59
NtRp6010
(dp6011
g62
(dp6012
sg71
g5997
sg64
(lp6013
g57
(g58
g59
NtRp6014
(dp6015
g62
(dp6016
g70
I5
ssg71
g6010
sg64
(lp6017
S"<open file '/home/bhanu/web2py/applications/hostel/sessions/127.0.0.1-24f604c9-d849-42bd-b1c9-f622a7f2389e', mode 'rb+' at 0x7f6a441c3d20>"
p6018
asbasbasbag57
(g73
g59
NtRp6019
(dp6020
g62
(dp6021
sg71
g4137
sg64
(lp6022
g57
(g78
g59
NtRp6023
(dp6024
g62
(dp6025
g82
g83
ssg71
g6019
sg64
(lp6026
S'session_filename'
p6027
asbag57
(g78
g59
NtRp6028
(dp6029
g62
(dp6030
g89
g90
ssg71
g6019
sg64
(lp6031
S':'
asbag57
(g78
g59
NtRp6032
(dp6033
g62
(dp6034
sg71
g6019
sg64
(lp6035
g57
(g58
g59
NtRp6036
(dp6037
g62
(dp6038
g70
I5
ssg71
g6032
sg64
(lp6039
S'/home/bhanu/web2py/applications/hostel/sessions/127.0.0.1-24f604c9-d849-42bd-b1c9-f622a7f2389e'
p6040
asbasbasbag57
(g73
g59
NtRp6041
(dp6042
g62
(dp6043
sg71
g4137
sg64
(lp6044
g57
(g78
g59
NtRp6045
(dp6046
g62
(dp6047
g82
g83
ssg71
g6041
sg64
(lp6048
S'session_id'
p6049
asbag57
(g78
g59
NtRp6050
(dp6051
g62
(dp6052
g89
g90
ssg71
g6041
sg64
(lp6053
S':'
asbag57
(g78
g59
NtRp6054
(dp6055
g62
(dp6056
sg71
g6041
sg64
(lp6057
g57
(g58
g59
NtRp6058
(dp6059
g62
(dp6060
g70
I5
ssg71
g6054
sg64
(lp6061
g661
asbasbasbag57
(g73
g59
NtRp6062
(dp6063
g62
(dp6064
sg71
g4137
sg64
(lp6065
g57
(g78
g59
NtRp6066
(dp6067
g62
(dp6068
g82
g83
ssg71
g6062
sg64
(lp6069
S'session_id_name'
p6070
asbag57
(g78
g59
NtRp6071
(dp6072
g62
(dp6073
g89
g90
ssg71
g6062
sg64
(lp6074
S':'
asbag57
(g78
g59
NtRp6075
(dp6076
g62
(dp6077
sg71
g6062
sg64
(lp6078
g57
(g58
g59
NtRp6079
(dp6080
g62
(dp6081
g70
I5
ssg71
g6075
sg64
(lp6082
g4758
asbasbasbag57
(g73
g59
NtRp6083
(dp6084
g62
(dp6085
sg71
g4137
sg64
(lp6086
g57
(g78
g59
NtRp6087
(dp6088
g62
(dp6089
g82
g83
ssg71
g6083
sg64
(lp6090
S'session_locked'
p6091
asbag57
(g78
g59
NtRp6092
(dp6093
g62
(dp6094
g89
g90
ssg71
g6083
sg64
(lp6095
S':'
asbag57
(g78
g59
NtRp6096
(dp6097
g62
(dp6098
sg71
g6083
sg64
(lp6099
g57
(g58
g59
NtRp6100
(dp6101
g62
(dp6102
g70
I5
ssg71
g6096
sg64
(lp6103
g2306
asbasbasbag57
(g73
g59
NtRp6104
(dp6105
g62
(dp6106
sg71
g4137
sg64
(lp6107
g57
(g78
g59
NtRp6108
(dp6109
g62
(dp6110
g82
g83
ssg71
g6104
sg64
(lp6111
S'session_new'
p6112
asbag57
(g78
g59
NtRp6113
(dp6114
g62
(dp6115
g89
g90
ssg71
g6104
sg64
(lp6116
S':'
asbag57
(g78
g59
NtRp6117
(dp6118
g62
(dp6119
sg71
g6104
sg64
(lp6120
g57
(g58
g59
NtRp6121
(dp6122
g62
(dp6123
g70
I5
ssg71
g6117
sg64
(lp6124
g100
asbasbasbag57
(g73
g59
NtRp6125
(dp6126
g62
(dp6127
sg71
g4137
sg64
(lp6128
g57
(g78
g59
NtRp6129
(dp6130
g62
(dp6131
g82
g83
ssg71
g6125
sg64
(lp6132
S'session_storage_type'
p6133
asbag57
(g78
g59
NtRp6134
(dp6135
g62
(dp6136
g89
g90
ssg71
g6125
sg64
(lp6137
S':'
asbag57
(g78
g59
NtRp6138
(dp6139
g62
(dp6140
sg71
g6125
sg64
(lp6141
g57
(g58
g59
NtRp6142
(dp6143
g62
(dp6144
g70
I5
ssg71
g6138
sg64
(lp6145
g3758
asbasbasbag57
(g73
g59
NtRp6146
(dp6147
g62
(dp6148
sg71
g4137
sg64
(lp6149
g57
(g78
g59
NtRp6150
(dp6151
g62
(dp6152
g82
g83
ssg71
g6146
sg64
(lp6153
S'staff'
p6154
asbag57
(g78
g59
NtRp6155
(dp6156
g62
(dp6157
g89
g90
ssg71
g6146
sg64
(lp6158
S':'
asbag57
(g78
g59
NtRp6159
(dp6160
g62
(dp6161
sg71
g6146
sg64
(lp6162
g57
(g58
g59
NtRp6163
(dp6164
g62
(dp6165
g70
I5
ssg71
g6159
sg64
(lp6166
g57
(g66
g59
NtRp6167
(dp6168
g62
(dp6169
g70
I4
ssg71
Nsg64
(lp6170
g57
(g73
g59
NtRp6171
(dp6172
g62
(dp6173
sg71
g6167
sg64
(lp6174
g57
(g78
g59
NtRp6175
(dp6176
g62
(dp6177
sg71
g6171
sg64
(lp6178
g57
(g58
g59
NtRp6179
(dp6180
g62
(dp6181
g70
I4
ssg71
g6175
sg64
(lp6182
g57
(g66
g59
NtRp6183
(dp6184
g62
(dp6185
g70
I3
ssg71
Nsg64
(lp6186
g57
(g73
g59
NtRp6187
(dp6188
g62
(dp6189
sg71
g6183
sg64
(lp6190
g57
(g78
g59
NtRp6191
(dp6192
g62
(dp6193
sg71
g6187
sg64
(lp6194
g57
(g58
g59
NtRp6195
(dp6196
g62
(dp6197
g70
I3
ssg71
g6191
sg64
(lp6198
g4195
asbasbasbag57
(g73
g59
NtRp6199
(dp6200
g62
(dp6201
sg71
g6183
sg64
(lp6202
g57
(g78
g59
NtRp6203
(dp6204
g62
(dp6205
sg71
g6199
sg64
(lp6206
g57
(g58
g59
NtRp6207
(dp6208
g62
(dp6209
g70
I3
ssg71
g6203
sg64
(lp6210
g100
asbasbasbag57
(g73
g59
NtRp6211
(dp6212
g62
(dp6213
sg71
g6183
sg64
(lp6214
g57
(g78
g59
NtRp6215
(dp6216
g62
(dp6217
sg71
g6211
sg64
(lp6218
g57
(g58
g59
NtRp6219
(dp6220
g62
(dp6221
g70
I3
ssg71
g6215
sg64
(lp6222
g4220
asbasbasbag57
(g73
g59
NtRp6223
(dp6224
g62
(dp6225
sg71
g6183
sg64
(lp6226
g57
(g78
g59
NtRp6227
(dp6228
g62
(dp6229
sg71
g6223
sg64
(lp6230
g57
(g58
g59
NtRp6231
(dp6232
g62
(dp6233
g70
I3
ssg71
g6227
sg64
(lp6234
g57
(g66
g59
NtRp6235
(dp6236
g62
(dp6237
g70
I2
ssg71
Nsg64
(lp6238
sbasbasbasbasbasbasbasbag57
(g73
g59
NtRp6239
(dp6240
g62
(dp6241
sg71
g6167
sg64
(lp6242
g57
(g78
g59
NtRp6243
(dp6244
g62
(dp6245
sg71
g6239
sg64
(lp6246
g57
(g58
g59
NtRp6247
(dp6248
g62
(dp6249
g70
I4
ssg71
g6243
sg64
(lp6250
g57
(g66
g59
NtRp6251
(dp6252
g62
(dp6253
g70
I3
ssg71
Nsg64
(lp6254
g57
(g73
g59
NtRp6255
(dp6256
g62
(dp6257
sg71
g6251
sg64
(lp6258
g57
(g78
g59
NtRp6259
(dp6260
g62
(dp6261
sg71
g6255
sg64
(lp6262
g57
(g58
g59
NtRp6263
(dp6264
g62
(dp6265
g70
I3
ssg71
g6259
sg64
(lp6266
g4194
(S's\x0f\x00\x00\x00View Complaints'
tRp6267
asbasbasbag57
(g73
g59
NtRp6268
(dp6269
g62
(dp6270
sg71
g6251
sg64
(lp6271
g57
(g78
g59
NtRp6272
(dp6273
g62
(dp6274
sg71
g6268
sg64
(lp6275
g57
(g58
g59
NtRp6276
(dp6277
g62
(dp6278
g70
I3
ssg71
g6272
sg64
(lp6279
g100
asbasbasbag57
(g73
g59
NtRp6280
(dp6281
g62
(dp6282
sg71
g6251
sg64
(lp6283
g57
(g78
g59
NtRp6284
(dp6285
g62
(dp6286
sg71
g6280
sg64
(lp6287
g57
(g58
g59
NtRp6288
(dp6289
g62
(dp6290
g70
I3
ssg71
g6284
sg64
(lp6291
S'/hostel/default/staff_vcomplaint'
p6292
asbasbasbag57
(g73
g59
NtRp6293
(dp6294
g62
(dp6295
sg71
g6251
sg64
(lp6296
g57
(g78
g59
NtRp6297
(dp6298
g62
(dp6299
sg71
g6293
sg64
(lp6300
g57
(g58
g59
NtRp6301
(dp6302
g62
(dp6303
g70
I3
ssg71
g6297
sg64
(lp6304
g57
(g66
g59
NtRp6305
(dp6306
g62
(dp6307
g70
I2
ssg71
Nsg64
(lp6308
sbasbasbasbasbasbasbasbag57
(g73
g59
NtRp6309
(dp6310
g62
(dp6311
sg71
g6167
sg64
(lp6312
g57
(g78
g59
NtRp6313
(dp6314
g62
(dp6315
sg71
g6309
sg64
(lp6316
g57
(g58
g59
NtRp6317
(dp6318
g62
(dp6319
g70
I4
ssg71
g6313
sg64
(lp6320
g57
(g66
g59
NtRp6321
(dp6322
g62
(dp6323
g70
I3
ssg71
Nsg64
(lp6324
g57
(g73
g59
NtRp6325
(dp6326
g62
(dp6327
sg71
g6321
sg64
(lp6328
g57
(g78
g59
NtRp6329
(dp6330
g62
(dp6331
sg71
g6325
sg64
(lp6332
g57
(g58
g59
NtRp6333
(dp6334
g62
(dp6335
g70
I3
ssg71
g6329
sg64
(lp6336
g4194
(S's\x10\x00\x00\x00Medical Requests'
tRp6337
asbasbasbag57
(g73
g59
NtRp6338
(dp6339
g62
(dp6340
sg71
g6321
sg64
(lp6341
g57
(g78
g59
NtRp6342
(dp6343
g62
(dp6344
sg71
g6338
sg64
(lp6345
g57
(g58
g59
NtRp6346
(dp6347
g62
(dp6348
g70
I3
ssg71
g6342
sg64
(lp6349
g100
asbasbasbag57
(g73
g59
NtRp6350
(dp6351
g62
(dp6352
sg71
g6321
sg64
(lp6353
g57
(g78
g59
NtRp6354
(dp6355
g62
(dp6356
sg71
g6350
sg64
(lp6357
g57
(g58
g59
NtRp6358
(dp6359
g62
(dp6360
g70
I3
ssg71
g6354
sg64
(lp6361
S'/hostel/default/vmedical'
p6362
asbasbasbag57
(g73
g59
NtRp6363
(dp6364
g62
(dp6365
sg71
g6321
sg64
(lp6366
g57
(g78
g59
NtRp6367
(dp6368
g62
(dp6369
sg71
g6363
sg64
(lp6370
g57
(g58
g59
NtRp6371
(dp6372
g62
(dp6373
g70
I3
ssg71
g6367
sg64
(lp6374
g57
(g66
g59
NtRp6375
(dp6376
g62
(dp6377
g70
I2
ssg71
Nsg64
(lp6378
sbasbasbasbasbasbasbasbag57
(g73
g59
NtRp6379
(dp6380
g62
(dp6381
sg71
g6167
sg64
(lp6382
g57
(g78
g59
NtRp6383
(dp6384
g62
(dp6385
sg71
g6379
sg64
(lp6386
g57
(g58
g59
NtRp6387
(dp6388
g62
(dp6389
g70
I4
ssg71
g6383
sg64
(lp6390
g57
(g66
g59
NtRp6391
(dp6392
g62
(dp6393
g70
I3
ssg71
Nsg64
(lp6394
g57
(g73
g59
NtRp6395
(dp6396
g62
(dp6397
sg71
g6391
sg64
(lp6398
g57
(g78
g59
NtRp6399
(dp6400
g62
(dp6401
sg71
g6395
sg64
(lp6402
g57
(g58
g59
NtRp6403
(dp6404
g62
(dp6405
g70
I3
ssg71
g6399
sg64
(lp6406
g4335
asbasbasbag57
(g73
g59
NtRp6407
(dp6408
g62
(dp6409
sg71
g6391
sg64
(lp6410
g57
(g78
g59
NtRp6411
(dp6412
g62
(dp6413
sg71
g6407
sg64
(lp6414
g57
(g58
g59
NtRp6415
(dp6416
g62
(dp6417
g70
I3
ssg71
g6411
sg64
(lp6418
g100
asbasbasbag57
(g73
g59
NtRp6419
(dp6420
g62
(dp6421
sg71
g6391
sg64
(lp6422
g57
(g78
g59
NtRp6423
(dp6424
g62
(dp6425
sg71
g6419
sg64
(lp6426
g57
(g58
g59
NtRp6427
(dp6428
g62
(dp6429
g70
I3
ssg71
g6423
sg64
(lp6430
g4360
asbasbasbag57
(g73
g59
NtRp6431
(dp6432
g62
(dp6433
sg71
g6391
sg64
(lp6434
g57
(g78
g59
NtRp6435
(dp6436
g62
(dp6437
sg71
g6431
sg64
(lp6438
g57
(g58
g59
NtRp6439
(dp6440
g62
(dp6441
g70
I3
ssg71
g6435
sg64
(lp6442
g57
(g66
g59
NtRp6443
(dp6444
g62
(dp6445
g70
I2
ssg71
Nsg64
(lp6446
sbasbasbasbasbasbasbasbag57
(g73
g59
NtRp6447
(dp6448
g62
(dp6449
sg71
g6167
sg64
(lp6450
g57
(g78
g59
NtRp6451
(dp6452
g62
(dp6453
sg71
g6447
sg64
(lp6454
g57
(g58
g59
NtRp6455
(dp6456
g62
(dp6457
g70
I4
ssg71
g6451
sg64
(lp6458
g57
(g66
g59
NtRp6459
(dp6460
g62
(dp6461
g70
I3
ssg71
Nsg64
(lp6462
g57
(g73
g59
NtRp6463
(dp6464
g62
(dp6465
sg71
g6459
sg64
(lp6466
g57
(g78
g59
NtRp6467
(dp6468
g62
(dp6469
sg71
g6463
sg64
(lp6470
g57
(g58
g59
NtRp6471
(dp6472
g62
(dp6473
g70
I3
ssg71
g6467
sg64
(lp6474
g5132
asbasbasbag57
(g73
g59
NtRp6475
(dp6476
g62
(dp6477
sg71
g6459
sg64
(lp6478
g57
(g78
g59
NtRp6479
(dp6480
g62
(dp6481
sg71
g6475
sg64
(lp6482
g57
(g58
g59
NtRp6483
(dp6484
g62
(dp6485
g70
I3
ssg71
g6479
sg64
(lp6486
g100
asbasbasbag57
(g73
g59
NtRp6487
(dp6488
g62
(dp6489
sg71
g6459
sg64
(lp6490
g57
(g78
g59
NtRp6491
(dp6492
g62
(dp6493
sg71
g6487
sg64
(lp6494
g57
(g58
g59
NtRp6495
(dp6496
g62
(dp6497
g70
I3
ssg71
g6491
sg64
(lp6498
g5157
asbasbasbag57
(g73
g59
NtRp6499
(dp6500
g62
(dp6501
sg71
g6459
sg64
(lp6502
g57
(g78
g59
NtRp6503
(dp6504
g62
(dp6505
sg71
g6499
sg64
(lp6506
g57
(g58
g59
NtRp6507
(dp6508
g62
(dp6509
g70
I3
ssg71
g6503
sg64
(lp6510
g57
(g66
g59
NtRp6511
(dp6512
g62
(dp6513
g70
I2
ssg71
Nsg64
(lp6514
sbasbasbasbasbasbasbasbag57
(g73
g59
NtRp6515
(dp6516
g62
(dp6517
sg71
g6167
sg64
(lp6518
g57
(g78
g59
NtRp6519
(dp6520
g62
(dp6521
sg71
g6515
sg64
(lp6522
g57
(g58
g59
NtRp6523
(dp6524
g62
(dp6525
g70
I4
ssg71
g6519
sg64
(lp6526
g57
(g66
g59
NtRp6527
(dp6528
g62
(dp6529
g70
I3
ssg71
Nsg64
(lp6530
g57
(g73
g59
NtRp6531
(dp6532
g62
(dp6533
sg71
g6527
sg64
(lp6534
g57
(g78
g59
NtRp6535
(dp6536
g62
(dp6537
sg71
g6531
sg64
(lp6538
g57
(g58
g59
NtRp6539
(dp6540
g62
(dp6541
g70
I3
ssg71
g6535
sg64
(lp6542
g4194
(S's\x0e\x00\x00\x00Outing Details'
tRp6543
asbasbasbag57
(g73
g59
NtRp6544
(dp6545
g62
(dp6546
sg71
g6527
sg64
(lp6547
g57
(g78
g59
NtRp6548
(dp6549
g62
(dp6550
sg71
g6544
sg64
(lp6551
g57
(g58
g59
NtRp6552
(dp6553
g62
(dp6554
g70
I3
ssg71
g6548
sg64
(lp6555
g100
asbasbasbag57
(g73
g59
NtRp6556
(dp6557
g62
(dp6558
sg71
g6527
sg64
(lp6559
g57
(g78
g59
NtRp6560
(dp6561
g62
(dp6562
sg71
g6556
sg64
(lp6563
g57
(g58
g59
NtRp6564
(dp6565
g62
(dp6566
g70
I3
ssg71
g6560
sg64
(lp6567
S'/hostel/default/student_out_details'
p6568
asbasbasbag57
(g73
g59
NtRp6569
(dp6570
g62
(dp6571
sg71
g6527
sg64
(lp6572
g57
(g78
g59
NtRp6573
(dp6574
g62
(dp6575
sg71
g6569
sg64
(lp6576
g57
(g58
g59
NtRp6577
(dp6578
g62
(dp6579
g70
I3
ssg71
g6573
sg64
(lp6580
g57
(g66
g59
NtRp6581
(dp6582
g62
(dp6583
g70
I2
ssg71
Nsg64
(lp6584
sbasbasbasbasbasbasbasbasbasbasbasbag57
(g73
g59
NtRp6585
(dp6586
g62
(dp6587
sg71
g4137
sg64
(lp6588
g57
(g78
g59
NtRp6589
(dp6590
g62
(dp6591
g82
g83
ssg71
g6585
sg64
(lp6592
S'staff_vcomplaint'
p6593
asbag57
(g78
g59
NtRp6594
(dp6595
g62
(dp6596
g89
g90
ssg71
g6585
sg64
(lp6597
S':'
asbag57
(g78
g59
NtRp6598
(dp6599
g62
(dp6600
sg71
g6585
sg64
(lp6601
g57
(g58
g59
NtRp6602
(dp6603
g62
(dp6604
g70
I5
ssg71
g6598
sg64
(lp6605
g57
(g66
g59
NtRp6606
(dp6607
g62
(dp6608
g70
I4
ssg71
Nsg64
(lp6609
g57
(g73
g59
NtRp6610
(dp6611
g62
(dp6612
sg71
g6606
sg64
(lp6613
g57
(g78
g59
NtRp6614
(dp6615
g62
(dp6616
sg71
g6610
sg64
(lp6617
g57
(g58
g59
NtRp6618
(dp6619
g62
(dp6620
g70
I4
ssg71
g6614
sg64
(lp6621
g57
(g66
g59
NtRp6622
(dp6623
g62
(dp6624
g70
I3
ssg71
Nsg64
(lp6625
g57
(g73
g59
NtRp6626
(dp6627
g62
(dp6628
sg71
g6622
sg64
(lp6629
g57
(g78
g59
NtRp6630
(dp6631
g62
(dp6632
sg71
g6626
sg64
(lp6633
g57
(g58
g59
NtRp6634
(dp6635
g62
(dp6636
g70
I3
ssg71
g6630
sg64
(lp6637
g6267
asbasbasbag57
(g73
g59
NtRp6638
(dp6639
g62
(dp6640
sg71
g6622
sg64
(lp6641
g57
(g78
g59
NtRp6642
(dp6643
g62
(dp6644
sg71
g6638
sg64
(lp6645
g57
(g58
g59
NtRp6646
(dp6647
g62
(dp6648
g70
I3
ssg71
g6642
sg64
(lp6649
g100
asbasbasbag57
(g73
g59
NtRp6650
(dp6651
g62
(dp6652
sg71
g6622
sg64
(lp6653
g57
(g78
g59
NtRp6654
(dp6655
g62
(dp6656
sg71
g6650
sg64
(lp6657
g57
(g58
g59
NtRp6658
(dp6659
g62
(dp6660
g70
I3
ssg71
g6654
sg64
(lp6661
g6292
asbasbasbag57
(g73
g59
NtRp6662
(dp6663
g62
(dp6664
sg71
g6622
sg64
(lp6665
g57
(g78
g59
NtRp6666
(dp6667
g62
(dp6668
sg71
g6662
sg64
(lp6669
g57
(g58
g59
NtRp6670
(dp6671
g62
(dp6672
g70
I3
ssg71
g6666
sg64
(lp6673
g57
(g66
g59
NtRp6674
(dp6675
g62
(dp6676
g70
I2
ssg71
Nsg64
(lp6677
sbasbasbasbasbasbasbasbasbasbasbasbag57
(g73
g59
NtRp6678
(dp6679
g62
(dp6680
sg71
g4137
sg64
(lp6681
g57
(g78
g59
NtRp6682
(dp6683
g62
(dp6684
g82
g83
ssg71
g6678
sg64
(lp6685
S'status'
p6686
asbag57
(g78
g59
NtRp6687
(dp6688
g62
(dp6689
g89
g90
ssg71
g6678
sg64
(lp6690
S':'
asbag57
(g78
g59
NtRp6691
(dp6692
g62
(dp6693
sg71
g6678
sg64
(lp6694
g57
(g58
g59
NtRp6695
(dp6696
g62
(dp6697
g70
I5
ssg71
g6691
sg64
(lp6698
S'200'
p6699
asbasbasbag57
(g73
g59
NtRp6700
(dp6701
g62
(dp6702
sg71
g4137
sg64
(lp6703
g57
(g78
g59
NtRp6704
(dp6705
g62
(dp6706
g82
g83
ssg71
g6700
sg64
(lp6707
S'student'
p6708
asbag57
(g78
g59
NtRp6709
(dp6710
g62
(dp6711
g89
g90
ssg71
g6700
sg64
(lp6712
S':'
asbag57
(g78
g59
NtRp6713
(dp6714
g62
(dp6715
sg71
g6700
sg64
(lp6716
g57
(g58
g59
NtRp6717
(dp6718
g62
(dp6719
g70
I5
ssg71
g6713
sg64
(lp6720
g57
(g66
g59
NtRp6721
(dp6722
g62
(dp6723
g70
I4
ssg71
Nsg64
(lp6724
g57
(g73
g59
NtRp6725
(dp6726
g62
(dp6727
sg71
g6721
sg64
(lp6728
g57
(g78
g59
NtRp6729
(dp6730
g62
(dp6731
sg71
g6725
sg64
(lp6732
g57
(g58
g59
NtRp6733
(dp6734
g62
(dp6735
g70
I4
ssg71
g6729
sg64
(lp6736
g57
(g66
g59
NtRp6737
(dp6738
g62
(dp6739
g70
I3
ssg71
Nsg64
(lp6740
g57
(g73
g59
NtRp6741
(dp6742
g62
(dp6743
sg71
g6737
sg64
(lp6744
g57
(g78
g59
NtRp6745
(dp6746
g62
(dp6747
sg71
g6741
sg64
(lp6748
g57
(g58
g59
NtRp6749
(dp6750
g62
(dp6751
g70
I3
ssg71
g6745
sg64
(lp6752
g4195
asbasbasbag57
(g73
g59
NtRp6753
(dp6754
g62
(dp6755
sg71
g6737
sg64
(lp6756
g57
(g78
g59
NtRp6757
(dp6758
g62
(dp6759
sg71
g6753
sg64
(lp6760
g57
(g58
g59
NtRp6761
(dp6762
g62
(dp6763
g70
I3
ssg71
g6757
sg64
(lp6764
g100
asbasbasbag57
(g73
g59
NtRp6765
(dp6766
g62
(dp6767
sg71
g6737
sg64
(lp6768
g57
(g78
g59
NtRp6769
(dp6770
g62
(dp6771
sg71
g6765
sg64
(lp6772
g57
(g58
g59
NtRp6773
(dp6774
g62
(dp6775
g70
I3
ssg71
g6769
sg64
(lp6776
g4220
asbasbasbag57
(g73
g59
NtRp6777
(dp6778
g62
(dp6779
sg71
g6737
sg64
(lp6780
g57
(g78
g59
NtRp6781
(dp6782
g62
(dp6783
sg71
g6777
sg64
(lp6784
g57
(g58
g59
NtRp6785
(dp6786
g62
(dp6787
g70
I3
ssg71
g6781
sg64
(lp6788
g57
(g66
g59
NtRp6789
(dp6790
g62
(dp6791
g70
I2
ssg71
Nsg64
(lp6792
sbasbasbasbasbasbasbasbag57
(g73
g59
NtRp6793
(dp6794
g62
(dp6795
sg71
g6721
sg64
(lp6796
g57
(g78
g59
NtRp6797
(dp6798
g62
(dp6799
sg71
g6793
sg64
(lp6800
g57
(g58
g59
NtRp6801
(dp6802
g62
(dp6803
g70
I4
ssg71
g6797
sg64
(lp6804
g57
(g66
g59
NtRp6805
(dp6806
g62
(dp6807
g70
I3
ssg71
Nsg64
(lp6808
g57
(g73
g59
NtRp6809
(dp6810
g62
(dp6811
sg71
g6805
sg64
(lp6812
g57
(g78
g59
NtRp6813
(dp6814
g62
(dp6815
sg71
g6809
sg64
(lp6816
g57
(g58
g59
NtRp6817
(dp6818
g62
(dp6819
g70
I3
ssg71
g6813
sg64
(lp6820
g4684
asbasbasbag57
(g73
g59
NtRp6821
(dp6822
g62
(dp6823
sg71
g6805
sg64
(lp6824
g57
(g78
g59
NtRp6825
(dp6826
g62
(dp6827
sg71
g6821
sg64
(lp6828
g57
(g58
g59
NtRp6829
(dp6830
g62
(dp6831
g70
I3
ssg71
g6825
sg64
(lp6832
g100
asbasbasbag57
(g73
g59
NtRp6833
(dp6834
g62
(dp6835
sg71
g6805
sg64
(lp6836
g57
(g78
g59
NtRp6837
(dp6838
g62
(dp6839
sg71
g6833
sg64
(lp6840
g57
(g58
g59
NtRp6841
(dp6842
g62
(dp6843
g70
I3
ssg71
g6837
sg64
(lp6844
g4709
asbasbasbag57
(g73
g59
NtRp6845
(dp6846
g62
(dp6847
sg71
g6805
sg64
(lp6848
g57
(g78
g59
NtRp6849
(dp6850
g62
(dp6851
sg71
g6845
sg64
(lp6852
g57
(g58
g59
NtRp6853
(dp6854
g62
(dp6855
g70
I3
ssg71
g6849
sg64
(lp6856
g57
(g66
g59
NtRp6857
(dp6858
g62
(dp6859
g70
I2
ssg71
Nsg64
(lp6860
sbasbasbasbasbasbasbasbag57
(g73
g59
NtRp6861
(dp6862
g62
(dp6863
sg71
g6721
sg64
(lp6864
g57
(g78
g59
NtRp6865
(dp6866
g62
(dp6867
sg71
g6861
sg64
(lp6868
g57
(g58
g59
NtRp6869
(dp6870
g62
(dp6871
g70
I4
ssg71
g6865
sg64
(lp6872
g57
(g66
g59
NtRp6873
(dp6874
g62
(dp6875
g70
I3
ssg71
Nsg64
(lp6876
g57
(g73
g59
NtRp6877
(dp6878
g62
(dp6879
sg71
g6873
sg64
(lp6880
g57
(g78
g59
NtRp6881
(dp6882
g62
(dp6883
sg71
g6877
sg64
(lp6884
g57
(g58
g59
NtRp6885
(dp6886
g62
(dp6887
g70
I3
ssg71
g6881
sg64
(lp6888
g4194
(S's\x0c\x00\x00\x00Room Vacancy'
tRp6889
asbasbasbag57
(g73
g59
NtRp6890
(dp6891
g62
(dp6892
sg71
g6873
sg64
(lp6893
g57
(g78
g59
NtRp6894
(dp6895
g62
(dp6896
sg71
g6890
sg64
(lp6897
g57
(g58
g59
NtRp6898
(dp6899
g62
(dp6900
g70
I3
ssg71
g6894
sg64
(lp6901
g100
asbasbasbag57
(g73
g59
NtRp6902
(dp6903
g62
(dp6904
sg71
g6873
sg64
(lp6905
g57
(g78
g59
NtRp6906
(dp6907
g62
(dp6908
sg71
g6902
sg64
(lp6909
g57
(g58
g59
NtRp6910
(dp6911
g62
(dp6912
g70
I3
ssg71
g6906
sg64
(lp6913
S'/hostel/default/view_vacant_rooms'
p6914
asbasbasbag57
(g73
g59
NtRp6915
(dp6916
g62
(dp6917
sg71
g6873
sg64
(lp6918
g57
(g78
g59
NtRp6919
(dp6920
g62
(dp6921
sg71
g6915
sg64
(lp6922
g57
(g58
g59
NtRp6923
(dp6924
g62
(dp6925
g70
I3
ssg71
g6919
sg64
(lp6926
g57
(g66
g59
NtRp6927
(dp6928
g62
(dp6929
g70
I2
ssg71
Nsg64
(lp6930
sbasbasbasbasbasbasbasbag57
(g73
g59
NtRp6931
(dp6932
g62
(dp6933
sg71
g6721
sg64
(lp6934
g57
(g78
g59
NtRp6935
(dp6936
g62
(dp6937
sg71
g6931
sg64
(lp6938
g57
(g58
g59
NtRp6939
(dp6940
g62
(dp6941
g70
I4
ssg71
g6935
sg64
(lp6942
g57
(g66
g59
NtRp6943
(dp6944
g62
(dp6945
g70
I3
ssg71
Nsg64
(lp6946
g57
(g73
g59
NtRp6947
(dp6948
g62
(dp6949
sg71
g6943
sg64
(lp6950
g57
(g78
g59
NtRp6951
(dp6952
g62
(dp6953
sg71
g6947
sg64
(lp6954
g57
(g58
g59
NtRp6955
(dp6956
g62
(dp6957
g70
I3
ssg71
g6951
sg64
(lp6958
g5452
asbasbasbag57
(g73
g59
NtRp6959
(dp6960
g62
(dp6961
sg71
g6943
sg64
(lp6962
g57
(g78
g59
NtRp6963
(dp6964
g62
(dp6965
sg71
g6959
sg64
(lp6966
g57
(g58
g59
NtRp6967
(dp6968
g62
(dp6969
g70
I3
ssg71
g6963
sg64
(lp6970
g100
asbasbasbag57
(g73
g59
NtRp6971
(dp6972
g62
(dp6973
sg71
g6943
sg64
(lp6974
g57
(g78
g59
NtRp6975
(dp6976
g62
(dp6977
sg71
g6971
sg64
(lp6978
g57
(g58
g59
NtRp6979
(dp6980
g62
(dp6981
g70
I3
ssg71
g6975
sg64
(lp6982
g5477
asbasbasbag57
(g73
g59
NtRp6983
(dp6984
g62
(dp6985
sg71
g6943
sg64
(lp6986
g57
(g78
g59
NtRp6987
(dp6988
g62
(dp6989
sg71
g6983
sg64
(lp6990
g57
(g58
g59
NtRp6991
(dp6992
g62
(dp6993
g70
I3
ssg71
g6987
sg64
(lp6994
g57
(g66
g59
NtRp6995
(dp6996
g62
(dp6997
g70
I2
ssg71
Nsg64
(lp6998
sbasbasbasbasbasbasbasbag57
(g73
g59
NtRp6999
(dp7000
g62
(dp7001
sg71
g6721
sg64
(lp7002
g57
(g78
g59
NtRp7003
(dp7004
g62
(dp7005
sg71
g6999
sg64
(lp7006
g57
(g58
g59
NtRp7007
(dp7008
g62
(dp7009
g70
I4
ssg71
g7003
sg64
(lp7010
g57
(g66
g59
NtRp7011
(dp7012
g62
(dp7013
g70
I3
ssg71
Nsg64
(lp7014
g57
(g73
g59
NtRp7015
(dp7016
g62
(dp7017
sg71
g7011
sg64
(lp7018
g57
(g78
g59
NtRp7019
(dp7020
g62
(dp7021
sg71
g7015
sg64
(lp7022
g57
(g58
g59
NtRp7023
(dp7024
g62
(dp7025
g70
I3
ssg71
g7019
sg64
(lp7026
g4194
(S't\x05\x00\x00\x00Rules'
tRp7027
asbasbasbag57
(g73
g59
NtRp7028
(dp7029
g62
(dp7030
sg71
g7011
sg64
(lp7031
g57
(g78
g59
NtRp7032
(dp7033
g62
(dp7034
sg71
g7028
sg64
(lp7035
g57
(g58
g59
NtRp7036
(dp7037
g62
(dp7038
g70
I3
ssg71
g7032
sg64
(lp7039
g100
asbasbasbag57
(g73
g59
NtRp7040
(dp7041
g62
(dp7042
sg71
g7011
sg64
(lp7043
g57
(g78
g59
NtRp7044
(dp7045
g62
(dp7046
sg71
g7040
sg64
(lp7047
g57
(g58
g59
NtRp7048
(dp7049
g62
(dp7050
g70
I3
ssg71
g7044
sg64
(lp7051
S'/hostel/default/studentrules'
p7052
asbasbasbag57
(g73
g59
NtRp7053
(dp7054
g62
(dp7055
sg71
g7011
sg64
(lp7056
g57
(g78
g59
NtRp7057
(dp7058
g62
(dp7059
sg71
g7053
sg64
(lp7060
g57
(g58
g59
NtRp7061
(dp7062
g62
(dp7063
g70
I3
ssg71
g7057
sg64
(lp7064
g57
(g66
g59
NtRp7065
(dp7066
g62
(dp7067
g70
I2
ssg71
Nsg64
(lp7068
sbasbasbasbasbasbasbasbasbasbasbasbag57
(g73
g59
NtRp7069
(dp7070
g62
(dp7071
sg71
g4137
sg64
(lp7072
g57
(g78
g59
NtRp7073
(dp7074
g62
(dp7075
g82
g83
ssg71
g7069
sg64
(lp7076
S'student_out_details'
p7077
asbag57
(g78
g59
NtRp7078
(dp7079
g62
(dp7080
g89
g90
ssg71
g7069
sg64
(lp7081
S':'
asbag57
(g78
g59
NtRp7082
(dp7083
g62
(dp7084
sg71
g7069
sg64
(lp7085
g57
(g58
g59
NtRp7086
(dp7087
g62
(dp7088
g70
I5
ssg71
g7082
sg64
(lp7089
g57
(g66
g59
NtRp7090
(dp7091
g62
(dp7092
g70
I4
ssg71
Nsg64
(lp7093
g57
(g73
g59
NtRp7094
(dp7095
g62
(dp7096
sg71
g7090
sg64
(lp7097
g57
(g78
g59
NtRp7098
(dp7099
g62
(dp7100
sg71
g7094
sg64
(lp7101
g57
(g58
g59
NtRp7102
(dp7103
g62
(dp7104
g70
I4
ssg71
g7098
sg64
(lp7105
g57
(g66
g59
NtRp7106
(dp7107
g62
(dp7108
g70
I3
ssg71
Nsg64
(lp7109
g57
(g73
g59
NtRp7110
(dp7111
g62
(dp7112
sg71
g7106
sg64
(lp7113
g57
(g78
g59
NtRp7114
(dp7115
g62
(dp7116
sg71
g7110
sg64
(lp7117
g57
(g58
g59
NtRp7118
(dp7119
g62
(dp7120
g70
I3
ssg71
g7114
sg64
(lp7121
g6543
asbasbasbag57
(g73
g59
NtRp7122
(dp7123
g62
(dp7124
sg71
g7106
sg64
(lp7125
g57
(g78
g59
NtRp7126
(dp7127
g62
(dp7128
sg71
g7122
sg64
(lp7129
g57
(g58
g59
NtRp7130
(dp7131
g62
(dp7132
g70
I3
ssg71
g7126
sg64
(lp7133
g100
asbasbasbag57
(g73
g59
NtRp7134
(dp7135
g62
(dp7136
sg71
g7106
sg64
(lp7137
g57
(g78
g59
NtRp7138
(dp7139
g62
(dp7140
sg71
g7134
sg64
(lp7141
g57
(g58
g59
NtRp7142
(dp7143
g62
(dp7144
g70
I3
ssg71
g7138
sg64
(lp7145
g6568
asbasbasbag57
(g73
g59
NtRp7146
(dp7147
g62
(dp7148
sg71
g7106
sg64
(lp7149
g57
(g78
g59
NtRp7150
(dp7151
g62
(dp7152
sg71
g7146
sg64
(lp7153
g57
(g58
g59
NtRp7154
(dp7155
g62
(dp7156
g70
I3
ssg71
g7150
sg64
(lp7157
g57
(g66
g59
NtRp7158
(dp7159
g62
(dp7160
g70
I2
ssg71
Nsg64
(lp7161
sbasbasbasbasbasbasbasbasbasbasbasbag57
(g73
g59
NtRp7162
(dp7163
g62
(dp7164
sg71
g4137
sg64
(lp7165
g57
(g78
g59
NtRp7166
(dp7167
g62
(dp7168
g82
g83
ssg71
g7162
sg64
(lp7169
S'studentrules'
p7170
asbag57
(g78
g59
NtRp7171
(dp7172
g62
(dp7173
g89
g90
ssg71
g7162
sg64
(lp7174
S':'
asbag57
(g78
g59
NtRp7175
(dp7176
g62
(dp7177
sg71
g7162
sg64
(lp7178
g57
(g58
g59
NtRp7179
(dp7180
g62
(dp7181
g70
I5
ssg71
g7175
sg64
(lp7182
g57
(g66
g59
NtRp7183
(dp7184
g62
(dp7185
g70
I4
ssg71
Nsg64
(lp7186
g57
(g73
g59
NtRp7187
(dp7188
g62
(dp7189
sg71
g7183
sg64
(lp7190
g57
(g78
g59
NtRp7191
(dp7192
g62
(dp7193
sg71
g7187
sg64
(lp7194
g57
(g58
g59
NtRp7195
(dp7196
g62
(dp7197
g70
I4
ssg71
g7191
sg64
(lp7198
g57
(g66
g59
NtRp7199
(dp7200
g62
(dp7201
g70
I3
ssg71
Nsg64
(lp7202
g57
(g73
g59
NtRp7203
(dp7204
g62
(dp7205
sg71
g7199
sg64
(lp7206
g57
(g78
g59
NtRp7207
(dp7208
g62
(dp7209
sg71
g7203
sg64
(lp7210
g57
(g58
g59
NtRp7211
(dp7212
g62
(dp7213
g70
I3
ssg71
g7207
sg64
(lp7214
g7027
asbasbasbag57
(g73
g59
NtRp7215
(dp7216
g62
(dp7217
sg71
g7199
sg64
(lp7218
g57
(g78
g59
NtRp7219
(dp7220
g62
(dp7221
sg71
g7215
sg64
(lp7222
g57
(g58
g59
NtRp7223
(dp7224
g62
(dp7225
g70
I3
ssg71
g7219
sg64
(lp7226
g100
asbasbasbag57
(g73
g59
NtRp7227
(dp7228
g62
(dp7229
sg71
g7199
sg64
(lp7230
g57
(g78
g59
NtRp7231
(dp7232
g62
(dp7233
sg71
g7227
sg64
(lp7234
g57
(g58
g59
NtRp7235
(dp7236
g62
(dp7237
g70
I3
ssg71
g7231
sg64
(lp7238
g7052
asbasbasbag57
(g73
g59
NtRp7239
(dp7240
g62
(dp7241
sg71
g7199
sg64
(lp7242
g57
(g78
g59
NtRp7243
(dp7244
g62
(dp7245
sg71
g7239
sg64
(lp7246
g57
(g58
g59
NtRp7247
(dp7248
g62
(dp7249
g70
I3
ssg71
g7243
sg64
(lp7250
g57
(g66
g59
NtRp7251
(dp7252
g62
(dp7253
g70
I2
ssg71
Nsg64
(lp7254
sbasbasbasbasbasbasbasbasbasbasbasbag57
(g73
g59
NtRp7255
(dp7256
g62
(dp7257
sg71
g4137
sg64
(lp7258
g57
(g78
g59
NtRp7259
(dp7260
g62
(dp7261
g82
g83
ssg71
g7255
sg64
(lp7262
S'subtitle'
p7263
asbag57
(g78
g59
NtRp7264
(dp7265
g62
(dp7266
g89
g90
ssg71
g7255
sg64
(lp7267
S':'
asbag57
(g78
g59
NtRp7268
(dp7269
g62
(dp7270
sg71
g7255
sg64
(lp7271
g57
(g58
g59
NtRp7272
(dp7273
g62
(dp7274
g70
I5
ssg71
g7268
sg64
(lp7275
S'powered by web2py'
p7276
asbasbasbag57
(g73
g59
NtRp7277
(dp7278
g62
(dp7279
sg71
g4137
sg64
(lp7280
g57
(g78
g59
NtRp7281
(dp7282
g62
(dp7283
g82
g83
ssg71
g7277
sg64
(lp7284
S'title'
p7285
asbag57
(g78
g59
NtRp7286
(dp7287
g62
(dp7288
g89
g90
ssg71
g7277
sg64
(lp7289
S':'
asbag57
(g78
g59
NtRp7290
(dp7291
g62
(dp7292
sg71
g7277
sg64
(lp7293
g57
(g58
g59
NtRp7294
(dp7295
g62
(dp7296
g70
I5
ssg71
g7290
sg64
(lp7297
S'IIIT-H Hostel Management Portal'
p7298
asbasbasbag57
(g73
g59
NtRp7299
(dp7300
g62
(dp7301
sg71
g4137
sg64
(lp7302
g57
(g78
g59
NtRp7303
(dp7304
g62
(dp7305
g82
g83
ssg71
g7299
sg64
(lp7306
S'vcomplaint'
p7307
asbag57
(g78
g59
NtRp7308
(dp7309
g62
(dp7310
g89
g90
ssg71
g7299
sg64
(lp7311
S':'
asbag57
(g78
g59
NtRp7312
(dp7313
g62
(dp7314
sg71
g7299
sg64
(lp7315
g57
(g58
g59
NtRp7316
(dp7317
g62
(dp7318
g70
I5
ssg71
g7312
sg64
(lp7319
g57
(g66
g59
NtRp7320
(dp7321
g62
(dp7322
g70
I4
ssg71
Nsg64
(lp7323
g57
(g73
g59
NtRp7324
(dp7325
g62
(dp7326
sg71
g7320
sg64
(lp7327
g57
(g78
g59
NtRp7328
(dp7329
g62
(dp7330
sg71
g7324
sg64
(lp7331
g57
(g58
g59
NtRp7332
(dp7333
g62
(dp7334
g70
I4
ssg71
g7328
sg64
(lp7335
g57
(g66
g59
NtRp7336
(dp7337
g62
(dp7338
g70
I3
ssg71
Nsg64
(lp7339
g57
(g73
g59
NtRp7340
(dp7341
g62
(dp7342
sg71
g7336
sg64
(lp7343
g57
(g78
g59
NtRp7344
(dp7345
g62
(dp7346
sg71
g7340
sg64
(lp7347
g57
(g58
g59
NtRp7348
(dp7349
g62
(dp7350
g70
I3
ssg71
g7344
sg64
(lp7351
g4265
asbasbasbag57
(g73
g59
NtRp7352
(dp7353
g62
(dp7354
sg71
g7336
sg64
(lp7355
g57
(g78
g59
NtRp7356
(dp7357
g62
(dp7358
sg71
g7352
sg64
(lp7359
g57
(g58
g59
NtRp7360
(dp7361
g62
(dp7362
g70
I3
ssg71
g7356
sg64
(lp7363
g100
asbasbasbag57
(g73
g59
NtRp7364
(dp7365
g62
(dp7366
sg71
g7336
sg64
(lp7367
g57
(g78
g59
NtRp7368
(dp7369
g62
(dp7370
sg71
g7364
sg64
(lp7371
g57
(g58
g59
NtRp7372
(dp7373
g62
(dp7374
g70
I3
ssg71
g7368
sg64
(lp7375
g4290
asbasbasbag57
(g73
g59
NtRp7376
(dp7377
g62
(dp7378
sg71
g7336
sg64
(lp7379
g57
(g78
g59
NtRp7380
(dp7381
g62
(dp7382
sg71
g7376
sg64
(lp7383
g57
(g58
g59
NtRp7384
(dp7385
g62
(dp7386
g70
I3
ssg71
g7380
sg64
(lp7387
g57
(g66
g59
NtRp7388
(dp7389
g62
(dp7390
g70
I2
ssg71
Nsg64
(lp7391
sbasbasbasbasbasbasbasbasbasbasbasbag57
(g73
g59
NtRp7392
(dp7393
g62
(dp7394
sg71
g4137
sg64
(lp7395
g57
(g78
g59
NtRp7396
(dp7397
g62
(dp7398
g82
g83
ssg71
g7392
sg64
(lp7399
S'view'
p7400
asbag57
(g78
g59
NtRp7401
(dp7402
g62
(dp7403
g89
g90
ssg71
g7392
sg64
(lp7404
S':'
asbag57
(g78
g59
NtRp7405
(dp7406
g62
(dp7407
sg71
g7392
sg64
(lp7408
g57
(g58
g59
NtRp7409
(dp7410
g62
(dp7411
g70
I5
ssg71
g7405
sg64
(lp7412
S'default/login.html'
p7413
asbasbasbag57
(g73
g59
NtRp7414
(dp7415
g62
(dp7416
sg71
g4137
sg64
(lp7417
g57
(g78
g59
NtRp7418
(dp7419
g62
(dp7420
g82
g83
ssg71
g7414
sg64
(lp7421
S'view_rooms'
p7422
asbag57
(g78
g59
NtRp7423
(dp7424
g62
(dp7425
g89
g90
ssg71
g7414
sg64
(lp7426
S':'
asbag57
(g78
g59
NtRp7427
(dp7428
g62
(dp7429
sg71
g7414
sg64
(lp7430
g57
(g58
g59
NtRp7431
(dp7432
g62
(dp7433
g70
I5
ssg71
g7427
sg64
(lp7434
g57
(g66
g59
NtRp7435
(dp7436
g62
(dp7437
g70
I4
ssg71
Nsg64
(lp7438
g57
(g73
g59
NtRp7439
(dp7440
g62
(dp7441
sg71
g7435
sg64
(lp7442
g57
(g78
g59
NtRp7443
(dp7444
g62
(dp7445
sg71
g7439
sg64
(lp7446
g57
(g58
g59
NtRp7447
(dp7448
g62
(dp7449
g70
I4
ssg71
g7443
sg64
(lp7450
g57
(g66
g59
NtRp7451
(dp7452
g62
(dp7453
g70
I3
ssg71
Nsg64
(lp7454
g57
(g73
g59
NtRp7455
(dp7456
g62
(dp7457
sg71
g7451
sg64
(lp7458
g57
(g78
g59
NtRp7459
(dp7460
g62
(dp7461
sg71
g7455
sg64
(lp7462
g57
(g58
g59
NtRp7463
(dp7464
g62
(dp7465
g70
I3
ssg71
g7459
sg64
(lp7466
g6889
asbasbasbag57
(g73
g59
NtRp7467
(dp7468
g62
(dp7469
sg71
g7451
sg64
(lp7470
g57
(g78
g59
NtRp7471
(dp7472
g62
(dp7473
sg71
g7467
sg64
(lp7474
g57
(g58
g59
NtRp7475
(dp7476
g62
(dp7477
g70
I3
ssg71
g7471
sg64
(lp7478
g100
asbasbasbag57
(g73
g59
NtRp7479
(dp7480
g62
(dp7481
sg71
g7451
sg64
(lp7482
g57
(g78
g59
NtRp7483
(dp7484
g62
(dp7485
sg71
g7479
sg64
(lp7486
g57
(g58
g59
NtRp7487
(dp7488
g62
(dp7489
g70
I3
ssg71
g7483
sg64
(lp7490
g6914
asbasbasbag57
(g73
g59
NtRp7491
(dp7492
g62
(dp7493
sg71
g7451
sg64
(lp7494
g57
(g78
g59
NtRp7495
(dp7496
g62
(dp7497
sg71
g7491
sg64
(lp7498
g57
(g58
g59
NtRp7499
(dp7500
g62
(dp7501
g70
I3
ssg71
g7495
sg64
(lp7502
g57
(g66
g59
NtRp7503
(dp7504
g62
(dp7505
g70
I2
ssg71
Nsg64
(lp7506
sbasbasbasbasbasbasbasbasbasbasbasbag57
(g73
g59
NtRp7507
(dp7508
g62
(dp7509
sg71
g4137
sg64
(lp7510
g57
(g78
g59
NtRp7511
(dp7512
g62
(dp7513
g82
g83
ssg71
g7507
sg64
(lp7514
S'vmedical'
p7515
asbag57
(g78
g59
NtRp7516
(dp7517
g62
(dp7518
g89
g90
ssg71
g7507
sg64
(lp7519
S':'
asbag57
(g78
g59
NtRp7520
(dp7521
g62
(dp7522
sg71
g7507
sg64
(lp7523
g57
(g58
g59
NtRp7524
(dp7525
g62
(dp7526
g70
I5
ssg71
g7520
sg64
(lp7527
g57
(g66
g59
NtRp7528
(dp7529
g62
(dp7530
g70
I4
ssg71
Nsg64
(lp7531
g57
(g73
g59
NtRp7532
(dp7533
g62
(dp7534
sg71
g7528
sg64
(lp7535
g57
(g78
g59
NtRp7536
(dp7537
g62
(dp7538
sg71
g7532
sg64
(lp7539
g57
(g58
g59
NtRp7540
(dp7541
g62
(dp7542
g70
I4
ssg71
g7536
sg64
(lp7543
g57
(g66
g59
NtRp7544
(dp7545
g62
(dp7546
g70
I3
ssg71
Nsg64
(lp7547
g57
(g73
g59
NtRp7548
(dp7549
g62
(dp7550
sg71
g7544
sg64
(lp7551
g57
(g78
g59
NtRp7552
(dp7553
g62
(dp7554
sg71
g7548
sg64
(lp7555
g57
(g58
g59
NtRp7556
(dp7557
g62
(dp7558
g70
I3
ssg71
g7552
sg64
(lp7559
g6337
asbasbasbag57
(g73
g59
NtRp7560
(dp7561
g62
(dp7562
sg71
g7544
sg64
(lp7563
g57
(g78
g59
NtRp7564
(dp7565
g62
(dp7566
sg71
g7560
sg64
(lp7567
g57
(g58
g59
NtRp7568
(dp7569
g62
(dp7570
g70
I3
ssg71
g7564
sg64
(lp7571
g100
asbasbasbag57
(g73
g59
NtRp7572
(dp7573
g62
(dp7574
sg71
g7544
sg64
(lp7575
g57
(g78
g59
NtRp7576
(dp7577
g62
(dp7578
sg71
g7572
sg64
(lp7579
g57
(g58
g59
NtRp7580
(dp7581
g62
(dp7582
g70
I3
ssg71
g7576
sg64
(lp7583
g6362
asbasbasbag57
(g73
g59
NtRp7584
(dp7585
g62
(dp7586
sg71
g7544
sg64
(lp7587
g57
(g78
g59
NtRp7588
(dp7589
g62
(dp7590
sg71
g7584
sg64
(lp7591
g57
(g58
g59
NtRp7592
(dp7593
g62
(dp7594
g70
I3
ssg71
g7588
sg64
(lp7595
g57
(g66
g59
NtRp7596
(dp7597
g62
(dp7598
g70
I2
ssg71
Nsg64
(lp7599
sbasbasbasbasbasbasbasbasbasbasbasbasbasbsS'locals'
p7600
(dp7601
S'i'
S'0'
sS'self'
p7602
S'<Rows (0)>'
p7603
sssS'traceback'
p7604
S'Traceback (most recent call last):\n  File "/home/bhanu/web2py/gluon/restricted.py", line 212, in restricted\n    exec ccode in environment\n  File "/home/bhanu/web2py/applications/hostel/controllers/default.py", line 888, in <module>\n  File "/home/bhanu/web2py/gluon/globals.py", line 188, in <lambda>\n    self._caller = lambda f: f()\n  File "/home/bhanu/web2py/applications/hostel/controllers/default.py", line 29, in login\n    session.name=name[0].name\n  File "/home/bhanu/web2py/gluon/dal.py", line 9051, in __getitem__\n    row = self.records[i]\nIndexError: list index out of range\n'
p7605
s.