(dp1
S'output'
p2
S"<type 'exceptions.NameError'> name 'form' is not defined"
p3
sS'layer'
p4
S'/home/bhanu/web2py/applications/sss/views/generic.html'
p5
sS'code'
p6
S'response.write(\'<!DOCTYPE html PUBLIC "-//W3C//DTD XHTML 1.0 Strict//EN" "http://www.w3.org/TR/xhtml1/DTD/xhtml1-strict.dtd">\\n<!--\\n\\nDesign by Free CSS Templates\\nhttp://www.freecsstemplates.org\\nReleased for free under a Creative Commons Attribution 2.5 License\\n\\nTitle      : Interlude\\nVersion    : 1.0\\nReleased   : 20080903\\nDescription: A multi-column, fixed-width design for 800x600 resolutions.\\n\\n-->\\n<html xmlns="http://www.w3.org/1999/xhtml">\\n <head>\\n  <title>\\n   \', escape=False)\nresponse.write(response.title or request.application)\nresponse.write(\'\\n  </title>\\n  \', escape=False)\nresponse.files.append(URL(request.application,\'static\',\'plugin_layouts/layouts/Interlude/default.css\'))\nresponse.write(\'\\n  \', escape=False)\nresponse.files.append(URL(\'static\',\'plugin_layouts/superfish.js\'))\nresponse.write(\'\\n  \', escape=False)\nresponse.write(\'<script type="text/javascript"><!--\\n    // These variables are used by the web2py_ajax_init function in web2py_ajax.js (which is loaded below).\\n    var w2p_ajax_confirm_message = "\', escape=False)\nresponse.write(T(\'Are you sure you want to delete this object?\'))\nresponse.write(\'";\\n    var w2p_ajax_date_format = "\', escape=False)\nresponse.write(T(\'%Y-%m-%d\'))\nresponse.write(\'";\\n    var w2p_ajax_datetime_format = "\', escape=False)\nresponse.write(T(\'%Y-%m-%d %H:%M:%S\'))\nresponse.write(\'";\\n    //--></script>\\n\', escape=False)\nresponse.files.insert(0,URL(\'static\',\'js/jquery.js\'))\nresponse.files.insert(1,URL(\'static\',\'css/calendar.css\'))\nresponse.files.insert(2,URL(\'static\',\'js/calendar.js\'))\nresponse.files.insert(3,URL(\'static\',\'js/web2py.js\'))\nresponse.include_meta()\nresponse.include_files()\nresponse.write(\'\\n\\t<link rel="shortcut icon" type="images/ico" href="http://courses.iiit.ac.in/EdgeNet/favicon.ico">\\n\', escape=False)\nresponse.write(\'\\n  <style>\\nul.web2py-menu-vertical { width: 150px; position: relative; top:1em; left:1em;  z-index:30; border:0; margin:0; padding: 0; list-style: none; text-decoration: none;}\\nul.web2py-menu-vertical li { margin:0; padding:0; border:0; width: 150px; background: black; text-align:left;}\\nul.web2py-menu-vertical li a { margin:0; padding: 1px 3px 1px 3px; border:0; width: 144px; color: white; font-size:12px;}\\ndiv.flash { position: fixed; float: right; padding: 10px; top: 10px; right: 30px; opacity: 0.75; margin: 10px 10px 10px 10px; text-align: center; clear: both; color: #fff; font-size: 11pt; text-align: center; vertical-align: middle; cursor: pointer; background: black; border: 2px solid #fff; -moz-border-radius: 5px; -webkit-border-radius: 5px; z-index: 2; }\\ndiv.error { background-color: red; color: white; padding: 3px; }\\n.auth_navbar { text-align:right; z-index:20; position: absolute; top: 2px; right:30px; border:0; padding:0 }\\n  </style>\\n </head>\\n <body>\\n  <!-- start header -->\\n  \', escape=False)\ntry:\n    response.write(auth.navbar(action=URL(\'default\',\'user\')))\nexcept:pass\nresponse.write(\'\\n\\n  <!-- start header -->\\n  <div id="header">\\n   <div id="logo">\\n    <h1>\\n     \', escape=False)\n#=response.title or reque\nresponse.write(\'\\n     hostel portal\\n    </h1>\\n    <p>\\n     <a href="http://www.freecsstemplates.org/">\\n         \', escape=False)\n#     &nbsp;&nbsp;&nbsp;&nbsp;&nbsp;&nbsp;&nbsp;&nbsp;&nbsp;&nbsp;&nbsp;&nbsp;&nbsp;&nbsp;&nbsp;&nbsp;&nbsp;&nbsp;&nbsp;&nbsp;&nbsp;&nbsp;&nbsp;&nbsp;welcomes you\nresponse.write(\'\\n     </a>\\n    </p>\\n   </div>\\n   <div id="menu">\\n    \', escape=False)\nresponse.write(MENU(response.menu,_class=\'web2py-menu\'))\nresponse.write(\'\\n    <script>\\n      jQuery(document).ready(function(){jQuery(\\\'ul.web2py-menu\\\').superfish({delay:400});});\\n    </script>\\n   </div>\\n  </div>\\n  <hr />\\n  <!-- end header -->\\n  <!-- start page -->\\n  <div id="wrapper">\\n   <div id="page">\\n    <!-- start content -->\\n    <div id="content">\\n     <div class="flash">\', escape=False)\nresponse.write(response.flash or \'\')\nresponse.write(\'</div>\\n     \\n     \', escape=False)\nresponse.write(\'\\n\', escape=False)\nresponse.write(form)\nresponse.write(\'\\n\', escape=False)\nresponse.write(\'\\n        \', escape=False)\n#chetta\nresponse.write(\'\\n        \\n        \\n        \\n        \', escape=False)\n#chetta\nresponse.write(\'\\n       \\n    </div>\\n    <!-- end content -->\\n    <!-- start sidebar -->\\n    \\n    <br style="clear: both;" />\\n   </div>\\n  </div>\\n  <!-- end page -->\\n<!--chetta-->>\\n \\n \\n \\n </body>\\n</html>\\n\', escape=False)'
p7
sS'snapshot'
p8
(dp9
S'exception'
p10
(dp11
S'__hash__'
p12
S"<method-wrapper '__hash__' of exceptions.NameError object>"
p13
sS'__setattr__'
p14
S"<method-wrapper '__setattr__' of exceptions.NameError object>"
p15
sS'__reduce_ex__'
p16
S'<built-in method __reduce_ex__ of exceptions.NameError object>'
p17
sS'__getslice__'
p18
S"<method-wrapper '__getslice__' of exceptions.NameError object>"
p19
sS'__getitem__'
p20
S"<method-wrapper '__getitem__' of exceptions.NameError object>"
p21
sS'__setstate__'
p22
S'<built-in method __setstate__ of exceptions.NameError object>'
p23
sS'args'
p24
S'("name \'form\' is not defined",)'
p25
sS'__reduce__'
p26
S'<built-in method __reduce__ of exceptions.NameError object>'
p27
sS'__str__'
p28
S"<method-wrapper '__str__' of exceptions.NameError object>"
p29
sS'__format__'
p30
S'<built-in method __format__ of exceptions.NameError object>'
p31
sS'__getattribute__'
p32
S"<method-wrapper '__getattribute__' of exceptions.NameError object>"
p33
sS'__class__'
p34
S"<type 'exceptions.NameError'>"
p35
sS'__unicode__'
p36
S'<built-in method __unicode__ of exceptions.NameError object>'
p37
sS'__delattr__'
p38
S"<method-wrapper '__delattr__' of exceptions.NameError object>"
p39
sS'__subclasshook__'
p40
S'<built-in method __subclasshook__ of type object>'
p41
sS'__repr__'
p42
S"<method-wrapper '__repr__' of exceptions.NameError object>"
p43
sS'__dict__'
p44
S'{}'
p45
sS'__sizeof__'
p46
S'<built-in method __sizeof__ of exceptions.NameError object>'
p47
sS'__doc__'
p48
S"'Name not found globally.'"
p49
sS'__init__'
p50
S"<method-wrapper '__init__' of exceptions.NameError object>"
p51
sS'__new__'
p52
S'<built-in method __new__ of type object>'
p53
ssS'evalue'
p54
S"name 'form' is not defined"
p55
sS'request'
p56
ccopy_reg
_reconstructor
p57
(cgluon.html
BEAUTIFY
p58
c__builtin__
object
p59
NtRp60
(dp61
S'attributes'
p62
(dp63
sS'components'
p64
(lp65
g57
(cgluon.html
TABLE
p66
g59
NtRp67
(dp68
g62
(dp69
S'level'
p70
I5
ssS'parent'
p71
Nsg64
(lp72
g57
(cgluon.html
TR
p73
g59
NtRp74
(dp75
g62
(dp76
sg71
g67
sg64
(lp77
g57
(cgluon.html
TD
p78
g59
NtRp79
(dp80
g62
(dp81
S'_style'
p82
S'font-weight:bold;vertical-align:top'
p83
ssg71
g74
sg64
(lp84
S'ajax'
p85
asbag57
(g78
g59
NtRp86
(dp87
g62
(dp88
S'_valign'
p89
S'top'
p90
ssg71
g74
sg64
(lp91
S':'
asbag57
(g78
g59
NtRp92
(dp93
g62
(dp94
sg71
g74
sg64
(lp95
g57
(g58
g59
NtRp96
(dp97
g62
(dp98
g70
I5
ssg71
g92
sg64
(lp99
S'False'
p100
asbasbasbag57
(g73
g59
NtRp101
(dp102
g62
(dp103
sg71
g67
sg64
(lp104
g57
(g78
g59
NtRp105
(dp106
g62
(dp107
g82
g83
ssg71
g101
sg64
(lp108
S'application'
p109
asbag57
(g78
g59
NtRp110
(dp111
g62
(dp112
g89
g90
ssg71
g101
sg64
(lp113
S':'
asbag57
(g78
g59
NtRp114
(dp115
g62
(dp116
sg71
g101
sg64
(lp117
g57
(g58
g59
NtRp118
(dp119
g62
(dp120
g70
I5
ssg71
g114
sg64
(lp121
S'sss'
p122
asbasbasbag57
(g73
g59
NtRp123
(dp124
g62
(dp125
sg71
g67
sg64
(lp126
g57
(g78
g59
NtRp127
(dp128
g62
(dp129
g82
g83
ssg71
g123
sg64
(lp130
g24
asbag57
(g78
g59
NtRp131
(dp132
g62
(dp133
g89
g90
ssg71
g123
sg64
(lp134
S':'
asbag57
(g78
g59
NtRp135
(dp136
g62
(dp137
sg71
g123
sg64
(lp138
g57
(g58
g59
NtRp139
(dp140
g62
(dp141
g70
I5
ssg71
g135
sg64
(lp142
g57
(g66
g59
NtRp143
(dp144
g62
(dp145
g70
I4
ssg71
Nsg64
(lp146
sbasbasbasbag57
(g73
g59
NtRp147
(dp148
g62
(dp149
sg71
g67
sg64
(lp150
g57
(g78
g59
NtRp151
(dp152
g62
(dp153
g82
g83
ssg71
g147
sg64
(lp154
S'body'
p155
asbag57
(g78
g59
NtRp156
(dp157
g62
(dp158
g89
g90
ssg71
g147
sg64
(lp159
S':'
asbag57
(g78
g59
NtRp160
(dp161
g62
(dp162
sg71
g147
sg64
(lp163
g57
(g58
g59
NtRp164
(dp165
g62
(dp166
g70
I5
ssg71
g160
sg64
(lp167
S'<cStringIO.StringO object at 0x7fe9f81af538>'
p168
asbasbasbag57
(g73
g59
NtRp169
(dp170
g62
(dp171
sg71
g67
sg64
(lp172
g57
(g78
g59
NtRp173
(dp174
g62
(dp175
g82
g83
ssg71
g169
sg64
(lp176
S'cid'
p177
asbag57
(g78
g59
NtRp178
(dp179
g62
(dp180
g89
g90
ssg71
g169
sg64
(lp181
S':'
asbag57
(g78
g59
NtRp182
(dp183
g62
(dp184
sg71
g169
sg64
(lp185
g57
(g58
g59
NtRp186
(dp187
g62
(dp188
g70
I5
ssg71
g182
sg64
(lp189
S'None'
p190
asbasbasbag57
(g73
g59
NtRp191
(dp192
g62
(dp193
sg71
g67
sg64
(lp194
g57
(g78
g59
NtRp195
(dp196
g62
(dp197
g82
g83
ssg71
g191
sg64
(lp198
S'client'
p199
asbag57
(g78
g59
NtRp200
(dp201
g62
(dp202
g89
g90
ssg71
g191
sg64
(lp203
S':'
asbag57
(g78
g59
NtRp204
(dp205
g62
(dp206
sg71
g191
sg64
(lp207
g57
(g58
g59
NtRp208
(dp209
g62
(dp210
g70
I5
ssg71
g204
sg64
(lp211
S'127.0.0.1'
p212
asbasbasbag57
(g73
g59
NtRp213
(dp214
g62
(dp215
sg71
g67
sg64
(lp216
g57
(g78
g59
NtRp217
(dp218
g62
(dp219
g82
g83
ssg71
g213
sg64
(lp220
S'controller'
p221
asbag57
(g78
g59
NtRp222
(dp223
g62
(dp224
g89
g90
ssg71
g213
sg64
(lp225
S':'
asbag57
(g78
g59
NtRp226
(dp227
g62
(dp228
sg71
g213
sg64
(lp229
g57
(g58
g59
NtRp230
(dp231
g62
(dp232
g70
I5
ssg71
g226
sg64
(lp233
S'default'
p234
asbasbasbag57
(g73
g59
NtRp235
(dp236
g62
(dp237
sg71
g67
sg64
(lp238
g57
(g78
g59
NtRp239
(dp240
g62
(dp241
g82
g83
ssg71
g235
sg64
(lp242
S'cookies'
p243
asbag57
(g78
g59
NtRp244
(dp245
g62
(dp246
g89
g90
ssg71
g235
sg64
(lp247
S':'
asbag57
(g78
g59
NtRp248
(dp249
g62
(dp250
sg71
g235
sg64
(lp251
g57
(g58
g59
NtRp252
(dp253
g62
(dp254
g70
I5
ssg71
g248
sg64
(lp255
g57
(g66
g59
NtRp256
(dp257
g62
(dp258
g70
I4
ssg71
Nsg64
(lp259
g57
(g73
g59
NtRp260
(dp261
g62
(dp262
sg71
g256
sg64
(lp263
g57
(g78
g59
NtRp264
(dp265
g62
(dp266
g82
g83
ssg71
g260
sg64
(lp267
S'session_id_admin'
p268
asbag57
(g78
g59
NtRp269
(dp270
g62
(dp271
g89
g90
ssg71
g260
sg64
(lp272
S':'
asbag57
(g78
g59
NtRp273
(dp274
g62
(dp275
sg71
g260
sg64
(lp276
g57
(g58
g59
NtRp277
(dp278
g62
(dp279
g70
I4
ssg71
g273
sg64
(lp280
S'127.0.0.1-32177690-19e2-42e4-a72c-7ff2b3d66aea'
p281
ag57
(g66
g59
NtRp282
(dp283
g62
(dp284
g70
I3
ssg71
Nsg64
(lp285
g57
(g73
g59
NtRp286
(dp287
g62
(dp288
sg71
g282
sg64
(lp289
g57
(g78
g59
NtRp290
(dp291
g62
(dp292
g82
g83
ssg71
g286
sg64
(lp293
S'comment'
p294
asbag57
(g78
g59
NtRp295
(dp296
g62
(dp297
g89
g90
ssg71
g286
sg64
(lp298
S':'
asbag57
(g78
g59
NtRp299
(dp300
g62
(dp301
sg71
g286
sg64
(lp302
g57
(g58
g59
NtRp303
(dp304
g62
(dp305
g70
I3
ssg71
g299
sg64
(lp306
S''
asbasbasbag57
(g73
g59
NtRp307
(dp308
g62
(dp309
sg71
g282
sg64
(lp310
g57
(g78
g59
NtRp311
(dp312
g62
(dp313
g82
g83
ssg71
g307
sg64
(lp314
S'domain'
p315
asbag57
(g78
g59
NtRp316
(dp317
g62
(dp318
g89
g90
ssg71
g307
sg64
(lp319
S':'
asbag57
(g78
g59
NtRp320
(dp321
g62
(dp322
sg71
g307
sg64
(lp323
g57
(g58
g59
NtRp324
(dp325
g62
(dp326
g70
I3
ssg71
g320
sg64
(lp327
S''
asbasbasbag57
(g73
g59
NtRp328
(dp329
g62
(dp330
sg71
g282
sg64
(lp331
g57
(g78
g59
NtRp332
(dp333
g62
(dp334
g82
g83
ssg71
g328
sg64
(lp335
S'expires'
p336
asbag57
(g78
g59
NtRp337
(dp338
g62
(dp339
g89
g90
ssg71
g328
sg64
(lp340
S':'
asbag57
(g78
g59
NtRp341
(dp342
g62
(dp343
sg71
g328
sg64
(lp344
g57
(g58
g59
NtRp345
(dp346
g62
(dp347
g70
I3
ssg71
g341
sg64
(lp348
S''
asbasbasbag57
(g73
g59
NtRp349
(dp350
g62
(dp351
sg71
g282
sg64
(lp352
g57
(g78
g59
NtRp353
(dp354
g62
(dp355
g82
g83
ssg71
g349
sg64
(lp356
S'httponly'
p357
asbag57
(g78
g59
NtRp358
(dp359
g62
(dp360
g89
g90
ssg71
g349
sg64
(lp361
S':'
asbag57
(g78
g59
NtRp362
(dp363
g62
(dp364
sg71
g349
sg64
(lp365
g57
(g58
g59
NtRp366
(dp367
g62
(dp368
g70
I3
ssg71
g362
sg64
(lp369
S''
asbasbasbag57
(g73
g59
NtRp370
(dp371
g62
(dp372
sg71
g282
sg64
(lp373
g57
(g78
g59
NtRp374
(dp375
g62
(dp376
g82
g83
ssg71
g370
sg64
(lp377
S'max-age'
p378
asbag57
(g78
g59
NtRp379
(dp380
g62
(dp381
g89
g90
ssg71
g370
sg64
(lp382
S':'
asbag57
(g78
g59
NtRp383
(dp384
g62
(dp385
sg71
g370
sg64
(lp386
g57
(g58
g59
NtRp387
(dp388
g62
(dp389
g70
I3
ssg71
g383
sg64
(lp390
S''
asbasbasbag57
(g73
g59
NtRp391
(dp392
g62
(dp393
sg71
g282
sg64
(lp394
g57
(g78
g59
NtRp395
(dp396
g62
(dp397
g82
g83
ssg71
g391
sg64
(lp398
S'path'
p399
asbag57
(g78
g59
NtRp400
(dp401
g62
(dp402
g89
g90
ssg71
g391
sg64
(lp403
S':'
asbag57
(g78
g59
NtRp404
(dp405
g62
(dp406
sg71
g391
sg64
(lp407
g57
(g58
g59
NtRp408
(dp409
g62
(dp410
g70
I3
ssg71
g404
sg64
(lp411
S''
asbasbasbag57
(g73
g59
NtRp412
(dp413
g62
(dp414
sg71
g282
sg64
(lp415
g57
(g78
g59
NtRp416
(dp417
g62
(dp418
g82
g83
ssg71
g412
sg64
(lp419
S'secure'
p420
asbag57
(g78
g59
NtRp421
(dp422
g62
(dp423
g89
g90
ssg71
g412
sg64
(lp424
S':'
asbag57
(g78
g59
NtRp425
(dp426
g62
(dp427
sg71
g412
sg64
(lp428
g57
(g58
g59
NtRp429
(dp430
g62
(dp431
g70
I3
ssg71
g425
sg64
(lp432
S''
asbasbasbag57
(g73
g59
NtRp433
(dp434
g62
(dp435
sg71
g282
sg64
(lp436
g57
(g78
g59
NtRp437
(dp438
g62
(dp439
g82
g83
ssg71
g433
sg64
(lp440
S'version'
p441
asbag57
(g78
g59
NtRp442
(dp443
g62
(dp444
g89
g90
ssg71
g433
sg64
(lp445
S':'
asbag57
(g78
g59
NtRp446
(dp447
g62
(dp448
sg71
g433
sg64
(lp449
g57
(g58
g59
NtRp450
(dp451
g62
(dp452
g70
I3
ssg71
g446
sg64
(lp453
S''
asbasbasbasbasbasbasbag57
(g73
g59
NtRp454
(dp455
g62
(dp456
sg71
g256
sg64
(lp457
g57
(g78
g59
NtRp458
(dp459
g62
(dp460
g82
g83
ssg71
g454
sg64
(lp461
S'session_id_hostel_r1'
p462
asbag57
(g78
g59
NtRp463
(dp464
g62
(dp465
g89
g90
ssg71
g454
sg64
(lp466
S':'
asbag57
(g78
g59
NtRp467
(dp468
g62
(dp469
sg71
g454
sg64
(lp470
g57
(g58
g59
NtRp471
(dp472
g62
(dp473
g70
I4
ssg71
g467
sg64
(lp474
S'127.0.0.1-4b049345-4b14-4a48-a691-5f288bacb456'
p475
ag57
(g66
g59
NtRp476
(dp477
g62
(dp478
g70
I3
ssg71
Nsg64
(lp479
g57
(g73
g59
NtRp480
(dp481
g62
(dp482
sg71
g476
sg64
(lp483
g57
(g78
g59
NtRp484
(dp485
g62
(dp486
g82
g83
ssg71
g480
sg64
(lp487
g294
asbag57
(g78
g59
NtRp488
(dp489
g62
(dp490
g89
g90
ssg71
g480
sg64
(lp491
S':'
asbag57
(g78
g59
NtRp492
(dp493
g62
(dp494
sg71
g480
sg64
(lp495
g57
(g58
g59
NtRp496
(dp497
g62
(dp498
g70
I3
ssg71
g492
sg64
(lp499
S''
asbasbasbag57
(g73
g59
NtRp500
(dp501
g62
(dp502
sg71
g476
sg64
(lp503
g57
(g78
g59
NtRp504
(dp505
g62
(dp506
g82
g83
ssg71
g500
sg64
(lp507
g315
asbag57
(g78
g59
NtRp508
(dp509
g62
(dp510
g89
g90
ssg71
g500
sg64
(lp511
S':'
asbag57
(g78
g59
NtRp512
(dp513
g62
(dp514
sg71
g500
sg64
(lp515
g57
(g58
g59
NtRp516
(dp517
g62
(dp518
g70
I3
ssg71
g512
sg64
(lp519
S''
asbasbasbag57
(g73
g59
NtRp520
(dp521
g62
(dp522
sg71
g476
sg64
(lp523
g57
(g78
g59
NtRp524
(dp525
g62
(dp526
g82
g83
ssg71
g520
sg64
(lp527
g336
asbag57
(g78
g59
NtRp528
(dp529
g62
(dp530
g89
g90
ssg71
g520
sg64
(lp531
S':'
asbag57
(g78
g59
NtRp532
(dp533
g62
(dp534
sg71
g520
sg64
(lp535
g57
(g58
g59
NtRp536
(dp537
g62
(dp538
g70
I3
ssg71
g532
sg64
(lp539
S''
asbasbasbag57
(g73
g59
NtRp540
(dp541
g62
(dp542
sg71
g476
sg64
(lp543
g57
(g78
g59
NtRp544
(dp545
g62
(dp546
g82
g83
ssg71
g540
sg64
(lp547
g357
asbag57
(g78
g59
NtRp548
(dp549
g62
(dp550
g89
g90
ssg71
g540
sg64
(lp551
S':'
asbag57
(g78
g59
NtRp552
(dp553
g62
(dp554
sg71
g540
sg64
(lp555
g57
(g58
g59
NtRp556
(dp557
g62
(dp558
g70
I3
ssg71
g552
sg64
(lp559
S''
asbasbasbag57
(g73
g59
NtRp560
(dp561
g62
(dp562
sg71
g476
sg64
(lp563
g57
(g78
g59
NtRp564
(dp565
g62
(dp566
g82
g83
ssg71
g560
sg64
(lp567
g378
asbag57
(g78
g59
NtRp568
(dp569
g62
(dp570
g89
g90
ssg71
g560
sg64
(lp571
S':'
asbag57
(g78
g59
NtRp572
(dp573
g62
(dp574
sg71
g560
sg64
(lp575
g57
(g58
g59
NtRp576
(dp577
g62
(dp578
g70
I3
ssg71
g572
sg64
(lp579
S''
asbasbasbag57
(g73
g59
NtRp580
(dp581
g62
(dp582
sg71
g476
sg64
(lp583
g57
(g78
g59
NtRp584
(dp585
g62
(dp586
g82
g83
ssg71
g580
sg64
(lp587
g399
asbag57
(g78
g59
NtRp588
(dp589
g62
(dp590
g89
g90
ssg71
g580
sg64
(lp591
S':'
asbag57
(g78
g59
NtRp592
(dp593
g62
(dp594
sg71
g580
sg64
(lp595
g57
(g58
g59
NtRp596
(dp597
g62
(dp598
g70
I3
ssg71
g592
sg64
(lp599
S''
asbasbasbag57
(g73
g59
NtRp600
(dp601
g62
(dp602
sg71
g476
sg64
(lp603
g57
(g78
g59
NtRp604
(dp605
g62
(dp606
g82
g83
ssg71
g600
sg64
(lp607
g420
asbag57
(g78
g59
NtRp608
(dp609
g62
(dp610
g89
g90
ssg71
g600
sg64
(lp611
S':'
asbag57
(g78
g59
NtRp612
(dp613
g62
(dp614
sg71
g600
sg64
(lp615
g57
(g58
g59
NtRp616
(dp617
g62
(dp618
g70
I3
ssg71
g612
sg64
(lp619
S''
asbasbasbag57
(g73
g59
NtRp620
(dp621
g62
(dp622
sg71
g476
sg64
(lp623
g57
(g78
g59
NtRp624
(dp625
g62
(dp626
g82
g83
ssg71
g620
sg64
(lp627
g441
asbag57
(g78
g59
NtRp628
(dp629
g62
(dp630
g89
g90
ssg71
g620
sg64
(lp631
S':'
asbag57
(g78
g59
NtRp632
(dp633
g62
(dp634
sg71
g620
sg64
(lp635
g57
(g58
g59
NtRp636
(dp637
g62
(dp638
g70
I3
ssg71
g632
sg64
(lp639
S''
asbasbasbasbasbasbasbag57
(g73
g59
NtRp640
(dp641
g62
(dp642
sg71
g256
sg64
(lp643
g57
(g78
g59
NtRp644
(dp645
g62
(dp646
g82
g83
ssg71
g640
sg64
(lp647
S'session_id_kt'
p648
asbag57
(g78
g59
NtRp649
(dp650
g62
(dp651
g89
g90
ssg71
g640
sg64
(lp652
S':'
asbag57
(g78
g59
NtRp653
(dp654
g62
(dp655
sg71
g640
sg64
(lp656
g57
(g58
g59
NtRp657
(dp658
g62
(dp659
g70
I4
ssg71
g653
sg64
(lp660
S'127.0.0.1-7e77715e-09d9-41f5-a841-8546ac18f69c'
p661
ag57
(g66
g59
NtRp662
(dp663
g62
(dp664
g70
I3
ssg71
Nsg64
(lp665
g57
(g73
g59
NtRp666
(dp667
g62
(dp668
sg71
g662
sg64
(lp669
g57
(g78
g59
NtRp670
(dp671
g62
(dp672
g82
g83
ssg71
g666
sg64
(lp673
g294
asbag57
(g78
g59
NtRp674
(dp675
g62
(dp676
g89
g90
ssg71
g666
sg64
(lp677
S':'
asbag57
(g78
g59
NtRp678
(dp679
g62
(dp680
sg71
g666
sg64
(lp681
g57
(g58
g59
NtRp682
(dp683
g62
(dp684
g70
I3
ssg71
g678
sg64
(lp685
S''
asbasbasbag57
(g73
g59
NtRp686
(dp687
g62
(dp688
sg71
g662
sg64
(lp689
g57
(g78
g59
NtRp690
(dp691
g62
(dp692
g82
g83
ssg71
g686
sg64
(lp693
g315
asbag57
(g78
g59
NtRp694
(dp695
g62
(dp696
g89
g90
ssg71
g686
sg64
(lp697
S':'
asbag57
(g78
g59
NtRp698
(dp699
g62
(dp700
sg71
g686
sg64
(lp701
g57
(g58
g59
NtRp702
(dp703
g62
(dp704
g70
I3
ssg71
g698
sg64
(lp705
S''
asbasbasbag57
(g73
g59
NtRp706
(dp707
g62
(dp708
sg71
g662
sg64
(lp709
g57
(g78
g59
NtRp710
(dp711
g62
(dp712
g82
g83
ssg71
g706
sg64
(lp713
g336
asbag57
(g78
g59
NtRp714
(dp715
g62
(dp716
g89
g90
ssg71
g706
sg64
(lp717
S':'
asbag57
(g78
g59
NtRp718
(dp719
g62
(dp720
sg71
g706
sg64
(lp721
g57
(g58
g59
NtRp722
(dp723
g62
(dp724
g70
I3
ssg71
g718
sg64
(lp725
S''
asbasbasbag57
(g73
g59
NtRp726
(dp727
g62
(dp728
sg71
g662
sg64
(lp729
g57
(g78
g59
NtRp730
(dp731
g62
(dp732
g82
g83
ssg71
g726
sg64
(lp733
g357
asbag57
(g78
g59
NtRp734
(dp735
g62
(dp736
g89
g90
ssg71
g726
sg64
(lp737
S':'
asbag57
(g78
g59
NtRp738
(dp739
g62
(dp740
sg71
g726
sg64
(lp741
g57
(g58
g59
NtRp742
(dp743
g62
(dp744
g70
I3
ssg71
g738
sg64
(lp745
S''
asbasbasbag57
(g73
g59
NtRp746
(dp747
g62
(dp748
sg71
g662
sg64
(lp749
g57
(g78
g59
NtRp750
(dp751
g62
(dp752
g82
g83
ssg71
g746
sg64
(lp753
g378
asbag57
(g78
g59
NtRp754
(dp755
g62
(dp756
g89
g90
ssg71
g746
sg64
(lp757
S':'
asbag57
(g78
g59
NtRp758
(dp759
g62
(dp760
sg71
g746
sg64
(lp761
g57
(g58
g59
NtRp762
(dp763
g62
(dp764
g70
I3
ssg71
g758
sg64
(lp765
S''
asbasbasbag57
(g73
g59
NtRp766
(dp767
g62
(dp768
sg71
g662
sg64
(lp769
g57
(g78
g59
NtRp770
(dp771
g62
(dp772
g82
g83
ssg71
g766
sg64
(lp773
g399
asbag57
(g78
g59
NtRp774
(dp775
g62
(dp776
g89
g90
ssg71
g766
sg64
(lp777
S':'
asbag57
(g78
g59
NtRp778
(dp779
g62
(dp780
sg71
g766
sg64
(lp781
g57
(g58
g59
NtRp782
(dp783
g62
(dp784
g70
I3
ssg71
g778
sg64
(lp785
S''
asbasbasbag57
(g73
g59
NtRp786
(dp787
g62
(dp788
sg71
g662
sg64
(lp789
g57
(g78
g59
NtRp790
(dp791
g62
(dp792
g82
g83
ssg71
g786
sg64
(lp793
g420
asbag57
(g78
g59
NtRp794
(dp795
g62
(dp796
g89
g90
ssg71
g786
sg64
(lp797
S':'
asbag57
(g78
g59
NtRp798
(dp799
g62
(dp800
sg71
g786
sg64
(lp801
g57
(g58
g59
NtRp802
(dp803
g62
(dp804
g70
I3
ssg71
g798
sg64
(lp805
S''
asbasbasbag57
(g73
g59
NtRp806
(dp807
g62
(dp808
sg71
g662
sg64
(lp809
g57
(g78
g59
NtRp810
(dp811
g62
(dp812
g82
g83
ssg71
g806
sg64
(lp813
g441
asbag57
(g78
g59
NtRp814
(dp815
g62
(dp816
g89
g90
ssg71
g806
sg64
(lp817
S':'
asbag57
(g78
g59
NtRp818
(dp819
g62
(dp820
sg71
g806
sg64
(lp821
g57
(g58
g59
NtRp822
(dp823
g62
(dp824
g70
I3
ssg71
g818
sg64
(lp825
S''
asbasbasbasbasbasbasbag57
(g73
g59
NtRp826
(dp827
g62
(dp828
sg71
g256
sg64
(lp829
g57
(g78
g59
NtRp830
(dp831
g62
(dp832
g82
g83
ssg71
g826
sg64
(lp833
S'session_id_sss'
p834
asbag57
(g78
g59
NtRp835
(dp836
g62
(dp837
g89
g90
ssg71
g826
sg64
(lp838
S':'
asbag57
(g78
g59
NtRp839
(dp840
g62
(dp841
sg71
g826
sg64
(lp842
g57
(g58
g59
NtRp843
(dp844
g62
(dp845
g70
I4
ssg71
g839
sg64
(lp846
S'127.0.0.1-3710a024-f9d4-48b6-82d8-76e05ad14bc4'
p847
ag57
(g66
g59
NtRp848
(dp849
g62
(dp850
g70
I3
ssg71
Nsg64
(lp851
g57
(g73
g59
NtRp852
(dp853
g62
(dp854
sg71
g848
sg64
(lp855
g57
(g78
g59
NtRp856
(dp857
g62
(dp858
g82
g83
ssg71
g852
sg64
(lp859
g294
asbag57
(g78
g59
NtRp860
(dp861
g62
(dp862
g89
g90
ssg71
g852
sg64
(lp863
S':'
asbag57
(g78
g59
NtRp864
(dp865
g62
(dp866
sg71
g852
sg64
(lp867
g57
(g58
g59
NtRp868
(dp869
g62
(dp870
g70
I3
ssg71
g864
sg64
(lp871
S''
asbasbasbag57
(g73
g59
NtRp872
(dp873
g62
(dp874
sg71
g848
sg64
(lp875
g57
(g78
g59
NtRp876
(dp877
g62
(dp878
g82
g83
ssg71
g872
sg64
(lp879
g315
asbag57
(g78
g59
NtRp880
(dp881
g62
(dp882
g89
g90
ssg71
g872
sg64
(lp883
S':'
asbag57
(g78
g59
NtRp884
(dp885
g62
(dp886
sg71
g872
sg64
(lp887
g57
(g58
g59
NtRp888
(dp889
g62
(dp890
g70
I3
ssg71
g884
sg64
(lp891
S''
asbasbasbag57
(g73
g59
NtRp892
(dp893
g62
(dp894
sg71
g848
sg64
(lp895
g57
(g78
g59
NtRp896
(dp897
g62
(dp898
g82
g83
ssg71
g892
sg64
(lp899
g336
asbag57
(g78
g59
NtRp900
(dp901
g62
(dp902
g89
g90
ssg71
g892
sg64
(lp903
S':'
asbag57
(g78
g59
NtRp904
(dp905
g62
(dp906
sg71
g892
sg64
(lp907
g57
(g58
g59
NtRp908
(dp909
g62
(dp910
g70
I3
ssg71
g904
sg64
(lp911
S''
asbasbasbag57
(g73
g59
NtRp912
(dp913
g62
(dp914
sg71
g848
sg64
(lp915
g57
(g78
g59
NtRp916
(dp917
g62
(dp918
g82
g83
ssg71
g912
sg64
(lp919
g357
asbag57
(g78
g59
NtRp920
(dp921
g62
(dp922
g89
g90
ssg71
g912
sg64
(lp923
S':'
asbag57
(g78
g59
NtRp924
(dp925
g62
(dp926
sg71
g912
sg64
(lp927
g57
(g58
g59
NtRp928
(dp929
g62
(dp930
g70
I3
ssg71
g924
sg64
(lp931
S''
asbasbasbag57
(g73
g59
NtRp932
(dp933
g62
(dp934
sg71
g848
sg64
(lp935
g57
(g78
g59
NtRp936
(dp937
g62
(dp938
g82
g83
ssg71
g932
sg64
(lp939
g378
asbag57
(g78
g59
NtRp940
(dp941
g62
(dp942
g89
g90
ssg71
g932
sg64
(lp943
S':'
asbag57
(g78
g59
NtRp944
(dp945
g62
(dp946
sg71
g932
sg64
(lp947
g57
(g58
g59
NtRp948
(dp949
g62
(dp950
g70
I3
ssg71
g944
sg64
(lp951
S''
asbasbasbag57
(g73
g59
NtRp952
(dp953
g62
(dp954
sg71
g848
sg64
(lp955
g57
(g78
g59
NtRp956
(dp957
g62
(dp958
g82
g83
ssg71
g952
sg64
(lp959
g399
asbag57
(g78
g59
NtRp960
(dp961
g62
(dp962
g89
g90
ssg71
g952
sg64
(lp963
S':'
asbag57
(g78
g59
NtRp964
(dp965
g62
(dp966
sg71
g952
sg64
(lp967
g57
(g58
g59
NtRp968
(dp969
g62
(dp970
g70
I3
ssg71
g964
sg64
(lp971
S''
asbasbasbag57
(g73
g59
NtRp972
(dp973
g62
(dp974
sg71
g848
sg64
(lp975
g57
(g78
g59
NtRp976
(dp977
g62
(dp978
g82
g83
ssg71
g972
sg64
(lp979
g420
asbag57
(g78
g59
NtRp980
(dp981
g62
(dp982
g89
g90
ssg71
g972
sg64
(lp983
S':'
asbag57
(g78
g59
NtRp984
(dp985
g62
(dp986
sg71
g972
sg64
(lp987
g57
(g58
g59
NtRp988
(dp989
g62
(dp990
g70
I3
ssg71
g984
sg64
(lp991
S''
asbasbasbag57
(g73
g59
NtRp992
(dp993
g62
(dp994
sg71
g848
sg64
(lp995
g57
(g78
g59
NtRp996
(dp997
g62
(dp998
g82
g83
ssg71
g992
sg64
(lp999
g441
asbag57
(g78
g59
NtRp1000
(dp1001
g62
(dp1002
g89
g90
ssg71
g992
sg64
(lp1003
S':'
asbag57
(g78
g59
NtRp1004
(dp1005
g62
(dp1006
sg71
g992
sg64
(lp1007
g57
(g58
g59
NtRp1008
(dp1009
g62
(dp1010
g70
I3
ssg71
g1004
sg64
(lp1011
S''
asbasbasbasbasbasbasbag57
(g73
g59
NtRp1012
(dp1013
g62
(dp1014
sg71
g256
sg64
(lp1015
g57
(g78
g59
NtRp1016
(dp1017
g62
(dp1018
g82
g83
ssg71
g1012
sg64
(lp1019
S'session_id_welcome'
p1020
asbag57
(g78
g59
NtRp1021
(dp1022
g62
(dp1023
g89
g90
ssg71
g1012
sg64
(lp1024
S':'
asbag57
(g78
g59
NtRp1025
(dp1026
g62
(dp1027
sg71
g1012
sg64
(lp1028
g57
(g58
g59
NtRp1029
(dp1030
g62
(dp1031
g70
I4
ssg71
g1025
sg64
(lp1032
S'127.0.0.1-698c9672-8532-4540-be6b-864a180816f6'
p1033
ag57
(g66
g59
NtRp1034
(dp1035
g62
(dp1036
g70
I3
ssg71
Nsg64
(lp1037
g57
(g73
g59
NtRp1038
(dp1039
g62
(dp1040
sg71
g1034
sg64
(lp1041
g57
(g78
g59
NtRp1042
(dp1043
g62
(dp1044
g82
g83
ssg71
g1038
sg64
(lp1045
g294
asbag57
(g78
g59
NtRp1046
(dp1047
g62
(dp1048
g89
g90
ssg71
g1038
sg64
(lp1049
S':'
asbag57
(g78
g59
NtRp1050
(dp1051
g62
(dp1052
sg71
g1038
sg64
(lp1053
g57
(g58
g59
NtRp1054
(dp1055
g62
(dp1056
g70
I3
ssg71
g1050
sg64
(lp1057
S''
asbasbasbag57
(g73
g59
NtRp1058
(dp1059
g62
(dp1060
sg71
g1034
sg64
(lp1061
g57
(g78
g59
NtRp1062
(dp1063
g62
(dp1064
g82
g83
ssg71
g1058
sg64
(lp1065
g315
asbag57
(g78
g59
NtRp1066
(dp1067
g62
(dp1068
g89
g90
ssg71
g1058
sg64
(lp1069
S':'
asbag57
(g78
g59
NtRp1070
(dp1071
g62
(dp1072
sg71
g1058
sg64
(lp1073
g57
(g58
g59
NtRp1074
(dp1075
g62
(dp1076
g70
I3
ssg71
g1070
sg64
(lp1077
S''
asbasbasbag57
(g73
g59
NtRp1078
(dp1079
g62
(dp1080
sg71
g1034
sg64
(lp1081
g57
(g78
g59
NtRp1082
(dp1083
g62
(dp1084
g82
g83
ssg71
g1078
sg64
(lp1085
g336
asbag57
(g78
g59
NtRp1086
(dp1087
g62
(dp1088
g89
g90
ssg71
g1078
sg64
(lp1089
S':'
asbag57
(g78
g59
NtRp1090
(dp1091
g62
(dp1092
sg71
g1078
sg64
(lp1093
g57
(g58
g59
NtRp1094
(dp1095
g62
(dp1096
g70
I3
ssg71
g1090
sg64
(lp1097
S''
asbasbasbag57
(g73
g59
NtRp1098
(dp1099
g62
(dp1100
sg71
g1034
sg64
(lp1101
g57
(g78
g59
NtRp1102
(dp1103
g62
(dp1104
g82
g83
ssg71
g1098
sg64
(lp1105
g357
asbag57
(g78
g59
NtRp1106
(dp1107
g62
(dp1108
g89
g90
ssg71
g1098
sg64
(lp1109
S':'
asbag57
(g78
g59
NtRp1110
(dp1111
g62
(dp1112
sg71
g1098
sg64
(lp1113
g57
(g58
g59
NtRp1114
(dp1115
g62
(dp1116
g70
I3
ssg71
g1110
sg64
(lp1117
S''
asbasbasbag57
(g73
g59
NtRp1118
(dp1119
g62
(dp1120
sg71
g1034
sg64
(lp1121
g57
(g78
g59
NtRp1122
(dp1123
g62
(dp1124
g82
g83
ssg71
g1118
sg64
(lp1125
g378
asbag57
(g78
g59
NtRp1126
(dp1127
g62
(dp1128
g89
g90
ssg71
g1118
sg64
(lp1129
S':'
asbag57
(g78
g59
NtRp1130
(dp1131
g62
(dp1132
sg71
g1118
sg64
(lp1133
g57
(g58
g59
NtRp1134
(dp1135
g62
(dp1136
g70
I3
ssg71
g1130
sg64
(lp1137
S''
asbasbasbag57
(g73
g59
NtRp1138
(dp1139
g62
(dp1140
sg71
g1034
sg64
(lp1141
g57
(g78
g59
NtRp1142
(dp1143
g62
(dp1144
g82
g83
ssg71
g1138
sg64
(lp1145
g399
asbag57
(g78
g59
NtRp1146
(dp1147
g62
(dp1148
g89
g90
ssg71
g1138
sg64
(lp1149
S':'
asbag57
(g78
g59
NtRp1150
(dp1151
g62
(dp1152
sg71
g1138
sg64
(lp1153
g57
(g58
g59
NtRp1154
(dp1155
g62
(dp1156
g70
I3
ssg71
g1150
sg64
(lp1157
S''
asbasbasbag57
(g73
g59
NtRp1158
(dp1159
g62
(dp1160
sg71
g1034
sg64
(lp1161
g57
(g78
g59
NtRp1162
(dp1163
g62
(dp1164
g82
g83
ssg71
g1158
sg64
(lp1165
g420
asbag57
(g78
g59
NtRp1166
(dp1167
g62
(dp1168
g89
g90
ssg71
g1158
sg64
(lp1169
S':'
asbag57
(g78
g59
NtRp1170
(dp1171
g62
(dp1172
sg71
g1158
sg64
(lp1173
g57
(g58
g59
NtRp1174
(dp1175
g62
(dp1176
g70
I3
ssg71
g1170
sg64
(lp1177
S''
asbasbasbag57
(g73
g59
NtRp1178
(dp1179
g62
(dp1180
sg71
g1034
sg64
(lp1181
g57
(g78
g59
NtRp1182
(dp1183
g62
(dp1184
g82
g83
ssg71
g1178
sg64
(lp1185
g441
asbag57
(g78
g59
NtRp1186
(dp1187
g62
(dp1188
g89
g90
ssg71
g1178
sg64
(lp1189
S':'
asbag57
(g78
g59
NtRp1190
(dp1191
g62
(dp1192
sg71
g1178
sg64
(lp1193
g57
(g58
g59
NtRp1194
(dp1195
g62
(dp1196
g70
I3
ssg71
g1190
sg64
(lp1197
S''
asbasbasbasbasbasbasbasbasbasbasbag57
(g73
g59
NtRp1198
(dp1199
g62
(dp1200
sg71
g67
sg64
(lp1201
g57
(g78
g59
NtRp1202
(dp1203
g62
(dp1204
g82
g83
ssg71
g1198
sg64
(lp1205
S'env'
p1206
asbag57
(g78
g59
NtRp1207
(dp1208
g62
(dp1209
g89
g90
ssg71
g1198
sg64
(lp1210
S':'
asbag57
(g78
g59
NtRp1211
(dp1212
g62
(dp1213
sg71
g1198
sg64
(lp1214
g57
(g58
g59
NtRp1215
(dp1216
g62
(dp1217
g70
I5
ssg71
g1211
sg64
(lp1218
g57
(g66
g59
NtRp1219
(dp1220
g62
(dp1221
g70
I4
ssg71
Nsg64
(lp1222
g57
(g73
g59
NtRp1223
(dp1224
g62
(dp1225
sg71
g1219
sg64
(lp1226
g57
(g78
g59
NtRp1227
(dp1228
g62
(dp1229
g82
g83
ssg71
g1223
sg64
(lp1230
S'app_folders'
p1231
asbag57
(g78
g59
NtRp1232
(dp1233
g62
(dp1234
g89
g90
ssg71
g1223
sg64
(lp1235
S':'
asbag57
(g78
g59
NtRp1236
(dp1237
g62
(dp1238
sg71
g1223
sg64
(lp1239
g57
(g58
g59
NtRp1240
(dp1241
g62
(dp1242
g70
I4
ssg71
g1236
sg64
(lp1243
S"set(['/home/bhanu/web2py/applications/admin/', '/home/bhanu/web2py/applications/welcome/', '/home/bhanu/web2py/applications/sss/', '/home/bhanu/web2py/applications/hostel_r1/', '/home/bhanu/web2py/applications/kt/'])"
p1244
asbasbasbag57
(g73
g59
NtRp1245
(dp1246
g62
(dp1247
sg71
g1219
sg64
(lp1248
g57
(g78
g59
NtRp1249
(dp1250
g62
(dp1251
g82
g83
ssg71
g1245
sg64
(lp1252
S'applications_parent'
p1253
asbag57
(g78
g59
NtRp1254
(dp1255
g62
(dp1256
g89
g90
ssg71
g1245
sg64
(lp1257
S':'
asbag57
(g78
g59
NtRp1258
(dp1259
g62
(dp1260
sg71
g1245
sg64
(lp1261
g57
(g58
g59
NtRp1262
(dp1263
g62
(dp1264
g70
I4
ssg71
g1258
sg64
(lp1265
S'/home/bhanu/web2py'
p1266
asbasbasbag57
(g73
g59
NtRp1267
(dp1268
g62
(dp1269
sg71
g1219
sg64
(lp1270
g57
(g78
g59
NtRp1271
(dp1272
g62
(dp1273
g82
g83
ssg71
g1267
sg64
(lp1274
S'cmd_args'
p1275
asbag57
(g78
g59
NtRp1276
(dp1277
g62
(dp1278
g89
g90
ssg71
g1267
sg64
(lp1279
S':'
asbag57
(g78
g59
NtRp1280
(dp1281
g62
(dp1282
sg71
g1267
sg64
(lp1283
g57
(g58
g59
NtRp1284
(dp1285
g62
(dp1286
g70
I4
ssg71
g1280
sg64
(lp1287
g57
(g66
g59
NtRp1288
(dp1289
g62
(dp1290
g70
I3
ssg71
Nsg64
(lp1291
sbasbasbasbag57
(g73
g59
NtRp1292
(dp1293
g62
(dp1294
sg71
g1219
sg64
(lp1295
g57
(g78
g59
NtRp1296
(dp1297
g62
(dp1298
g82
g83
ssg71
g1292
sg64
(lp1299
S'cmd_options'
p1300
asbag57
(g78
g59
NtRp1301
(dp1302
g62
(dp1303
g89
g90
ssg71
g1292
sg64
(lp1304
S':'
asbag57
(g78
g59
NtRp1305
(dp1306
g62
(dp1307
sg71
g1292
sg64
(lp1308
g57
(g58
g59
NtRp1309
(dp1310
g62
(dp1311
g70
I4
ssg71
g1305
sg64
(lp1312
S"<Values at 0x2715f80: {'verbose': False, 'ip': '127.0.0.1', 'with_scheduler': False, 'ips': ['127.0.1.1'], 'shutdown_timeout': 5, 'taskbar': False, 'port': 8000, 'maxthreads': None, 'softcron': False, 'server_name': 'bhanu-Dell-System-XPS-L502X', 'bpython': False, 'nogui': False, 'pid_filename': 'httpserver.pid', 'extcron': False, 'runcron': False, 'run_system_tests': False, 'test': None, 'folder': '/home/bhanu/web2py', 'config': '', 'minthreads': None, 'winservice': '', 'shell': None, 'run': '', 'log_filename': 'httpserver.log', 'debuglevel': 30, 'args': [''], 'socket_timeout': 5, 'ssl_ca_certificate': None, 'scheduler': None, 'profiler_filename': None, 'ssl_private_key': '', 'scheduler_groups': None, 'password': '1', 'request_queue_size': 5, 'ssl_certificate': '', 'cronjob': False, 'numthreads': None, 'quiet': False, 'interfaces': None, 'import_models': False, 'timeout': 10, 'plain': False, 'nobanner': False}>"
p1313
asbasbasbag57
(g73
g59
NtRp1314
(dp1315
g62
(dp1316
sg71
g1219
sg64
(lp1317
g57
(g78
g59
NtRp1318
(dp1319
g62
(dp1320
g82
g83
ssg71
g1314
sg64
(lp1321
S'db_sessions'
p1322
asbag57
(g78
g59
NtRp1323
(dp1324
g62
(dp1325
g89
g90
ssg71
g1314
sg64
(lp1326
S':'
asbag57
(g78
g59
NtRp1327
(dp1328
g62
(dp1329
sg71
g1314
sg64
(lp1330
g57
(g58
g59
NtRp1331
(dp1332
g62
(dp1333
g70
I4
ssg71
g1327
sg64
(lp1334
S'set([])'
p1335
asbasbasbag57
(g73
g59
NtRp1336
(dp1337
g62
(dp1338
sg71
g1219
sg64
(lp1339
g57
(g78
g59
NtRp1340
(dp1341
g62
(dp1342
g82
g83
ssg71
g1336
sg64
(lp1343
S'debugging'
p1344
asbag57
(g78
g59
NtRp1345
(dp1346
g62
(dp1347
g89
g90
ssg71
g1336
sg64
(lp1348
S':'
asbag57
(g78
g59
NtRp1349
(dp1350
g62
(dp1351
sg71
g1336
sg64
(lp1352
g57
(g58
g59
NtRp1353
(dp1354
g62
(dp1355
g70
I4
ssg71
g1349
sg64
(lp1356
g100
asbasbasbag57
(g73
g59
NtRp1357
(dp1358
g62
(dp1359
sg71
g1219
sg64
(lp1360
g57
(g78
g59
NtRp1361
(dp1362
g62
(dp1363
g82
g83
ssg71
g1357
sg64
(lp1364
S'gluon_parent'
p1365
asbag57
(g78
g59
NtRp1366
(dp1367
g62
(dp1368
g89
g90
ssg71
g1357
sg64
(lp1369
S':'
asbag57
(g78
g59
NtRp1370
(dp1371
g62
(dp1372
sg71
g1357
sg64
(lp1373
g57
(g58
g59
NtRp1374
(dp1375
g62
(dp1376
g70
I4
ssg71
g1370
sg64
(lp1377
S'/home/bhanu/web2py'
p1378
asbasbasbag57
(g73
g59
NtRp1379
(dp1380
g62
(dp1381
sg71
g1219
sg64
(lp1382
g57
(g78
g59
NtRp1383
(dp1384
g62
(dp1385
g82
g83
ssg71
g1379
sg64
(lp1386
S'http_accept'
p1387
asbag57
(g78
g59
NtRp1388
(dp1389
g62
(dp1390
g89
g90
ssg71
g1379
sg64
(lp1391
S':'
asbag57
(g78
g59
NtRp1392
(dp1393
g62
(dp1394
sg71
g1379
sg64
(lp1395
g57
(g58
g59
NtRp1396
(dp1397
g62
(dp1398
g70
I4
ssg71
g1392
sg64
(lp1399
S'text/html,application/xhtml+xml,application/xml;q=0.9,*/*;q=0.8'
p1400
asbasbasbag57
(g73
g59
NtRp1401
(dp1402
g62
(dp1403
sg71
g1219
sg64
(lp1404
g57
(g78
g59
NtRp1405
(dp1406
g62
(dp1407
g82
g83
ssg71
g1401
sg64
(lp1408
S'http_accept_encoding'
p1409
asbag57
(g78
g59
NtRp1410
(dp1411
g62
(dp1412
g89
g90
ssg71
g1401
sg64
(lp1413
S':'
asbag57
(g78
g59
NtRp1414
(dp1415
g62
(dp1416
sg71
g1401
sg64
(lp1417
g57
(g58
g59
NtRp1418
(dp1419
g62
(dp1420
g70
I4
ssg71
g1414
sg64
(lp1421
S'gzip, deflate'
p1422
asbasbasbag57
(g73
g59
NtRp1423
(dp1424
g62
(dp1425
sg71
g1219
sg64
(lp1426
g57
(g78
g59
NtRp1427
(dp1428
g62
(dp1429
g82
g83
ssg71
g1423
sg64
(lp1430
S'http_accept_language'
p1431
asbag57
(g78
g59
NtRp1432
(dp1433
g62
(dp1434
g89
g90
ssg71
g1423
sg64
(lp1435
S':'
asbag57
(g78
g59
NtRp1436
(dp1437
g62
(dp1438
sg71
g1423
sg64
(lp1439
g57
(g58
g59
NtRp1440
(dp1441
g62
(dp1442
g70
I4
ssg71
g1436
sg64
(lp1443
S'en-US,en;q=0.5'
p1444
asbasbasbag57
(g73
g59
NtRp1445
(dp1446
g62
(dp1447
sg71
g1219
sg64
(lp1448
g57
(g78
g59
NtRp1449
(dp1450
g62
(dp1451
g82
g83
ssg71
g1445
sg64
(lp1452
S'http_connection'
p1453
asbag57
(g78
g59
NtRp1454
(dp1455
g62
(dp1456
g89
g90
ssg71
g1445
sg64
(lp1457
S':'
asbag57
(g78
g59
NtRp1458
(dp1459
g62
(dp1460
sg71
g1445
sg64
(lp1461
g57
(g58
g59
NtRp1462
(dp1463
g62
(dp1464
g70
I4
ssg71
g1458
sg64
(lp1465
S'keep-alive'
p1466
asbasbasbag57
(g73
g59
NtRp1467
(dp1468
g62
(dp1469
sg71
g1219
sg64
(lp1470
g57
(g78
g59
NtRp1471
(dp1472
g62
(dp1473
g82
g83
ssg71
g1467
sg64
(lp1474
S'http_cookie'
p1475
asbag57
(g78
g59
NtRp1476
(dp1477
g62
(dp1478
g89
g90
ssg71
g1467
sg64
(lp1479
S':'
asbag57
(g78
g59
NtRp1480
(dp1481
g62
(dp1482
sg71
g1467
sg64
(lp1483
g57
(g58
g59
NtRp1484
(dp1485
g62
(dp1486
g70
I4
ssg71
g1480
sg64
(lp1487
S'session_id_welcome=127.0.0.1-698c9672-8532-4540-be6b-864a180816f6; session_id_admin=127.0.0.1-32177690-19e2-42e4-a72c-7ff2b3d66aea; session_id_sss=127.0.0.1-3710a024-f9d4-48b6-82d8-76e05ad14bc4; session_id_kt=127.0.0.1-7e77715e-09d9-41f5-a841-8546ac18f69c; session_id_hostel_r1=127.0.0.1-4b049345-4b14-4a48-a691-5f288bacb456'
p1488
asbasbasbag57
(g73
g59
NtRp1489
(dp1490
g62
(dp1491
sg71
g1219
sg64
(lp1492
g57
(g78
g59
NtRp1493
(dp1494
g62
(dp1495
g82
g83
ssg71
g1489
sg64
(lp1496
S'http_host'
p1497
asbag57
(g78
g59
NtRp1498
(dp1499
g62
(dp1500
g89
g90
ssg71
g1489
sg64
(lp1501
S':'
asbag57
(g78
g59
NtRp1502
(dp1503
g62
(dp1504
sg71
g1489
sg64
(lp1505
g57
(g58
g59
NtRp1506
(dp1507
g62
(dp1508
g70
I4
ssg71
g1502
sg64
(lp1509
S'127.0.0.1:8000'
p1510
asbasbasbag57
(g73
g59
NtRp1511
(dp1512
g62
(dp1513
sg71
g1219
sg64
(lp1514
g57
(g78
g59
NtRp1515
(dp1516
g62
(dp1517
g82
g83
ssg71
g1511
sg64
(lp1518
S'http_referer'
p1519
asbag57
(g78
g59
NtRp1520
(dp1521
g62
(dp1522
g89
g90
ssg71
g1511
sg64
(lp1523
S':'
asbag57
(g78
g59
NtRp1524
(dp1525
g62
(dp1526
sg71
g1511
sg64
(lp1527
g57
(g58
g59
NtRp1528
(dp1529
g62
(dp1530
g70
I4
ssg71
g1524
sg64
(lp1531
S'http://127.0.0.1:8000/sss/default/vcomplaint'
p1532
asbasbasbag57
(g73
g59
NtRp1533
(dp1534
g62
(dp1535
sg71
g1219
sg64
(lp1536
g57
(g78
g59
NtRp1537
(dp1538
g62
(dp1539
g82
g83
ssg71
g1533
sg64
(lp1540
S'http_user_agent'
p1541
asbag57
(g78
g59
NtRp1542
(dp1543
g62
(dp1544
g89
g90
ssg71
g1533
sg64
(lp1545
S':'
asbag57
(g78
g59
NtRp1546
(dp1547
g62
(dp1548
sg71
g1533
sg64
(lp1549
g57
(g58
g59
NtRp1550
(dp1551
g62
(dp1552
g70
I4
ssg71
g1546
sg64
(lp1553
S'Mozilla/5.0 (X11; Ubuntu; Linux x86_64; rv:16.0) Gecko/20100101 Firefox/16.0'
p1554
asbasbasbag57
(g73
g59
NtRp1555
(dp1556
g62
(dp1557
sg71
g1219
sg64
(lp1558
g57
(g78
g59
NtRp1559
(dp1560
g62
(dp1561
g82
g83
ssg71
g1555
sg64
(lp1562
S'is_jython'
p1563
asbag57
(g78
g59
NtRp1564
(dp1565
g62
(dp1566
g89
g90
ssg71
g1555
sg64
(lp1567
S':'
asbag57
(g78
g59
NtRp1568
(dp1569
g62
(dp1570
sg71
g1555
sg64
(lp1571
g57
(g58
g59
NtRp1572
(dp1573
g62
(dp1574
g70
I4
ssg71
g1568
sg64
(lp1575
g100
asbasbasbag57
(g73
g59
NtRp1576
(dp1577
g62
(dp1578
sg71
g1219
sg64
(lp1579
g57
(g78
g59
NtRp1580
(dp1581
g62
(dp1582
g82
g83
ssg71
g1576
sg64
(lp1583
S'is_pypy'
p1584
asbag57
(g78
g59
NtRp1585
(dp1586
g62
(dp1587
g89
g90
ssg71
g1576
sg64
(lp1588
S':'
asbag57
(g78
g59
NtRp1589
(dp1590
g62
(dp1591
sg71
g1576
sg64
(lp1592
g57
(g58
g59
NtRp1593
(dp1594
g62
(dp1595
g70
I4
ssg71
g1589
sg64
(lp1596
g100
asbasbasbag57
(g73
g59
NtRp1597
(dp1598
g62
(dp1599
sg71
g1219
sg64
(lp1600
g57
(g78
g59
NtRp1601
(dp1602
g62
(dp1603
g82
g83
ssg71
g1597
sg64
(lp1604
S'local_hosts'
p1605
asbag57
(g78
g59
NtRp1606
(dp1607
g62
(dp1608
g89
g90
ssg71
g1597
sg64
(lp1609
S':'
asbag57
(g78
g59
NtRp1610
(dp1611
g62
(dp1612
sg71
g1597
sg64
(lp1613
g57
(g58
g59
NtRp1614
(dp1615
g62
(dp1616
g70
I4
ssg71
g1610
sg64
(lp1617
g57
(g66
g59
NtRp1618
(dp1619
g62
(dp1620
g70
I3
ssg71
Nsg64
(lp1621
g57
(g73
g59
NtRp1622
(dp1623
g62
(dp1624
sg71
g1618
sg64
(lp1625
g57
(g78
g59
NtRp1626
(dp1627
g62
(dp1628
sg71
g1622
sg64
(lp1629
g57
(g58
g59
NtRp1630
(dp1631
g62
(dp1632
g70
I3
ssg71
g1626
sg64
(lp1633
S'127.0.0.1'
p1634
asbasbasbag57
(g73
g59
NtRp1635
(dp1636
g62
(dp1637
sg71
g1618
sg64
(lp1638
g57
(g78
g59
NtRp1639
(dp1640
g62
(dp1641
sg71
g1635
sg64
(lp1642
g57
(g58
g59
NtRp1643
(dp1644
g62
(dp1645
g70
I3
ssg71
g1639
sg64
(lp1646
S'::ffff:127.0.0.1'
p1647
asbasbasbag57
(g73
g59
NtRp1648
(dp1649
g62
(dp1650
sg71
g1618
sg64
(lp1651
g57
(g78
g59
NtRp1652
(dp1653
g62
(dp1654
sg71
g1648
sg64
(lp1655
g57
(g58
g59
NtRp1656
(dp1657
g62
(dp1658
g70
I3
ssg71
g1652
sg64
(lp1659
S'bhanu-Dell-System-XPS-L502X'
p1660
asbasbasbag57
(g73
g59
NtRp1661
(dp1662
g62
(dp1663
sg71
g1618
sg64
(lp1664
g57
(g78
g59
NtRp1665
(dp1666
g62
(dp1667
sg71
g1661
sg64
(lp1668
g57
(g58
g59
NtRp1669
(dp1670
g62
(dp1671
g70
I3
ssg71
g1665
sg64
(lp1672
S'bhanu-Dell-System-XPS-L502X'
p1673
asbasbasbag57
(g73
g59
NtRp1674
(dp1675
g62
(dp1676
sg71
g1618
sg64
(lp1677
g57
(g78
g59
NtRp1678
(dp1679
g62
(dp1680
sg71
g1674
sg64
(lp1681
g57
(g58
g59
NtRp1682
(dp1683
g62
(dp1684
g70
I3
ssg71
g1678
sg64
(lp1685
S'127.0.1.1'
p1686
asbasbasbasbasbasbasbag57
(g73
g59
NtRp1687
(dp1688
g62
(dp1689
sg71
g1219
sg64
(lp1690
g57
(g78
g59
NtRp1691
(dp1692
g62
(dp1693
g82
g83
ssg71
g1687
sg64
(lp1694
S'path_info'
p1695
asbag57
(g78
g59
NtRp1696
(dp1697
g62
(dp1698
g89
g90
ssg71
g1687
sg64
(lp1699
S':'
asbag57
(g78
g59
NtRp1700
(dp1701
g62
(dp1702
sg71
g1687
sg64
(lp1703
g57
(g58
g59
NtRp1704
(dp1705
g62
(dp1706
g70
I4
ssg71
g1700
sg64
(lp1707
S'/sss/default/markcom'
p1708
asbasbasbag57
(g73
g59
NtRp1709
(dp1710
g62
(dp1711
sg71
g1219
sg64
(lp1712
g57
(g78
g59
NtRp1713
(dp1714
g62
(dp1715
g82
g83
ssg71
g1709
sg64
(lp1716
S'query_string'
p1717
asbag57
(g78
g59
NtRp1718
(dp1719
g62
(dp1720
g89
g90
ssg71
g1709
sg64
(lp1721
S':'
asbag57
(g78
g59
NtRp1722
(dp1723
g62
(dp1724
sg71
g1709
sg64
(lp1725
g57
(g58
g59
NtRp1726
(dp1727
g62
(dp1728
g70
I4
ssg71
g1722
sg64
(lp1729
S'option=51&option=52'
p1730
asbasbasbag57
(g73
g59
NtRp1731
(dp1732
g62
(dp1733
sg71
g1219
sg64
(lp1734
g57
(g78
g59
NtRp1735
(dp1736
g62
(dp1737
g82
g83
ssg71
g1731
sg64
(lp1738
S'remote_addr'
p1739
asbag57
(g78
g59
NtRp1740
(dp1741
g62
(dp1742
g89
g90
ssg71
g1731
sg64
(lp1743
S':'
asbag57
(g78
g59
NtRp1744
(dp1745
g62
(dp1746
sg71
g1731
sg64
(lp1747
g57
(g58
g59
NtRp1748
(dp1749
g62
(dp1750
g70
I4
ssg71
g1744
sg64
(lp1751
g212
asbasbasbag57
(g73
g59
NtRp1752
(dp1753
g62
(dp1754
sg71
g1219
sg64
(lp1755
g57
(g78
g59
NtRp1756
(dp1757
g62
(dp1758
g82
g83
ssg71
g1752
sg64
(lp1759
S'remote_port'
p1760
asbag57
(g78
g59
NtRp1761
(dp1762
g62
(dp1763
g89
g90
ssg71
g1752
sg64
(lp1764
S':'
asbag57
(g78
g59
NtRp1765
(dp1766
g62
(dp1767
sg71
g1752
sg64
(lp1768
g57
(g58
g59
NtRp1769
(dp1770
g62
(dp1771
g70
I4
ssg71
g1765
sg64
(lp1772
S'35060'
p1773
asbasbasbag57
(g73
g59
NtRp1774
(dp1775
g62
(dp1776
sg71
g1219
sg64
(lp1777
g57
(g78
g59
NtRp1778
(dp1779
g62
(dp1780
g82
g83
ssg71
g1774
sg64
(lp1781
S'request_method'
p1782
asbag57
(g78
g59
NtRp1783
(dp1784
g62
(dp1785
g89
g90
ssg71
g1774
sg64
(lp1786
S':'
asbag57
(g78
g59
NtRp1787
(dp1788
g62
(dp1789
sg71
g1774
sg64
(lp1790
g57
(g58
g59
NtRp1791
(dp1792
g62
(dp1793
g70
I4
ssg71
g1787
sg64
(lp1794
S'GET'
p1795
asbasbasbag57
(g73
g59
NtRp1796
(dp1797
g62
(dp1798
sg71
g1219
sg64
(lp1799
g57
(g78
g59
NtRp1800
(dp1801
g62
(dp1802
g82
g83
ssg71
g1796
sg64
(lp1803
S'request_uri'
p1804
asbag57
(g78
g59
NtRp1805
(dp1806
g62
(dp1807
g89
g90
ssg71
g1796
sg64
(lp1808
S':'
asbag57
(g78
g59
NtRp1809
(dp1810
g62
(dp1811
sg71
g1796
sg64
(lp1812
g57
(g58
g59
NtRp1813
(dp1814
g62
(dp1815
g70
I4
ssg71
g1809
sg64
(lp1816
S'/sss/default/markcom?option=51&option=52'
p1817
asbasbasbag57
(g73
g59
NtRp1818
(dp1819
g62
(dp1820
sg71
g1219
sg64
(lp1821
g57
(g78
g59
NtRp1822
(dp1823
g62
(dp1824
g82
g83
ssg71
g1818
sg64
(lp1825
S'script_name'
p1826
asbag57
(g78
g59
NtRp1827
(dp1828
g62
(dp1829
g89
g90
ssg71
g1818
sg64
(lp1830
S':'
asbag57
(g78
g59
NtRp1831
(dp1832
g62
(dp1833
sg71
g1818
sg64
(lp1834
g57
(g58
g59
NtRp1835
(dp1836
g62
(dp1837
g70
I4
ssg71
g1831
sg64
(lp1838
S''
asbasbasbag57
(g73
g59
NtRp1839
(dp1840
g62
(dp1841
sg71
g1219
sg64
(lp1842
g57
(g78
g59
NtRp1843
(dp1844
g62
(dp1845
g82
g83
ssg71
g1839
sg64
(lp1846
S'server_name'
p1847
asbag57
(g78
g59
NtRp1848
(dp1849
g62
(dp1850
g89
g90
ssg71
g1839
sg64
(lp1851
S':'
asbag57
(g78
g59
NtRp1852
(dp1853
g62
(dp1854
sg71
g1839
sg64
(lp1855
g57
(g58
g59
NtRp1856
(dp1857
g62
(dp1858
g70
I4
ssg71
g1852
sg64
(lp1859
g1673
asbasbasbag57
(g73
g59
NtRp1860
(dp1861
g62
(dp1862
sg71
g1219
sg64
(lp1863
g57
(g78
g59
NtRp1864
(dp1865
g62
(dp1866
g82
g83
ssg71
g1860
sg64
(lp1867
S'server_port'
p1868
asbag57
(g78
g59
NtRp1869
(dp1870
g62
(dp1871
g89
g90
ssg71
g1860
sg64
(lp1872
S':'
asbag57
(g78
g59
NtRp1873
(dp1874
g62
(dp1875
sg71
g1860
sg64
(lp1876
g57
(g58
g59
NtRp1877
(dp1878
g62
(dp1879
g70
I4
ssg71
g1873
sg64
(lp1880
S'8000'
p1881
asbasbasbag57
(g73
g59
NtRp1882
(dp1883
g62
(dp1884
sg71
g1219
sg64
(lp1885
g57
(g78
g59
NtRp1886
(dp1887
g62
(dp1888
g82
g83
ssg71
g1882
sg64
(lp1889
S'server_protocol'
p1890
asbag57
(g78
g59
NtRp1891
(dp1892
g62
(dp1893
g89
g90
ssg71
g1882
sg64
(lp1894
S':'
asbag57
(g78
g59
NtRp1895
(dp1896
g62
(dp1897
sg71
g1882
sg64
(lp1898
g57
(g58
g59
NtRp1899
(dp1900
g62
(dp1901
g70
I4
ssg71
g1895
sg64
(lp1902
S'HTTP/1.1'
p1903
asbasbasbag57
(g73
g59
NtRp1904
(dp1905
g62
(dp1906
sg71
g1219
sg64
(lp1907
g57
(g78
g59
NtRp1908
(dp1909
g62
(dp1910
g82
g83
ssg71
g1904
sg64
(lp1911
S'server_software'
p1912
asbag57
(g78
g59
NtRp1913
(dp1914
g62
(dp1915
g89
g90
ssg71
g1904
sg64
(lp1916
S':'
asbag57
(g78
g59
NtRp1917
(dp1918
g62
(dp1919
sg71
g1904
sg64
(lp1920
g57
(g58
g59
NtRp1921
(dp1922
g62
(dp1923
g70
I4
ssg71
g1917
sg64
(lp1924
S'Rocket 1.2.5'
p1925
asbasbasbag57
(g73
g59
NtRp1926
(dp1927
g62
(dp1928
sg71
g1219
sg64
(lp1929
g57
(g78
g59
NtRp1930
(dp1931
g62
(dp1932
g82
g83
ssg71
g1926
sg64
(lp1933
S'web2py_path'
p1934
asbag57
(g78
g59
NtRp1935
(dp1936
g62
(dp1937
g89
g90
ssg71
g1926
sg64
(lp1938
S':'
asbag57
(g78
g59
NtRp1939
(dp1940
g62
(dp1941
sg71
g1926
sg64
(lp1942
g57
(g58
g59
NtRp1943
(dp1944
g62
(dp1945
g70
I4
ssg71
g1939
sg64
(lp1946
g1266
asbasbasbag57
(g73
g59
NtRp1947
(dp1948
g62
(dp1949
sg71
g1219
sg64
(lp1950
g57
(g78
g59
NtRp1951
(dp1952
g62
(dp1953
g82
g83
ssg71
g1947
sg64
(lp1954
S'web2py_version'
p1955
asbag57
(g78
g59
NtRp1956
(dp1957
g62
(dp1958
g89
g90
ssg71
g1947
sg64
(lp1959
S':'
asbag57
(g78
g59
NtRp1960
(dp1961
g62
(dp1962
sg71
g1947
sg64
(lp1963
g57
(g58
g59
NtRp1964
(dp1965
g62
(dp1966
g70
I4
ssg71
g1960
sg64
(lp1967
g57
(g66
g59
NtRp1968
(dp1969
g62
(dp1970
g70
I3
ssg71
Nsg64
(lp1971
g57
(g73
g59
NtRp1972
(dp1973
g62
(dp1974
sg71
g1968
sg64
(lp1975
g57
(g78
g59
NtRp1976
(dp1977
g62
(dp1978
sg71
g1972
sg64
(lp1979
g57
(g58
g59
NtRp1980
(dp1981
g62
(dp1982
g70
I3
ssg71
g1976
sg64
(lp1983
S'2'
asbasbasbag57
(g73
g59
NtRp1984
(dp1985
g62
(dp1986
sg71
g1968
sg64
(lp1987
g57
(g78
g59
NtRp1988
(dp1989
g62
(dp1990
sg71
g1984
sg64
(lp1991
g57
(g58
g59
NtRp1992
(dp1993
g62
(dp1994
g70
I3
ssg71
g1988
sg64
(lp1995
S'2'
asbasbasbag57
(g73
g59
NtRp1996
(dp1997
g62
(dp1998
sg71
g1968
sg64
(lp1999
g57
(g78
g59
NtRp2000
(dp2001
g62
(dp2002
sg71
g1996
sg64
(lp2003
g57
(g58
g59
NtRp2004
(dp2005
g62
(dp2006
g70
I3
ssg71
g2000
sg64
(lp2007
S'1'
asbasbasbag57
(g73
g59
NtRp2008
(dp2009
g62
(dp2010
sg71
g1968
sg64
(lp2011
g57
(g78
g59
NtRp2012
(dp2013
g62
(dp2014
sg71
g2008
sg64
(lp2015
g57
(g58
g59
NtRp2016
(dp2017
g62
(dp2018
g70
I3
ssg71
g2012
sg64
(lp2019
S'datetime.datetime(2012, 10, 21, 16, 57, 4)'
p2020
asbasbasbag57
(g73
g59
NtRp2021
(dp2022
g62
(dp2023
sg71
g1968
sg64
(lp2024
g57
(g78
g59
NtRp2025
(dp2026
g62
(dp2027
sg71
g2021
sg64
(lp2028
g57
(g58
g59
NtRp2029
(dp2030
g62
(dp2031
g70
I3
ssg71
g2025
sg64
(lp2032
S'stable'
p2033
asbasbasbasbasbasbasbag57
(g73
g59
NtRp2034
(dp2035
g62
(dp2036
sg71
g1219
sg64
(lp2037
g57
(g78
g59
NtRp2038
(dp2039
g62
(dp2040
g82
g83
ssg71
g2034
sg64
(lp2041
S'wsgi_errors'
p2042
asbag57
(g78
g59
NtRp2043
(dp2044
g62
(dp2045
g89
g90
ssg71
g2034
sg64
(lp2046
S':'
asbag57
(g78
g59
NtRp2047
(dp2048
g62
(dp2049
sg71
g2034
sg64
(lp2050
g57
(g58
g59
NtRp2051
(dp2052
g62
(dp2053
g70
I4
ssg71
g2047
sg64
(lp2054
S"<open file '<stderr>', mode 'w' at 0x7fea0c376270>"
p2055
asbasbasbag57
(g73
g59
NtRp2056
(dp2057
g62
(dp2058
sg71
g1219
sg64
(lp2059
g57
(g78
g59
NtRp2060
(dp2061
g62
(dp2062
g82
g83
ssg71
g2056
sg64
(lp2063
S'wsgi_file_wrapper'
p2064
asbag57
(g78
g59
NtRp2065
(dp2066
g62
(dp2067
g89
g90
ssg71
g2056
sg64
(lp2068
S':'
asbag57
(g78
g59
NtRp2069
(dp2070
g62
(dp2071
sg71
g2056
sg64
(lp2072
g57
(g58
g59
NtRp2073
(dp2074
g62
(dp2075
g70
I4
ssg71
g2069
sg64
(lp2076
S'<class wsgiref.util.FileWrapper at 0x2649d50>'
p2077
asbasbasbag57
(g73
g59
NtRp2078
(dp2079
g62
(dp2080
sg71
g1219
sg64
(lp2081
g57
(g78
g59
NtRp2082
(dp2083
g62
(dp2084
g82
g83
ssg71
g2078
sg64
(lp2085
S'wsgi_input'
p2086
asbag57
(g78
g59
NtRp2087
(dp2088
g62
(dp2089
g89
g90
ssg71
g2078
sg64
(lp2090
S':'
asbag57
(g78
g59
NtRp2091
(dp2092
g62
(dp2093
sg71
g2078
sg64
(lp2094
g57
(g58
g59
NtRp2095
(dp2096
g62
(dp2097
g70
I4
ssg71
g2091
sg64
(lp2098
S'<socket._fileobject object at 0x7fe9f49d94d0>'
p2099
asbasbasbag57
(g73
g59
NtRp2100
(dp2101
g62
(dp2102
sg71
g1219
sg64
(lp2103
g57
(g78
g59
NtRp2104
(dp2105
g62
(dp2106
g82
g83
ssg71
g2100
sg64
(lp2107
S'wsgi_multiprocess'
p2108
asbag57
(g78
g59
NtRp2109
(dp2110
g62
(dp2111
g89
g90
ssg71
g2100
sg64
(lp2112
S':'
asbag57
(g78
g59
NtRp2113
(dp2114
g62
(dp2115
sg71
g2100
sg64
(lp2116
g57
(g58
g59
NtRp2117
(dp2118
g62
(dp2119
g70
I4
ssg71
g2113
sg64
(lp2120
g100
asbasbasbag57
(g73
g59
NtRp2121
(dp2122
g62
(dp2123
sg71
g1219
sg64
(lp2124
g57
(g78
g59
NtRp2125
(dp2126
g62
(dp2127
g82
g83
ssg71
g2121
sg64
(lp2128
S'wsgi_multithread'
p2129
asbag57
(g78
g59
NtRp2130
(dp2131
g62
(dp2132
g89
g90
ssg71
g2121
sg64
(lp2133
S':'
asbag57
(g78
g59
NtRp2134
(dp2135
g62
(dp2136
sg71
g2121
sg64
(lp2137
g57
(g58
g59
NtRp2138
(dp2139
g62
(dp2140
g70
I4
ssg71
g2134
sg64
(lp2141
S'True'
p2142
asbasbasbag57
(g73
g59
NtRp2143
(dp2144
g62
(dp2145
sg71
g1219
sg64
(lp2146
g57
(g78
g59
NtRp2147
(dp2148
g62
(dp2149
g82
g83
ssg71
g2143
sg64
(lp2150
S'wsgi_run_once'
p2151
asbag57
(g78
g59
NtRp2152
(dp2153
g62
(dp2154
g89
g90
ssg71
g2143
sg64
(lp2155
S':'
asbag57
(g78
g59
NtRp2156
(dp2157
g62
(dp2158
sg71
g2143
sg64
(lp2159
g57
(g58
g59
NtRp2160
(dp2161
g62
(dp2162
g70
I4
ssg71
g2156
sg64
(lp2163
g100
asbasbasbag57
(g73
g59
NtRp2164
(dp2165
g62
(dp2166
sg71
g1219
sg64
(lp2167
g57
(g78
g59
NtRp2168
(dp2169
g62
(dp2170
g82
g83
ssg71
g2164
sg64
(lp2171
S'wsgi_url_scheme'
p2172
asbag57
(g78
g59
NtRp2173
(dp2174
g62
(dp2175
g89
g90
ssg71
g2164
sg64
(lp2176
S':'
asbag57
(g78
g59
NtRp2177
(dp2178
g62
(dp2179
sg71
g2164
sg64
(lp2180
g57
(g58
g59
NtRp2181
(dp2182
g62
(dp2183
g70
I4
ssg71
g2177
sg64
(lp2184
S'http'
p2185
asbasbasbag57
(g73
g59
NtRp2186
(dp2187
g62
(dp2188
sg71
g1219
sg64
(lp2189
g57
(g78
g59
NtRp2190
(dp2191
g62
(dp2192
g82
g83
ssg71
g2186
sg64
(lp2193
S'wsgi_version'
p2194
asbag57
(g78
g59
NtRp2195
(dp2196
g62
(dp2197
g89
g90
ssg71
g2186
sg64
(lp2198
S':'
asbag57
(g78
g59
NtRp2199
(dp2200
g62
(dp2201
sg71
g2186
sg64
(lp2202
g57
(g58
g59
NtRp2203
(dp2204
g62
(dp2205
g70
I4
ssg71
g2199
sg64
(lp2206
g57
(g66
g59
NtRp2207
(dp2208
g62
(dp2209
g70
I3
ssg71
Nsg64
(lp2210
g57
(g73
g59
NtRp2211
(dp2212
g62
(dp2213
sg71
g2207
sg64
(lp2214
g57
(g78
g59
NtRp2215
(dp2216
g62
(dp2217
sg71
g2211
sg64
(lp2218
g57
(g58
g59
NtRp2219
(dp2220
g62
(dp2221
g70
I3
ssg71
g2215
sg64
(lp2222
S'1'
asbasbasbag57
(g73
g59
NtRp2223
(dp2224
g62
(dp2225
sg71
g2207
sg64
(lp2226
g57
(g78
g59
NtRp2227
(dp2228
g62
(dp2229
sg71
g2223
sg64
(lp2230
g57
(g58
g59
NtRp2231
(dp2232
g62
(dp2233
g70
I3
ssg71
g2227
sg64
(lp2234
S'0'
asbasbasbasbasbasbasbasbasbasbasbag57
(g73
g59
NtRp2235
(dp2236
g62
(dp2237
sg71
g67
sg64
(lp2238
g57
(g78
g59
NtRp2239
(dp2240
g62
(dp2241
g82
g83
ssg71
g2235
sg64
(lp2242
S'extension'
p2243
asbag57
(g78
g59
NtRp2244
(dp2245
g62
(dp2246
g89
g90
ssg71
g2235
sg64
(lp2247
S':'
asbag57
(g78
g59
NtRp2248
(dp2249
g62
(dp2250
sg71
g2235
sg64
(lp2251
g57
(g58
g59
NtRp2252
(dp2253
g62
(dp2254
g70
I5
ssg71
g2248
sg64
(lp2255
S'html'
p2256
asbasbasbag57
(g73
g59
NtRp2257
(dp2258
g62
(dp2259
sg71
g67
sg64
(lp2260
g57
(g78
g59
NtRp2261
(dp2262
g62
(dp2263
g82
g83
ssg71
g2257
sg64
(lp2264
S'folder'
p2265
asbag57
(g78
g59
NtRp2266
(dp2267
g62
(dp2268
g89
g90
ssg71
g2257
sg64
(lp2269
S':'
asbag57
(g78
g59
NtRp2270
(dp2271
g62
(dp2272
sg71
g2257
sg64
(lp2273
g57
(g58
g59
NtRp2274
(dp2275
g62
(dp2276
g70
I5
ssg71
g2270
sg64
(lp2277
S'/home/bhanu/web2py/applications/sss/'
p2278
asbasbasbag57
(g73
g59
NtRp2279
(dp2280
g62
(dp2281
sg71
g67
sg64
(lp2282
g57
(g78
g59
NtRp2283
(dp2284
g62
(dp2285
g82
g83
ssg71
g2279
sg64
(lp2286
S'function'
p2287
asbag57
(g78
g59
NtRp2288
(dp2289
g62
(dp2290
g89
g90
ssg71
g2279
sg64
(lp2291
S':'
asbag57
(g78
g59
NtRp2292
(dp2293
g62
(dp2294
sg71
g2279
sg64
(lp2295
g57
(g58
g59
NtRp2296
(dp2297
g62
(dp2298
g70
I5
ssg71
g2292
sg64
(lp2299
S'markcom'
p2300
asbasbasbag57
(g73
g59
NtRp2301
(dp2302
g62
(dp2303
sg71
g67
sg64
(lp2304
g57
(g78
g59
NtRp2305
(dp2306
g62
(dp2307
g82
g83
ssg71
g2301
sg64
(lp2308
S'get_vars'
p2309
asbag57
(g78
g59
NtRp2310
(dp2311
g62
(dp2312
g89
g90
ssg71
g2301
sg64
(lp2313
S':'
asbag57
(g78
g59
NtRp2314
(dp2315
g62
(dp2316
sg71
g2301
sg64
(lp2317
g57
(g58
g59
NtRp2318
(dp2319
g62
(dp2320
g70
I5
ssg71
g2314
sg64
(lp2321
g57
(g66
g59
NtRp2322
(dp2323
g62
(dp2324
g70
I4
ssg71
Nsg64
(lp2325
g57
(g73
g59
NtRp2326
(dp2327
g62
(dp2328
sg71
g2322
sg64
(lp2329
g57
(g78
g59
NtRp2330
(dp2331
g62
(dp2332
g82
g83
ssg71
g2326
sg64
(lp2333
S'option'
p2334
asbag57
(g78
g59
NtRp2335
(dp2336
g62
(dp2337
g89
g90
ssg71
g2326
sg64
(lp2338
S':'
asbag57
(g78
g59
NtRp2339
(dp2340
g62
(dp2341
sg71
g2326
sg64
(lp2342
g57
(g58
g59
NtRp2343
(dp2344
g62
(dp2345
g70
I4
ssg71
g2339
sg64
(lp2346
g57
(g66
g59
NtRp2347
(dp2348
g62
(dp2349
g70
I3
ssg71
Nsg64
(lp2350
g57
(g73
g59
NtRp2351
(dp2352
g62
(dp2353
sg71
g2347
sg64
(lp2354
g57
(g78
g59
NtRp2355
(dp2356
g62
(dp2357
sg71
g2351
sg64
(lp2358
g57
(g58
g59
NtRp2359
(dp2360
g62
(dp2361
g70
I3
ssg71
g2355
sg64
(lp2362
S'51'
p2363
asbasbasbag57
(g73
g59
NtRp2364
(dp2365
g62
(dp2366
sg71
g2347
sg64
(lp2367
g57
(g78
g59
NtRp2368
(dp2369
g62
(dp2370
sg71
g2364
sg64
(lp2371
g57
(g58
g59
NtRp2372
(dp2373
g62
(dp2374
g70
I3
ssg71
g2368
sg64
(lp2375
S'52'
p2376
asbasbasbasbasbasbasbasbasbasbasbag57
(g73
g59
NtRp2377
(dp2378
g62
(dp2379
sg71
g67
sg64
(lp2380
g57
(g78
g59
NtRp2381
(dp2382
g62
(dp2383
g82
g83
ssg71
g2377
sg64
(lp2384
S'global_settings'
p2385
asbag57
(g78
g59
NtRp2386
(dp2387
g62
(dp2388
g89
g90
ssg71
g2377
sg64
(lp2389
S':'
asbag57
(g78
g59
NtRp2390
(dp2391
g62
(dp2392
sg71
g2377
sg64
(lp2393
g57
(g58
g59
NtRp2394
(dp2395
g62
(dp2396
g70
I5
ssg71
g2390
sg64
(lp2397
g57
(g66
g59
NtRp2398
(dp2399
g62
(dp2400
g70
I4
ssg71
Nsg64
(lp2401
g57
(g73
g59
NtRp2402
(dp2403
g62
(dp2404
sg71
g2398
sg64
(lp2405
g57
(g78
g59
NtRp2406
(dp2407
g62
(dp2408
g82
g83
ssg71
g2402
sg64
(lp2409
g1231
asbag57
(g78
g59
NtRp2410
(dp2411
g62
(dp2412
g89
g90
ssg71
g2402
sg64
(lp2413
S':'
asbag57
(g78
g59
NtRp2414
(dp2415
g62
(dp2416
sg71
g2402
sg64
(lp2417
g57
(g58
g59
NtRp2418
(dp2419
g62
(dp2420
g70
I4
ssg71
g2414
sg64
(lp2421
S"set(['/home/bhanu/web2py/applications/admin/', '/home/bhanu/web2py/applications/welcome/', '/home/bhanu/web2py/applications/sss/', '/home/bhanu/web2py/applications/hostel_r1/', '/home/bhanu/web2py/applications/kt/'])"
p2422
asbasbasbag57
(g73
g59
NtRp2423
(dp2424
g62
(dp2425
sg71
g2398
sg64
(lp2426
g57
(g78
g59
NtRp2427
(dp2428
g62
(dp2429
g82
g83
ssg71
g2423
sg64
(lp2430
g1253
asbag57
(g78
g59
NtRp2431
(dp2432
g62
(dp2433
g89
g90
ssg71
g2423
sg64
(lp2434
S':'
asbag57
(g78
g59
NtRp2435
(dp2436
g62
(dp2437
sg71
g2423
sg64
(lp2438
g57
(g58
g59
NtRp2439
(dp2440
g62
(dp2441
g70
I4
ssg71
g2435
sg64
(lp2442
g1266
asbasbasbag57
(g73
g59
NtRp2443
(dp2444
g62
(dp2445
sg71
g2398
sg64
(lp2446
g57
(g78
g59
NtRp2447
(dp2448
g62
(dp2449
g82
g83
ssg71
g2443
sg64
(lp2450
g1275
asbag57
(g78
g59
NtRp2451
(dp2452
g62
(dp2453
g89
g90
ssg71
g2443
sg64
(lp2454
S':'
asbag57
(g78
g59
NtRp2455
(dp2456
g62
(dp2457
sg71
g2443
sg64
(lp2458
g57
(g58
g59
NtRp2459
(dp2460
g62
(dp2461
g70
I4
ssg71
g2455
sg64
(lp2462
g57
(g66
g59
NtRp2463
(dp2464
g62
(dp2465
g70
I3
ssg71
Nsg64
(lp2466
sbasbasbasbag57
(g73
g59
NtRp2467
(dp2468
g62
(dp2469
sg71
g2398
sg64
(lp2470
g57
(g78
g59
NtRp2471
(dp2472
g62
(dp2473
g82
g83
ssg71
g2467
sg64
(lp2474
g1300
asbag57
(g78
g59
NtRp2475
(dp2476
g62
(dp2477
g89
g90
ssg71
g2467
sg64
(lp2478
S':'
asbag57
(g78
g59
NtRp2479
(dp2480
g62
(dp2481
sg71
g2467
sg64
(lp2482
g57
(g58
g59
NtRp2483
(dp2484
g62
(dp2485
g70
I4
ssg71
g2479
sg64
(lp2486
S"<Values at 0x2715f80: {'verbose': False, 'ip': '127.0.0.1', 'with_scheduler': False, 'ips': ['127.0.1.1'], 'shutdown_timeout': 5, 'taskbar': False, 'port': 8000, 'maxthreads': None, 'softcron': False, 'server_name': 'bhanu-Dell-System-XPS-L502X', 'bpython': False, 'nogui': False, 'pid_filename': 'httpserver.pid', 'extcron': False, 'runcron': False, 'run_system_tests': False, 'test': None, 'folder': '/home/bhanu/web2py', 'config': '', 'minthreads': None, 'winservice': '', 'shell': None, 'run': '', 'log_filename': 'httpserver.log', 'debuglevel': 30, 'args': [''], 'socket_timeout': 5, 'ssl_ca_certificate': None, 'scheduler': None, 'profiler_filename': None, 'ssl_private_key': '', 'scheduler_groups': None, 'password': '1', 'request_queue_size': 5, 'ssl_certificate': '', 'cronjob': False, 'numthreads': None, 'quiet': False, 'interfaces': None, 'import_models': False, 'timeout': 10, 'plain': False, 'nobanner': False}>"
p2487
asbasbasbag57
(g73
g59
NtRp2488
(dp2489
g62
(dp2490
sg71
g2398
sg64
(lp2491
g57
(g78
g59
NtRp2492
(dp2493
g62
(dp2494
g82
g83
ssg71
g2488
sg64
(lp2495
g1322
asbag57
(g78
g59
NtRp2496
(dp2497
g62
(dp2498
g89
g90
ssg71
g2488
sg64
(lp2499
S':'
asbag57
(g78
g59
NtRp2500
(dp2501
g62
(dp2502
sg71
g2488
sg64
(lp2503
g57
(g58
g59
NtRp2504
(dp2505
g62
(dp2506
g70
I4
ssg71
g2500
sg64
(lp2507
S'set([])'
p2508
asbasbasbag57
(g73
g59
NtRp2509
(dp2510
g62
(dp2511
sg71
g2398
sg64
(lp2512
g57
(g78
g59
NtRp2513
(dp2514
g62
(dp2515
g82
g83
ssg71
g2509
sg64
(lp2516
g1344
asbag57
(g78
g59
NtRp2517
(dp2518
g62
(dp2519
g89
g90
ssg71
g2509
sg64
(lp2520
S':'
asbag57
(g78
g59
NtRp2521
(dp2522
g62
(dp2523
sg71
g2509
sg64
(lp2524
g57
(g58
g59
NtRp2525
(dp2526
g62
(dp2527
g70
I4
ssg71
g2521
sg64
(lp2528
g100
asbasbasbag57
(g73
g59
NtRp2529
(dp2530
g62
(dp2531
sg71
g2398
sg64
(lp2532
g57
(g78
g59
NtRp2533
(dp2534
g62
(dp2535
g82
g83
ssg71
g2529
sg64
(lp2536
g1365
asbag57
(g78
g59
NtRp2537
(dp2538
g62
(dp2539
g89
g90
ssg71
g2529
sg64
(lp2540
S':'
asbag57
(g78
g59
NtRp2541
(dp2542
g62
(dp2543
sg71
g2529
sg64
(lp2544
g57
(g58
g59
NtRp2545
(dp2546
g62
(dp2547
g70
I4
ssg71
g2541
sg64
(lp2548
g1378
asbasbasbag57
(g73
g59
NtRp2549
(dp2550
g62
(dp2551
sg71
g2398
sg64
(lp2552
g57
(g78
g59
NtRp2553
(dp2554
g62
(dp2555
g82
g83
ssg71
g2549
sg64
(lp2556
g1563
asbag57
(g78
g59
NtRp2557
(dp2558
g62
(dp2559
g89
g90
ssg71
g2549
sg64
(lp2560
S':'
asbag57
(g78
g59
NtRp2561
(dp2562
g62
(dp2563
sg71
g2549
sg64
(lp2564
g57
(g58
g59
NtRp2565
(dp2566
g62
(dp2567
g70
I4
ssg71
g2561
sg64
(lp2568
g100
asbasbasbag57
(g73
g59
NtRp2569
(dp2570
g62
(dp2571
sg71
g2398
sg64
(lp2572
g57
(g78
g59
NtRp2573
(dp2574
g62
(dp2575
g82
g83
ssg71
g2569
sg64
(lp2576
g1584
asbag57
(g78
g59
NtRp2577
(dp2578
g62
(dp2579
g89
g90
ssg71
g2569
sg64
(lp2580
S':'
asbag57
(g78
g59
NtRp2581
(dp2582
g62
(dp2583
sg71
g2569
sg64
(lp2584
g57
(g58
g59
NtRp2585
(dp2586
g62
(dp2587
g70
I4
ssg71
g2581
sg64
(lp2588
g100
asbasbasbag57
(g73
g59
NtRp2589
(dp2590
g62
(dp2591
sg71
g2398
sg64
(lp2592
g57
(g78
g59
NtRp2593
(dp2594
g62
(dp2595
g82
g83
ssg71
g2589
sg64
(lp2596
g1605
asbag57
(g78
g59
NtRp2597
(dp2598
g62
(dp2599
g89
g90
ssg71
g2589
sg64
(lp2600
S':'
asbag57
(g78
g59
NtRp2601
(dp2602
g62
(dp2603
sg71
g2589
sg64
(lp2604
g57
(g58
g59
NtRp2605
(dp2606
g62
(dp2607
g70
I4
ssg71
g2601
sg64
(lp2608
g57
(g66
g59
NtRp2609
(dp2610
g62
(dp2611
g70
I3
ssg71
Nsg64
(lp2612
g57
(g73
g59
NtRp2613
(dp2614
g62
(dp2615
sg71
g2609
sg64
(lp2616
g57
(g78
g59
NtRp2617
(dp2618
g62
(dp2619
sg71
g2613
sg64
(lp2620
g57
(g58
g59
NtRp2621
(dp2622
g62
(dp2623
g70
I3
ssg71
g2617
sg64
(lp2624
g1634
asbasbasbag57
(g73
g59
NtRp2625
(dp2626
g62
(dp2627
sg71
g2609
sg64
(lp2628
g57
(g78
g59
NtRp2629
(dp2630
g62
(dp2631
sg71
g2625
sg64
(lp2632
g57
(g58
g59
NtRp2633
(dp2634
g62
(dp2635
g70
I3
ssg71
g2629
sg64
(lp2636
g1647
asbasbasbag57
(g73
g59
NtRp2637
(dp2638
g62
(dp2639
sg71
g2609
sg64
(lp2640
g57
(g78
g59
NtRp2641
(dp2642
g62
(dp2643
sg71
g2637
sg64
(lp2644
g57
(g58
g59
NtRp2645
(dp2646
g62
(dp2647
g70
I3
ssg71
g2641
sg64
(lp2648
g1660
asbasbasbag57
(g73
g59
NtRp2649
(dp2650
g62
(dp2651
sg71
g2609
sg64
(lp2652
g57
(g78
g59
NtRp2653
(dp2654
g62
(dp2655
sg71
g2649
sg64
(lp2656
g57
(g58
g59
NtRp2657
(dp2658
g62
(dp2659
g70
I3
ssg71
g2653
sg64
(lp2660
g1673
asbasbasbag57
(g73
g59
NtRp2661
(dp2662
g62
(dp2663
sg71
g2609
sg64
(lp2664
g57
(g78
g59
NtRp2665
(dp2666
g62
(dp2667
sg71
g2661
sg64
(lp2668
g57
(g58
g59
NtRp2669
(dp2670
g62
(dp2671
g70
I3
ssg71
g2665
sg64
(lp2672
g1686
asbasbasbasbasbasbasbag57
(g73
g59
NtRp2673
(dp2674
g62
(dp2675
sg71
g2398
sg64
(lp2676
g57
(g78
g59
NtRp2677
(dp2678
g62
(dp2679
g82
g83
ssg71
g2673
sg64
(lp2680
g1955
asbag57
(g78
g59
NtRp2681
(dp2682
g62
(dp2683
g89
g90
ssg71
g2673
sg64
(lp2684
S':'
asbag57
(g78
g59
NtRp2685
(dp2686
g62
(dp2687
sg71
g2673
sg64
(lp2688
g57
(g58
g59
NtRp2689
(dp2690
g62
(dp2691
g70
I4
ssg71
g2685
sg64
(lp2692
g57
(g66
g59
NtRp2693
(dp2694
g62
(dp2695
g70
I3
ssg71
Nsg64
(lp2696
g57
(g73
g59
NtRp2697
(dp2698
g62
(dp2699
sg71
g2693
sg64
(lp2700
g57
(g78
g59
NtRp2701
(dp2702
g62
(dp2703
sg71
g2697
sg64
(lp2704
g57
(g58
g59
NtRp2705
(dp2706
g62
(dp2707
g70
I3
ssg71
g2701
sg64
(lp2708
S'2'
asbasbasbag57
(g73
g59
NtRp2709
(dp2710
g62
(dp2711
sg71
g2693
sg64
(lp2712
g57
(g78
g59
NtRp2713
(dp2714
g62
(dp2715
sg71
g2709
sg64
(lp2716
g57
(g58
g59
NtRp2717
(dp2718
g62
(dp2719
g70
I3
ssg71
g2713
sg64
(lp2720
S'2'
asbasbasbag57
(g73
g59
NtRp2721
(dp2722
g62
(dp2723
sg71
g2693
sg64
(lp2724
g57
(g78
g59
NtRp2725
(dp2726
g62
(dp2727
sg71
g2721
sg64
(lp2728
g57
(g58
g59
NtRp2729
(dp2730
g62
(dp2731
g70
I3
ssg71
g2725
sg64
(lp2732
S'1'
asbasbasbag57
(g73
g59
NtRp2733
(dp2734
g62
(dp2735
sg71
g2693
sg64
(lp2736
g57
(g78
g59
NtRp2737
(dp2738
g62
(dp2739
sg71
g2733
sg64
(lp2740
g57
(g58
g59
NtRp2741
(dp2742
g62
(dp2743
g70
I3
ssg71
g2737
sg64
(lp2744
S'datetime.datetime(2012, 10, 21, 16, 57, 4)'
p2745
asbasbasbag57
(g73
g59
NtRp2746
(dp2747
g62
(dp2748
sg71
g2693
sg64
(lp2749
g57
(g78
g59
NtRp2750
(dp2751
g62
(dp2752
sg71
g2746
sg64
(lp2753
g57
(g58
g59
NtRp2754
(dp2755
g62
(dp2756
g70
I3
ssg71
g2750
sg64
(lp2757
g2033
asbasbasbasbasbasbasbasbasbasbasbag57
(g73
g59
NtRp2758
(dp2759
g62
(dp2760
sg71
g67
sg64
(lp2761
g57
(g78
g59
NtRp2762
(dp2763
g62
(dp2764
g82
g83
ssg71
g2758
sg64
(lp2765
S'is_https'
p2766
asbag57
(g78
g59
NtRp2767
(dp2768
g62
(dp2769
g89
g90
ssg71
g2758
sg64
(lp2770
S':'
asbag57
(g78
g59
NtRp2771
(dp2772
g62
(dp2773
sg71
g2758
sg64
(lp2774
g57
(g58
g59
NtRp2775
(dp2776
g62
(dp2777
g70
I5
ssg71
g2771
sg64
(lp2778
g100
asbasbasbag57
(g73
g59
NtRp2779
(dp2780
g62
(dp2781
sg71
g67
sg64
(lp2782
g57
(g78
g59
NtRp2783
(dp2784
g62
(dp2785
g82
g83
ssg71
g2779
sg64
(lp2786
S'is_local'
p2787
asbag57
(g78
g59
NtRp2788
(dp2789
g62
(dp2790
g89
g90
ssg71
g2779
sg64
(lp2791
S':'
asbag57
(g78
g59
NtRp2792
(dp2793
g62
(dp2794
sg71
g2779
sg64
(lp2795
g57
(g58
g59
NtRp2796
(dp2797
g62
(dp2798
g70
I5
ssg71
g2792
sg64
(lp2799
g2142
asbasbasbag57
(g73
g59
NtRp2800
(dp2801
g62
(dp2802
sg71
g67
sg64
(lp2803
g57
(g78
g59
NtRp2804
(dp2805
g62
(dp2806
g82
g83
ssg71
g2800
sg64
(lp2807
S'is_restful'
p2808
asbag57
(g78
g59
NtRp2809
(dp2810
g62
(dp2811
g89
g90
ssg71
g2800
sg64
(lp2812
S':'
asbag57
(g78
g59
NtRp2813
(dp2814
g62
(dp2815
sg71
g2800
sg64
(lp2816
g57
(g58
g59
NtRp2817
(dp2818
g62
(dp2819
g70
I5
ssg71
g2813
sg64
(lp2820
g100
asbasbasbag57
(g73
g59
NtRp2821
(dp2822
g62
(dp2823
sg71
g67
sg64
(lp2824
g57
(g78
g59
NtRp2825
(dp2826
g62
(dp2827
g82
g83
ssg71
g2821
sg64
(lp2828
S'now'
p2829
asbag57
(g78
g59
NtRp2830
(dp2831
g62
(dp2832
g89
g90
ssg71
g2821
sg64
(lp2833
S':'
asbag57
(g78
g59
NtRp2834
(dp2835
g62
(dp2836
sg71
g2821
sg64
(lp2837
g57
(g58
g59
NtRp2838
(dp2839
g62
(dp2840
g70
I5
ssg71
g2834
sg64
(lp2841
S'datetime.datetime(2012, 11, 14, 1, 12, 49, 698097)'
p2842
asbasbasbag57
(g73
g59
NtRp2843
(dp2844
g62
(dp2845
sg71
g67
sg64
(lp2846
g57
(g78
g59
NtRp2847
(dp2848
g62
(dp2849
g82
g83
ssg71
g2843
sg64
(lp2850
S'post_vars'
p2851
asbag57
(g78
g59
NtRp2852
(dp2853
g62
(dp2854
g89
g90
ssg71
g2843
sg64
(lp2855
S':'
asbag57
(g78
g59
NtRp2856
(dp2857
g62
(dp2858
sg71
g2843
sg64
(lp2859
g57
(g58
g59
NtRp2860
(dp2861
g62
(dp2862
g70
I5
ssg71
g2856
sg64
(lp2863
g57
(g66
g59
NtRp2864
(dp2865
g62
(dp2866
g70
I4
ssg71
Nsg64
(lp2867
sbasbasbasbag57
(g73
g59
NtRp2868
(dp2869
g62
(dp2870
sg71
g67
sg64
(lp2871
g57
(g78
g59
NtRp2872
(dp2873
g62
(dp2874
g82
g83
ssg71
g2868
sg64
(lp2875
S'raw_args'
p2876
asbag57
(g78
g59
NtRp2877
(dp2878
g62
(dp2879
g89
g90
ssg71
g2868
sg64
(lp2880
S':'
asbag57
(g78
g59
NtRp2881
(dp2882
g62
(dp2883
sg71
g2868
sg64
(lp2884
g57
(g58
g59
NtRp2885
(dp2886
g62
(dp2887
g70
I5
ssg71
g2881
sg64
(lp2888
S''
asbasbasbag57
(g73
g59
NtRp2889
(dp2890
g62
(dp2891
sg71
g67
sg64
(lp2892
g57
(g78
g59
NtRp2893
(dp2894
g62
(dp2895
g82
g83
ssg71
g2889
sg64
(lp2896
S'raw_extension'
p2897
asbag57
(g78
g59
NtRp2898
(dp2899
g62
(dp2900
g89
g90
ssg71
g2889
sg64
(lp2901
S':'
asbag57
(g78
g59
NtRp2902
(dp2903
g62
(dp2904
sg71
g2889
sg64
(lp2905
g57
(g58
g59
NtRp2906
(dp2907
g62
(dp2908
g70
I5
ssg71
g2902
sg64
(lp2909
S'None'
p2910
asbasbasbag57
(g73
g59
NtRp2911
(dp2912
g62
(dp2913
sg71
g67
sg64
(lp2914
g57
(g78
g59
NtRp2915
(dp2916
g62
(dp2917
g82
g83
ssg71
g2911
sg64
(lp2918
S'url'
p2919
asbag57
(g78
g59
NtRp2920
(dp2921
g62
(dp2922
g89
g90
ssg71
g2911
sg64
(lp2923
S':'
asbag57
(g78
g59
NtRp2924
(dp2925
g62
(dp2926
sg71
g2911
sg64
(lp2927
g57
(g58
g59
NtRp2928
(dp2929
g62
(dp2930
g70
I5
ssg71
g2924
sg64
(lp2931
g1708
asbasbasbag57
(g73
g59
NtRp2932
(dp2933
g62
(dp2934
sg71
g67
sg64
(lp2935
g57
(g78
g59
NtRp2936
(dp2937
g62
(dp2938
g82
g83
ssg71
g2932
sg64
(lp2939
S'utcnow'
p2940
asbag57
(g78
g59
NtRp2941
(dp2942
g62
(dp2943
g89
g90
ssg71
g2932
sg64
(lp2944
S':'
asbag57
(g78
g59
NtRp2945
(dp2946
g62
(dp2947
sg71
g2932
sg64
(lp2948
g57
(g58
g59
NtRp2949
(dp2950
g62
(dp2951
g70
I5
ssg71
g2945
sg64
(lp2952
S'datetime.datetime(2012, 11, 13, 19, 42, 49, 698151)'
p2953
asbasbasbag57
(g73
g59
NtRp2954
(dp2955
g62
(dp2956
sg71
g67
sg64
(lp2957
g57
(g78
g59
NtRp2958
(dp2959
g62
(dp2960
g82
g83
ssg71
g2954
sg64
(lp2961
S'uuid'
p2962
asbag57
(g78
g59
NtRp2963
(dp2964
g62
(dp2965
g89
g90
ssg71
g2954
sg64
(lp2966
S':'
asbag57
(g78
g59
NtRp2967
(dp2968
g62
(dp2969
sg71
g2954
sg64
(lp2970
g57
(g58
g59
NtRp2971
(dp2972
g62
(dp2973
g70
I5
ssg71
g2967
sg64
(lp2974
S'sss/127.0.0.1.2012-11-14.01-12-49.38097413-8322-42ed-b84f-cf4bbb6816c6'
p2975
asbasbasbag57
(g73
g59
NtRp2976
(dp2977
g62
(dp2978
sg71
g67
sg64
(lp2979
g57
(g78
g59
NtRp2980
(dp2981
g62
(dp2982
g82
g83
ssg71
g2976
sg64
(lp2983
S'vars'
p2984
asbag57
(g78
g59
NtRp2985
(dp2986
g62
(dp2987
g89
g90
ssg71
g2976
sg64
(lp2988
S':'
asbag57
(g78
g59
NtRp2989
(dp2990
g62
(dp2991
sg71
g2976
sg64
(lp2992
g57
(g58
g59
NtRp2993
(dp2994
g62
(dp2995
g70
I5
ssg71
g2989
sg64
(lp2996
g57
(g66
g59
NtRp2997
(dp2998
g62
(dp2999
g70
I4
ssg71
Nsg64
(lp3000
g57
(g73
g59
NtRp3001
(dp3002
g62
(dp3003
sg71
g2997
sg64
(lp3004
g57
(g78
g59
NtRp3005
(dp3006
g62
(dp3007
g82
g83
ssg71
g3001
sg64
(lp3008
g2334
asbag57
(g78
g59
NtRp3009
(dp3010
g62
(dp3011
g89
g90
ssg71
g3001
sg64
(lp3012
S':'
asbag57
(g78
g59
NtRp3013
(dp3014
g62
(dp3015
sg71
g3001
sg64
(lp3016
g57
(g58
g59
NtRp3017
(dp3018
g62
(dp3019
g70
I4
ssg71
g3013
sg64
(lp3020
g57
(g66
g59
NtRp3021
(dp3022
g62
(dp3023
g70
I3
ssg71
Nsg64
(lp3024
g57
(g73
g59
NtRp3025
(dp3026
g62
(dp3027
sg71
g3021
sg64
(lp3028
g57
(g78
g59
NtRp3029
(dp3030
g62
(dp3031
sg71
g3025
sg64
(lp3032
g57
(g58
g59
NtRp3033
(dp3034
g62
(dp3035
g70
I3
ssg71
g3029
sg64
(lp3036
g2363
asbasbasbag57
(g73
g59
NtRp3037
(dp3038
g62
(dp3039
sg71
g3021
sg64
(lp3040
g57
(g78
g59
NtRp3041
(dp3042
g62
(dp3043
sg71
g3037
sg64
(lp3044
g57
(g58
g59
NtRp3045
(dp3046
g62
(dp3047
g70
I3
ssg71
g3041
sg64
(lp3048
g2376
asbasbasbasbasbasbasbasbasbasbasbag57
(g73
g59
NtRp3049
(dp3050
g62
(dp3051
sg71
g67
sg64
(lp3052
g57
(g78
g59
NtRp3053
(dp3054
g62
(dp3055
g82
g83
ssg71
g3049
sg64
(lp3056
S'wsgi'
p3057
asbag57
(g78
g59
NtRp3058
(dp3059
g62
(dp3060
g89
g90
ssg71
g3049
sg64
(lp3061
S':'
asbag57
(g78
g59
NtRp3062
(dp3063
g62
(dp3064
sg71
g3049
sg64
(lp3065
g57
(g58
g59
NtRp3066
(dp3067
g62
(dp3068
g70
I5
ssg71
g3062
sg64
(lp3069
g57
(g66
g59
NtRp3070
(dp3071
g62
(dp3072
g70
I4
ssg71
Nsg64
(lp3073
g57
(g73
g59
NtRp3074
(dp3075
g62
(dp3076
sg71
g3070
sg64
(lp3077
g57
(g78
g59
NtRp3078
(dp3079
g62
(dp3080
g82
g83
ssg71
g3074
sg64
(lp3081
S'environ'
p3082
asbag57
(g78
g59
NtRp3083
(dp3084
g62
(dp3085
g89
g90
ssg71
g3074
sg64
(lp3086
S':'
asbag57
(g78
g59
NtRp3087
(dp3088
g62
(dp3089
sg71
g3074
sg64
(lp3090
g57
(g58
g59
NtRp3091
(dp3092
g62
(dp3093
g70
I4
ssg71
g3087
sg64
(lp3094
g57
(g66
g59
NtRp3095
(dp3096
g62
(dp3097
g70
I3
ssg71
Nsg64
(lp3098
g57
(g73
g59
NtRp3099
(dp3100
g62
(dp3101
sg71
g3095
sg64
(lp3102
g57
(g78
g59
NtRp3103
(dp3104
g62
(dp3105
g82
g83
ssg71
g3099
sg64
(lp3106
S'HTTP_ACCEPT'
p3107
asbag57
(g78
g59
NtRp3108
(dp3109
g62
(dp3110
g89
g90
ssg71
g3099
sg64
(lp3111
S':'
asbag57
(g78
g59
NtRp3112
(dp3113
g62
(dp3114
sg71
g3099
sg64
(lp3115
g57
(g58
g59
NtRp3116
(dp3117
g62
(dp3118
g70
I3
ssg71
g3112
sg64
(lp3119
g1400
asbasbasbag57
(g73
g59
NtRp3120
(dp3121
g62
(dp3122
sg71
g3095
sg64
(lp3123
g57
(g78
g59
NtRp3124
(dp3125
g62
(dp3126
g82
g83
ssg71
g3120
sg64
(lp3127
S'HTTP_ACCEPT_ENCODING'
p3128
asbag57
(g78
g59
NtRp3129
(dp3130
g62
(dp3131
g89
g90
ssg71
g3120
sg64
(lp3132
S':'
asbag57
(g78
g59
NtRp3133
(dp3134
g62
(dp3135
sg71
g3120
sg64
(lp3136
g57
(g58
g59
NtRp3137
(dp3138
g62
(dp3139
g70
I3
ssg71
g3133
sg64
(lp3140
g1422
asbasbasbag57
(g73
g59
NtRp3141
(dp3142
g62
(dp3143
sg71
g3095
sg64
(lp3144
g57
(g78
g59
NtRp3145
(dp3146
g62
(dp3147
g82
g83
ssg71
g3141
sg64
(lp3148
S'HTTP_ACCEPT_LANGUAGE'
p3149
asbag57
(g78
g59
NtRp3150
(dp3151
g62
(dp3152
g89
g90
ssg71
g3141
sg64
(lp3153
S':'
asbag57
(g78
g59
NtRp3154
(dp3155
g62
(dp3156
sg71
g3141
sg64
(lp3157
g57
(g58
g59
NtRp3158
(dp3159
g62
(dp3160
g70
I3
ssg71
g3154
sg64
(lp3161
g1444
asbasbasbag57
(g73
g59
NtRp3162
(dp3163
g62
(dp3164
sg71
g3095
sg64
(lp3165
g57
(g78
g59
NtRp3166
(dp3167
g62
(dp3168
g82
g83
ssg71
g3162
sg64
(lp3169
S'HTTP_CONNECTION'
p3170
asbag57
(g78
g59
NtRp3171
(dp3172
g62
(dp3173
g89
g90
ssg71
g3162
sg64
(lp3174
S':'
asbag57
(g78
g59
NtRp3175
(dp3176
g62
(dp3177
sg71
g3162
sg64
(lp3178
g57
(g58
g59
NtRp3179
(dp3180
g62
(dp3181
g70
I3
ssg71
g3175
sg64
(lp3182
g1466
asbasbasbag57
(g73
g59
NtRp3183
(dp3184
g62
(dp3185
sg71
g3095
sg64
(lp3186
g57
(g78
g59
NtRp3187
(dp3188
g62
(dp3189
g82
g83
ssg71
g3183
sg64
(lp3190
S'HTTP_COOKIE'
p3191
asbag57
(g78
g59
NtRp3192
(dp3193
g62
(dp3194
g89
g90
ssg71
g3183
sg64
(lp3195
S':'
asbag57
(g78
g59
NtRp3196
(dp3197
g62
(dp3198
sg71
g3183
sg64
(lp3199
g57
(g58
g59
NtRp3200
(dp3201
g62
(dp3202
g70
I3
ssg71
g3196
sg64
(lp3203
g1488
asbasbasbag57
(g73
g59
NtRp3204
(dp3205
g62
(dp3206
sg71
g3095
sg64
(lp3207
g57
(g78
g59
NtRp3208
(dp3209
g62
(dp3210
g82
g83
ssg71
g3204
sg64
(lp3211
S'HTTP_HOST'
p3212
asbag57
(g78
g59
NtRp3213
(dp3214
g62
(dp3215
g89
g90
ssg71
g3204
sg64
(lp3216
S':'
asbag57
(g78
g59
NtRp3217
(dp3218
g62
(dp3219
sg71
g3204
sg64
(lp3220
g57
(g58
g59
NtRp3221
(dp3222
g62
(dp3223
g70
I3
ssg71
g3217
sg64
(lp3224
g1510
asbasbasbag57
(g73
g59
NtRp3225
(dp3226
g62
(dp3227
sg71
g3095
sg64
(lp3228
g57
(g78
g59
NtRp3229
(dp3230
g62
(dp3231
g82
g83
ssg71
g3225
sg64
(lp3232
S'HTTP_REFERER'
p3233
asbag57
(g78
g59
NtRp3234
(dp3235
g62
(dp3236
g89
g90
ssg71
g3225
sg64
(lp3237
S':'
asbag57
(g78
g59
NtRp3238
(dp3239
g62
(dp3240
sg71
g3225
sg64
(lp3241
g57
(g58
g59
NtRp3242
(dp3243
g62
(dp3244
g70
I3
ssg71
g3238
sg64
(lp3245
g1532
asbasbasbag57
(g73
g59
NtRp3246
(dp3247
g62
(dp3248
sg71
g3095
sg64
(lp3249
g57
(g78
g59
NtRp3250
(dp3251
g62
(dp3252
g82
g83
ssg71
g3246
sg64
(lp3253
S'HTTP_USER_AGENT'
p3254
asbag57
(g78
g59
NtRp3255
(dp3256
g62
(dp3257
g89
g90
ssg71
g3246
sg64
(lp3258
S':'
asbag57
(g78
g59
NtRp3259
(dp3260
g62
(dp3261
sg71
g3246
sg64
(lp3262
g57
(g58
g59
NtRp3263
(dp3264
g62
(dp3265
g70
I3
ssg71
g3259
sg64
(lp3266
g1554
asbasbasbag57
(g73
g59
NtRp3267
(dp3268
g62
(dp3269
sg71
g3095
sg64
(lp3270
g57
(g78
g59
NtRp3271
(dp3272
g62
(dp3273
g82
g83
ssg71
g3267
sg64
(lp3274
S'PATH_INFO'
p3275
asbag57
(g78
g59
NtRp3276
(dp3277
g62
(dp3278
g89
g90
ssg71
g3267
sg64
(lp3279
S':'
asbag57
(g78
g59
NtRp3280
(dp3281
g62
(dp3282
sg71
g3267
sg64
(lp3283
g57
(g58
g59
NtRp3284
(dp3285
g62
(dp3286
g70
I3
ssg71
g3280
sg64
(lp3287
g1708
asbasbasbag57
(g73
g59
NtRp3288
(dp3289
g62
(dp3290
sg71
g3095
sg64
(lp3291
g57
(g78
g59
NtRp3292
(dp3293
g62
(dp3294
g82
g83
ssg71
g3288
sg64
(lp3295
S'QUERY_STRING'
p3296
asbag57
(g78
g59
NtRp3297
(dp3298
g62
(dp3299
g89
g90
ssg71
g3288
sg64
(lp3300
S':'
asbag57
(g78
g59
NtRp3301
(dp3302
g62
(dp3303
sg71
g3288
sg64
(lp3304
g57
(g58
g59
NtRp3305
(dp3306
g62
(dp3307
g70
I3
ssg71
g3301
sg64
(lp3308
g1730
asbasbasbag57
(g73
g59
NtRp3309
(dp3310
g62
(dp3311
sg71
g3095
sg64
(lp3312
g57
(g78
g59
NtRp3313
(dp3314
g62
(dp3315
g82
g83
ssg71
g3309
sg64
(lp3316
S'REMOTE_ADDR'
p3317
asbag57
(g78
g59
NtRp3318
(dp3319
g62
(dp3320
g89
g90
ssg71
g3309
sg64
(lp3321
S':'
asbag57
(g78
g59
NtRp3322
(dp3323
g62
(dp3324
sg71
g3309
sg64
(lp3325
g57
(g58
g59
NtRp3326
(dp3327
g62
(dp3328
g70
I3
ssg71
g3322
sg64
(lp3329
g212
asbasbasbag57
(g73
g59
NtRp3330
(dp3331
g62
(dp3332
sg71
g3095
sg64
(lp3333
g57
(g78
g59
NtRp3334
(dp3335
g62
(dp3336
g82
g83
ssg71
g3330
sg64
(lp3337
S'REMOTE_PORT'
p3338
asbag57
(g78
g59
NtRp3339
(dp3340
g62
(dp3341
g89
g90
ssg71
g3330
sg64
(lp3342
S':'
asbag57
(g78
g59
NtRp3343
(dp3344
g62
(dp3345
sg71
g3330
sg64
(lp3346
g57
(g58
g59
NtRp3347
(dp3348
g62
(dp3349
g70
I3
ssg71
g3343
sg64
(lp3350
g1773
asbasbasbag57
(g73
g59
NtRp3351
(dp3352
g62
(dp3353
sg71
g3095
sg64
(lp3354
g57
(g78
g59
NtRp3355
(dp3356
g62
(dp3357
g82
g83
ssg71
g3351
sg64
(lp3358
S'REQUEST_METHOD'
p3359
asbag57
(g78
g59
NtRp3360
(dp3361
g62
(dp3362
g89
g90
ssg71
g3351
sg64
(lp3363
S':'
asbag57
(g78
g59
NtRp3364
(dp3365
g62
(dp3366
sg71
g3351
sg64
(lp3367
g57
(g58
g59
NtRp3368
(dp3369
g62
(dp3370
g70
I3
ssg71
g3364
sg64
(lp3371
g1795
asbasbasbag57
(g73
g59
NtRp3372
(dp3373
g62
(dp3374
sg71
g3095
sg64
(lp3375
g57
(g78
g59
NtRp3376
(dp3377
g62
(dp3378
g82
g83
ssg71
g3372
sg64
(lp3379
S'REQUEST_URI'
p3380
asbag57
(g78
g59
NtRp3381
(dp3382
g62
(dp3383
g89
g90
ssg71
g3372
sg64
(lp3384
S':'
asbag57
(g78
g59
NtRp3385
(dp3386
g62
(dp3387
sg71
g3372
sg64
(lp3388
g57
(g58
g59
NtRp3389
(dp3390
g62
(dp3391
g70
I3
ssg71
g3385
sg64
(lp3392
g1817
asbasbasbag57
(g73
g59
NtRp3393
(dp3394
g62
(dp3395
sg71
g3095
sg64
(lp3396
g57
(g78
g59
NtRp3397
(dp3398
g62
(dp3399
g82
g83
ssg71
g3393
sg64
(lp3400
S'SCRIPT_NAME'
p3401
asbag57
(g78
g59
NtRp3402
(dp3403
g62
(dp3404
g89
g90
ssg71
g3393
sg64
(lp3405
S':'
asbag57
(g78
g59
NtRp3406
(dp3407
g62
(dp3408
sg71
g3393
sg64
(lp3409
g57
(g58
g59
NtRp3410
(dp3411
g62
(dp3412
g70
I3
ssg71
g3406
sg64
(lp3413
S''
asbasbasbag57
(g73
g59
NtRp3414
(dp3415
g62
(dp3416
sg71
g3095
sg64
(lp3417
g57
(g78
g59
NtRp3418
(dp3419
g62
(dp3420
g82
g83
ssg71
g3414
sg64
(lp3421
S'SERVER_NAME'
p3422
asbag57
(g78
g59
NtRp3423
(dp3424
g62
(dp3425
g89
g90
ssg71
g3414
sg64
(lp3426
S':'
asbag57
(g78
g59
NtRp3427
(dp3428
g62
(dp3429
sg71
g3414
sg64
(lp3430
g57
(g58
g59
NtRp3431
(dp3432
g62
(dp3433
g70
I3
ssg71
g3427
sg64
(lp3434
g1673
asbasbasbag57
(g73
g59
NtRp3435
(dp3436
g62
(dp3437
sg71
g3095
sg64
(lp3438
g57
(g78
g59
NtRp3439
(dp3440
g62
(dp3441
g82
g83
ssg71
g3435
sg64
(lp3442
S'SERVER_PORT'
p3443
asbag57
(g78
g59
NtRp3444
(dp3445
g62
(dp3446
g89
g90
ssg71
g3435
sg64
(lp3447
S':'
asbag57
(g78
g59
NtRp3448
(dp3449
g62
(dp3450
sg71
g3435
sg64
(lp3451
g57
(g58
g59
NtRp3452
(dp3453
g62
(dp3454
g70
I3
ssg71
g3448
sg64
(lp3455
g1881
asbasbasbag57
(g73
g59
NtRp3456
(dp3457
g62
(dp3458
sg71
g3095
sg64
(lp3459
g57
(g78
g59
NtRp3460
(dp3461
g62
(dp3462
g82
g83
ssg71
g3456
sg64
(lp3463
S'SERVER_PROTOCOL'
p3464
asbag57
(g78
g59
NtRp3465
(dp3466
g62
(dp3467
g89
g90
ssg71
g3456
sg64
(lp3468
S':'
asbag57
(g78
g59
NtRp3469
(dp3470
g62
(dp3471
sg71
g3456
sg64
(lp3472
g57
(g58
g59
NtRp3473
(dp3474
g62
(dp3475
g70
I3
ssg71
g3469
sg64
(lp3476
g1903
asbasbasbag57
(g73
g59
NtRp3477
(dp3478
g62
(dp3479
sg71
g3095
sg64
(lp3480
g57
(g78
g59
NtRp3481
(dp3482
g62
(dp3483
g82
g83
ssg71
g3477
sg64
(lp3484
S'SERVER_SOFTWARE'
p3485
asbag57
(g78
g59
NtRp3486
(dp3487
g62
(dp3488
g89
g90
ssg71
g3477
sg64
(lp3489
S':'
asbag57
(g78
g59
NtRp3490
(dp3491
g62
(dp3492
sg71
g3477
sg64
(lp3493
g57
(g58
g59
NtRp3494
(dp3495
g62
(dp3496
g70
I3
ssg71
g3490
sg64
(lp3497
g1925
asbasbasbag57
(g73
g59
NtRp3498
(dp3499
g62
(dp3500
sg71
g3095
sg64
(lp3501
g57
(g78
g59
NtRp3502
(dp3503
g62
(dp3504
g82
g83
ssg71
g3498
sg64
(lp3505
S'wsgi.errors'
p3506
asbag57
(g78
g59
NtRp3507
(dp3508
g62
(dp3509
g89
g90
ssg71
g3498
sg64
(lp3510
S':'
asbag57
(g78
g59
NtRp3511
(dp3512
g62
(dp3513
sg71
g3498
sg64
(lp3514
g57
(g58
g59
NtRp3515
(dp3516
g62
(dp3517
g70
I3
ssg71
g3511
sg64
(lp3518
S"<open file '<stderr>', mode 'w' at 0x7fea0c376270>"
p3519
asbasbasbag57
(g73
g59
NtRp3520
(dp3521
g62
(dp3522
sg71
g3095
sg64
(lp3523
g57
(g78
g59
NtRp3524
(dp3525
g62
(dp3526
g82
g83
ssg71
g3520
sg64
(lp3527
S'wsgi.file_wrapper'
p3528
asbag57
(g78
g59
NtRp3529
(dp3530
g62
(dp3531
g89
g90
ssg71
g3520
sg64
(lp3532
S':'
asbag57
(g78
g59
NtRp3533
(dp3534
g62
(dp3535
sg71
g3520
sg64
(lp3536
g57
(g58
g59
NtRp3537
(dp3538
g62
(dp3539
g70
I3
ssg71
g3533
sg64
(lp3540
S'<class wsgiref.util.FileWrapper at 0x2649d50>'
p3541
asbasbasbag57
(g73
g59
NtRp3542
(dp3543
g62
(dp3544
sg71
g3095
sg64
(lp3545
g57
(g78
g59
NtRp3546
(dp3547
g62
(dp3548
g82
g83
ssg71
g3542
sg64
(lp3549
S'wsgi.input'
p3550
asbag57
(g78
g59
NtRp3551
(dp3552
g62
(dp3553
g89
g90
ssg71
g3542
sg64
(lp3554
S':'
asbag57
(g78
g59
NtRp3555
(dp3556
g62
(dp3557
sg71
g3542
sg64
(lp3558
g57
(g58
g59
NtRp3559
(dp3560
g62
(dp3561
g70
I3
ssg71
g3555
sg64
(lp3562
S'<cStringIO.StringO object at 0x7fe9f81af538>'
p3563
asbasbasbag57
(g73
g59
NtRp3564
(dp3565
g62
(dp3566
sg71
g3095
sg64
(lp3567
g57
(g78
g59
NtRp3568
(dp3569
g62
(dp3570
g82
g83
ssg71
g3564
sg64
(lp3571
S'wsgi.multiprocess'
p3572
asbag57
(g78
g59
NtRp3573
(dp3574
g62
(dp3575
g89
g90
ssg71
g3564
sg64
(lp3576
S':'
asbag57
(g78
g59
NtRp3577
(dp3578
g62
(dp3579
sg71
g3564
sg64
(lp3580
g57
(g58
g59
NtRp3581
(dp3582
g62
(dp3583
g70
I3
ssg71
g3577
sg64
(lp3584
g100
asbasbasbag57
(g73
g59
NtRp3585
(dp3586
g62
(dp3587
sg71
g3095
sg64
(lp3588
g57
(g78
g59
NtRp3589
(dp3590
g62
(dp3591
g82
g83
ssg71
g3585
sg64
(lp3592
S'wsgi.multithread'
p3593
asbag57
(g78
g59
NtRp3594
(dp3595
g62
(dp3596
g89
g90
ssg71
g3585
sg64
(lp3597
S':'
asbag57
(g78
g59
NtRp3598
(dp3599
g62
(dp3600
sg71
g3585
sg64
(lp3601
g57
(g58
g59
NtRp3602
(dp3603
g62
(dp3604
g70
I3
ssg71
g3598
sg64
(lp3605
g2142
asbasbasbag57
(g73
g59
NtRp3606
(dp3607
g62
(dp3608
sg71
g3095
sg64
(lp3609
g57
(g78
g59
NtRp3610
(dp3611
g62
(dp3612
g82
g83
ssg71
g3606
sg64
(lp3613
S'wsgi.run_once'
p3614
asbag57
(g78
g59
NtRp3615
(dp3616
g62
(dp3617
g89
g90
ssg71
g3606
sg64
(lp3618
S':'
asbag57
(g78
g59
NtRp3619
(dp3620
g62
(dp3621
sg71
g3606
sg64
(lp3622
g57
(g58
g59
NtRp3623
(dp3624
g62
(dp3625
g70
I3
ssg71
g3619
sg64
(lp3626
g100
asbasbasbag57
(g73
g59
NtRp3627
(dp3628
g62
(dp3629
sg71
g3095
sg64
(lp3630
g57
(g78
g59
NtRp3631
(dp3632
g62
(dp3633
g82
g83
ssg71
g3627
sg64
(lp3634
S'wsgi.url_scheme'
p3635
asbag57
(g78
g59
NtRp3636
(dp3637
g62
(dp3638
g89
g90
ssg71
g3627
sg64
(lp3639
S':'
asbag57
(g78
g59
NtRp3640
(dp3641
g62
(dp3642
sg71
g3627
sg64
(lp3643
g57
(g58
g59
NtRp3644
(dp3645
g62
(dp3646
g70
I3
ssg71
g3640
sg64
(lp3647
g2185
asbasbasbag57
(g73
g59
NtRp3648
(dp3649
g62
(dp3650
sg71
g3095
sg64
(lp3651
g57
(g78
g59
NtRp3652
(dp3653
g62
(dp3654
g82
g83
ssg71
g3648
sg64
(lp3655
S'wsgi.version'
p3656
asbag57
(g78
g59
NtRp3657
(dp3658
g62
(dp3659
g89
g90
ssg71
g3648
sg64
(lp3660
S':'
asbag57
(g78
g59
NtRp3661
(dp3662
g62
(dp3663
sg71
g3648
sg64
(lp3664
g57
(g58
g59
NtRp3665
(dp3666
g62
(dp3667
g70
I3
ssg71
g3661
sg64
(lp3668
S'1'
asbasbasbasbasbasbasbasbasbasbasbasbasbsS'frames'
p3669
(lp3670
(dp3671
S'file'
p3672
S'/home/bhanu/web2py/gluon/restricted.py'
p3673
sS'dump'
p3674
(dp3675
S'environment'
p3676
S"{'A': <class 'gluon.html.A'>, 'Auth': <class 'gluon.tools.Auth'>, 'B': <class 'gluon.html.B'>, 'BEAUTIFY': <class 'gluon.html.BEAUTIFY'>, 'BODY': <class 'gluon.html.BODY'>, 'BR': <class 'gluon.html.BR'>, 'BUTTON': <class 'gluon.html.BUTTON'>, 'CAS': <Storage {'check_url': 'https://login.iiit.ac.in...url': 'http://127.0.0.1:8000/sss/default/login'}>, 'CAT': <class 'gluon.html.CAT'>, 'CENTER': <class 'gluon.html.CENTER'>, ...}"
p3677
sS'ccode'
p3678
S'<code object <module> at 0x7fea00235430, file "/...2py/applications/sss/views/generic.html", line 1>'
p3679
ssS'lnum'
p3680
I212
sS'lines'
p3681
(dp3682
I207
S'    try:'
p3683
sI208
S'        if isinstance(code, types.CodeType):'
p3684
sI209
S'            ccode = code'
p3685
sI210
S'        else:'
p3686
sI211
S'            ccode = compile2(code, layer)'
p3687
sI212
S'        exec ccode in environment'
p3688
sI213
S'    except HTTP:'
p3689
sI214
S'        raise'
p3690
sI215
S'    except RestrictedError:'
p3691
sI216
S'        # do not encapsulate (obfuscate) the original RestrictedError'
p3692
ssS'call'
p3693
S'(code=\'response.write(\\\'<!DOCTYPE html PUBLIC "-//W3C//D...->>\\\\n \\\\n \\\\n \\\\n </body>\\\\n</html>\\\\n\\\', escape=False)\', environment={\'A\': <class \'gluon.html.A\'>, \'Auth\': <class \'gluon.tools.Auth\'>, \'B\': <class \'gluon.html.B\'>, \'BEAUTIFY\': <class \'gluon.html.BEAUTIFY\'>, \'BODY\': <class \'gluon.html.BODY\'>, \'BR\': <class \'gluon.html.BR\'>, \'BUTTON\': <class \'gluon.html.BUTTON\'>, \'CAS\': <Storage {\'check_url\': \'https://login.iiit.ac.in...url\': \'http://127.0.0.1:8000/sss/default/login\'}>, \'CAT\': <class \'gluon.html.CAT\'>, \'CENTER\': <class \'gluon.html.CENTER\'>, ...}, layer=\'/home/bhanu/web2py/applications/sss/views/generic.html\')'
p3694
sS'func'
p3695
S'restricted'
p3696
sa(dp3697
g3672
S'/home/bhanu/web2py/applications/sss/views/generic.html'
p3698
sg3674
(dp3699
sg3680
I36
sg3681
(dp3700
I32
S'response.write(\'\\n    <script>\\n      jQuery(document).ready(function(){jQuery(\\\'ul.web2py-menu\\\').superfish({delay:400});});\\n    </script>\\n   </div>\\n  </div>\\n  <hr />\\n  <!-- end header -->\\n  <!-- start page -->\\n  <div id="wrapper">\\n   <div id="page">\\n    <!-- start content -->\\n    <div id="content">\\n     <div class="flash">\', escape=False)'
p3701
sI33
S"response.write(response.flash or '')"
p3702
sI34
S"response.write('</div>\\n     \\n     ', escape=False)"
p3703
sI35
S"response.write('\\n', escape=False)"
p3704
sI36
S'response.write(form)'
p3705
sI37
S"response.write('\\n', escape=False)"
p3706
sI38
S"response.write('\\n        ', escape=False)"
p3707
sI39
S'#chetta'
p3708
sI40
S"response.write('\\n        \\n        \\n        \\n        ', escape=False)"
p3709
sI41
S'#chetta'
p3710
sI42
S'response.write(\'\\n       \\n    </div>\\n    <!-- end content -->\\n    <!-- start sidebar -->\\n    \\n    <br style="clear: both;" />\\n   </div>\\n  </div>\\n  <!-- end page -->\\n<!--chetta-->>\\n \\n \\n \\n </body>\\n</html>\\n\', escape=False)'
p3711
sI27
S'#=response.title or reque'
p3712
sI28
S'response.write(\'\\n     hostel portal\\n    </h1>\\n    <p>\\n     <a href="http://www.freecsstemplates.org/">\\n         \', escape=False)'
p3713
sI29
S'#     &nbsp;&nbsp;&nbsp;&nbsp;&nbsp;&nbsp;&nbsp;&nbsp;&nbsp;&nbsp;&nbsp;&nbsp;&nbsp;&nbsp;&nbsp;&nbsp;&nbsp;&nbsp;&nbsp;&nbsp;&nbsp;&nbsp;&nbsp;&nbsp;welcomes you'
p3714
sI30
S'response.write(\'\\n     </a>\\n    </p>\\n   </div>\\n   <div id="menu">\\n    \', escape=False)'
p3715
sI31
S"response.write(MENU(response.menu,_class='web2py-menu'))"
p3716
ssg3693
S'()'
p3717
sg3695
S'<module>'
p3718
sasS'pyver'
p3719
S'Python 2.7.3: /usr/bin/python'
p3720
sS'session'
p3721
g57
(g58
g59
NtRp3722
(dp3723
g62
(dp3724
sg64
(lp3725
g57
(g66
g59
NtRp3726
(dp3727
g62
(dp3728
g70
I5
ssg71
Nsg64
(lp3729
g57
(g73
g59
NtRp3730
(dp3731
g62
(dp3732
sg71
g3726
sg64
(lp3733
g57
(g78
g59
NtRp3734
(dp3735
g62
(dp3736
g82
g83
ssg71
g3730
sg64
(lp3737
S'flash'
p3738
asbag57
(g78
g59
NtRp3739
(dp3740
g62
(dp3741
g89
g90
ssg71
g3730
sg64
(lp3742
S':'
asbag57
(g78
g59
NtRp3743
(dp3744
g62
(dp3745
sg71
g3730
sg64
(lp3746
g57
(g58
g59
NtRp3747
(dp3748
g62
(dp3749
g70
I5
ssg71
g3743
sg64
(lp3750
S''
asbasbasbag57
(g73
g59
NtRp3751
(dp3752
g62
(dp3753
sg71
g3726
sg64
(lp3754
g57
(g78
g59
NtRp3755
(dp3756
g62
(dp3757
g82
g83
ssg71
g3751
sg64
(lp3758
S'last_orderby'
p3759
asbag57
(g78
g59
NtRp3760
(dp3761
g62
(dp3762
g89
g90
ssg71
g3751
sg64
(lp3763
S':'
asbag57
(g78
g59
NtRp3764
(dp3765
g62
(dp3766
sg71
g3751
sg64
(lp3767
g57
(g58
g59
NtRp3768
(dp3769
g62
(dp3770
g70
I5
ssg71
g3764
sg64
(lp3771
S'None'
p3772
asbasbasbag57
(g73
g59
NtRp3773
(dp3774
g62
(dp3775
sg71
g3726
sg64
(lp3776
g57
(g78
g59
NtRp3777
(dp3778
g62
(dp3779
g82
g83
ssg71
g3773
sg64
(lp3780
S'last_query'
p3781
asbag57
(g78
g59
NtRp3782
(dp3783
g62
(dp3784
g89
g90
ssg71
g3773
sg64
(lp3785
S':'
asbag57
(g78
g59
NtRp3786
(dp3787
g62
(dp3788
sg71
g3773
sg64
(lp3789
g57
(g58
g59
NtRp3790
(dp3791
g62
(dp3792
g70
I5
ssg71
g3786
sg64
(lp3793
S'db.poll.id>0'
p3794
asbasbasbag57
(g73
g59
NtRp3795
(dp3796
g62
(dp3797
sg71
g3726
sg64
(lp3798
g57
(g78
g59
NtRp3799
(dp3800
g62
(dp3801
g82
g83
ssg71
g3795
sg64
(lp3802
S'login'
p3803
asbag57
(g78
g59
NtRp3804
(dp3805
g62
(dp3806
g89
g90
ssg71
g3795
sg64
(lp3807
S':'
asbag57
(g78
g59
NtRp3808
(dp3809
g62
(dp3810
sg71
g3795
sg64
(lp3811
g57
(g58
g59
NtRp3812
(dp3813
g62
(dp3814
g70
I5
ssg71
g3808
sg64
(lp3815
S'1'
asbasbasbag57
(g73
g59
NtRp3816
(dp3817
g62
(dp3818
sg71
g3726
sg64
(lp3819
g57
(g78
g59
NtRp3820
(dp3821
g62
(dp3822
g82
g83
ssg71
g3816
sg64
(lp3823
S'name'
p3824
asbag57
(g78
g59
NtRp3825
(dp3826
g62
(dp3827
g89
g90
ssg71
g3816
sg64
(lp3828
S':'
asbag57
(g78
g59
NtRp3829
(dp3830
g62
(dp3831
sg71
g3816
sg64
(lp3832
g57
(g58
g59
NtRp3833
(dp3834
g62
(dp3835
g70
I5
ssg71
g3829
sg64
(lp3836
S'bhanu dev'
p3837
asbasbasbag57
(g73
g59
NtRp3838
(dp3839
g62
(dp3840
sg71
g3726
sg64
(lp3841
g57
(g78
g59
NtRp3842
(dp3843
g62
(dp3844
g82
g83
ssg71
g3838
sg64
(lp3845
S'roll_no'
p3846
asbag57
(g78
g59
NtRp3847
(dp3848
g62
(dp3849
g89
g90
ssg71
g3838
sg64
(lp3850
S':'
asbag57
(g78
g59
NtRp3851
(dp3852
g62
(dp3853
sg71
g3838
sg64
(lp3854
g57
(g58
g59
NtRp3855
(dp3856
g62
(dp3857
g70
I5
ssg71
g3851
sg64
(lp3858
S'201102082'
p3859
asbasbasbag57
(g73
g59
NtRp3860
(dp3861
g62
(dp3862
sg71
g3726
sg64
(lp3863
g57
(g78
g59
NtRp3864
(dp3865
g62
(dp3866
g82
g83
ssg71
g3860
sg64
(lp3867
S'student_email'
p3868
asbag57
(g78
g59
NtRp3869
(dp3870
g62
(dp3871
g89
g90
ssg71
g3860
sg64
(lp3872
S':'
asbag57
(g78
g59
NtRp3873
(dp3874
g62
(dp3875
sg71
g3860
sg64
(lp3876
g57
(g58
g59
NtRp3877
(dp3878
g62
(dp3879
g70
I5
ssg71
g3873
sg64
(lp3880
S'chaluvadibhanu.dev@students.iiit.ac.in'
p3881
asbasbasbag57
(g73
g59
NtRp3882
(dp3883
g62
(dp3884
sg71
g3726
sg64
(lp3885
g57
(g78
g59
NtRp3886
(dp3887
g62
(dp3888
g82
g83
ssg71
g3882
sg64
(lp3889
S'token'
p3890
asbag57
(g78
g59
NtRp3891
(dp3892
g62
(dp3893
g89
g90
ssg71
g3882
sg64
(lp3894
S':'
asbag57
(g78
g59
NtRp3895
(dp3896
g62
(dp3897
sg71
g3882
sg64
(lp3898
g57
(g58
g59
NtRp3899
(dp3900
g62
(dp3901
g70
I5
ssg71
g3895
sg64
(lp3902
g3881
asbasbasbasbasbsS'etype'
p3903
S"<type 'exceptions.NameError'>"
p3904
sS'date'
p3905
S'Wed Nov 14 01:12:49 2012'
p3906
sS'response'
p3907
g57
(g58
g59
NtRp3908
(dp3909
g62
(dp3910
sg64
(lp3911
g57
(g66
g59
NtRp3912
(dp3913
g62
(dp3914
g70
I5
ssg71
Nsg64
(lp3915
g57
(g73
g59
NtRp3916
(dp3917
g62
(dp3918
sg71
g3912
sg64
(lp3919
g57
(g78
g59
NtRp3920
(dp3921
g62
(dp3922
g82
g83
ssg71
g3916
sg64
(lp3923
g155
asbag57
(g78
g59
NtRp3924
(dp3925
g62
(dp3926
g89
g90
ssg71
g3916
sg64
(lp3927
S':'
asbag57
(g78
g59
NtRp3928
(dp3929
g62
(dp3930
sg71
g3916
sg64
(lp3931
g57
(g58
g59
NtRp3932
(dp3933
g62
(dp3934
g70
I5
ssg71
g3928
sg64
(lp3935
S'<cStringIO.StringO object at 0x7fe9dc5e8f10>'
p3936
asbasbasbag57
(g73
g59
NtRp3937
(dp3938
g62
(dp3939
sg71
g3912
sg64
(lp3940
g57
(g78
g59
NtRp3941
(dp3942
g62
(dp3943
g82
g83
ssg71
g3937
sg64
(lp3944
S'complaint'
p3945
asbag57
(g78
g59
NtRp3946
(dp3947
g62
(dp3948
g89
g90
ssg71
g3937
sg64
(lp3949
S':'
asbag57
(g78
g59
NtRp3950
(dp3951
g62
(dp3952
sg71
g3937
sg64
(lp3953
g57
(g58
g59
NtRp3954
(dp3955
g62
(dp3956
g70
I5
ssg71
g3950
sg64
(lp3957
g57
(g66
g59
NtRp3958
(dp3959
g62
(dp3960
g70
I4
ssg71
Nsg64
(lp3961
g57
(g73
g59
NtRp3962
(dp3963
g62
(dp3964
sg71
g3958
sg64
(lp3965
g57
(g78
g59
NtRp3966
(dp3967
g62
(dp3968
sg71
g3962
sg64
(lp3969
g57
(g58
g59
NtRp3970
(dp3971
g62
(dp3972
g70
I4
ssg71
g3966
sg64
(lp3973
g57
(g66
g59
NtRp3974
(dp3975
g62
(dp3976
g70
I3
ssg71
Nsg64
(lp3977
g57
(g73
g59
NtRp3978
(dp3979
g62
(dp3980
sg71
g3974
sg64
(lp3981
g57
(g78
g59
NtRp3982
(dp3983
g62
(dp3984
sg71
g3978
sg64
(lp3985
g57
(g58
g59
NtRp3986
(dp3987
g62
(dp3988
g70
I3
ssg71
g3982
sg64
(lp3989
cgluon.languages
lazyT_unpickle
p3990
(S't\t\x00\x00\x00COMPLAINT'
tRp3991
asbasbasbag57
(g73
g59
NtRp3992
(dp3993
g62
(dp3994
sg71
g3974
sg64
(lp3995
g57
(g78
g59
NtRp3996
(dp3997
g62
(dp3998
sg71
g3992
sg64
(lp3999
g57
(g58
g59
NtRp4000
(dp4001
g62
(dp4002
g70
I3
ssg71
g3996
sg64
(lp4003
g100
asbasbasbag57
(g73
g59
NtRp4004
(dp4005
g62
(dp4006
sg71
g3974
sg64
(lp4007
g57
(g78
g59
NtRp4008
(dp4009
g62
(dp4010
sg71
g4004
sg64
(lp4011
g57
(g58
g59
NtRp4012
(dp4013
g62
(dp4014
g70
I3
ssg71
g4008
sg64
(lp4015
S'/sss/default/complaint'
p4016
asbasbasbag57
(g73
g59
NtRp4017
(dp4018
g62
(dp4019
sg71
g3974
sg64
(lp4020
g57
(g78
g59
NtRp4021
(dp4022
g62
(dp4023
sg71
g4017
sg64
(lp4024
g57
(g58
g59
NtRp4025
(dp4026
g62
(dp4027
g70
I3
ssg71
g4021
sg64
(lp4028
g57
(g66
g59
NtRp4029
(dp4030
g62
(dp4031
g70
I2
ssg71
Nsg64
(lp4032
sbasbasbasbasbasbasbasbasbasbasbasbag57
(g73
g59
NtRp4033
(dp4034
g62
(dp4035
sg71
g3912
sg64
(lp4036
g57
(g78
g59
NtRp4037
(dp4038
g62
(dp4039
g82
g83
ssg71
g4033
sg64
(lp4040
g243
asbag57
(g78
g59
NtRp4041
(dp4042
g62
(dp4043
g89
g90
ssg71
g4033
sg64
(lp4044
S':'
asbag57
(g78
g59
NtRp4045
(dp4046
g62
(dp4047
sg71
g4033
sg64
(lp4048
g57
(g58
g59
NtRp4049
(dp4050
g62
(dp4051
g70
I5
ssg71
g4045
sg64
(lp4052
g57
(g66
g59
NtRp4053
(dp4054
g62
(dp4055
g70
I4
ssg71
Nsg64
(lp4056
g57
(g73
g59
NtRp4057
(dp4058
g62
(dp4059
sg71
g4053
sg64
(lp4060
g57
(g78
g59
NtRp4061
(dp4062
g62
(dp4063
g82
g83
ssg71
g4057
sg64
(lp4064
S'session_id_sss'
p4065
asbag57
(g78
g59
NtRp4066
(dp4067
g62
(dp4068
g89
g90
ssg71
g4057
sg64
(lp4069
S':'
asbag57
(g78
g59
NtRp4070
(dp4071
g62
(dp4072
sg71
g4057
sg64
(lp4073
g57
(g58
g59
NtRp4074
(dp4075
g62
(dp4076
g70
I4
ssg71
g4070
sg64
(lp4077
g847
ag57
(g66
g59
NtRp4078
(dp4079
g62
(dp4080
g70
I3
ssg71
Nsg64
(lp4081
g57
(g73
g59
NtRp4082
(dp4083
g62
(dp4084
sg71
g4078
sg64
(lp4085
g57
(g78
g59
NtRp4086
(dp4087
g62
(dp4088
g82
g83
ssg71
g4082
sg64
(lp4089
g294
asbag57
(g78
g59
NtRp4090
(dp4091
g62
(dp4092
g89
g90
ssg71
g4082
sg64
(lp4093
S':'
asbag57
(g78
g59
NtRp4094
(dp4095
g62
(dp4096
sg71
g4082
sg64
(lp4097
g57
(g58
g59
NtRp4098
(dp4099
g62
(dp4100
g70
I3
ssg71
g4094
sg64
(lp4101
S''
asbasbasbag57
(g73
g59
NtRp4102
(dp4103
g62
(dp4104
sg71
g4078
sg64
(lp4105
g57
(g78
g59
NtRp4106
(dp4107
g62
(dp4108
g82
g83
ssg71
g4102
sg64
(lp4109
g315
asbag57
(g78
g59
NtRp4110
(dp4111
g62
(dp4112
g89
g90
ssg71
g4102
sg64
(lp4113
S':'
asbag57
(g78
g59
NtRp4114
(dp4115
g62
(dp4116
sg71
g4102
sg64
(lp4117
g57
(g58
g59
NtRp4118
(dp4119
g62
(dp4120
g70
I3
ssg71
g4114
sg64
(lp4121
S''
asbasbasbag57
(g73
g59
NtRp4122
(dp4123
g62
(dp4124
sg71
g4078
sg64
(lp4125
g57
(g78
g59
NtRp4126
(dp4127
g62
(dp4128
g82
g83
ssg71
g4122
sg64
(lp4129
g336
asbag57
(g78
g59
NtRp4130
(dp4131
g62
(dp4132
g89
g90
ssg71
g4122
sg64
(lp4133
S':'
asbag57
(g78
g59
NtRp4134
(dp4135
g62
(dp4136
sg71
g4122
sg64
(lp4137
g57
(g58
g59
NtRp4138
(dp4139
g62
(dp4140
g70
I3
ssg71
g4134
sg64
(lp4141
S''
asbasbasbag57
(g73
g59
NtRp4142
(dp4143
g62
(dp4144
sg71
g4078
sg64
(lp4145
g57
(g78
g59
NtRp4146
(dp4147
g62
(dp4148
g82
g83
ssg71
g4142
sg64
(lp4149
g357
asbag57
(g78
g59
NtRp4150
(dp4151
g62
(dp4152
g89
g90
ssg71
g4142
sg64
(lp4153
S':'
asbag57
(g78
g59
NtRp4154
(dp4155
g62
(dp4156
sg71
g4142
sg64
(lp4157
g57
(g58
g59
NtRp4158
(dp4159
g62
(dp4160
g70
I3
ssg71
g4154
sg64
(lp4161
S''
asbasbasbag57
(g73
g59
NtRp4162
(dp4163
g62
(dp4164
sg71
g4078
sg64
(lp4165
g57
(g78
g59
NtRp4166
(dp4167
g62
(dp4168
g82
g83
ssg71
g4162
sg64
(lp4169
g378
asbag57
(g78
g59
NtRp4170
(dp4171
g62
(dp4172
g89
g90
ssg71
g4162
sg64
(lp4173
S':'
asbag57
(g78
g59
NtRp4174
(dp4175
g62
(dp4176
sg71
g4162
sg64
(lp4177
g57
(g58
g59
NtRp4178
(dp4179
g62
(dp4180
g70
I3
ssg71
g4174
sg64
(lp4181
S''
asbasbasbag57
(g73
g59
NtRp4182
(dp4183
g62
(dp4184
sg71
g4078
sg64
(lp4185
g57
(g78
g59
NtRp4186
(dp4187
g62
(dp4188
g82
g83
ssg71
g4182
sg64
(lp4189
g399
asbag57
(g78
g59
NtRp4190
(dp4191
g62
(dp4192
g89
g90
ssg71
g4182
sg64
(lp4193
S':'
asbag57
(g78
g59
NtRp4194
(dp4195
g62
(dp4196
sg71
g4182
sg64
(lp4197
g57
(g58
g59
NtRp4198
(dp4199
g62
(dp4200
g70
I3
ssg71
g4194
sg64
(lp4201
S'/'
asbasbasbag57
(g73
g59
NtRp4202
(dp4203
g62
(dp4204
sg71
g4078
sg64
(lp4205
g57
(g78
g59
NtRp4206
(dp4207
g62
(dp4208
g82
g83
ssg71
g4202
sg64
(lp4209
g420
asbag57
(g78
g59
NtRp4210
(dp4211
g62
(dp4212
g89
g90
ssg71
g4202
sg64
(lp4213
S':'
asbag57
(g78
g59
NtRp4214
(dp4215
g62
(dp4216
sg71
g4202
sg64
(lp4217
g57
(g58
g59
NtRp4218
(dp4219
g62
(dp4220
g70
I3
ssg71
g4214
sg64
(lp4221
S''
asbasbasbag57
(g73
g59
NtRp4222
(dp4223
g62
(dp4224
sg71
g4078
sg64
(lp4225
g57
(g78
g59
NtRp4226
(dp4227
g62
(dp4228
g82
g83
ssg71
g4222
sg64
(lp4229
g441
asbag57
(g78
g59
NtRp4230
(dp4231
g62
(dp4232
g89
g90
ssg71
g4222
sg64
(lp4233
S':'
asbag57
(g78
g59
NtRp4234
(dp4235
g62
(dp4236
sg71
g4222
sg64
(lp4237
g57
(g58
g59
NtRp4238
(dp4239
g62
(dp4240
g70
I3
ssg71
g4234
sg64
(lp4241
S''
asbasbasbasbasbasbasbasbasbasbasbag57
(g73
g59
NtRp4242
(dp4243
g62
(dp4244
sg71
g3912
sg64
(lp4245
g57
(g78
g59
NtRp4246
(dp4247
g62
(dp4248
g82
g83
ssg71
g4242
sg64
(lp4249
S'delimiters'
p4250
asbag57
(g78
g59
NtRp4251
(dp4252
g62
(dp4253
g89
g90
ssg71
g4242
sg64
(lp4254
S':'
asbag57
(g78
g59
NtRp4255
(dp4256
g62
(dp4257
sg71
g4242
sg64
(lp4258
g57
(g58
g59
NtRp4259
(dp4260
g62
(dp4261
g70
I5
ssg71
g4255
sg64
(lp4262
g57
(g66
g59
NtRp4263
(dp4264
g62
(dp4265
g70
I4
ssg71
Nsg64
(lp4266
g57
(g73
g59
NtRp4267
(dp4268
g62
(dp4269
sg71
g4263
sg64
(lp4270
g57
(g78
g59
NtRp4271
(dp4272
g62
(dp4273
sg71
g4267
sg64
(lp4274
g57
(g58
g59
NtRp4275
(dp4276
g62
(dp4277
g70
I4
ssg71
g4271
sg64
(lp4278
S'{{'
p4279
asbasbasbag57
(g73
g59
NtRp4280
(dp4281
g62
(dp4282
sg71
g4263
sg64
(lp4283
g57
(g78
g59
NtRp4284
(dp4285
g62
(dp4286
sg71
g4280
sg64
(lp4287
g57
(g58
g59
NtRp4288
(dp4289
g62
(dp4290
g70
I4
ssg71
g4284
sg64
(lp4291
S'}}'
p4292
asbasbasbasbasbasbasbag57
(g73
g59
NtRp4293
(dp4294
g62
(dp4295
sg71
g3912
sg64
(lp4296
g57
(g78
g59
NtRp4297
(dp4298
g62
(dp4299
g82
g83
ssg71
g4293
sg64
(lp4300
S'enter_laptop_details'
p4301
asbag57
(g78
g59
NtRp4302
(dp4303
g62
(dp4304
g89
g90
ssg71
g4293
sg64
(lp4305
S':'
asbag57
(g78
g59
NtRp4306
(dp4307
g62
(dp4308
sg71
g4293
sg64
(lp4309
g57
(g58
g59
NtRp4310
(dp4311
g62
(dp4312
g70
I5
ssg71
g4306
sg64
(lp4313
g57
(g66
g59
NtRp4314
(dp4315
g62
(dp4316
g70
I4
ssg71
Nsg64
(lp4317
g57
(g73
g59
NtRp4318
(dp4319
g62
(dp4320
sg71
g4314
sg64
(lp4321
g57
(g78
g59
NtRp4322
(dp4323
g62
(dp4324
sg71
g4318
sg64
(lp4325
g57
(g58
g59
NtRp4326
(dp4327
g62
(dp4328
g70
I4
ssg71
g4322
sg64
(lp4329
g57
(g66
g59
NtRp4330
(dp4331
g62
(dp4332
g70
I3
ssg71
Nsg64
(lp4333
g57
(g73
g59
NtRp4334
(dp4335
g62
(dp4336
sg71
g4330
sg64
(lp4337
g57
(g78
g59
NtRp4338
(dp4339
g62
(dp4340
sg71
g4334
sg64
(lp4341
g57
(g58
g59
NtRp4342
(dp4343
g62
(dp4344
g70
I3
ssg71
g4338
sg64
(lp4345
g3990
(S's\x14\x00\x00\x00Enter Laptop Details'
tRp4346
asbasbasbag57
(g73
g59
NtRp4347
(dp4348
g62
(dp4349
sg71
g4330
sg64
(lp4350
g57
(g78
g59
NtRp4351
(dp4352
g62
(dp4353
sg71
g4347
sg64
(lp4354
g57
(g58
g59
NtRp4355
(dp4356
g62
(dp4357
g70
I3
ssg71
g4351
sg64
(lp4358
g100
asbasbasbag57
(g73
g59
NtRp4359
(dp4360
g62
(dp4361
sg71
g4330
sg64
(lp4362
g57
(g78
g59
NtRp4363
(dp4364
g62
(dp4365
sg71
g4359
sg64
(lp4366
g57
(g58
g59
NtRp4367
(dp4368
g62
(dp4369
g70
I3
ssg71
g4363
sg64
(lp4370
S'/sss/default/enter_laptop_details'
p4371
asbasbasbag57
(g73
g59
NtRp4372
(dp4373
g62
(dp4374
sg71
g4330
sg64
(lp4375
g57
(g78
g59
NtRp4376
(dp4377
g62
(dp4378
sg71
g4372
sg64
(lp4379
g57
(g58
g59
NtRp4380
(dp4381
g62
(dp4382
g70
I3
ssg71
g4376
sg64
(lp4383
g57
(g66
g59
NtRp4384
(dp4385
g62
(dp4386
g70
I2
ssg71
Nsg64
(lp4387
sbasbasbasbasbasbasbasbasbasbasbasbag57
(g73
g59
NtRp4388
(dp4389
g62
(dp4390
sg71
g3912
sg64
(lp4391
g57
(g78
g59
NtRp4392
(dp4393
g62
(dp4394
g82
g83
ssg71
g4388
sg64
(lp4395
S'files'
p4396
asbag57
(g78
g59
NtRp4397
(dp4398
g62
(dp4399
g89
g90
ssg71
g4388
sg64
(lp4400
S':'
asbag57
(g78
g59
NtRp4401
(dp4402
g62
(dp4403
sg71
g4388
sg64
(lp4404
g57
(g58
g59
NtRp4405
(dp4406
g62
(dp4407
g70
I5
ssg71
g4401
sg64
(lp4408
g57
(g66
g59
NtRp4409
(dp4410
g62
(dp4411
g70
I4
ssg71
Nsg64
(lp4412
g57
(g73
g59
NtRp4413
(dp4414
g62
(dp4415
sg71
g4409
sg64
(lp4416
g57
(g78
g59
NtRp4417
(dp4418
g62
(dp4419
sg71
g4413
sg64
(lp4420
g57
(g58
g59
NtRp4421
(dp4422
g62
(dp4423
g70
I4
ssg71
g4417
sg64
(lp4424
S'/sss/static/js/jquery.js'
p4425
asbasbasbag57
(g73
g59
NtRp4426
(dp4427
g62
(dp4428
sg71
g4409
sg64
(lp4429
g57
(g78
g59
NtRp4430
(dp4431
g62
(dp4432
sg71
g4426
sg64
(lp4433
g57
(g58
g59
NtRp4434
(dp4435
g62
(dp4436
g70
I4
ssg71
g4430
sg64
(lp4437
S'/sss/static/css/calendar.css'
p4438
asbasbasbag57
(g73
g59
NtRp4439
(dp4440
g62
(dp4441
sg71
g4409
sg64
(lp4442
g57
(g78
g59
NtRp4443
(dp4444
g62
(dp4445
sg71
g4439
sg64
(lp4446
g57
(g58
g59
NtRp4447
(dp4448
g62
(dp4449
g70
I4
ssg71
g4443
sg64
(lp4450
S'/sss/static/js/calendar.js'
p4451
asbasbasbag57
(g73
g59
NtRp4452
(dp4453
g62
(dp4454
sg71
g4409
sg64
(lp4455
g57
(g78
g59
NtRp4456
(dp4457
g62
(dp4458
sg71
g4452
sg64
(lp4459
g57
(g58
g59
NtRp4460
(dp4461
g62
(dp4462
g70
I4
ssg71
g4456
sg64
(lp4463
S'/sss/static/js/web2py.js'
p4464
asbasbasbag57
(g73
g59
NtRp4465
(dp4466
g62
(dp4467
sg71
g4409
sg64
(lp4468
g57
(g78
g59
NtRp4469
(dp4470
g62
(dp4471
sg71
g4465
sg64
(lp4472
g57
(g58
g59
NtRp4473
(dp4474
g62
(dp4475
g70
I4
ssg71
g4469
sg64
(lp4476
S'/sss/static/plugin_layouts/layouts/Interlude/default.css'
p4477
asbasbasbag57
(g73
g59
NtRp4478
(dp4479
g62
(dp4480
sg71
g4409
sg64
(lp4481
g57
(g78
g59
NtRp4482
(dp4483
g62
(dp4484
sg71
g4478
sg64
(lp4485
g57
(g58
g59
NtRp4486
(dp4487
g62
(dp4488
g70
I4
ssg71
g4482
sg64
(lp4489
S'/sss/static/plugin_layouts/superfish.js'
p4490
asbasbasbasbasbasbasbag57
(g73
g59
NtRp4491
(dp4492
g62
(dp4493
sg71
g3912
sg64
(lp4494
g57
(g78
g59
NtRp4495
(dp4496
g62
(dp4497
g82
g83
ssg71
g4491
sg64
(lp4498
S'flash'
p4499
asbag57
(g78
g59
NtRp4500
(dp4501
g62
(dp4502
g89
g90
ssg71
g4491
sg64
(lp4503
S':'
asbag57
(g78
g59
NtRp4504
(dp4505
g62
(dp4506
sg71
g4491
sg64
(lp4507
g57
(g58
g59
NtRp4508
(dp4509
g62
(dp4510
g70
I5
ssg71
g4504
sg64
(lp4511
S''
asbasbasbag57
(g73
g59
NtRp4512
(dp4513
g62
(dp4514
sg71
g3912
sg64
(lp4515
g57
(g78
g59
NtRp4516
(dp4517
g62
(dp4518
g82
g83
ssg71
g4512
sg64
(lp4519
S'generic_patterns'
p4520
asbag57
(g78
g59
NtRp4521
(dp4522
g62
(dp4523
g89
g90
ssg71
g4512
sg64
(lp4524
S':'
asbag57
(g78
g59
NtRp4525
(dp4526
g62
(dp4527
sg71
g4512
sg64
(lp4528
g57
(g58
g59
NtRp4529
(dp4530
g62
(dp4531
g70
I5
ssg71
g4525
sg64
(lp4532
g57
(g66
g59
NtRp4533
(dp4534
g62
(dp4535
g70
I4
ssg71
Nsg64
(lp4536
g57
(g73
g59
NtRp4537
(dp4538
g62
(dp4539
sg71
g4533
sg64
(lp4540
g57
(g78
g59
NtRp4541
(dp4542
g62
(dp4543
sg71
g4537
sg64
(lp4544
g57
(g58
g59
NtRp4545
(dp4546
g62
(dp4547
g70
I4
ssg71
g4541
sg64
(lp4548
S'*'
asbasbasbasbasbasbasbag57
(g73
g59
NtRp4549
(dp4550
g62
(dp4551
sg71
g3912
sg64
(lp4552
g57
(g78
g59
NtRp4553
(dp4554
g62
(dp4555
g82
g83
ssg71
g4549
sg64
(lp4556
S'headers'
p4557
asbag57
(g78
g59
NtRp4558
(dp4559
g62
(dp4560
g89
g90
ssg71
g4549
sg64
(lp4561
S':'
asbag57
(g78
g59
NtRp4562
(dp4563
g62
(dp4564
sg71
g4549
sg64
(lp4565
g57
(g58
g59
NtRp4566
(dp4567
g62
(dp4568
g70
I5
ssg71
g4562
sg64
(lp4569
g57
(g66
g59
NtRp4570
(dp4571
g62
(dp4572
g70
I4
ssg71
Nsg64
(lp4573
g57
(g73
g59
NtRp4574
(dp4575
g62
(dp4576
sg71
g4570
sg64
(lp4577
g57
(g78
g59
NtRp4578
(dp4579
g62
(dp4580
g82
g83
ssg71
g4574
sg64
(lp4581
S'X-Powered-By'
p4582
asbag57
(g78
g59
NtRp4583
(dp4584
g62
(dp4585
g89
g90
ssg71
g4574
sg64
(lp4586
S':'
asbag57
(g78
g59
NtRp4587
(dp4588
g62
(dp4589
sg71
g4574
sg64
(lp4590
g57
(g58
g59
NtRp4591
(dp4592
g62
(dp4593
g70
I4
ssg71
g4587
sg64
(lp4594
S'web2py'
p4595
asbasbasbasbasbasbasbag57
(g73
g59
NtRp4596
(dp4597
g62
(dp4598
sg71
g3912
sg64
(lp4599
g57
(g78
g59
NtRp4600
(dp4601
g62
(dp4602
g82
g83
ssg71
g4596
sg64
(lp4603
S'laptop_out_details'
p4604
asbag57
(g78
g59
NtRp4605
(dp4606
g62
(dp4607
g89
g90
ssg71
g4596
sg64
(lp4608
S':'
asbag57
(g78
g59
NtRp4609
(dp4610
g62
(dp4611
sg71
g4596
sg64
(lp4612
g57
(g58
g59
NtRp4613
(dp4614
g62
(dp4615
g70
I5
ssg71
g4609
sg64
(lp4616
g57
(g66
g59
NtRp4617
(dp4618
g62
(dp4619
g70
I4
ssg71
Nsg64
(lp4620
g57
(g73
g59
NtRp4621
(dp4622
g62
(dp4623
sg71
g4617
sg64
(lp4624
g57
(g78
g59
NtRp4625
(dp4626
g62
(dp4627
sg71
g4621
sg64
(lp4628
g57
(g58
g59
NtRp4629
(dp4630
g62
(dp4631
g70
I4
ssg71
g4625
sg64
(lp4632
g57
(g66
g59
NtRp4633
(dp4634
g62
(dp4635
g70
I3
ssg71
Nsg64
(lp4636
g57
(g73
g59
NtRp4637
(dp4638
g62
(dp4639
sg71
g4633
sg64
(lp4640
g57
(g78
g59
NtRp4641
(dp4642
g62
(dp4643
sg71
g4637
sg64
(lp4644
g57
(g58
g59
NtRp4645
(dp4646
g62
(dp4647
g70
I3
ssg71
g4641
sg64
(lp4648
g3990
(S's\x0f\x00\x00\x00Laptop Movement'
tRp4649
asbasbasbag57
(g73
g59
NtRp4650
(dp4651
g62
(dp4652
sg71
g4633
sg64
(lp4653
g57
(g78
g59
NtRp4654
(dp4655
g62
(dp4656
sg71
g4650
sg64
(lp4657
g57
(g58
g59
NtRp4658
(dp4659
g62
(dp4660
g70
I3
ssg71
g4654
sg64
(lp4661
g100
asbasbasbag57
(g73
g59
NtRp4662
(dp4663
g62
(dp4664
sg71
g4633
sg64
(lp4665
g57
(g78
g59
NtRp4666
(dp4667
g62
(dp4668
sg71
g4662
sg64
(lp4669
g57
(g58
g59
NtRp4670
(dp4671
g62
(dp4672
g70
I3
ssg71
g4666
sg64
(lp4673
S'/sss/default/laptop_out_details'
p4674
asbasbasbag57
(g73
g59
NtRp4675
(dp4676
g62
(dp4677
sg71
g4633
sg64
(lp4678
g57
(g78
g59
NtRp4679
(dp4680
g62
(dp4681
sg71
g4675
sg64
(lp4682
g57
(g58
g59
NtRp4683
(dp4684
g62
(dp4685
g70
I3
ssg71
g4679
sg64
(lp4686
g57
(g66
g59
NtRp4687
(dp4688
g62
(dp4689
g70
I2
ssg71
Nsg64
(lp4690
sbasbasbasbasbasbasbasbasbasbasbasbag57
(g73
g59
NtRp4691
(dp4692
g62
(dp4693
sg71
g3912
sg64
(lp4694
g57
(g78
g59
NtRp4695
(dp4696
g62
(dp4697
g82
g83
ssg71
g4691
sg64
(lp4698
S'menu'
p4699
asbag57
(g78
g59
NtRp4700
(dp4701
g62
(dp4702
g89
g90
ssg71
g4691
sg64
(lp4703
S':'
asbag57
(g78
g59
NtRp4704
(dp4705
g62
(dp4706
sg71
g4691
sg64
(lp4707
g57
(g58
g59
NtRp4708
(dp4709
g62
(dp4710
g70
I5
ssg71
g4704
sg64
(lp4711
g57
(g66
g59
NtRp4712
(dp4713
g62
(dp4714
g70
I4
ssg71
Nsg64
(lp4715
g57
(g73
g59
NtRp4716
(dp4717
g62
(dp4718
sg71
g4712
sg64
(lp4719
g57
(g78
g59
NtRp4720
(dp4721
g62
(dp4722
sg71
g4716
sg64
(lp4723
g57
(g58
g59
NtRp4724
(dp4725
g62
(dp4726
g70
I4
ssg71
g4720
sg64
(lp4727
g57
(g66
g59
NtRp4728
(dp4729
g62
(dp4730
g70
I3
ssg71
Nsg64
(lp4731
g57
(g73
g59
NtRp4732
(dp4733
g62
(dp4734
sg71
g4728
sg64
(lp4735
g57
(g78
g59
NtRp4736
(dp4737
g62
(dp4738
sg71
g4732
sg64
(lp4739
g57
(g58
g59
NtRp4740
(dp4741
g62
(dp4742
g70
I3
ssg71
g4736
sg64
(lp4743
g3990
(S't\x04\x00\x00\x00HOME'
tRp4744
asbasbasbag57
(g73
g59
NtRp4745
(dp4746
g62
(dp4747
sg71
g4728
sg64
(lp4748
g57
(g78
g59
NtRp4749
(dp4750
g62
(dp4751
sg71
g4745
sg64
(lp4752
g57
(g58
g59
NtRp4753
(dp4754
g62
(dp4755
g70
I3
ssg71
g4749
sg64
(lp4756
g100
asbasbasbag57
(g73
g59
NtRp4757
(dp4758
g62
(dp4759
sg71
g4728
sg64
(lp4760
g57
(g78
g59
NtRp4761
(dp4762
g62
(dp4763
sg71
g4757
sg64
(lp4764
g57
(g58
g59
NtRp4765
(dp4766
g62
(dp4767
g70
I3
ssg71
g4761
sg64
(lp4768
S'/sss/default/index'
p4769
asbasbasbag57
(g73
g59
NtRp4770
(dp4771
g62
(dp4772
sg71
g4728
sg64
(lp4773
g57
(g78
g59
NtRp4774
(dp4775
g62
(dp4776
sg71
g4770
sg64
(lp4777
g57
(g58
g59
NtRp4778
(dp4779
g62
(dp4780
g70
I3
ssg71
g4774
sg64
(lp4781
g57
(g66
g59
NtRp4782
(dp4783
g62
(dp4784
g70
I2
ssg71
Nsg64
(lp4785
sbasbasbasbasbasbasbasbasbasbasbasbag57
(g73
g59
NtRp4786
(dp4787
g62
(dp4788
sg71
g3912
sg64
(lp4789
g57
(g78
g59
NtRp4790
(dp4791
g62
(dp4792
g82
g83
ssg71
g4786
sg64
(lp4793
S'meta'
p4794
asbag57
(g78
g59
NtRp4795
(dp4796
g62
(dp4797
g89
g90
ssg71
g4786
sg64
(lp4798
S':'
asbag57
(g78
g59
NtRp4799
(dp4800
g62
(dp4801
sg71
g4786
sg64
(lp4802
g57
(g58
g59
NtRp4803
(dp4804
g62
(dp4805
g70
I5
ssg71
g4799
sg64
(lp4806
g57
(g66
g59
NtRp4807
(dp4808
g62
(dp4809
g70
I4
ssg71
Nsg64
(lp4810
g57
(g73
g59
NtRp4811
(dp4812
g62
(dp4813
sg71
g4807
sg64
(lp4814
g57
(g78
g59
NtRp4815
(dp4816
g62
(dp4817
g82
g83
ssg71
g4811
sg64
(lp4818
S'author'
p4819
asbag57
(g78
g59
NtRp4820
(dp4821
g62
(dp4822
g89
g90
ssg71
g4811
sg64
(lp4823
S':'
asbag57
(g78
g59
NtRp4824
(dp4825
g62
(dp4826
sg71
g4811
sg64
(lp4827
g57
(g58
g59
NtRp4828
(dp4829
g62
(dp4830
g70
I4
ssg71
g4824
sg64
(lp4831
S'you <you@example.com>'
p4832
asbasbasbag57
(g73
g59
NtRp4833
(dp4834
g62
(dp4835
sg71
g4807
sg64
(lp4836
g57
(g78
g59
NtRp4837
(dp4838
g62
(dp4839
g82
g83
ssg71
g4833
sg64
(lp4840
S'description'
p4841
asbag57
(g78
g59
NtRp4842
(dp4843
g62
(dp4844
g89
g90
ssg71
g4833
sg64
(lp4845
S':'
asbag57
(g78
g59
NtRp4846
(dp4847
g62
(dp4848
sg71
g4833
sg64
(lp4849
g57
(g58
g59
NtRp4850
(dp4851
g62
(dp4852
g70
I4
ssg71
g4846
sg64
(lp4853
S''
asbasbasbag57
(g73
g59
NtRp4854
(dp4855
g62
(dp4856
sg71
g4807
sg64
(lp4857
g57
(g78
g59
NtRp4858
(dp4859
g62
(dp4860
g82
g83
ssg71
g4854
sg64
(lp4861
S'keywords'
p4862
asbag57
(g78
g59
NtRp4863
(dp4864
g62
(dp4865
g89
g90
ssg71
g4854
sg64
(lp4866
S':'
asbag57
(g78
g59
NtRp4867
(dp4868
g62
(dp4869
sg71
g4854
sg64
(lp4870
g57
(g58
g59
NtRp4871
(dp4872
g62
(dp4873
g70
I4
ssg71
g4867
sg64
(lp4874
S''
asbasbasbasbasbasbasbag57
(g73
g59
NtRp4875
(dp4876
g62
(dp4877
sg71
g3912
sg64
(lp4878
g57
(g78
g59
NtRp4879
(dp4880
g62
(dp4881
g82
g83
ssg71
g4875
sg64
(lp4882
S'models_to_run'
p4883
asbag57
(g78
g59
NtRp4884
(dp4885
g62
(dp4886
g89
g90
ssg71
g4875
sg64
(lp4887
S':'
asbag57
(g78
g59
NtRp4888
(dp4889
g62
(dp4890
sg71
g4875
sg64
(lp4891
g57
(g58
g59
NtRp4892
(dp4893
g62
(dp4894
g70
I5
ssg71
g4888
sg64
(lp4895
g57
(g66
g59
NtRp4896
(dp4897
g62
(dp4898
g70
I4
ssg71
Nsg64
(lp4899
g57
(g73
g59
NtRp4900
(dp4901
g62
(dp4902
sg71
g4896
sg64
(lp4903
g57
(g78
g59
NtRp4904
(dp4905
g62
(dp4906
sg71
g4900
sg64
(lp4907
g57
(g58
g59
NtRp4908
(dp4909
g62
(dp4910
g70
I4
ssg71
g4904
sg64
(lp4911
S'^\\w+\\.py$'
p4912
asbasbasbag57
(g73
g59
NtRp4913
(dp4914
g62
(dp4915
sg71
g4896
sg64
(lp4916
g57
(g78
g59
NtRp4917
(dp4918
g62
(dp4919
sg71
g4913
sg64
(lp4920
g57
(g58
g59
NtRp4921
(dp4922
g62
(dp4923
g70
I4
ssg71
g4917
sg64
(lp4924
S'^default/\\w+\\.py$'
p4925
asbasbasbag57
(g73
g59
NtRp4926
(dp4927
g62
(dp4928
sg71
g4896
sg64
(lp4929
g57
(g78
g59
NtRp4930
(dp4931
g62
(dp4932
sg71
g4926
sg64
(lp4933
g57
(g58
g59
NtRp4934
(dp4935
g62
(dp4936
g70
I4
ssg71
g4930
sg64
(lp4937
S'^default/markcom/\\w+\\.py$'
p4938
asbasbasbasbasbasbasbag57
(g73
g59
NtRp4939
(dp4940
g62
(dp4941
sg71
g3912
sg64
(lp4942
g57
(g78
g59
NtRp4943
(dp4944
g62
(dp4945
g82
g83
ssg71
g4939
sg64
(lp4946
S'postprocessing'
p4947
asbag57
(g78
g59
NtRp4948
(dp4949
g62
(dp4950
g89
g90
ssg71
g4939
sg64
(lp4951
S':'
asbag57
(g78
g59
NtRp4952
(dp4953
g62
(dp4954
sg71
g4939
sg64
(lp4955
g57
(g58
g59
NtRp4956
(dp4957
g62
(dp4958
g70
I5
ssg71
g4952
sg64
(lp4959
g57
(g66
g59
NtRp4960
(dp4961
g62
(dp4962
g70
I4
ssg71
Nsg64
(lp4963
sbasbasbasbag57
(g73
g59
NtRp4964
(dp4965
g62
(dp4966
sg71
g3912
sg64
(lp4967
g57
(g78
g59
NtRp4968
(dp4969
g62
(dp4970
g82
g83
ssg71
g4964
sg64
(lp4971
S'rooms'
p4972
asbag57
(g78
g59
NtRp4973
(dp4974
g62
(dp4975
g89
g90
ssg71
g4964
sg64
(lp4976
S':'
asbag57
(g78
g59
NtRp4977
(dp4978
g62
(dp4979
sg71
g4964
sg64
(lp4980
g57
(g58
g59
NtRp4981
(dp4982
g62
(dp4983
g70
I5
ssg71
g4977
sg64
(lp4984
g57
(g66
g59
NtRp4985
(dp4986
g62
(dp4987
g70
I4
ssg71
Nsg64
(lp4988
g57
(g73
g59
NtRp4989
(dp4990
g62
(dp4991
sg71
g4985
sg64
(lp4992
g57
(g78
g59
NtRp4993
(dp4994
g62
(dp4995
sg71
g4989
sg64
(lp4996
g57
(g58
g59
NtRp4997
(dp4998
g62
(dp4999
g70
I4
ssg71
g4993
sg64
(lp5000
g57
(g66
g59
NtRp5001
(dp5002
g62
(dp5003
g70
I3
ssg71
Nsg64
(lp5004
g57
(g73
g59
NtRp5005
(dp5006
g62
(dp5007
sg71
g5001
sg64
(lp5008
g57
(g78
g59
NtRp5009
(dp5010
g62
(dp5011
sg71
g5005
sg64
(lp5012
g57
(g58
g59
NtRp5013
(dp5014
g62
(dp5015
g70
I3
ssg71
g5009
sg64
(lp5016
g3990
(S's\x0c\x00\x00\x00Room Vacancy'
tRp5017
asbasbasbag57
(g73
g59
NtRp5018
(dp5019
g62
(dp5020
sg71
g5001
sg64
(lp5021
g57
(g78
g59
NtRp5022
(dp5023
g62
(dp5024
sg71
g5018
sg64
(lp5025
g57
(g58
g59
NtRp5026
(dp5027
g62
(dp5028
g70
I3
ssg71
g5022
sg64
(lp5029
g100
asbasbasbag57
(g73
g59
NtRp5030
(dp5031
g62
(dp5032
sg71
g5001
sg64
(lp5033
g57
(g78
g59
NtRp5034
(dp5035
g62
(dp5036
sg71
g5030
sg64
(lp5037
g57
(g58
g59
NtRp5038
(dp5039
g62
(dp5040
g70
I3
ssg71
g5034
sg64
(lp5041
S'/sss/default/view_vacant_rooms'
p5042
asbasbasbag57
(g73
g59
NtRp5043
(dp5044
g62
(dp5045
sg71
g5001
sg64
(lp5046
g57
(g78
g59
NtRp5047
(dp5048
g62
(dp5049
sg71
g5043
sg64
(lp5050
g57
(g58
g59
NtRp5051
(dp5052
g62
(dp5053
g70
I3
ssg71
g5047
sg64
(lp5054
g57
(g66
g59
NtRp5055
(dp5056
g62
(dp5057
g70
I2
ssg71
Nsg64
(lp5058
sbasbasbasbasbasbasbasbasbasbasbasbag57
(g73
g59
NtRp5059
(dp5060
g62
(dp5061
sg71
g3912
sg64
(lp5062
g57
(g78
g59
NtRp5063
(dp5064
g62
(dp5065
g82
g83
ssg71
g5059
sg64
(lp5066
S'search'
p5067
asbag57
(g78
g59
NtRp5068
(dp5069
g62
(dp5070
g89
g90
ssg71
g5059
sg64
(lp5071
S':'
asbag57
(g78
g59
NtRp5072
(dp5073
g62
(dp5074
sg71
g5059
sg64
(lp5075
g57
(g58
g59
NtRp5076
(dp5077
g62
(dp5078
g70
I5
ssg71
g5072
sg64
(lp5079
g57
(g66
g59
NtRp5080
(dp5081
g62
(dp5082
g70
I4
ssg71
Nsg64
(lp5083
g57
(g73
g59
NtRp5084
(dp5085
g62
(dp5086
sg71
g5080
sg64
(lp5087
g57
(g78
g59
NtRp5088
(dp5089
g62
(dp5090
sg71
g5084
sg64
(lp5091
g57
(g58
g59
NtRp5092
(dp5093
g62
(dp5094
g70
I4
ssg71
g5088
sg64
(lp5095
g57
(g66
g59
NtRp5096
(dp5097
g62
(dp5098
g70
I3
ssg71
Nsg64
(lp5099
g57
(g73
g59
NtRp5100
(dp5101
g62
(dp5102
sg71
g5096
sg64
(lp5103
g57
(g78
g59
NtRp5104
(dp5105
g62
(dp5106
sg71
g5100
sg64
(lp5107
g57
(g58
g59
NtRp5108
(dp5109
g62
(dp5110
g70
I3
ssg71
g5104
sg64
(lp5111
g3990
(S't\x06\x00\x00\x00SEARCH'
tRp5112
asbasbasbag57
(g73
g59
NtRp5113
(dp5114
g62
(dp5115
sg71
g5096
sg64
(lp5116
g57
(g78
g59
NtRp5117
(dp5118
g62
(dp5119
sg71
g5113
sg64
(lp5120
g57
(g58
g59
NtRp5121
(dp5122
g62
(dp5123
g70
I3
ssg71
g5117
sg64
(lp5124
g100
asbasbasbag57
(g73
g59
NtRp5125
(dp5126
g62
(dp5127
sg71
g5096
sg64
(lp5128
g57
(g78
g59
NtRp5129
(dp5130
g62
(dp5131
sg71
g5125
sg64
(lp5132
g57
(g58
g59
NtRp5133
(dp5134
g62
(dp5135
g70
I3
ssg71
g5129
sg64
(lp5136
S'/sss/default/search'
p5137
asbasbasbag57
(g73
g59
NtRp5138
(dp5139
g62
(dp5140
sg71
g5096
sg64
(lp5141
g57
(g78
g59
NtRp5142
(dp5143
g62
(dp5144
sg71
g5138
sg64
(lp5145
g57
(g58
g59
NtRp5146
(dp5147
g62
(dp5148
g70
I3
ssg71
g5142
sg64
(lp5149
g57
(g66
g59
NtRp5150
(dp5151
g62
(dp5152
g70
I2
ssg71
Nsg64
(lp5153
sbasbasbasbasbasbasbasbasbasbasbasbag57
(g73
g59
NtRp5154
(dp5155
g62
(dp5156
sg71
g3912
sg64
(lp5157
g57
(g78
g59
NtRp5158
(dp5159
g62
(dp5160
g82
g83
ssg71
g5154
sg64
(lp5161
S'session_cookie_expires'
p5162
asbag57
(g78
g59
NtRp5163
(dp5164
g62
(dp5165
g89
g90
ssg71
g5154
sg64
(lp5166
S':'
asbag57
(g78
g59
NtRp5167
(dp5168
g62
(dp5169
sg71
g5154
sg64
(lp5170
g57
(g58
g59
NtRp5171
(dp5172
g62
(dp5173
g70
I5
ssg71
g5167
sg64
(lp5174
S'None'
p5175
asbasbasbag57
(g73
g59
NtRp5176
(dp5177
g62
(dp5178
sg71
g3912
sg64
(lp5179
g57
(g78
g59
NtRp5180
(dp5181
g62
(dp5182
g82
g83
ssg71
g5176
sg64
(lp5183
S'session_data_name'
p5184
asbag57
(g78
g59
NtRp5185
(dp5186
g62
(dp5187
g89
g90
ssg71
g5176
sg64
(lp5188
S':'
asbag57
(g78
g59
NtRp5189
(dp5190
g62
(dp5191
sg71
g5176
sg64
(lp5192
g57
(g58
g59
NtRp5193
(dp5194
g62
(dp5195
g70
I5
ssg71
g5189
sg64
(lp5196
S'session_data_sss'
p5197
asbasbasbag57
(g73
g59
NtRp5198
(dp5199
g62
(dp5200
sg71
g3912
sg64
(lp5201
g57
(g78
g59
NtRp5202
(dp5203
g62
(dp5204
g82
g83
ssg71
g5198
sg64
(lp5205
S'session_file'
p5206
asbag57
(g78
g59
NtRp5207
(dp5208
g62
(dp5209
g89
g90
ssg71
g5198
sg64
(lp5210
S':'
asbag57
(g78
g59
NtRp5211
(dp5212
g62
(dp5213
sg71
g5198
sg64
(lp5214
g57
(g58
g59
NtRp5215
(dp5216
g62
(dp5217
g70
I5
ssg71
g5211
sg64
(lp5218
S"<open file '/home/bhanu/web2py/applications/sss/sessions/127.0.0.1-3710a024-f9d4-48b6-82d8-76e05ad14bc4', mode 'rb+' at 0x7fe9e04c1ae0>"
p5219
asbasbasbag57
(g73
g59
NtRp5220
(dp5221
g62
(dp5222
sg71
g3912
sg64
(lp5223
g57
(g78
g59
NtRp5224
(dp5225
g62
(dp5226
g82
g83
ssg71
g5220
sg64
(lp5227
S'session_filename'
p5228
asbag57
(g78
g59
NtRp5229
(dp5230
g62
(dp5231
g89
g90
ssg71
g5220
sg64
(lp5232
S':'
asbag57
(g78
g59
NtRp5233
(dp5234
g62
(dp5235
sg71
g5220
sg64
(lp5236
g57
(g58
g59
NtRp5237
(dp5238
g62
(dp5239
g70
I5
ssg71
g5233
sg64
(lp5240
S'/home/bhanu/web2py/applications/sss/sessions/127.0.0.1-3710a024-f9d4-48b6-82d8-76e05ad14bc4'
p5241
asbasbasbag57
(g73
g59
NtRp5242
(dp5243
g62
(dp5244
sg71
g3912
sg64
(lp5245
g57
(g78
g59
NtRp5246
(dp5247
g62
(dp5248
g82
g83
ssg71
g5242
sg64
(lp5249
S'session_id'
p5250
asbag57
(g78
g59
NtRp5251
(dp5252
g62
(dp5253
g89
g90
ssg71
g5242
sg64
(lp5254
S':'
asbag57
(g78
g59
NtRp5255
(dp5256
g62
(dp5257
sg71
g5242
sg64
(lp5258
g57
(g58
g59
NtRp5259
(dp5260
g62
(dp5261
g70
I5
ssg71
g5255
sg64
(lp5262
g847
asbasbasbag57
(g73
g59
NtRp5263
(dp5264
g62
(dp5265
sg71
g3912
sg64
(lp5266
g57
(g78
g59
NtRp5267
(dp5268
g62
(dp5269
g82
g83
ssg71
g5263
sg64
(lp5270
S'session_id_name'
p5271
asbag57
(g78
g59
NtRp5272
(dp5273
g62
(dp5274
g89
g90
ssg71
g5263
sg64
(lp5275
S':'
asbag57
(g78
g59
NtRp5276
(dp5277
g62
(dp5278
sg71
g5263
sg64
(lp5279
g57
(g58
g59
NtRp5280
(dp5281
g62
(dp5282
g70
I5
ssg71
g5276
sg64
(lp5283
g4065
asbasbasbag57
(g73
g59
NtRp5284
(dp5285
g62
(dp5286
sg71
g3912
sg64
(lp5287
g57
(g78
g59
NtRp5288
(dp5289
g62
(dp5290
g82
g83
ssg71
g5284
sg64
(lp5291
S'session_locked'
p5292
asbag57
(g78
g59
NtRp5293
(dp5294
g62
(dp5295
g89
g90
ssg71
g5284
sg64
(lp5296
S':'
asbag57
(g78
g59
NtRp5297
(dp5298
g62
(dp5299
sg71
g5284
sg64
(lp5300
g57
(g58
g59
NtRp5301
(dp5302
g62
(dp5303
g70
I5
ssg71
g5297
sg64
(lp5304
g2142
asbasbasbag57
(g73
g59
NtRp5305
(dp5306
g62
(dp5307
sg71
g3912
sg64
(lp5308
g57
(g78
g59
NtRp5309
(dp5310
g62
(dp5311
g82
g83
ssg71
g5305
sg64
(lp5312
S'session_new'
p5313
asbag57
(g78
g59
NtRp5314
(dp5315
g62
(dp5316
g89
g90
ssg71
g5305
sg64
(lp5317
S':'
asbag57
(g78
g59
NtRp5318
(dp5319
g62
(dp5320
sg71
g5305
sg64
(lp5321
g57
(g58
g59
NtRp5322
(dp5323
g62
(dp5324
g70
I5
ssg71
g5318
sg64
(lp5325
g100
asbasbasbag57
(g73
g59
NtRp5326
(dp5327
g62
(dp5328
sg71
g3912
sg64
(lp5329
g57
(g78
g59
NtRp5330
(dp5331
g62
(dp5332
g82
g83
ssg71
g5326
sg64
(lp5333
S'session_storage_type'
p5334
asbag57
(g78
g59
NtRp5335
(dp5336
g62
(dp5337
g89
g90
ssg71
g5326
sg64
(lp5338
S':'
asbag57
(g78
g59
NtRp5339
(dp5340
g62
(dp5341
sg71
g5326
sg64
(lp5342
g57
(g58
g59
NtRp5343
(dp5344
g62
(dp5345
g70
I5
ssg71
g5339
sg64
(lp5346
g3672
asbasbasbag57
(g73
g59
NtRp5347
(dp5348
g62
(dp5349
sg71
g3912
sg64
(lp5350
g57
(g78
g59
NtRp5351
(dp5352
g62
(dp5353
g82
g83
ssg71
g5347
sg64
(lp5354
S'status'
p5355
asbag57
(g78
g59
NtRp5356
(dp5357
g62
(dp5358
g89
g90
ssg71
g5347
sg64
(lp5359
S':'
asbag57
(g78
g59
NtRp5360
(dp5361
g62
(dp5362
sg71
g5347
sg64
(lp5363
g57
(g58
g59
NtRp5364
(dp5365
g62
(dp5366
g70
I5
ssg71
g5360
sg64
(lp5367
S'200'
p5368
asbasbasbag57
(g73
g59
NtRp5369
(dp5370
g62
(dp5371
sg71
g3912
sg64
(lp5372
g57
(g78
g59
NtRp5373
(dp5374
g62
(dp5375
g82
g83
ssg71
g5369
sg64
(lp5376
S'student'
p5377
asbag57
(g78
g59
NtRp5378
(dp5379
g62
(dp5380
g89
g90
ssg71
g5369
sg64
(lp5381
S':'
asbag57
(g78
g59
NtRp5382
(dp5383
g62
(dp5384
sg71
g5369
sg64
(lp5385
g57
(g58
g59
NtRp5386
(dp5387
g62
(dp5388
g70
I5
ssg71
g5382
sg64
(lp5389
g57
(g66
g59
NtRp5390
(dp5391
g62
(dp5392
g70
I4
ssg71
Nsg64
(lp5393
g57
(g73
g59
NtRp5394
(dp5395
g62
(dp5396
sg71
g5390
sg64
(lp5397
g57
(g78
g59
NtRp5398
(dp5399
g62
(dp5400
sg71
g5394
sg64
(lp5401
g57
(g58
g59
NtRp5402
(dp5403
g62
(dp5404
g70
I4
ssg71
g5398
sg64
(lp5405
g57
(g66
g59
NtRp5406
(dp5407
g62
(dp5408
g70
I3
ssg71
Nsg64
(lp5409
g57
(g73
g59
NtRp5410
(dp5411
g62
(dp5412
sg71
g5406
sg64
(lp5413
g57
(g78
g59
NtRp5414
(dp5415
g62
(dp5416
sg71
g5410
sg64
(lp5417
g57
(g58
g59
NtRp5418
(dp5419
g62
(dp5420
g70
I3
ssg71
g5414
sg64
(lp5421
g4744
asbasbasbag57
(g73
g59
NtRp5422
(dp5423
g62
(dp5424
sg71
g5406
sg64
(lp5425
g57
(g78
g59
NtRp5426
(dp5427
g62
(dp5428
sg71
g5422
sg64
(lp5429
g57
(g58
g59
NtRp5430
(dp5431
g62
(dp5432
g70
I3
ssg71
g5426
sg64
(lp5433
g100
asbasbasbag57
(g73
g59
NtRp5434
(dp5435
g62
(dp5436
sg71
g5406
sg64
(lp5437
g57
(g78
g59
NtRp5438
(dp5439
g62
(dp5440
sg71
g5434
sg64
(lp5441
g57
(g58
g59
NtRp5442
(dp5443
g62
(dp5444
g70
I3
ssg71
g5438
sg64
(lp5445
g4769
asbasbasbag57
(g73
g59
NtRp5446
(dp5447
g62
(dp5448
sg71
g5406
sg64
(lp5449
g57
(g78
g59
NtRp5450
(dp5451
g62
(dp5452
sg71
g5446
sg64
(lp5453
g57
(g58
g59
NtRp5454
(dp5455
g62
(dp5456
g70
I3
ssg71
g5450
sg64
(lp5457
g57
(g66
g59
NtRp5458
(dp5459
g62
(dp5460
g70
I2
ssg71
Nsg64
(lp5461
sbasbasbasbasbasbasbasbag57
(g73
g59
NtRp5462
(dp5463
g62
(dp5464
sg71
g5390
sg64
(lp5465
g57
(g78
g59
NtRp5466
(dp5467
g62
(dp5468
sg71
g5462
sg64
(lp5469
g57
(g58
g59
NtRp5470
(dp5471
g62
(dp5472
g70
I4
ssg71
g5466
sg64
(lp5473
g57
(g66
g59
NtRp5474
(dp5475
g62
(dp5476
g70
I3
ssg71
Nsg64
(lp5477
g57
(g73
g59
NtRp5478
(dp5479
g62
(dp5480
sg71
g5474
sg64
(lp5481
g57
(g78
g59
NtRp5482
(dp5483
g62
(dp5484
sg71
g5478
sg64
(lp5485
g57
(g58
g59
NtRp5486
(dp5487
g62
(dp5488
g70
I3
ssg71
g5482
sg64
(lp5489
g3991
asbasbasbag57
(g73
g59
NtRp5490
(dp5491
g62
(dp5492
sg71
g5474
sg64
(lp5493
g57
(g78
g59
NtRp5494
(dp5495
g62
(dp5496
sg71
g5490
sg64
(lp5497
g57
(g58
g59
NtRp5498
(dp5499
g62
(dp5500
g70
I3
ssg71
g5494
sg64
(lp5501
g100
asbasbasbag57
(g73
g59
NtRp5502
(dp5503
g62
(dp5504
sg71
g5474
sg64
(lp5505
g57
(g78
g59
NtRp5506
(dp5507
g62
(dp5508
sg71
g5502
sg64
(lp5509
g57
(g58
g59
NtRp5510
(dp5511
g62
(dp5512
g70
I3
ssg71
g5506
sg64
(lp5513
g4016
asbasbasbag57
(g73
g59
NtRp5514
(dp5515
g62
(dp5516
sg71
g5474
sg64
(lp5517
g57
(g78
g59
NtRp5518
(dp5519
g62
(dp5520
sg71
g5514
sg64
(lp5521
g57
(g58
g59
NtRp5522
(dp5523
g62
(dp5524
g70
I3
ssg71
g5518
sg64
(lp5525
g57
(g66
g59
NtRp5526
(dp5527
g62
(dp5528
g70
I2
ssg71
Nsg64
(lp5529
sbasbasbasbasbasbasbasbag57
(g73
g59
NtRp5530
(dp5531
g62
(dp5532
sg71
g5390
sg64
(lp5533
g57
(g78
g59
NtRp5534
(dp5535
g62
(dp5536
sg71
g5530
sg64
(lp5537
g57
(g58
g59
NtRp5538
(dp5539
g62
(dp5540
g70
I4
ssg71
g5534
sg64
(lp5541
g57
(g66
g59
NtRp5542
(dp5543
g62
(dp5544
g70
I3
ssg71
Nsg64
(lp5545
g57
(g73
g59
NtRp5546
(dp5547
g62
(dp5548
sg71
g5542
sg64
(lp5549
g57
(g78
g59
NtRp5550
(dp5551
g62
(dp5552
sg71
g5546
sg64
(lp5553
g57
(g58
g59
NtRp5554
(dp5555
g62
(dp5556
g70
I3
ssg71
g5550
sg64
(lp5557
g5017
asbasbasbag57
(g73
g59
NtRp5558
(dp5559
g62
(dp5560
sg71
g5542
sg64
(lp5561
g57
(g78
g59
NtRp5562
(dp5563
g62
(dp5564
sg71
g5558
sg64
(lp5565
g57
(g58
g59
NtRp5566
(dp5567
g62
(dp5568
g70
I3
ssg71
g5562
sg64
(lp5569
g100
asbasbasbag57
(g73
g59
NtRp5570
(dp5571
g62
(dp5572
sg71
g5542
sg64
(lp5573
g57
(g78
g59
NtRp5574
(dp5575
g62
(dp5576
sg71
g5570
sg64
(lp5577
g57
(g58
g59
NtRp5578
(dp5579
g62
(dp5580
g70
I3
ssg71
g5574
sg64
(lp5581
g5042
asbasbasbag57
(g73
g59
NtRp5582
(dp5583
g62
(dp5584
sg71
g5542
sg64
(lp5585
g57
(g78
g59
NtRp5586
(dp5587
g62
(dp5588
sg71
g5582
sg64
(lp5589
g57
(g58
g59
NtRp5590
(dp5591
g62
(dp5592
g70
I3
ssg71
g5586
sg64
(lp5593
g57
(g66
g59
NtRp5594
(dp5595
g62
(dp5596
g70
I2
ssg71
Nsg64
(lp5597
sbasbasbasbasbasbasbasbasbasbasbasbag57
(g73
g59
NtRp5598
(dp5599
g62
(dp5600
sg71
g3912
sg64
(lp5601
g57
(g78
g59
NtRp5602
(dp5603
g62
(dp5604
g82
g83
ssg71
g5598
sg64
(lp5605
S'student_out_details'
p5606
asbag57
(g78
g59
NtRp5607
(dp5608
g62
(dp5609
g89
g90
ssg71
g5598
sg64
(lp5610
S':'
asbag57
(g78
g59
NtRp5611
(dp5612
g62
(dp5613
sg71
g5598
sg64
(lp5614
g57
(g58
g59
NtRp5615
(dp5616
g62
(dp5617
g70
I5
ssg71
g5611
sg64
(lp5618
g57
(g66
g59
NtRp5619
(dp5620
g62
(dp5621
g70
I4
ssg71
Nsg64
(lp5622
g57
(g73
g59
NtRp5623
(dp5624
g62
(dp5625
sg71
g5619
sg64
(lp5626
g57
(g78
g59
NtRp5627
(dp5628
g62
(dp5629
sg71
g5623
sg64
(lp5630
g57
(g58
g59
NtRp5631
(dp5632
g62
(dp5633
g70
I4
ssg71
g5627
sg64
(lp5634
g57
(g66
g59
NtRp5635
(dp5636
g62
(dp5637
g70
I3
ssg71
Nsg64
(lp5638
g57
(g73
g59
NtRp5639
(dp5640
g62
(dp5641
sg71
g5635
sg64
(lp5642
g57
(g78
g59
NtRp5643
(dp5644
g62
(dp5645
sg71
g5639
sg64
(lp5646
g57
(g58
g59
NtRp5647
(dp5648
g62
(dp5649
g70
I3
ssg71
g5643
sg64
(lp5650
g3990
(S's\x0e\x00\x00\x00Outing Details'
tRp5651
asbasbasbag57
(g73
g59
NtRp5652
(dp5653
g62
(dp5654
sg71
g5635
sg64
(lp5655
g57
(g78
g59
NtRp5656
(dp5657
g62
(dp5658
sg71
g5652
sg64
(lp5659
g57
(g58
g59
NtRp5660
(dp5661
g62
(dp5662
g70
I3
ssg71
g5656
sg64
(lp5663
g100
asbasbasbag57
(g73
g59
NtRp5664
(dp5665
g62
(dp5666
sg71
g5635
sg64
(lp5667
g57
(g78
g59
NtRp5668
(dp5669
g62
(dp5670
sg71
g5664
sg64
(lp5671
g57
(g58
g59
NtRp5672
(dp5673
g62
(dp5674
g70
I3
ssg71
g5668
sg64
(lp5675
S'/sss/default/student_out_details'
p5676
asbasbasbag57
(g73
g59
NtRp5677
(dp5678
g62
(dp5679
sg71
g5635
sg64
(lp5680
g57
(g78
g59
NtRp5681
(dp5682
g62
(dp5683
sg71
g5677
sg64
(lp5684
g57
(g58
g59
NtRp5685
(dp5686
g62
(dp5687
g70
I3
ssg71
g5681
sg64
(lp5688
g57
(g66
g59
NtRp5689
(dp5690
g62
(dp5691
g70
I2
ssg71
Nsg64
(lp5692
sbasbasbasbasbasbasbasbasbasbasbasbag57
(g73
g59
NtRp5693
(dp5694
g62
(dp5695
sg71
g3912
sg64
(lp5696
g57
(g78
g59
NtRp5697
(dp5698
g62
(dp5699
g82
g83
ssg71
g5693
sg64
(lp5700
S'subtitle'
p5701
asbag57
(g78
g59
NtRp5702
(dp5703
g62
(dp5704
g89
g90
ssg71
g5693
sg64
(lp5705
S':'
asbag57
(g78
g59
NtRp5706
(dp5707
g62
(dp5708
sg71
g5693
sg64
(lp5709
g57
(g58
g59
NtRp5710
(dp5711
g62
(dp5712
g70
I5
ssg71
g5706
sg64
(lp5713
S'powered by web2py'
p5714
asbasbasbag57
(g73
g59
NtRp5715
(dp5716
g62
(dp5717
sg71
g3912
sg64
(lp5718
g57
(g78
g59
NtRp5719
(dp5720
g62
(dp5721
g82
g83
ssg71
g5715
sg64
(lp5722
S'title'
p5723
asbag57
(g78
g59
NtRp5724
(dp5725
g62
(dp5726
g89
g90
ssg71
g5715
sg64
(lp5727
S':'
asbag57
(g78
g59
NtRp5728
(dp5729
g62
(dp5730
sg71
g5715
sg64
(lp5731
g57
(g58
g59
NtRp5732
(dp5733
g62
(dp5734
g70
I5
ssg71
g5728
sg64
(lp5735
S'IIIT-H Hostel Management Portal'
p5736
asbasbasbag57
(g73
g59
NtRp5737
(dp5738
g62
(dp5739
sg71
g3912
sg64
(lp5740
g57
(g78
g59
NtRp5741
(dp5742
g62
(dp5743
g82
g83
ssg71
g5737
sg64
(lp5744
S'vcomplaint'
p5745
asbag57
(g78
g59
NtRp5746
(dp5747
g62
(dp5748
g89
g90
ssg71
g5737
sg64
(lp5749
S':'
asbag57
(g78
g59
NtRp5750
(dp5751
g62
(dp5752
sg71
g5737
sg64
(lp5753
g57
(g58
g59
NtRp5754
(dp5755
g62
(dp5756
g70
I5
ssg71
g5750
sg64
(lp5757
g57
(g66
g59
NtRp5758
(dp5759
g62
(dp5760
g70
I4
ssg71
Nsg64
(lp5761
g57
(g73
g59
NtRp5762
(dp5763
g62
(dp5764
sg71
g5758
sg64
(lp5765
g57
(g78
g59
NtRp5766
(dp5767
g62
(dp5768
sg71
g5762
sg64
(lp5769
g57
(g58
g59
NtRp5770
(dp5771
g62
(dp5772
g70
I4
ssg71
g5766
sg64
(lp5773
g57
(g66
g59
NtRp5774
(dp5775
g62
(dp5776
g70
I3
ssg71
Nsg64
(lp5777
g57
(g73
g59
NtRp5778
(dp5779
g62
(dp5780
sg71
g5774
sg64
(lp5781
g57
(g78
g59
NtRp5782
(dp5783
g62
(dp5784
sg71
g5778
sg64
(lp5785
g57
(g58
g59
NtRp5786
(dp5787
g62
(dp5788
g70
I3
ssg71
g5782
sg64
(lp5789
g3990
(S's\x0f\x00\x00\x00View Complaints'
tRp5790
asbasbasbag57
(g73
g59
NtRp5791
(dp5792
g62
(dp5793
sg71
g5774
sg64
(lp5794
g57
(g78
g59
NtRp5795
(dp5796
g62
(dp5797
sg71
g5791
sg64
(lp5798
g57
(g58
g59
NtRp5799
(dp5800
g62
(dp5801
g70
I3
ssg71
g5795
sg64
(lp5802
g100
asbasbasbag57
(g73
g59
NtRp5803
(dp5804
g62
(dp5805
sg71
g5774
sg64
(lp5806
g57
(g78
g59
NtRp5807
(dp5808
g62
(dp5809
sg71
g5803
sg64
(lp5810
g57
(g58
g59
NtRp5811
(dp5812
g62
(dp5813
g70
I3
ssg71
g5807
sg64
(lp5814
S'/sss/default/vcomplaint'
p5815
asbasbasbag57
(g73
g59
NtRp5816
(dp5817
g62
(dp5818
sg71
g5774
sg64
(lp5819
g57
(g78
g59
NtRp5820
(dp5821
g62
(dp5822
sg71
g5816
sg64
(lp5823
g57
(g58
g59
NtRp5824
(dp5825
g62
(dp5826
g70
I3
ssg71
g5820
sg64
(lp5827
g57
(g66
g59
NtRp5828
(dp5829
g62
(dp5830
g70
I2
ssg71
Nsg64
(lp5831
sbasbasbasbasbasbasbasbasbasbasbasbag57
(g73
g59
NtRp5832
(dp5833
g62
(dp5834
sg71
g3912
sg64
(lp5835
g57
(g78
g59
NtRp5836
(dp5837
g62
(dp5838
g82
g83
ssg71
g5832
sg64
(lp5839
S'view'
p5840
asbag57
(g78
g59
NtRp5841
(dp5842
g62
(dp5843
g89
g90
ssg71
g5832
sg64
(lp5844
S':'
asbag57
(g78
g59
NtRp5845
(dp5846
g62
(dp5847
sg71
g5832
sg64
(lp5848
g57
(g58
g59
NtRp5849
(dp5850
g62
(dp5851
g70
I5
ssg71
g5845
sg64
(lp5852
S'default/markcom.html'
p5853
asbasbasbasbasbsS'locals'
p5854
(dp5855
S'Service'
p5856
S"<class 'gluon.tools.Service'>"
p5857
sS'OBJECT'
p5858
S"<class 'gluon.html.OBJECT'>"
p5859
sS'SQLDB'
p5860
S"<class 'gluon.dal.DAL'>"
p5861
sg3721
S"<Storage {'last_query': 'db.poll.id>0', 'name': ...c7191df07550aebb8c5860', 'roll_no': '201102082'}>"
p5862
sS'LINK'
p5863
S"<class 'gluon.html.LINK'>"
p5864
sS'BR'
p5865
S"<class 'gluon.html.BR'>"
p5866
sS'local_import'
p5867
S'<function <lambda>>'
p5868
sS'OPTGROUP'
p5869
S"<class 'gluon.html.OPTGROUP'>"
p5870
sS'__package__'
p5871
S'None'
p5872
sS'PRE'
p5873
S"<class 'gluon.html.PRE'>"
p5874
sS'IS_INT_IN_RANGE'
p5875
S"<class 'gluon.validators.IS_INT_IN_RANGE'>"
p5876
sS'_CAS_logout'
p5877
S'<function _CAS_logout>'
p5878
sS'IS_LOWER'
p5879
S"<class 'gluon.validators.IS_LOWER'>"
p5880
sS'IS_STRONG'
p5881
S"<class 'gluon.validators.IS_STRONG'>"
p5882
sS'cache'
p5883
S'<gluon.cache.Cache object>'
p5884
sS'IS_IN_DB'
p5885
S"<class 'gluon.validators.IS_IN_DB'>"
p5886
sS'TAG'
p5887
S'<gluon.html.__TAG__ object>'
p5888
sS'SQLField'
p5889
S"<class 'gluon.dal.Field'>"
p5890
sS'mail'
p5891
S'<gluon.tools.Mail object>'
p5892
sS'BODY'
p5893
S"<class 'gluon.html.BODY'>"
p5894
sS'IS_DATE_IN_RANGE'
p5895
S"<class 'gluon.validators.IS_DATE_IN_RANGE'>"
p5896
sS'IFRAME'
p5897
S"<class 'gluon.html.IFRAME'>"
p5898
sS'URL'
p5899
S'<function URL>'
p5900
sS'__file__'
p5901
S"'/home/bhanu/web2py/applications/sss/views/generic.html'"
p5902
sS'db'
p5903
S'<DAL uri="sqlite://storage.sqlite">'
p5904
sS'auth'
p5905
S'<gluon.tools.Auth object>'
p5906
sS'P'
S"<class 'gluon.html.P'>"
p5907
sS'TFOOT'
p5908
S"<class 'gluon.html.TFOOT'>"
p5909
sS'XHTML'
p5910
S"<class 'gluon.html.XHTML'>"
p5911
sS'ON'
p5912
g2142
sS'OL'
p5913
S"<class 'gluon.html.OL'>"
p5914
sS'TEXTAREA'
p5915
S"<class 'gluon.html.TEXTAREA'>"
p5916
sS'settings'
p5917
S"<Storage {'layout_theme': 'Default', 'subtitle':...l_server': 'localhost', 'login_method': 'local'}>"
p5918
sS'MENU'
p5919
S"<class 'gluon.html.MENU'>"
p5920
sS'IS_IMAGE'
p5921
S"<class 'gluon.validators.IS_IMAGE'>"
p5922
sS'EM'
p5923
S"<class 'gluon.html.EM'>"
p5924
sS'CODE'
p5925
S"<class 'gluon.html.CODE'>"
p5926
sS'HTTP'
p5927
S"<class 'gluon.http.HTTP'>"
p5928
sS'HR'
p5929
S"<class 'gluon.html.HR'>"
p5930
sS'IS_DATETIME'
p5931
S"<class 'gluon.validators.IS_DATETIME'>"
p5932
sS'Storage'
p5933
S"<class 'gluon.storage.Storage'>"
p5934
sS'STYLE'
p5935
S"<class 'gluon.html.STYLE'>"
p5936
sS'LABEL'
p5937
S"<class 'gluon.html.LABEL'>"
p5938
sS'CLEANUP'
p5939
S"<class 'gluon.validators.CLEANUP'>"
p5940
sS'plugins'
p5941
S'<gluon.tools.PluginManager object>'
p5942
sS'SELECT'
p5943
S"<class 'gluon.html.SELECT'>"
p5944
sS'use_janrain'
p5945
S'<function use_janrain>'
p5946
sS'CENTER'
p5947
S"<class 'gluon.html.CENTER'>"
p5948
sS'prettydate'
p5949
S'<function prettydate>'
p5950
sS'Crud'
p5951
S"<class 'gluon.tools.Crud'>"
p5952
sS'Auth'
p5953
S"<class 'gluon.tools.Auth'>"
p5954
sS'__builtins__'
p5955
S"{'ArithmeticError': <type 'exceptions.ArithmeticError'>, 'AssertionError': <type 'exceptions.AssertionError'>, 'AttributeError': <type 'exceptions.AttributeError'>, 'BaseException': <type 'exceptions.BaseException'>, 'BufferError': <type 'exceptions.BufferError'>, 'BytesWarning': <type 'exceptions.BytesWarning'>, 'DeprecationWarning': <type 'exceptions.DeprecationWarning'>, 'EOFError': <type 'exceptions.EOFError'>, 'Ellipsis': Ellipsis, 'EnvironmentError': <type 'exceptions.EnvironmentError'>, ...}"
p5956
sS'HTML'
p5957
S"<class 'gluon.html.HTML'>"
p5958
sS'SQLFORM'
p5959
S"<class 'gluon.sqlhtml.SQLFORM'>"
p5960
sS'LOAD'
p5961
S'<function LOAD>'
p5962
sS'redirect'
p5963
S'<function redirect>'
p5964
sS'FIELDSET'
p5965
S"<class 'gluon.html.FIELDSET'>"
p5966
sS'IS_EQUAL_TO'
p5967
S"<class 'gluon.validators.IS_EQUAL_TO'>"
p5968
sS'embed64'
p5969
S'<function embed64>'
p5970
sS'IS_LIST_OF'
p5971
S"<class 'gluon.validators.IS_LIST_OF'>"
p5972
sS'INPUT'
p5973
S"<class 'gluon.html.INPUT'>"
p5974
sS'EMBED'
p5975
S"<class 'gluon.html.EMBED'>"
p5976
sS'FORM'
p5977
S"<class 'gluon.html.FORM'>"
p5978
sS'H2'
p5979
S"<class 'gluon.html.H2'>"
p5980
sS'H3'
p5981
S"<class 'gluon.html.H3'>"
p5982
sS'BUTTON'
p5983
S"<class 'gluon.html.BUTTON'>"
p5984
sS'H1'
p5985
S"<class 'gluon.html.H1'>"
p5986
sS'H6'
p5987
S"<class 'gluon.html.H6'>"
p5988
sS'H4'
p5989
S"<class 'gluon.html.H4'>"
p5990
sS'H5'
p5991
S"<class 'gluon.html.H5'>"
p5992
sS'UL'
p5993
S"<class 'gluon.html.UL'>"
p5994
sS'IS_UPPER'
p5995
S"<class 'gluon.validators.IS_UPPER'>"
p5996
sS'xmlescape'
p5997
S'<function xmlescape>'
p5998
sS'IS_TIME'
p5999
S"<class 'gluon.validators.IS_TIME'>"
p6000
sS'OPTION'
p6001
S"<class 'gluon.html.OPTION'>"
p6002
sS'TITLE'
p6003
S"<class 'gluon.html.TITLE'>"
p6004
sS'CRYPT'
p6005
S"<class 'gluon.validators.CRYPT'>"
p6006
sS'IS_EMPTY_OR'
p6007
S"<class 'gluon.validators.IS_EMPTY_OR'>"
p6008
sS'MARKMIN'
p6009
S"<class 'gluon.html.MARKMIN'>"
p6010
sS'gluon'
p6011
S"<module 'gluon' from '/home/bhanu/web2py/gluon/__init__.pyc'>"
p6012
sS'__name__'
p6013
S"'__restricted__'"
p6014
sS'STRONG'
p6015
S"<class 'gluon.html.STRONG'>"
p6016
sS'COL'
p6017
S"<class 'gluon.html.COL'>"
p6018
sS'service'
p6019
S'<gluon.tools.Service object>'
p6020
sS'SCRIPT'
p6021
S"<class 'gluon.html.SCRIPT'>"
p6022
sS'IS_NOT_EMPTY'
p6023
S"<class 'gluon.validators.IS_NOT_EMPTY'>"
p6024
sS'TABLE'
p6025
S"<class 'gluon.html.TABLE'>"
p6026
sS'IS_IPV4'
p6027
S"<class 'gluon.validators.IS_IPV4'>"
p6028
sS'IS_LENGTH'
p6029
S"<class 'gluon.validators.IS_LENGTH'>"
p6030
sS'XML'
p6031
S"<class 'gluon.html.XML'>"
p6032
sS'B'
S"<class 'gluon.html.B'>"
p6033
sS'IMG'
p6034
S"<class 'gluon.html.IMG'>"
p6035
sS'SQLTABLE'
p6036
S"<class 'gluon.sqlhtml.SQLTABLE'>"
p6037
sS'IS_MATCH'
p6038
S"<class 'gluon.validators.IS_MATCH'>"
p6039
sS'IS_ALPHANUMERIC'
p6040
S"<class 'gluon.validators.IS_ALPHANUMERIC'>"
p6041
sS'HOST'
p6042
S"'127.0.0.1:8000'"
p6043
sS'SPAN'
p6044
S"<class 'gluon.html.SPAN'>"
p6045
sS'IS_SLUG'
p6046
S"<class 'gluon.validators.IS_SLUG'>"
p6047
sS'BEAUTIFY'
p6048
S"<class 'gluon.html.BEAUTIFY'>"
p6049
sS'META'
p6050
S"<class 'gluon.html.META'>"
p6051
sS'IS_DATE'
p6052
S"<class 'gluon.validators.IS_DATE'>"
p6053
sS'IS_EMAIL'
p6054
S"<class 'gluon.validators.IS_EMAIL'>"
p6055
sS'CAS'
p6056
S"<Storage {'check_url': 'https://login.iiit.ac.in...url': 'http://127.0.0.1:8000/sss/default/login'}>"
p6057
sS'IS_FLOAT_IN_RANGE'
p6058
S"<class 'gluon.validators.IS_FLOAT_IN_RANGE'>"
p6059
sS'TBODY'
p6060
S"<class 'gluon.html.TBODY'>"
p6061
sS'CAT'
p6062
S"<class 'gluon.html.CAT'>"
p6063
sS'Field'
p6064
S"<class 'gluon.dal.Field'>"
p6065
sS'_CAS_login'
p6066
S'<function _CAS_login>'
p6067
sS'DIV'
p6068
S"<class 'gluon.html.DIV'>"
p6069
sS'LEGEND'
p6070
S"<class 'gluon.html.LEGEND'>"
p6071
sS'COLGROUP'
p6072
S"<class 'gluon.html.COLGROUP'>"
p6073
sS'DAL'
p6074
S"<class 'gluon.dal.DAL'>"
p6075
sS'TT'
p6076
S"<class 'gluon.html.TT'>"
p6077
sS'TR'
p6078
S"<class 'gluon.html.TR'>"
p6079
sS'LI'
p6080
S"<class 'gluon.html.LI'>"
p6081
sS'TH'
p6082
S"<class 'gluon.html.TH'>"
p6083
sS'TD'
p6084
S"<class 'gluon.html.TD'>"
p6085
sS'PluginManager'
p6086
S"<class 'gluon.tools.PluginManager'>"
p6087
sS'IS_URL'
p6088
S"<class 'gluon.validators.IS_URL'>"
p6089
sS'A'
S"<class 'gluon.html.A'>"
p6090
sS'HEAD'
p6091
S"<class 'gluon.html.HEAD'>"
p6092
sS'IS_DATETIME_IN_RANGE'
p6093
S"<class 'gluon.validators.IS_DATETIME_IN_RANGE'>"
p6094
sS'populate'
p6095
S'<function populate>'
p6096
sS'I'
S"<class 'gluon.html.I'>"
p6097
sS'crud'
p6098
S'<gluon.tools.Crud object>'
p6099
sS'IS_NOT_IN_DB'
p6100
S"<class 'gluon.validators.IS_NOT_IN_DB'>"
p6101
sg3907
S"<Storage {'body': <cStringIO.StringO object at 0..._details', [])], 'view': 'default/markcom.html'}>"
p6102
sS'THEAD'
p6103
S"<class 'gluon.html.THEAD'>"
p6104
sS'IS_NULL_OR'
p6105
S"<class 'gluon.validators.IS_EMPTY_OR'>"
p6106
sg56
S"<Storage {'function': 'markcom', 'body': <cStrin...y/applications/sss/', 'post_vars': <Storage {}>}>"
p6107
sS'IS_EXPR'
p6108
S"<class 'gluon.validators.IS_EXPR'>"
p6109
sS'T'
S'<gluon.languages.translator object>'
p6110
sS'IS_IN_SET'
p6111
S"<class 'gluon.validators.IS_IN_SET'>"
p6112
sS'IS_UPLOAD_FILENAME'
p6113
S"<class 'gluon.validators.IS_UPLOAD_FILENAME'>"
p6114
sS'IS_DECIMAL_IN_RANGE'
p6115
S"<class 'gluon.validators.IS_DECIMAL_IN_RANGE'>"
p6116
sssS'traceback'
p6117
S'Traceback (most recent call last):\n  File "/home/bhanu/web2py/gluon/restricted.py", line 212, in restricted\n    exec ccode in environment\n  File "/home/bhanu/web2py/applications/sss/views/generic.html", line 36, in <module>\nNameError: name \'form\' is not defined\n'
p6118
s.