(dp1
S'output'
p2
S"<type 'exceptions.SyntaxError'> invalid syntax (regcomplaint.html, line 36)"
p3
sS'layer'
p4
S'/home/bhanu/web2py/applications/sss/views/default/regcomplaint.html'
p5
sS'code'
p6
S'response.write(\'<!DOCTYPE html PUBLIC "-//W3C//DTD XHTML 1.0 Strict//EN" "http://www.w3.org/TR/xhtml1/DTD/xhtml1-strict.dtd">\\n<!--\\n\\nDesign by Free CSS Templates\\nhttp://www.freecsstemplates.org\\nReleased for free under a Creative Commons Attribution 2.5 License\\n\\nTitle      : Interlude\\nVersion    : 1.0\\nReleased   : 20080903\\nDescription: A multi-column, fixed-width design for 800x600 resolutions.\\n\\n-->\\n<html xmlns="http://www.w3.org/1999/xhtml">\\n <head>\\n  <title>\\n   \', escape=False)\nresponse.write(response.title or request.application)\nresponse.write(\'\\n  </title>\\n  \', escape=False)\nresponse.files.append(URL(request.application,\'static\',\'plugin_layouts/layouts/Interlude/default.css\'))\nresponse.write(\'\\n  \', escape=False)\nresponse.files.append(URL(\'static\',\'plugin_layouts/superfish.js\'))\nresponse.write(\'\\n  \', escape=False)\nresponse.write(\'<script type="text/javascript"><!--\\n    // These variables are used by the web2py_ajax_init function in web2py_ajax.js (which is loaded below).\\n    var w2p_ajax_confirm_message = "\', escape=False)\nresponse.write(T(\'Are you sure you want to delete this object?\'))\nresponse.write(\'";\\n    var w2p_ajax_date_format = "\', escape=False)\nresponse.write(T(\'%Y-%m-%d\'))\nresponse.write(\'";\\n    var w2p_ajax_datetime_format = "\', escape=False)\nresponse.write(T(\'%Y-%m-%d %H:%M:%S\'))\nresponse.write(\'";\\n    //--></script>\\n\', escape=False)\nresponse.files.insert(0,URL(\'static\',\'js/jquery.js\'))\nresponse.files.insert(1,URL(\'static\',\'css/calendar.css\'))\nresponse.files.insert(2,URL(\'static\',\'js/calendar.js\'))\nresponse.files.insert(3,URL(\'static\',\'js/web2py.js\'))\nresponse.include_meta()\nresponse.include_files()\nresponse.write(\'\\n\', escape=False)\nresponse.write(\'\\n  <style>\\nul.web2py-menu-vertical { width: 150px; position: relative; top:1em; left:1em;  z-index:30; border:0; margin:0; padding: 0; list-style: none; text-decoration: none;}\\nul.web2py-menu-vertical li { margin:0; padding:0; border:0; width: 150px; background: black; text-align:left;}\\nul.web2py-menu-vertical li a { margin:0; padding: 1px 3px 1px 3px; border:0; width: 144px; color: white; font-size:12px;}\\ndiv.flash { position: fixed; float: right; padding: 10px; top: 10px; right: 30px; opacity: 0.75; margin: 10px 10px 10px 10px; text-align: center; clear: both; color: #fff; font-size: 11pt; text-align: center; vertical-align: middle; cursor: pointer; background: black; border: 2px solid #fff; -moz-border-radius: 5px; -webkit-border-radius: 5px; z-index: 2; }\\ndiv.error { background-color: red; color: white; padding: 3px; }\\n.auth_navbar { text-align:right; z-index:20; position: absolute; top: 2px; right:30px; border:0; padding:0 }\\n  </style>\\n </head>\\n <body>\\n  <!-- start header -->\\n  \', escape=False)\ntry:\n    response.write(auth.navbar(action=URL(\'default\',\'user\')))\nexcept:pass\nresponse.write(\'\\n\\n  <!-- start header -->\\n  <div id="header">\\n   <div id="logo">\\n    <h1>\\n     \', escape=False)\n#=response.title or reque\nresponse.write(\'\\n     hostel portal\\n    </h1>\\n    <p>\\n     <a href="http://www.freecsstemplates.org/">\\n         \', escape=False)\n#     &nbsp;&nbsp;&nbsp;&nbsp;&nbsp;&nbsp;&nbsp;&nbsp;&nbsp;&nbsp;&nbsp;&nbsp;&nbsp;&nbsp;&nbsp;&nbsp;&nbsp;&nbsp;&nbsp;&nbsp;&nbsp;&nbsp;&nbsp;&nbsp;welcomes you\nresponse.write(\'\\n     </a>\\n    </p>\\n   </div>\\n   <div id="menu">\\n    \', escape=False)\nresponse.write(MENU(response.menu,_class=\'web2py-menu\'))\nresponse.write(\'\\n    <script>\\n      jQuery(document).ready(function(){jQuery(\\\'ul.web2py-menu\\\').superfish({delay:400});});\\n    </script>\\n   </div>\\n  </div>\\n  <hr />\\n  <!-- end header -->\\n  <!-- start page -->\\n  <div id="wrapper">\\n   <div id="page">\\n    <!-- start content -->\\n    <div id="content">\\n     <div class="flash">\', escape=False)\nresponse.write(response.flash or \'\')\nresponse.write(\'</div>\\n     \\n     \', escape=False)\nresponse.write(\'\\n\', escape=False)\n{{=form\nresponse.write(\'\\n\\n\\n\\n\\n\\n<h2>Complaints posted by you:</h2>\\n<script type="text/javascript">\\nfunction submitform()\\n{\\n  document.myform.submit();\\n}\\n</script>\\n<form id="myform" name="myform" action="complaint" style="display:inline">\\n<select name="place" onchange="submitform()" id="place"> \\n<option value="">Filter By</option>\\n\\n<option value="All">All</option>\\n\\n<option value="Carpenter">Carpenter</option>\\n<option value="Plumber">Plumber</option>\\n<option value="Electrician">Electrician</option>\\n<option value="other">Other</option>\\n</select>\\n</form><h2 style="display:inline" >: \', escape=False)\nresponse.write(filtered_by)\nresponse.write(\'</h2>\\n<br />\\n<br />\\n\\n<p id="demo"></p>\\n<script type="text/javascript">\\nfunction myFunction()\\n{\\nvar x;\\nvar r=confirm("Are u sure you want to remove this complaint");\\nif (r==true)\\n  {\\n    window.location._href=URL("deafult.py/metcomplaint")\\n    x="OK";\\n<!--  <a href=URL("delcomplaint",args=row.id)>Text to Click</a>-->\\n\\n  }\\nelse\\n  {\\n  x="C";\\n  }\\ndocument.getElementById("demo").innerHTML=row.id;\\n}\\n</script>\\n<table border="1" width="80%" align="center" style="text-align:center">\\n    <tr>\\n  <th>Sr.No</th>\\n  <th>Access</th>\\n  <th>Category </th>\\n  <th>Body </th>\\n  <th>Date </th>\\n  <th>Time</th>\\n <!-- <th style="text-align: center;">Delete</Th>-->\\n\\n</tr>\\n\', escape=False)\nc=0\nresponse.write(\'\\n  \', escape=False)\nfor row in complaints:\n    response.write(\'\\n  \', escape=False)\n    c=c+1\n    response.write(\'\\n  <tr>\\n  <td>\', escape=False)\n    response.write(c)\n    response.write(\' </td>\\n  <td>\', escape=False)\n    response.write(row.access)\n    response.write(\' </td>\\n  <td>\', escape=False)\n    response.write(row.category)\n    response.write(\' </td>\\n  <td>\', escape=False)\n    response.write(row.complaint_body)\n    response.write(\' </td>\\n  <td>\', escape=False)\n    response.write(row.Date)\n    response.write(\' </td>\\n  <td>\', escape=False)\n    response.write(row.Time)\n    response.write(\' </td>\\n  <!--<td style="text-align: center;"> \', escape=False)\n    response.write(A("X", _href=URL("delcomplaint",args=row.id),_style="color:red;",_class="button",onclick="myFunction()"))\n    response.write(\'</font></td>-->\\n\\n  <!--<td style="text-align: center;"> \', escape=False)\n    response.write(A("YES",_style="color:green;",_class="button",onclick="myFunction(row.id)"))\n    response.write(\'</font>\\n  <td><button onclick="myFunction()", id="demo">Done</button></td>\\n  <p id="demo"></p>-->\\n  </tr>\\n  \', escape=False)\n    pass\nresponse.write(\'\\n</table>\\n\', escape=False)\npass\nresponse.write(\'\\n\\n\\n<h2>Public Complaints:</h2>\\n<script type="text/javascript">\\nfunction submitform2()\\n{\\n  document.myform2.submit();\\n}\\n</script>\\n\\n<form id="myform2" name="myform2" action="complaint" style="display:inline">\\n<select name="place2" onchange="submitform2()" id="place2"> \\n<option value="">Filter By</option>\\n\\n<option value="All">All</option>\\n\\n<option value="Carpenter">Carpenter</option>\\n<option value="Plumber">Plumber</option>\\n<option value="Electrician">Electrician</option>\\n<option value="other">Other</option>\\n</select>\\n</form>: <h2 style="display:inline">\', escape=False)\nresponse.write(filtered_by2)\nresponse.write(\'</h2>\\n\\n<br />\\n<br />\\n\\n\\n<table border="1" width="80%" align="center" style="text-align:center">\\n<tr>\\n  <th>Sr.No</th>\\n  <th>User Name</th>\\n  <th>Category </th>\\n  <th>Body </th>\\n  <th>Date </th>\\n  <th>Time</th>\\n\\n    </tr>\', escape=False)\nc=0\nresponse.write(\'\\n  \', escape=False)\nfor row in complaints2:\n    response.write(\'\\n  \', escape=False)\n    c=c+1\n    response.write(\'\\n  <tr>\\n  <td>\', escape=False)\n    response.write(c)\n    response.write(\' </td>\\n  \\n  <td>\', escape=False)\n    response.write(row.User)\n    response.write(\' </td>\\n  <td>\', escape=False)\n    response.write(row.category)\n    response.write(\' </td>\\n  <td>\', escape=False)\n    response.write(row.complaint_body)\n    response.write(\' </td>\\n  <td>\', escape=False)\n    response.write(row.Date)\n    response.write(\' </td>\\n  <td>\', escape=False)\n    response.write(row.Time)\n    response.write(\' </td>\\n  \\n  </tr>\\n  \', escape=False)\n    pass\nresponse.write(\'\\n</table>\\n\', escape=False)\npass\nresponse.write(\'\\n\', escape=False)\nresponse.write(\'\\n        \', escape=False)\n#chetta\nresponse.write(\'\\n        \\n        \\n        \\n        \', escape=False)\n#chetta\nresponse.write(\'\\n       \\n    </div>\\n    <!-- end content -->\\n    <!-- start sidebar -->\\n    \\n    <br style="clear: both;" />\\n   </div>\\n  </div>\\n  <!-- end page -->\\n<!--chetta-->>\\n \\n \\n \\n </body>\\n</html>\\n\', escape=False)'
p7
sS'snapshot'
p8
(dp9
S'exception'
p10
(dp11
S'__getslice__'
p12
S"<method-wrapper '__getslice__' of exceptions.SyntaxError object>"
p13
sS'text'
p14
S"'{{=form\\n'"
p15
sS'__str__'
p16
S"<method-wrapper '__str__' of exceptions.SyntaxError object>"
p17
sS'__reduce__'
p18
S'<built-in method __reduce__ of exceptions.SyntaxError object>'
p19
sS'__dict__'
p20
S'{}'
p21
sS'__sizeof__'
p22
S'<built-in method __sizeof__ of exceptions.SyntaxError object>'
p23
sS'__init__'
p24
S"<method-wrapper '__init__' of exceptions.SyntaxError object>"
p25
sS'__setattr__'
p26
S"<method-wrapper '__setattr__' of exceptions.SyntaxError object>"
p27
sS'__reduce_ex__'
p28
S'<built-in method __reduce_ex__ of exceptions.SyntaxError object>'
p29
sS'__new__'
p30
S'<built-in method __new__ of type object>'
p31
sS'__format__'
p32
S'<built-in method __format__ of exceptions.SyntaxError object>'
p33
sS'__class__'
p34
S"<type 'exceptions.SyntaxError'>"
p35
sS'filename'
p36
S"'/home/bhanu/web2py/applications/sss/views/default/regcomplaint.html'"
p37
sS'lineno'
p38
S'36'
p39
sS'msg'
p40
S"'invalid syntax'"
p41
sS'__doc__'
p42
S"'Invalid syntax.'"
p43
sS'__getitem__'
p44
S"<method-wrapper '__getitem__' of exceptions.SyntaxError object>"
p45
sS'__setstate__'
p46
S'<built-in method __setstate__ of exceptions.SyntaxError object>'
p47
sS'__getattribute__'
p48
S"<method-wrapper '__getattribute__' of exceptions.SyntaxError object>"
p49
sS'print_file_and_line'
p50
S'None'
p51
sS'args'
p52
S"('invalid syntax', ('/home/bhanu/web2py/applications/sss/views/default/regcomplaint.html', 36, 3, '{{=form\\n'))"
p53
sS'__subclasshook__'
p54
S'<built-in method __subclasshook__ of type object>'
p55
sS'offset'
p56
S'3'
sS'__unicode__'
p57
S'<built-in method __unicode__ of exceptions.SyntaxError object>'
p58
sS'__delattr__'
p59
S"<method-wrapper '__delattr__' of exceptions.SyntaxError object>"
p60
sS'__repr__'
p61
S"<method-wrapper '__repr__' of exceptions.SyntaxError object>"
p62
sS'__hash__'
p63
S"<method-wrapper '__hash__' of exceptions.SyntaxError object>"
p64
ssS'evalue'
p65
S'invalid syntax (regcomplaint.html, line 36)'
p66
sS'request'
p67
ccopy_reg
_reconstructor
p68
(cgluon.html
BEAUTIFY
p69
c__builtin__
object
p70
NtRp71
(dp72
S'attributes'
p73
(dp74
sS'components'
p75
(lp76
g68
(cgluon.html
TABLE
p77
g70
NtRp78
(dp79
g73
(dp80
S'level'
p81
I5
ssS'parent'
p82
Nsg75
(lp83
g68
(cgluon.html
TR
p84
g70
NtRp85
(dp86
g73
(dp87
sg82
g78
sg75
(lp88
g68
(cgluon.html
TD
p89
g70
NtRp90
(dp91
g73
(dp92
S'_style'
p93
S'font-weight:bold;vertical-align:top'
p94
ssg82
g85
sg75
(lp95
S'ajax'
p96
asbag68
(g89
g70
NtRp97
(dp98
g73
(dp99
S'_valign'
p100
S'top'
p101
ssg82
g85
sg75
(lp102
S':'
asbag68
(g89
g70
NtRp103
(dp104
g73
(dp105
sg82
g85
sg75
(lp106
g68
(g69
g70
NtRp107
(dp108
g73
(dp109
g81
I5
ssg82
g103
sg75
(lp110
S'False'
p111
asbasbasbag68
(g84
g70
NtRp112
(dp113
g73
(dp114
sg82
g78
sg75
(lp115
g68
(g89
g70
NtRp116
(dp117
g73
(dp118
g93
g94
ssg82
g112
sg75
(lp119
S'application'
p120
asbag68
(g89
g70
NtRp121
(dp122
g73
(dp123
g100
g101
ssg82
g112
sg75
(lp124
S':'
asbag68
(g89
g70
NtRp125
(dp126
g73
(dp127
sg82
g112
sg75
(lp128
g68
(g69
g70
NtRp129
(dp130
g73
(dp131
g81
I5
ssg82
g125
sg75
(lp132
S'sss'
p133
asbasbasbag68
(g84
g70
NtRp134
(dp135
g73
(dp136
sg82
g78
sg75
(lp137
g68
(g89
g70
NtRp138
(dp139
g73
(dp140
g93
g94
ssg82
g134
sg75
(lp141
g52
asbag68
(g89
g70
NtRp142
(dp143
g73
(dp144
g100
g101
ssg82
g134
sg75
(lp145
S':'
asbag68
(g89
g70
NtRp146
(dp147
g73
(dp148
sg82
g134
sg75
(lp149
g68
(g69
g70
NtRp150
(dp151
g73
(dp152
g81
I5
ssg82
g146
sg75
(lp153
g68
(g77
g70
NtRp154
(dp155
g73
(dp156
g81
I4
ssg82
Nsg75
(lp157
sbasbasbasbag68
(g84
g70
NtRp158
(dp159
g73
(dp160
sg82
g78
sg75
(lp161
g68
(g89
g70
NtRp162
(dp163
g73
(dp164
g93
g94
ssg82
g158
sg75
(lp165
S'body'
p166
asbag68
(g89
g70
NtRp167
(dp168
g73
(dp169
g100
g101
ssg82
g158
sg75
(lp170
S':'
asbag68
(g89
g70
NtRp171
(dp172
g73
(dp173
sg82
g158
sg75
(lp174
g68
(g69
g70
NtRp175
(dp176
g73
(dp177
g81
I5
ssg82
g171
sg75
(lp178
S'<cStringIO.StringO object at 0x7fe9f0349b58>'
p179
asbasbasbag68
(g84
g70
NtRp180
(dp181
g73
(dp182
sg82
g78
sg75
(lp183
g68
(g89
g70
NtRp184
(dp185
g73
(dp186
g93
g94
ssg82
g180
sg75
(lp187
S'cid'
p188
asbag68
(g89
g70
NtRp189
(dp190
g73
(dp191
g100
g101
ssg82
g180
sg75
(lp192
S':'
asbag68
(g89
g70
NtRp193
(dp194
g73
(dp195
sg82
g180
sg75
(lp196
g68
(g69
g70
NtRp197
(dp198
g73
(dp199
g81
I5
ssg82
g193
sg75
(lp200
S'None'
p201
asbasbasbag68
(g84
g70
NtRp202
(dp203
g73
(dp204
sg82
g78
sg75
(lp205
g68
(g89
g70
NtRp206
(dp207
g73
(dp208
g93
g94
ssg82
g202
sg75
(lp209
S'client'
p210
asbag68
(g89
g70
NtRp211
(dp212
g73
(dp213
g100
g101
ssg82
g202
sg75
(lp214
S':'
asbag68
(g89
g70
NtRp215
(dp216
g73
(dp217
sg82
g202
sg75
(lp218
g68
(g69
g70
NtRp219
(dp220
g73
(dp221
g81
I5
ssg82
g215
sg75
(lp222
S'127.0.0.1'
p223
asbasbasbag68
(g84
g70
NtRp224
(dp225
g73
(dp226
sg82
g78
sg75
(lp227
g68
(g89
g70
NtRp228
(dp229
g73
(dp230
g93
g94
ssg82
g224
sg75
(lp231
S'controller'
p232
asbag68
(g89
g70
NtRp233
(dp234
g73
(dp235
g100
g101
ssg82
g224
sg75
(lp236
S':'
asbag68
(g89
g70
NtRp237
(dp238
g73
(dp239
sg82
g224
sg75
(lp240
g68
(g69
g70
NtRp241
(dp242
g73
(dp243
g81
I5
ssg82
g237
sg75
(lp244
S'default'
p245
asbasbasbag68
(g84
g70
NtRp246
(dp247
g73
(dp248
sg82
g78
sg75
(lp249
g68
(g89
g70
NtRp250
(dp251
g73
(dp252
g93
g94
ssg82
g246
sg75
(lp253
S'cookies'
p254
asbag68
(g89
g70
NtRp255
(dp256
g73
(dp257
g100
g101
ssg82
g246
sg75
(lp258
S':'
asbag68
(g89
g70
NtRp259
(dp260
g73
(dp261
sg82
g246
sg75
(lp262
g68
(g69
g70
NtRp263
(dp264
g73
(dp265
g81
I5
ssg82
g259
sg75
(lp266
g68
(g77
g70
NtRp267
(dp268
g73
(dp269
g81
I4
ssg82
Nsg75
(lp270
g68
(g84
g70
NtRp271
(dp272
g73
(dp273
sg82
g267
sg75
(lp274
g68
(g89
g70
NtRp275
(dp276
g73
(dp277
g93
g94
ssg82
g271
sg75
(lp278
S'session_id_admin'
p279
asbag68
(g89
g70
NtRp280
(dp281
g73
(dp282
g100
g101
ssg82
g271
sg75
(lp283
S':'
asbag68
(g89
g70
NtRp284
(dp285
g73
(dp286
sg82
g271
sg75
(lp287
g68
(g69
g70
NtRp288
(dp289
g73
(dp290
g81
I4
ssg82
g284
sg75
(lp291
S'127.0.0.1-32177690-19e2-42e4-a72c-7ff2b3d66aea'
p292
ag68
(g77
g70
NtRp293
(dp294
g73
(dp295
g81
I3
ssg82
Nsg75
(lp296
g68
(g84
g70
NtRp297
(dp298
g73
(dp299
sg82
g293
sg75
(lp300
g68
(g89
g70
NtRp301
(dp302
g73
(dp303
g93
g94
ssg82
g297
sg75
(lp304
S'comment'
p305
asbag68
(g89
g70
NtRp306
(dp307
g73
(dp308
g100
g101
ssg82
g297
sg75
(lp309
S':'
asbag68
(g89
g70
NtRp310
(dp311
g73
(dp312
sg82
g297
sg75
(lp313
g68
(g69
g70
NtRp314
(dp315
g73
(dp316
g81
I3
ssg82
g310
sg75
(lp317
S''
asbasbasbag68
(g84
g70
NtRp318
(dp319
g73
(dp320
sg82
g293
sg75
(lp321
g68
(g89
g70
NtRp322
(dp323
g73
(dp324
g93
g94
ssg82
g318
sg75
(lp325
S'domain'
p326
asbag68
(g89
g70
NtRp327
(dp328
g73
(dp329
g100
g101
ssg82
g318
sg75
(lp330
S':'
asbag68
(g89
g70
NtRp331
(dp332
g73
(dp333
sg82
g318
sg75
(lp334
g68
(g69
g70
NtRp335
(dp336
g73
(dp337
g81
I3
ssg82
g331
sg75
(lp338
S''
asbasbasbag68
(g84
g70
NtRp339
(dp340
g73
(dp341
sg82
g293
sg75
(lp342
g68
(g89
g70
NtRp343
(dp344
g73
(dp345
g93
g94
ssg82
g339
sg75
(lp346
S'expires'
p347
asbag68
(g89
g70
NtRp348
(dp349
g73
(dp350
g100
g101
ssg82
g339
sg75
(lp351
S':'
asbag68
(g89
g70
NtRp352
(dp353
g73
(dp354
sg82
g339
sg75
(lp355
g68
(g69
g70
NtRp356
(dp357
g73
(dp358
g81
I3
ssg82
g352
sg75
(lp359
S''
asbasbasbag68
(g84
g70
NtRp360
(dp361
g73
(dp362
sg82
g293
sg75
(lp363
g68
(g89
g70
NtRp364
(dp365
g73
(dp366
g93
g94
ssg82
g360
sg75
(lp367
S'httponly'
p368
asbag68
(g89
g70
NtRp369
(dp370
g73
(dp371
g100
g101
ssg82
g360
sg75
(lp372
S':'
asbag68
(g89
g70
NtRp373
(dp374
g73
(dp375
sg82
g360
sg75
(lp376
g68
(g69
g70
NtRp377
(dp378
g73
(dp379
g81
I3
ssg82
g373
sg75
(lp380
S''
asbasbasbag68
(g84
g70
NtRp381
(dp382
g73
(dp383
sg82
g293
sg75
(lp384
g68
(g89
g70
NtRp385
(dp386
g73
(dp387
g93
g94
ssg82
g381
sg75
(lp388
S'max-age'
p389
asbag68
(g89
g70
NtRp390
(dp391
g73
(dp392
g100
g101
ssg82
g381
sg75
(lp393
S':'
asbag68
(g89
g70
NtRp394
(dp395
g73
(dp396
sg82
g381
sg75
(lp397
g68
(g69
g70
NtRp398
(dp399
g73
(dp400
g81
I3
ssg82
g394
sg75
(lp401
S''
asbasbasbag68
(g84
g70
NtRp402
(dp403
g73
(dp404
sg82
g293
sg75
(lp405
g68
(g89
g70
NtRp406
(dp407
g73
(dp408
g93
g94
ssg82
g402
sg75
(lp409
S'path'
p410
asbag68
(g89
g70
NtRp411
(dp412
g73
(dp413
g100
g101
ssg82
g402
sg75
(lp414
S':'
asbag68
(g89
g70
NtRp415
(dp416
g73
(dp417
sg82
g402
sg75
(lp418
g68
(g69
g70
NtRp419
(dp420
g73
(dp421
g81
I3
ssg82
g415
sg75
(lp422
S''
asbasbasbag68
(g84
g70
NtRp423
(dp424
g73
(dp425
sg82
g293
sg75
(lp426
g68
(g89
g70
NtRp427
(dp428
g73
(dp429
g93
g94
ssg82
g423
sg75
(lp430
S'secure'
p431
asbag68
(g89
g70
NtRp432
(dp433
g73
(dp434
g100
g101
ssg82
g423
sg75
(lp435
S':'
asbag68
(g89
g70
NtRp436
(dp437
g73
(dp438
sg82
g423
sg75
(lp439
g68
(g69
g70
NtRp440
(dp441
g73
(dp442
g81
I3
ssg82
g436
sg75
(lp443
S''
asbasbasbag68
(g84
g70
NtRp444
(dp445
g73
(dp446
sg82
g293
sg75
(lp447
g68
(g89
g70
NtRp448
(dp449
g73
(dp450
g93
g94
ssg82
g444
sg75
(lp451
S'version'
p452
asbag68
(g89
g70
NtRp453
(dp454
g73
(dp455
g100
g101
ssg82
g444
sg75
(lp456
S':'
asbag68
(g89
g70
NtRp457
(dp458
g73
(dp459
sg82
g444
sg75
(lp460
g68
(g69
g70
NtRp461
(dp462
g73
(dp463
g81
I3
ssg82
g457
sg75
(lp464
S''
asbasbasbasbasbasbasbag68
(g84
g70
NtRp465
(dp466
g73
(dp467
sg82
g267
sg75
(lp468
g68
(g89
g70
NtRp469
(dp470
g73
(dp471
g93
g94
ssg82
g465
sg75
(lp472
S'session_id_kt'
p473
asbag68
(g89
g70
NtRp474
(dp475
g73
(dp476
g100
g101
ssg82
g465
sg75
(lp477
S':'
asbag68
(g89
g70
NtRp478
(dp479
g73
(dp480
sg82
g465
sg75
(lp481
g68
(g69
g70
NtRp482
(dp483
g73
(dp484
g81
I4
ssg82
g478
sg75
(lp485
S'127.0.0.1-7e77715e-09d9-41f5-a841-8546ac18f69c'
p486
ag68
(g77
g70
NtRp487
(dp488
g73
(dp489
g81
I3
ssg82
Nsg75
(lp490
g68
(g84
g70
NtRp491
(dp492
g73
(dp493
sg82
g487
sg75
(lp494
g68
(g89
g70
NtRp495
(dp496
g73
(dp497
g93
g94
ssg82
g491
sg75
(lp498
g305
asbag68
(g89
g70
NtRp499
(dp500
g73
(dp501
g100
g101
ssg82
g491
sg75
(lp502
S':'
asbag68
(g89
g70
NtRp503
(dp504
g73
(dp505
sg82
g491
sg75
(lp506
g68
(g69
g70
NtRp507
(dp508
g73
(dp509
g81
I3
ssg82
g503
sg75
(lp510
S''
asbasbasbag68
(g84
g70
NtRp511
(dp512
g73
(dp513
sg82
g487
sg75
(lp514
g68
(g89
g70
NtRp515
(dp516
g73
(dp517
g93
g94
ssg82
g511
sg75
(lp518
g326
asbag68
(g89
g70
NtRp519
(dp520
g73
(dp521
g100
g101
ssg82
g511
sg75
(lp522
S':'
asbag68
(g89
g70
NtRp523
(dp524
g73
(dp525
sg82
g511
sg75
(lp526
g68
(g69
g70
NtRp527
(dp528
g73
(dp529
g81
I3
ssg82
g523
sg75
(lp530
S''
asbasbasbag68
(g84
g70
NtRp531
(dp532
g73
(dp533
sg82
g487
sg75
(lp534
g68
(g89
g70
NtRp535
(dp536
g73
(dp537
g93
g94
ssg82
g531
sg75
(lp538
g347
asbag68
(g89
g70
NtRp539
(dp540
g73
(dp541
g100
g101
ssg82
g531
sg75
(lp542
S':'
asbag68
(g89
g70
NtRp543
(dp544
g73
(dp545
sg82
g531
sg75
(lp546
g68
(g69
g70
NtRp547
(dp548
g73
(dp549
g81
I3
ssg82
g543
sg75
(lp550
S''
asbasbasbag68
(g84
g70
NtRp551
(dp552
g73
(dp553
sg82
g487
sg75
(lp554
g68
(g89
g70
NtRp555
(dp556
g73
(dp557
g93
g94
ssg82
g551
sg75
(lp558
g368
asbag68
(g89
g70
NtRp559
(dp560
g73
(dp561
g100
g101
ssg82
g551
sg75
(lp562
S':'
asbag68
(g89
g70
NtRp563
(dp564
g73
(dp565
sg82
g551
sg75
(lp566
g68
(g69
g70
NtRp567
(dp568
g73
(dp569
g81
I3
ssg82
g563
sg75
(lp570
S''
asbasbasbag68
(g84
g70
NtRp571
(dp572
g73
(dp573
sg82
g487
sg75
(lp574
g68
(g89
g70
NtRp575
(dp576
g73
(dp577
g93
g94
ssg82
g571
sg75
(lp578
g389
asbag68
(g89
g70
NtRp579
(dp580
g73
(dp581
g100
g101
ssg82
g571
sg75
(lp582
S':'
asbag68
(g89
g70
NtRp583
(dp584
g73
(dp585
sg82
g571
sg75
(lp586
g68
(g69
g70
NtRp587
(dp588
g73
(dp589
g81
I3
ssg82
g583
sg75
(lp590
S''
asbasbasbag68
(g84
g70
NtRp591
(dp592
g73
(dp593
sg82
g487
sg75
(lp594
g68
(g89
g70
NtRp595
(dp596
g73
(dp597
g93
g94
ssg82
g591
sg75
(lp598
g410
asbag68
(g89
g70
NtRp599
(dp600
g73
(dp601
g100
g101
ssg82
g591
sg75
(lp602
S':'
asbag68
(g89
g70
NtRp603
(dp604
g73
(dp605
sg82
g591
sg75
(lp606
g68
(g69
g70
NtRp607
(dp608
g73
(dp609
g81
I3
ssg82
g603
sg75
(lp610
S''
asbasbasbag68
(g84
g70
NtRp611
(dp612
g73
(dp613
sg82
g487
sg75
(lp614
g68
(g89
g70
NtRp615
(dp616
g73
(dp617
g93
g94
ssg82
g611
sg75
(lp618
g431
asbag68
(g89
g70
NtRp619
(dp620
g73
(dp621
g100
g101
ssg82
g611
sg75
(lp622
S':'
asbag68
(g89
g70
NtRp623
(dp624
g73
(dp625
sg82
g611
sg75
(lp626
g68
(g69
g70
NtRp627
(dp628
g73
(dp629
g81
I3
ssg82
g623
sg75
(lp630
S''
asbasbasbag68
(g84
g70
NtRp631
(dp632
g73
(dp633
sg82
g487
sg75
(lp634
g68
(g89
g70
NtRp635
(dp636
g73
(dp637
g93
g94
ssg82
g631
sg75
(lp638
g452
asbag68
(g89
g70
NtRp639
(dp640
g73
(dp641
g100
g101
ssg82
g631
sg75
(lp642
S':'
asbag68
(g89
g70
NtRp643
(dp644
g73
(dp645
sg82
g631
sg75
(lp646
g68
(g69
g70
NtRp647
(dp648
g73
(dp649
g81
I3
ssg82
g643
sg75
(lp650
S''
asbasbasbasbasbasbasbag68
(g84
g70
NtRp651
(dp652
g73
(dp653
sg82
g267
sg75
(lp654
g68
(g89
g70
NtRp655
(dp656
g73
(dp657
g93
g94
ssg82
g651
sg75
(lp658
S'session_id_sss'
p659
asbag68
(g89
g70
NtRp660
(dp661
g73
(dp662
g100
g101
ssg82
g651
sg75
(lp663
S':'
asbag68
(g89
g70
NtRp664
(dp665
g73
(dp666
sg82
g651
sg75
(lp667
g68
(g69
g70
NtRp668
(dp669
g73
(dp670
g81
I4
ssg82
g664
sg75
(lp671
S'127.0.0.1-3710a024-f9d4-48b6-82d8-76e05ad14bc4'
p672
ag68
(g77
g70
NtRp673
(dp674
g73
(dp675
g81
I3
ssg82
Nsg75
(lp676
g68
(g84
g70
NtRp677
(dp678
g73
(dp679
sg82
g673
sg75
(lp680
g68
(g89
g70
NtRp681
(dp682
g73
(dp683
g93
g94
ssg82
g677
sg75
(lp684
g305
asbag68
(g89
g70
NtRp685
(dp686
g73
(dp687
g100
g101
ssg82
g677
sg75
(lp688
S':'
asbag68
(g89
g70
NtRp689
(dp690
g73
(dp691
sg82
g677
sg75
(lp692
g68
(g69
g70
NtRp693
(dp694
g73
(dp695
g81
I3
ssg82
g689
sg75
(lp696
S''
asbasbasbag68
(g84
g70
NtRp697
(dp698
g73
(dp699
sg82
g673
sg75
(lp700
g68
(g89
g70
NtRp701
(dp702
g73
(dp703
g93
g94
ssg82
g697
sg75
(lp704
g326
asbag68
(g89
g70
NtRp705
(dp706
g73
(dp707
g100
g101
ssg82
g697
sg75
(lp708
S':'
asbag68
(g89
g70
NtRp709
(dp710
g73
(dp711
sg82
g697
sg75
(lp712
g68
(g69
g70
NtRp713
(dp714
g73
(dp715
g81
I3
ssg82
g709
sg75
(lp716
S''
asbasbasbag68
(g84
g70
NtRp717
(dp718
g73
(dp719
sg82
g673
sg75
(lp720
g68
(g89
g70
NtRp721
(dp722
g73
(dp723
g93
g94
ssg82
g717
sg75
(lp724
g347
asbag68
(g89
g70
NtRp725
(dp726
g73
(dp727
g100
g101
ssg82
g717
sg75
(lp728
S':'
asbag68
(g89
g70
NtRp729
(dp730
g73
(dp731
sg82
g717
sg75
(lp732
g68
(g69
g70
NtRp733
(dp734
g73
(dp735
g81
I3
ssg82
g729
sg75
(lp736
S''
asbasbasbag68
(g84
g70
NtRp737
(dp738
g73
(dp739
sg82
g673
sg75
(lp740
g68
(g89
g70
NtRp741
(dp742
g73
(dp743
g93
g94
ssg82
g737
sg75
(lp744
g368
asbag68
(g89
g70
NtRp745
(dp746
g73
(dp747
g100
g101
ssg82
g737
sg75
(lp748
S':'
asbag68
(g89
g70
NtRp749
(dp750
g73
(dp751
sg82
g737
sg75
(lp752
g68
(g69
g70
NtRp753
(dp754
g73
(dp755
g81
I3
ssg82
g749
sg75
(lp756
S''
asbasbasbag68
(g84
g70
NtRp757
(dp758
g73
(dp759
sg82
g673
sg75
(lp760
g68
(g89
g70
NtRp761
(dp762
g73
(dp763
g93
g94
ssg82
g757
sg75
(lp764
g389
asbag68
(g89
g70
NtRp765
(dp766
g73
(dp767
g100
g101
ssg82
g757
sg75
(lp768
S':'
asbag68
(g89
g70
NtRp769
(dp770
g73
(dp771
sg82
g757
sg75
(lp772
g68
(g69
g70
NtRp773
(dp774
g73
(dp775
g81
I3
ssg82
g769
sg75
(lp776
S''
asbasbasbag68
(g84
g70
NtRp777
(dp778
g73
(dp779
sg82
g673
sg75
(lp780
g68
(g89
g70
NtRp781
(dp782
g73
(dp783
g93
g94
ssg82
g777
sg75
(lp784
g410
asbag68
(g89
g70
NtRp785
(dp786
g73
(dp787
g100
g101
ssg82
g777
sg75
(lp788
S':'
asbag68
(g89
g70
NtRp789
(dp790
g73
(dp791
sg82
g777
sg75
(lp792
g68
(g69
g70
NtRp793
(dp794
g73
(dp795
g81
I3
ssg82
g789
sg75
(lp796
S''
asbasbasbag68
(g84
g70
NtRp797
(dp798
g73
(dp799
sg82
g673
sg75
(lp800
g68
(g89
g70
NtRp801
(dp802
g73
(dp803
g93
g94
ssg82
g797
sg75
(lp804
g431
asbag68
(g89
g70
NtRp805
(dp806
g73
(dp807
g100
g101
ssg82
g797
sg75
(lp808
S':'
asbag68
(g89
g70
NtRp809
(dp810
g73
(dp811
sg82
g797
sg75
(lp812
g68
(g69
g70
NtRp813
(dp814
g73
(dp815
g81
I3
ssg82
g809
sg75
(lp816
S''
asbasbasbag68
(g84
g70
NtRp817
(dp818
g73
(dp819
sg82
g673
sg75
(lp820
g68
(g89
g70
NtRp821
(dp822
g73
(dp823
g93
g94
ssg82
g817
sg75
(lp824
g452
asbag68
(g89
g70
NtRp825
(dp826
g73
(dp827
g100
g101
ssg82
g817
sg75
(lp828
S':'
asbag68
(g89
g70
NtRp829
(dp830
g73
(dp831
sg82
g817
sg75
(lp832
g68
(g69
g70
NtRp833
(dp834
g73
(dp835
g81
I3
ssg82
g829
sg75
(lp836
S''
asbasbasbasbasbasbasbag68
(g84
g70
NtRp837
(dp838
g73
(dp839
sg82
g267
sg75
(lp840
g68
(g89
g70
NtRp841
(dp842
g73
(dp843
g93
g94
ssg82
g837
sg75
(lp844
S'session_id_welcome'
p845
asbag68
(g89
g70
NtRp846
(dp847
g73
(dp848
g100
g101
ssg82
g837
sg75
(lp849
S':'
asbag68
(g89
g70
NtRp850
(dp851
g73
(dp852
sg82
g837
sg75
(lp853
g68
(g69
g70
NtRp854
(dp855
g73
(dp856
g81
I4
ssg82
g850
sg75
(lp857
S'127.0.0.1-698c9672-8532-4540-be6b-864a180816f6'
p858
ag68
(g77
g70
NtRp859
(dp860
g73
(dp861
g81
I3
ssg82
Nsg75
(lp862
g68
(g84
g70
NtRp863
(dp864
g73
(dp865
sg82
g859
sg75
(lp866
g68
(g89
g70
NtRp867
(dp868
g73
(dp869
g93
g94
ssg82
g863
sg75
(lp870
g305
asbag68
(g89
g70
NtRp871
(dp872
g73
(dp873
g100
g101
ssg82
g863
sg75
(lp874
S':'
asbag68
(g89
g70
NtRp875
(dp876
g73
(dp877
sg82
g863
sg75
(lp878
g68
(g69
g70
NtRp879
(dp880
g73
(dp881
g81
I3
ssg82
g875
sg75
(lp882
S''
asbasbasbag68
(g84
g70
NtRp883
(dp884
g73
(dp885
sg82
g859
sg75
(lp886
g68
(g89
g70
NtRp887
(dp888
g73
(dp889
g93
g94
ssg82
g883
sg75
(lp890
g326
asbag68
(g89
g70
NtRp891
(dp892
g73
(dp893
g100
g101
ssg82
g883
sg75
(lp894
S':'
asbag68
(g89
g70
NtRp895
(dp896
g73
(dp897
sg82
g883
sg75
(lp898
g68
(g69
g70
NtRp899
(dp900
g73
(dp901
g81
I3
ssg82
g895
sg75
(lp902
S''
asbasbasbag68
(g84
g70
NtRp903
(dp904
g73
(dp905
sg82
g859
sg75
(lp906
g68
(g89
g70
NtRp907
(dp908
g73
(dp909
g93
g94
ssg82
g903
sg75
(lp910
g347
asbag68
(g89
g70
NtRp911
(dp912
g73
(dp913
g100
g101
ssg82
g903
sg75
(lp914
S':'
asbag68
(g89
g70
NtRp915
(dp916
g73
(dp917
sg82
g903
sg75
(lp918
g68
(g69
g70
NtRp919
(dp920
g73
(dp921
g81
I3
ssg82
g915
sg75
(lp922
S''
asbasbasbag68
(g84
g70
NtRp923
(dp924
g73
(dp925
sg82
g859
sg75
(lp926
g68
(g89
g70
NtRp927
(dp928
g73
(dp929
g93
g94
ssg82
g923
sg75
(lp930
g368
asbag68
(g89
g70
NtRp931
(dp932
g73
(dp933
g100
g101
ssg82
g923
sg75
(lp934
S':'
asbag68
(g89
g70
NtRp935
(dp936
g73
(dp937
sg82
g923
sg75
(lp938
g68
(g69
g70
NtRp939
(dp940
g73
(dp941
g81
I3
ssg82
g935
sg75
(lp942
S''
asbasbasbag68
(g84
g70
NtRp943
(dp944
g73
(dp945
sg82
g859
sg75
(lp946
g68
(g89
g70
NtRp947
(dp948
g73
(dp949
g93
g94
ssg82
g943
sg75
(lp950
g389
asbag68
(g89
g70
NtRp951
(dp952
g73
(dp953
g100
g101
ssg82
g943
sg75
(lp954
S':'
asbag68
(g89
g70
NtRp955
(dp956
g73
(dp957
sg82
g943
sg75
(lp958
g68
(g69
g70
NtRp959
(dp960
g73
(dp961
g81
I3
ssg82
g955
sg75
(lp962
S''
asbasbasbag68
(g84
g70
NtRp963
(dp964
g73
(dp965
sg82
g859
sg75
(lp966
g68
(g89
g70
NtRp967
(dp968
g73
(dp969
g93
g94
ssg82
g963
sg75
(lp970
g410
asbag68
(g89
g70
NtRp971
(dp972
g73
(dp973
g100
g101
ssg82
g963
sg75
(lp974
S':'
asbag68
(g89
g70
NtRp975
(dp976
g73
(dp977
sg82
g963
sg75
(lp978
g68
(g69
g70
NtRp979
(dp980
g73
(dp981
g81
I3
ssg82
g975
sg75
(lp982
S''
asbasbasbag68
(g84
g70
NtRp983
(dp984
g73
(dp985
sg82
g859
sg75
(lp986
g68
(g89
g70
NtRp987
(dp988
g73
(dp989
g93
g94
ssg82
g983
sg75
(lp990
g431
asbag68
(g89
g70
NtRp991
(dp992
g73
(dp993
g100
g101
ssg82
g983
sg75
(lp994
S':'
asbag68
(g89
g70
NtRp995
(dp996
g73
(dp997
sg82
g983
sg75
(lp998
g68
(g69
g70
NtRp999
(dp1000
g73
(dp1001
g81
I3
ssg82
g995
sg75
(lp1002
S''
asbasbasbag68
(g84
g70
NtRp1003
(dp1004
g73
(dp1005
sg82
g859
sg75
(lp1006
g68
(g89
g70
NtRp1007
(dp1008
g73
(dp1009
g93
g94
ssg82
g1003
sg75
(lp1010
g452
asbag68
(g89
g70
NtRp1011
(dp1012
g73
(dp1013
g100
g101
ssg82
g1003
sg75
(lp1014
S':'
asbag68
(g89
g70
NtRp1015
(dp1016
g73
(dp1017
sg82
g1003
sg75
(lp1018
g68
(g69
g70
NtRp1019
(dp1020
g73
(dp1021
g81
I3
ssg82
g1015
sg75
(lp1022
S''
asbasbasbasbasbasbasbasbasbasbasbag68
(g84
g70
NtRp1023
(dp1024
g73
(dp1025
sg82
g78
sg75
(lp1026
g68
(g89
g70
NtRp1027
(dp1028
g73
(dp1029
g93
g94
ssg82
g1023
sg75
(lp1030
S'env'
p1031
asbag68
(g89
g70
NtRp1032
(dp1033
g73
(dp1034
g100
g101
ssg82
g1023
sg75
(lp1035
S':'
asbag68
(g89
g70
NtRp1036
(dp1037
g73
(dp1038
sg82
g1023
sg75
(lp1039
g68
(g69
g70
NtRp1040
(dp1041
g73
(dp1042
g81
I5
ssg82
g1036
sg75
(lp1043
g68
(g77
g70
NtRp1044
(dp1045
g73
(dp1046
g81
I4
ssg82
Nsg75
(lp1047
g68
(g84
g70
NtRp1048
(dp1049
g73
(dp1050
sg82
g1044
sg75
(lp1051
g68
(g89
g70
NtRp1052
(dp1053
g73
(dp1054
g93
g94
ssg82
g1048
sg75
(lp1055
S'app_folders'
p1056
asbag68
(g89
g70
NtRp1057
(dp1058
g73
(dp1059
g100
g101
ssg82
g1048
sg75
(lp1060
S':'
asbag68
(g89
g70
NtRp1061
(dp1062
g73
(dp1063
sg82
g1048
sg75
(lp1064
g68
(g69
g70
NtRp1065
(dp1066
g73
(dp1067
g81
I4
ssg82
g1061
sg75
(lp1068
S"set(['/home/bhanu/web2py/applications/admin/', '/home/bhanu/web2py/applications/welcome/', '/home/bhanu/web2py/applications/sss/', '/home/bhanu/web2py/applications/kt/'])"
p1069
asbasbasbag68
(g84
g70
NtRp1070
(dp1071
g73
(dp1072
sg82
g1044
sg75
(lp1073
g68
(g89
g70
NtRp1074
(dp1075
g73
(dp1076
g93
g94
ssg82
g1070
sg75
(lp1077
S'applications_parent'
p1078
asbag68
(g89
g70
NtRp1079
(dp1080
g73
(dp1081
g100
g101
ssg82
g1070
sg75
(lp1082
S':'
asbag68
(g89
g70
NtRp1083
(dp1084
g73
(dp1085
sg82
g1070
sg75
(lp1086
g68
(g69
g70
NtRp1087
(dp1088
g73
(dp1089
g81
I4
ssg82
g1083
sg75
(lp1090
S'/home/bhanu/web2py'
p1091
asbasbasbag68
(g84
g70
NtRp1092
(dp1093
g73
(dp1094
sg82
g1044
sg75
(lp1095
g68
(g89
g70
NtRp1096
(dp1097
g73
(dp1098
g93
g94
ssg82
g1092
sg75
(lp1099
S'cmd_args'
p1100
asbag68
(g89
g70
NtRp1101
(dp1102
g73
(dp1103
g100
g101
ssg82
g1092
sg75
(lp1104
S':'
asbag68
(g89
g70
NtRp1105
(dp1106
g73
(dp1107
sg82
g1092
sg75
(lp1108
g68
(g69
g70
NtRp1109
(dp1110
g73
(dp1111
g81
I4
ssg82
g1105
sg75
(lp1112
g68
(g77
g70
NtRp1113
(dp1114
g73
(dp1115
g81
I3
ssg82
Nsg75
(lp1116
sbasbasbasbag68
(g84
g70
NtRp1117
(dp1118
g73
(dp1119
sg82
g1044
sg75
(lp1120
g68
(g89
g70
NtRp1121
(dp1122
g73
(dp1123
g93
g94
ssg82
g1117
sg75
(lp1124
S'cmd_options'
p1125
asbag68
(g89
g70
NtRp1126
(dp1127
g73
(dp1128
g100
g101
ssg82
g1117
sg75
(lp1129
S':'
asbag68
(g89
g70
NtRp1130
(dp1131
g73
(dp1132
sg82
g1117
sg75
(lp1133
g68
(g69
g70
NtRp1134
(dp1135
g73
(dp1136
g81
I4
ssg82
g1130
sg75
(lp1137
S"<Values at 0x2715f80: {'verbose': False, 'ip': '127.0.0.1', 'with_scheduler': False, 'ips': ['127.0.1.1'], 'shutdown_timeout': 5, 'taskbar': False, 'port': 8000, 'maxthreads': None, 'softcron': False, 'server_name': 'bhanu-Dell-System-XPS-L502X', 'bpython': False, 'nogui': False, 'pid_filename': 'httpserver.pid', 'extcron': False, 'runcron': False, 'run_system_tests': False, 'test': None, 'folder': '/home/bhanu/web2py', 'config': '', 'minthreads': None, 'winservice': '', 'shell': None, 'run': '', 'log_filename': 'httpserver.log', 'debuglevel': 30, 'args': [''], 'socket_timeout': 5, 'ssl_ca_certificate': None, 'scheduler': None, 'profiler_filename': None, 'ssl_private_key': '', 'scheduler_groups': None, 'password': '1', 'request_queue_size': 5, 'ssl_certificate': '', 'cronjob': False, 'numthreads': None, 'quiet': False, 'interfaces': None, 'import_models': False, 'timeout': 10, 'plain': False, 'nobanner': False}>"
p1138
asbasbasbag68
(g84
g70
NtRp1139
(dp1140
g73
(dp1141
sg82
g1044
sg75
(lp1142
g68
(g89
g70
NtRp1143
(dp1144
g73
(dp1145
g93
g94
ssg82
g1139
sg75
(lp1146
S'db_sessions'
p1147
asbag68
(g89
g70
NtRp1148
(dp1149
g73
(dp1150
g100
g101
ssg82
g1139
sg75
(lp1151
S':'
asbag68
(g89
g70
NtRp1152
(dp1153
g73
(dp1154
sg82
g1139
sg75
(lp1155
g68
(g69
g70
NtRp1156
(dp1157
g73
(dp1158
g81
I4
ssg82
g1152
sg75
(lp1159
S'set([])'
p1160
asbasbasbag68
(g84
g70
NtRp1161
(dp1162
g73
(dp1163
sg82
g1044
sg75
(lp1164
g68
(g89
g70
NtRp1165
(dp1166
g73
(dp1167
g93
g94
ssg82
g1161
sg75
(lp1168
S'debugging'
p1169
asbag68
(g89
g70
NtRp1170
(dp1171
g73
(dp1172
g100
g101
ssg82
g1161
sg75
(lp1173
S':'
asbag68
(g89
g70
NtRp1174
(dp1175
g73
(dp1176
sg82
g1161
sg75
(lp1177
g68
(g69
g70
NtRp1178
(dp1179
g73
(dp1180
g81
I4
ssg82
g1174
sg75
(lp1181
g111
asbasbasbag68
(g84
g70
NtRp1182
(dp1183
g73
(dp1184
sg82
g1044
sg75
(lp1185
g68
(g89
g70
NtRp1186
(dp1187
g73
(dp1188
g93
g94
ssg82
g1182
sg75
(lp1189
S'gluon_parent'
p1190
asbag68
(g89
g70
NtRp1191
(dp1192
g73
(dp1193
g100
g101
ssg82
g1182
sg75
(lp1194
S':'
asbag68
(g89
g70
NtRp1195
(dp1196
g73
(dp1197
sg82
g1182
sg75
(lp1198
g68
(g69
g70
NtRp1199
(dp1200
g73
(dp1201
g81
I4
ssg82
g1195
sg75
(lp1202
S'/home/bhanu/web2py'
p1203
asbasbasbag68
(g84
g70
NtRp1204
(dp1205
g73
(dp1206
sg82
g1044
sg75
(lp1207
g68
(g89
g70
NtRp1208
(dp1209
g73
(dp1210
g93
g94
ssg82
g1204
sg75
(lp1211
S'http_accept'
p1212
asbag68
(g89
g70
NtRp1213
(dp1214
g73
(dp1215
g100
g101
ssg82
g1204
sg75
(lp1216
S':'
asbag68
(g89
g70
NtRp1217
(dp1218
g73
(dp1219
sg82
g1204
sg75
(lp1220
g68
(g69
g70
NtRp1221
(dp1222
g73
(dp1223
g81
I4
ssg82
g1217
sg75
(lp1224
S'text/html,application/xhtml+xml,application/xml;q=0.9,*/*;q=0.8'
p1225
asbasbasbag68
(g84
g70
NtRp1226
(dp1227
g73
(dp1228
sg82
g1044
sg75
(lp1229
g68
(g89
g70
NtRp1230
(dp1231
g73
(dp1232
g93
g94
ssg82
g1226
sg75
(lp1233
S'http_accept_encoding'
p1234
asbag68
(g89
g70
NtRp1235
(dp1236
g73
(dp1237
g100
g101
ssg82
g1226
sg75
(lp1238
S':'
asbag68
(g89
g70
NtRp1239
(dp1240
g73
(dp1241
sg82
g1226
sg75
(lp1242
g68
(g69
g70
NtRp1243
(dp1244
g73
(dp1245
g81
I4
ssg82
g1239
sg75
(lp1246
S'gzip, deflate'
p1247
asbasbasbag68
(g84
g70
NtRp1248
(dp1249
g73
(dp1250
sg82
g1044
sg75
(lp1251
g68
(g89
g70
NtRp1252
(dp1253
g73
(dp1254
g93
g94
ssg82
g1248
sg75
(lp1255
S'http_accept_language'
p1256
asbag68
(g89
g70
NtRp1257
(dp1258
g73
(dp1259
g100
g101
ssg82
g1248
sg75
(lp1260
S':'
asbag68
(g89
g70
NtRp1261
(dp1262
g73
(dp1263
sg82
g1248
sg75
(lp1264
g68
(g69
g70
NtRp1265
(dp1266
g73
(dp1267
g81
I4
ssg82
g1261
sg75
(lp1268
S'en-US,en;q=0.5'
p1269
asbasbasbag68
(g84
g70
NtRp1270
(dp1271
g73
(dp1272
sg82
g1044
sg75
(lp1273
g68
(g89
g70
NtRp1274
(dp1275
g73
(dp1276
g93
g94
ssg82
g1270
sg75
(lp1277
S'http_cache_control'
p1278
asbag68
(g89
g70
NtRp1279
(dp1280
g73
(dp1281
g100
g101
ssg82
g1270
sg75
(lp1282
S':'
asbag68
(g89
g70
NtRp1283
(dp1284
g73
(dp1285
sg82
g1270
sg75
(lp1286
g68
(g69
g70
NtRp1287
(dp1288
g73
(dp1289
g81
I4
ssg82
g1283
sg75
(lp1290
S'max-age=0'
p1291
asbasbasbag68
(g84
g70
NtRp1292
(dp1293
g73
(dp1294
sg82
g1044
sg75
(lp1295
g68
(g89
g70
NtRp1296
(dp1297
g73
(dp1298
g93
g94
ssg82
g1292
sg75
(lp1299
S'http_connection'
p1300
asbag68
(g89
g70
NtRp1301
(dp1302
g73
(dp1303
g100
g101
ssg82
g1292
sg75
(lp1304
S':'
asbag68
(g89
g70
NtRp1305
(dp1306
g73
(dp1307
sg82
g1292
sg75
(lp1308
g68
(g69
g70
NtRp1309
(dp1310
g73
(dp1311
g81
I4
ssg82
g1305
sg75
(lp1312
S'keep-alive'
p1313
asbasbasbag68
(g84
g70
NtRp1314
(dp1315
g73
(dp1316
sg82
g1044
sg75
(lp1317
g68
(g89
g70
NtRp1318
(dp1319
g73
(dp1320
g93
g94
ssg82
g1314
sg75
(lp1321
S'http_cookie'
p1322
asbag68
(g89
g70
NtRp1323
(dp1324
g73
(dp1325
g100
g101
ssg82
g1314
sg75
(lp1326
S':'
asbag68
(g89
g70
NtRp1327
(dp1328
g73
(dp1329
sg82
g1314
sg75
(lp1330
g68
(g69
g70
NtRp1331
(dp1332
g73
(dp1333
g81
I4
ssg82
g1327
sg75
(lp1334
S'session_id_welcome=127.0.0.1-698c9672-8532-4540-be6b-864a180816f6; session_id_admin=127.0.0.1-32177690-19e2-42e4-a72c-7ff2b3d66aea; session_id_sss=127.0.0.1-3710a024-f9d4-48b6-82d8-76e05ad14bc4; session_id_kt=127.0.0.1-7e77715e-09d9-41f5-a841-8546ac18f69c'
p1335
asbasbasbag68
(g84
g70
NtRp1336
(dp1337
g73
(dp1338
sg82
g1044
sg75
(lp1339
g68
(g89
g70
NtRp1340
(dp1341
g73
(dp1342
g93
g94
ssg82
g1336
sg75
(lp1343
S'http_host'
p1344
asbag68
(g89
g70
NtRp1345
(dp1346
g73
(dp1347
g100
g101
ssg82
g1336
sg75
(lp1348
S':'
asbag68
(g89
g70
NtRp1349
(dp1350
g73
(dp1351
sg82
g1336
sg75
(lp1352
g68
(g69
g70
NtRp1353
(dp1354
g73
(dp1355
g81
I4
ssg82
g1349
sg75
(lp1356
S'127.0.0.1:8000'
p1357
asbasbasbag68
(g84
g70
NtRp1358
(dp1359
g73
(dp1360
sg82
g1044
sg75
(lp1361
g68
(g89
g70
NtRp1362
(dp1363
g73
(dp1364
g93
g94
ssg82
g1358
sg75
(lp1365
S'http_referer'
p1366
asbag68
(g89
g70
NtRp1367
(dp1368
g73
(dp1369
g100
g101
ssg82
g1358
sg75
(lp1370
S':'
asbag68
(g89
g70
NtRp1371
(dp1372
g73
(dp1373
sg82
g1358
sg75
(lp1374
g68
(g69
g70
NtRp1375
(dp1376
g73
(dp1377
g81
I4
ssg82
g1371
sg75
(lp1378
S'http://127.0.0.1:8000/sss/default/complaint'
p1379
asbasbasbag68
(g84
g70
NtRp1380
(dp1381
g73
(dp1382
sg82
g1044
sg75
(lp1383
g68
(g89
g70
NtRp1384
(dp1385
g73
(dp1386
g93
g94
ssg82
g1380
sg75
(lp1387
S'http_user_agent'
p1388
asbag68
(g89
g70
NtRp1389
(dp1390
g73
(dp1391
g100
g101
ssg82
g1380
sg75
(lp1392
S':'
asbag68
(g89
g70
NtRp1393
(dp1394
g73
(dp1395
sg82
g1380
sg75
(lp1396
g68
(g69
g70
NtRp1397
(dp1398
g73
(dp1399
g81
I4
ssg82
g1393
sg75
(lp1400
S'Mozilla/5.0 (X11; Ubuntu; Linux x86_64; rv:16.0) Gecko/20100101 Firefox/16.0'
p1401
asbasbasbag68
(g84
g70
NtRp1402
(dp1403
g73
(dp1404
sg82
g1044
sg75
(lp1405
g68
(g89
g70
NtRp1406
(dp1407
g73
(dp1408
g93
g94
ssg82
g1402
sg75
(lp1409
S'is_jython'
p1410
asbag68
(g89
g70
NtRp1411
(dp1412
g73
(dp1413
g100
g101
ssg82
g1402
sg75
(lp1414
S':'
asbag68
(g89
g70
NtRp1415
(dp1416
g73
(dp1417
sg82
g1402
sg75
(lp1418
g68
(g69
g70
NtRp1419
(dp1420
g73
(dp1421
g81
I4
ssg82
g1415
sg75
(lp1422
g111
asbasbasbag68
(g84
g70
NtRp1423
(dp1424
g73
(dp1425
sg82
g1044
sg75
(lp1426
g68
(g89
g70
NtRp1427
(dp1428
g73
(dp1429
g93
g94
ssg82
g1423
sg75
(lp1430
S'is_pypy'
p1431
asbag68
(g89
g70
NtRp1432
(dp1433
g73
(dp1434
g100
g101
ssg82
g1423
sg75
(lp1435
S':'
asbag68
(g89
g70
NtRp1436
(dp1437
g73
(dp1438
sg82
g1423
sg75
(lp1439
g68
(g69
g70
NtRp1440
(dp1441
g73
(dp1442
g81
I4
ssg82
g1436
sg75
(lp1443
g111
asbasbasbag68
(g84
g70
NtRp1444
(dp1445
g73
(dp1446
sg82
g1044
sg75
(lp1447
g68
(g89
g70
NtRp1448
(dp1449
g73
(dp1450
g93
g94
ssg82
g1444
sg75
(lp1451
S'local_hosts'
p1452
asbag68
(g89
g70
NtRp1453
(dp1454
g73
(dp1455
g100
g101
ssg82
g1444
sg75
(lp1456
S':'
asbag68
(g89
g70
NtRp1457
(dp1458
g73
(dp1459
sg82
g1444
sg75
(lp1460
g68
(g69
g70
NtRp1461
(dp1462
g73
(dp1463
g81
I4
ssg82
g1457
sg75
(lp1464
g68
(g77
g70
NtRp1465
(dp1466
g73
(dp1467
g81
I3
ssg82
Nsg75
(lp1468
g68
(g84
g70
NtRp1469
(dp1470
g73
(dp1471
sg82
g1465
sg75
(lp1472
g68
(g89
g70
NtRp1473
(dp1474
g73
(dp1475
sg82
g1469
sg75
(lp1476
g68
(g69
g70
NtRp1477
(dp1478
g73
(dp1479
g81
I3
ssg82
g1473
sg75
(lp1480
S'127.0.0.1'
p1481
asbasbasbag68
(g84
g70
NtRp1482
(dp1483
g73
(dp1484
sg82
g1465
sg75
(lp1485
g68
(g89
g70
NtRp1486
(dp1487
g73
(dp1488
sg82
g1482
sg75
(lp1489
g68
(g69
g70
NtRp1490
(dp1491
g73
(dp1492
g81
I3
ssg82
g1486
sg75
(lp1493
S'::ffff:127.0.0.1'
p1494
asbasbasbag68
(g84
g70
NtRp1495
(dp1496
g73
(dp1497
sg82
g1465
sg75
(lp1498
g68
(g89
g70
NtRp1499
(dp1500
g73
(dp1501
sg82
g1495
sg75
(lp1502
g68
(g69
g70
NtRp1503
(dp1504
g73
(dp1505
g81
I3
ssg82
g1499
sg75
(lp1506
S'bhanu-Dell-System-XPS-L502X'
p1507
asbasbasbag68
(g84
g70
NtRp1508
(dp1509
g73
(dp1510
sg82
g1465
sg75
(lp1511
g68
(g89
g70
NtRp1512
(dp1513
g73
(dp1514
sg82
g1508
sg75
(lp1515
g68
(g69
g70
NtRp1516
(dp1517
g73
(dp1518
g81
I3
ssg82
g1512
sg75
(lp1519
S'bhanu-Dell-System-XPS-L502X'
p1520
asbasbasbag68
(g84
g70
NtRp1521
(dp1522
g73
(dp1523
sg82
g1465
sg75
(lp1524
g68
(g89
g70
NtRp1525
(dp1526
g73
(dp1527
sg82
g1521
sg75
(lp1528
g68
(g69
g70
NtRp1529
(dp1530
g73
(dp1531
g81
I3
ssg82
g1525
sg75
(lp1532
S'127.0.1.1'
p1533
asbasbasbasbasbasbasbag68
(g84
g70
NtRp1534
(dp1535
g73
(dp1536
sg82
g1044
sg75
(lp1537
g68
(g89
g70
NtRp1538
(dp1539
g73
(dp1540
g93
g94
ssg82
g1534
sg75
(lp1541
S'path_info'
p1542
asbag68
(g89
g70
NtRp1543
(dp1544
g73
(dp1545
g100
g101
ssg82
g1534
sg75
(lp1546
S':'
asbag68
(g89
g70
NtRp1547
(dp1548
g73
(dp1549
sg82
g1534
sg75
(lp1550
g68
(g69
g70
NtRp1551
(dp1552
g73
(dp1553
g81
I4
ssg82
g1547
sg75
(lp1554
S'/sss/default/regcomplaint'
p1555
asbasbasbag68
(g84
g70
NtRp1556
(dp1557
g73
(dp1558
sg82
g1044
sg75
(lp1559
g68
(g89
g70
NtRp1560
(dp1561
g73
(dp1562
g93
g94
ssg82
g1556
sg75
(lp1563
S'query_string'
p1564
asbag68
(g89
g70
NtRp1565
(dp1566
g73
(dp1567
g100
g101
ssg82
g1556
sg75
(lp1568
S':'
asbag68
(g89
g70
NtRp1569
(dp1570
g73
(dp1571
sg82
g1556
sg75
(lp1572
g68
(g69
g70
NtRp1573
(dp1574
g73
(dp1575
g81
I4
ssg82
g1569
sg75
(lp1576
S''
asbasbasbag68
(g84
g70
NtRp1577
(dp1578
g73
(dp1579
sg82
g1044
sg75
(lp1580
g68
(g89
g70
NtRp1581
(dp1582
g73
(dp1583
g93
g94
ssg82
g1577
sg75
(lp1584
S'remote_addr'
p1585
asbag68
(g89
g70
NtRp1586
(dp1587
g73
(dp1588
g100
g101
ssg82
g1577
sg75
(lp1589
S':'
asbag68
(g89
g70
NtRp1590
(dp1591
g73
(dp1592
sg82
g1577
sg75
(lp1593
g68
(g69
g70
NtRp1594
(dp1595
g73
(dp1596
g81
I4
ssg82
g1590
sg75
(lp1597
g223
asbasbasbag68
(g84
g70
NtRp1598
(dp1599
g73
(dp1600
sg82
g1044
sg75
(lp1601
g68
(g89
g70
NtRp1602
(dp1603
g73
(dp1604
g93
g94
ssg82
g1598
sg75
(lp1605
S'remote_port'
p1606
asbag68
(g89
g70
NtRp1607
(dp1608
g73
(dp1609
g100
g101
ssg82
g1598
sg75
(lp1610
S':'
asbag68
(g89
g70
NtRp1611
(dp1612
g73
(dp1613
sg82
g1598
sg75
(lp1614
g68
(g69
g70
NtRp1615
(dp1616
g73
(dp1617
g81
I4
ssg82
g1611
sg75
(lp1618
S'34945'
p1619
asbasbasbag68
(g84
g70
NtRp1620
(dp1621
g73
(dp1622
sg82
g1044
sg75
(lp1623
g68
(g89
g70
NtRp1624
(dp1625
g73
(dp1626
g93
g94
ssg82
g1620
sg75
(lp1627
S'request_method'
p1628
asbag68
(g89
g70
NtRp1629
(dp1630
g73
(dp1631
g100
g101
ssg82
g1620
sg75
(lp1632
S':'
asbag68
(g89
g70
NtRp1633
(dp1634
g73
(dp1635
sg82
g1620
sg75
(lp1636
g68
(g69
g70
NtRp1637
(dp1638
g73
(dp1639
g81
I4
ssg82
g1633
sg75
(lp1640
S'GET'
p1641
asbasbasbag68
(g84
g70
NtRp1642
(dp1643
g73
(dp1644
sg82
g1044
sg75
(lp1645
g68
(g89
g70
NtRp1646
(dp1647
g73
(dp1648
g93
g94
ssg82
g1642
sg75
(lp1649
S'request_uri'
p1650
asbag68
(g89
g70
NtRp1651
(dp1652
g73
(dp1653
g100
g101
ssg82
g1642
sg75
(lp1654
S':'
asbag68
(g89
g70
NtRp1655
(dp1656
g73
(dp1657
sg82
g1642
sg75
(lp1658
g68
(g69
g70
NtRp1659
(dp1660
g73
(dp1661
g81
I4
ssg82
g1655
sg75
(lp1662
g1555
asbasbasbag68
(g84
g70
NtRp1663
(dp1664
g73
(dp1665
sg82
g1044
sg75
(lp1666
g68
(g89
g70
NtRp1667
(dp1668
g73
(dp1669
g93
g94
ssg82
g1663
sg75
(lp1670
S'script_name'
p1671
asbag68
(g89
g70
NtRp1672
(dp1673
g73
(dp1674
g100
g101
ssg82
g1663
sg75
(lp1675
S':'
asbag68
(g89
g70
NtRp1676
(dp1677
g73
(dp1678
sg82
g1663
sg75
(lp1679
g68
(g69
g70
NtRp1680
(dp1681
g73
(dp1682
g81
I4
ssg82
g1676
sg75
(lp1683
S''
asbasbasbag68
(g84
g70
NtRp1684
(dp1685
g73
(dp1686
sg82
g1044
sg75
(lp1687
g68
(g89
g70
NtRp1688
(dp1689
g73
(dp1690
g93
g94
ssg82
g1684
sg75
(lp1691
S'server_name'
p1692
asbag68
(g89
g70
NtRp1693
(dp1694
g73
(dp1695
g100
g101
ssg82
g1684
sg75
(lp1696
S':'
asbag68
(g89
g70
NtRp1697
(dp1698
g73
(dp1699
sg82
g1684
sg75
(lp1700
g68
(g69
g70
NtRp1701
(dp1702
g73
(dp1703
g81
I4
ssg82
g1697
sg75
(lp1704
g1520
asbasbasbag68
(g84
g70
NtRp1705
(dp1706
g73
(dp1707
sg82
g1044
sg75
(lp1708
g68
(g89
g70
NtRp1709
(dp1710
g73
(dp1711
g93
g94
ssg82
g1705
sg75
(lp1712
S'server_port'
p1713
asbag68
(g89
g70
NtRp1714
(dp1715
g73
(dp1716
g100
g101
ssg82
g1705
sg75
(lp1717
S':'
asbag68
(g89
g70
NtRp1718
(dp1719
g73
(dp1720
sg82
g1705
sg75
(lp1721
g68
(g69
g70
NtRp1722
(dp1723
g73
(dp1724
g81
I4
ssg82
g1718
sg75
(lp1725
S'8000'
p1726
asbasbasbag68
(g84
g70
NtRp1727
(dp1728
g73
(dp1729
sg82
g1044
sg75
(lp1730
g68
(g89
g70
NtRp1731
(dp1732
g73
(dp1733
g93
g94
ssg82
g1727
sg75
(lp1734
S'server_protocol'
p1735
asbag68
(g89
g70
NtRp1736
(dp1737
g73
(dp1738
g100
g101
ssg82
g1727
sg75
(lp1739
S':'
asbag68
(g89
g70
NtRp1740
(dp1741
g73
(dp1742
sg82
g1727
sg75
(lp1743
g68
(g69
g70
NtRp1744
(dp1745
g73
(dp1746
g81
I4
ssg82
g1740
sg75
(lp1747
S'HTTP/1.1'
p1748
asbasbasbag68
(g84
g70
NtRp1749
(dp1750
g73
(dp1751
sg82
g1044
sg75
(lp1752
g68
(g89
g70
NtRp1753
(dp1754
g73
(dp1755
g93
g94
ssg82
g1749
sg75
(lp1756
S'server_software'
p1757
asbag68
(g89
g70
NtRp1758
(dp1759
g73
(dp1760
g100
g101
ssg82
g1749
sg75
(lp1761
S':'
asbag68
(g89
g70
NtRp1762
(dp1763
g73
(dp1764
sg82
g1749
sg75
(lp1765
g68
(g69
g70
NtRp1766
(dp1767
g73
(dp1768
g81
I4
ssg82
g1762
sg75
(lp1769
S'Rocket 1.2.5'
p1770
asbasbasbag68
(g84
g70
NtRp1771
(dp1772
g73
(dp1773
sg82
g1044
sg75
(lp1774
g68
(g89
g70
NtRp1775
(dp1776
g73
(dp1777
g93
g94
ssg82
g1771
sg75
(lp1778
S'web2py_path'
p1779
asbag68
(g89
g70
NtRp1780
(dp1781
g73
(dp1782
g100
g101
ssg82
g1771
sg75
(lp1783
S':'
asbag68
(g89
g70
NtRp1784
(dp1785
g73
(dp1786
sg82
g1771
sg75
(lp1787
g68
(g69
g70
NtRp1788
(dp1789
g73
(dp1790
g81
I4
ssg82
g1784
sg75
(lp1791
g1091
asbasbasbag68
(g84
g70
NtRp1792
(dp1793
g73
(dp1794
sg82
g1044
sg75
(lp1795
g68
(g89
g70
NtRp1796
(dp1797
g73
(dp1798
g93
g94
ssg82
g1792
sg75
(lp1799
S'web2py_version'
p1800
asbag68
(g89
g70
NtRp1801
(dp1802
g73
(dp1803
g100
g101
ssg82
g1792
sg75
(lp1804
S':'
asbag68
(g89
g70
NtRp1805
(dp1806
g73
(dp1807
sg82
g1792
sg75
(lp1808
g68
(g69
g70
NtRp1809
(dp1810
g73
(dp1811
g81
I4
ssg82
g1805
sg75
(lp1812
g68
(g77
g70
NtRp1813
(dp1814
g73
(dp1815
g81
I3
ssg82
Nsg75
(lp1816
g68
(g84
g70
NtRp1817
(dp1818
g73
(dp1819
sg82
g1813
sg75
(lp1820
g68
(g89
g70
NtRp1821
(dp1822
g73
(dp1823
sg82
g1817
sg75
(lp1824
g68
(g69
g70
NtRp1825
(dp1826
g73
(dp1827
g81
I3
ssg82
g1821
sg75
(lp1828
S'2'
asbasbasbag68
(g84
g70
NtRp1829
(dp1830
g73
(dp1831
sg82
g1813
sg75
(lp1832
g68
(g89
g70
NtRp1833
(dp1834
g73
(dp1835
sg82
g1829
sg75
(lp1836
g68
(g69
g70
NtRp1837
(dp1838
g73
(dp1839
g81
I3
ssg82
g1833
sg75
(lp1840
S'2'
asbasbasbag68
(g84
g70
NtRp1841
(dp1842
g73
(dp1843
sg82
g1813
sg75
(lp1844
g68
(g89
g70
NtRp1845
(dp1846
g73
(dp1847
sg82
g1841
sg75
(lp1848
g68
(g69
g70
NtRp1849
(dp1850
g73
(dp1851
g81
I3
ssg82
g1845
sg75
(lp1852
S'1'
asbasbasbag68
(g84
g70
NtRp1853
(dp1854
g73
(dp1855
sg82
g1813
sg75
(lp1856
g68
(g89
g70
NtRp1857
(dp1858
g73
(dp1859
sg82
g1853
sg75
(lp1860
g68
(g69
g70
NtRp1861
(dp1862
g73
(dp1863
g81
I3
ssg82
g1857
sg75
(lp1864
S'datetime.datetime(2012, 10, 21, 16, 57, 4)'
p1865
asbasbasbag68
(g84
g70
NtRp1866
(dp1867
g73
(dp1868
sg82
g1813
sg75
(lp1869
g68
(g89
g70
NtRp1870
(dp1871
g73
(dp1872
sg82
g1866
sg75
(lp1873
g68
(g69
g70
NtRp1874
(dp1875
g73
(dp1876
g81
I3
ssg82
g1870
sg75
(lp1877
S'stable'
p1878
asbasbasbasbasbasbasbag68
(g84
g70
NtRp1879
(dp1880
g73
(dp1881
sg82
g1044
sg75
(lp1882
g68
(g89
g70
NtRp1883
(dp1884
g73
(dp1885
g93
g94
ssg82
g1879
sg75
(lp1886
S'wsgi_errors'
p1887
asbag68
(g89
g70
NtRp1888
(dp1889
g73
(dp1890
g100
g101
ssg82
g1879
sg75
(lp1891
S':'
asbag68
(g89
g70
NtRp1892
(dp1893
g73
(dp1894
sg82
g1879
sg75
(lp1895
g68
(g69
g70
NtRp1896
(dp1897
g73
(dp1898
g81
I4
ssg82
g1892
sg75
(lp1899
S"<open file '<stderr>', mode 'w' at 0x7fea0c376270>"
p1900
asbasbasbag68
(g84
g70
NtRp1901
(dp1902
g73
(dp1903
sg82
g1044
sg75
(lp1904
g68
(g89
g70
NtRp1905
(dp1906
g73
(dp1907
g93
g94
ssg82
g1901
sg75
(lp1908
S'wsgi_file_wrapper'
p1909
asbag68
(g89
g70
NtRp1910
(dp1911
g73
(dp1912
g100
g101
ssg82
g1901
sg75
(lp1913
S':'
asbag68
(g89
g70
NtRp1914
(dp1915
g73
(dp1916
sg82
g1901
sg75
(lp1917
g68
(g69
g70
NtRp1918
(dp1919
g73
(dp1920
g81
I4
ssg82
g1914
sg75
(lp1921
S'<class wsgiref.util.FileWrapper at 0x2649d50>'
p1922
asbasbasbag68
(g84
g70
NtRp1923
(dp1924
g73
(dp1925
sg82
g1044
sg75
(lp1926
g68
(g89
g70
NtRp1927
(dp1928
g73
(dp1929
g93
g94
ssg82
g1923
sg75
(lp1930
S'wsgi_input'
p1931
asbag68
(g89
g70
NtRp1932
(dp1933
g73
(dp1934
g100
g101
ssg82
g1923
sg75
(lp1935
S':'
asbag68
(g89
g70
NtRp1936
(dp1937
g73
(dp1938
sg82
g1923
sg75
(lp1939
g68
(g69
g70
NtRp1940
(dp1941
g73
(dp1942
g81
I4
ssg82
g1936
sg75
(lp1943
S'<socket._fileobject object at 0x7fe9f854a650>'
p1944
asbasbasbag68
(g84
g70
NtRp1945
(dp1946
g73
(dp1947
sg82
g1044
sg75
(lp1948
g68
(g89
g70
NtRp1949
(dp1950
g73
(dp1951
g93
g94
ssg82
g1945
sg75
(lp1952
S'wsgi_multiprocess'
p1953
asbag68
(g89
g70
NtRp1954
(dp1955
g73
(dp1956
g100
g101
ssg82
g1945
sg75
(lp1957
S':'
asbag68
(g89
g70
NtRp1958
(dp1959
g73
(dp1960
sg82
g1945
sg75
(lp1961
g68
(g69
g70
NtRp1962
(dp1963
g73
(dp1964
g81
I4
ssg82
g1958
sg75
(lp1965
g111
asbasbasbag68
(g84
g70
NtRp1966
(dp1967
g73
(dp1968
sg82
g1044
sg75
(lp1969
g68
(g89
g70
NtRp1970
(dp1971
g73
(dp1972
g93
g94
ssg82
g1966
sg75
(lp1973
S'wsgi_multithread'
p1974
asbag68
(g89
g70
NtRp1975
(dp1976
g73
(dp1977
g100
g101
ssg82
g1966
sg75
(lp1978
S':'
asbag68
(g89
g70
NtRp1979
(dp1980
g73
(dp1981
sg82
g1966
sg75
(lp1982
g68
(g69
g70
NtRp1983
(dp1984
g73
(dp1985
g81
I4
ssg82
g1979
sg75
(lp1986
S'True'
p1987
asbasbasbag68
(g84
g70
NtRp1988
(dp1989
g73
(dp1990
sg82
g1044
sg75
(lp1991
g68
(g89
g70
NtRp1992
(dp1993
g73
(dp1994
g93
g94
ssg82
g1988
sg75
(lp1995
S'wsgi_run_once'
p1996
asbag68
(g89
g70
NtRp1997
(dp1998
g73
(dp1999
g100
g101
ssg82
g1988
sg75
(lp2000
S':'
asbag68
(g89
g70
NtRp2001
(dp2002
g73
(dp2003
sg82
g1988
sg75
(lp2004
g68
(g69
g70
NtRp2005
(dp2006
g73
(dp2007
g81
I4
ssg82
g2001
sg75
(lp2008
g111
asbasbasbag68
(g84
g70
NtRp2009
(dp2010
g73
(dp2011
sg82
g1044
sg75
(lp2012
g68
(g89
g70
NtRp2013
(dp2014
g73
(dp2015
g93
g94
ssg82
g2009
sg75
(lp2016
S'wsgi_url_scheme'
p2017
asbag68
(g89
g70
NtRp2018
(dp2019
g73
(dp2020
g100
g101
ssg82
g2009
sg75
(lp2021
S':'
asbag68
(g89
g70
NtRp2022
(dp2023
g73
(dp2024
sg82
g2009
sg75
(lp2025
g68
(g69
g70
NtRp2026
(dp2027
g73
(dp2028
g81
I4
ssg82
g2022
sg75
(lp2029
S'http'
p2030
asbasbasbag68
(g84
g70
NtRp2031
(dp2032
g73
(dp2033
sg82
g1044
sg75
(lp2034
g68
(g89
g70
NtRp2035
(dp2036
g73
(dp2037
g93
g94
ssg82
g2031
sg75
(lp2038
S'wsgi_version'
p2039
asbag68
(g89
g70
NtRp2040
(dp2041
g73
(dp2042
g100
g101
ssg82
g2031
sg75
(lp2043
S':'
asbag68
(g89
g70
NtRp2044
(dp2045
g73
(dp2046
sg82
g2031
sg75
(lp2047
g68
(g69
g70
NtRp2048
(dp2049
g73
(dp2050
g81
I4
ssg82
g2044
sg75
(lp2051
g68
(g77
g70
NtRp2052
(dp2053
g73
(dp2054
g81
I3
ssg82
Nsg75
(lp2055
g68
(g84
g70
NtRp2056
(dp2057
g73
(dp2058
sg82
g2052
sg75
(lp2059
g68
(g89
g70
NtRp2060
(dp2061
g73
(dp2062
sg82
g2056
sg75
(lp2063
g68
(g69
g70
NtRp2064
(dp2065
g73
(dp2066
g81
I3
ssg82
g2060
sg75
(lp2067
S'1'
asbasbasbag68
(g84
g70
NtRp2068
(dp2069
g73
(dp2070
sg82
g2052
sg75
(lp2071
g68
(g89
g70
NtRp2072
(dp2073
g73
(dp2074
sg82
g2068
sg75
(lp2075
g68
(g69
g70
NtRp2076
(dp2077
g73
(dp2078
g81
I3
ssg82
g2072
sg75
(lp2079
S'0'
asbasbasbasbasbasbasbasbasbasbasbag68
(g84
g70
NtRp2080
(dp2081
g73
(dp2082
sg82
g78
sg75
(lp2083
g68
(g89
g70
NtRp2084
(dp2085
g73
(dp2086
g93
g94
ssg82
g2080
sg75
(lp2087
S'extension'
p2088
asbag68
(g89
g70
NtRp2089
(dp2090
g73
(dp2091
g100
g101
ssg82
g2080
sg75
(lp2092
S':'
asbag68
(g89
g70
NtRp2093
(dp2094
g73
(dp2095
sg82
g2080
sg75
(lp2096
g68
(g69
g70
NtRp2097
(dp2098
g73
(dp2099
g81
I5
ssg82
g2093
sg75
(lp2100
S'html'
p2101
asbasbasbag68
(g84
g70
NtRp2102
(dp2103
g73
(dp2104
sg82
g78
sg75
(lp2105
g68
(g89
g70
NtRp2106
(dp2107
g73
(dp2108
g93
g94
ssg82
g2102
sg75
(lp2109
S'folder'
p2110
asbag68
(g89
g70
NtRp2111
(dp2112
g73
(dp2113
g100
g101
ssg82
g2102
sg75
(lp2114
S':'
asbag68
(g89
g70
NtRp2115
(dp2116
g73
(dp2117
sg82
g2102
sg75
(lp2118
g68
(g69
g70
NtRp2119
(dp2120
g73
(dp2121
g81
I5
ssg82
g2115
sg75
(lp2122
S'/home/bhanu/web2py/applications/sss/'
p2123
asbasbasbag68
(g84
g70
NtRp2124
(dp2125
g73
(dp2126
sg82
g78
sg75
(lp2127
g68
(g89
g70
NtRp2128
(dp2129
g73
(dp2130
g93
g94
ssg82
g2124
sg75
(lp2131
S'function'
p2132
asbag68
(g89
g70
NtRp2133
(dp2134
g73
(dp2135
g100
g101
ssg82
g2124
sg75
(lp2136
S':'
asbag68
(g89
g70
NtRp2137
(dp2138
g73
(dp2139
sg82
g2124
sg75
(lp2140
g68
(g69
g70
NtRp2141
(dp2142
g73
(dp2143
g81
I5
ssg82
g2137
sg75
(lp2144
S'regcomplaint'
p2145
asbasbasbag68
(g84
g70
NtRp2146
(dp2147
g73
(dp2148
sg82
g78
sg75
(lp2149
g68
(g89
g70
NtRp2150
(dp2151
g73
(dp2152
g93
g94
ssg82
g2146
sg75
(lp2153
S'get_vars'
p2154
asbag68
(g89
g70
NtRp2155
(dp2156
g73
(dp2157
g100
g101
ssg82
g2146
sg75
(lp2158
S':'
asbag68
(g89
g70
NtRp2159
(dp2160
g73
(dp2161
sg82
g2146
sg75
(lp2162
g68
(g69
g70
NtRp2163
(dp2164
g73
(dp2165
g81
I5
ssg82
g2159
sg75
(lp2166
g68
(g77
g70
NtRp2167
(dp2168
g73
(dp2169
g81
I4
ssg82
Nsg75
(lp2170
sbasbasbasbag68
(g84
g70
NtRp2171
(dp2172
g73
(dp2173
sg82
g78
sg75
(lp2174
g68
(g89
g70
NtRp2175
(dp2176
g73
(dp2177
g93
g94
ssg82
g2171
sg75
(lp2178
S'global_settings'
p2179
asbag68
(g89
g70
NtRp2180
(dp2181
g73
(dp2182
g100
g101
ssg82
g2171
sg75
(lp2183
S':'
asbag68
(g89
g70
NtRp2184
(dp2185
g73
(dp2186
sg82
g2171
sg75
(lp2187
g68
(g69
g70
NtRp2188
(dp2189
g73
(dp2190
g81
I5
ssg82
g2184
sg75
(lp2191
g68
(g77
g70
NtRp2192
(dp2193
g73
(dp2194
g81
I4
ssg82
Nsg75
(lp2195
g68
(g84
g70
NtRp2196
(dp2197
g73
(dp2198
sg82
g2192
sg75
(lp2199
g68
(g89
g70
NtRp2200
(dp2201
g73
(dp2202
g93
g94
ssg82
g2196
sg75
(lp2203
g1056
asbag68
(g89
g70
NtRp2204
(dp2205
g73
(dp2206
g100
g101
ssg82
g2196
sg75
(lp2207
S':'
asbag68
(g89
g70
NtRp2208
(dp2209
g73
(dp2210
sg82
g2196
sg75
(lp2211
g68
(g69
g70
NtRp2212
(dp2213
g73
(dp2214
g81
I4
ssg82
g2208
sg75
(lp2215
S"set(['/home/bhanu/web2py/applications/admin/', '/home/bhanu/web2py/applications/welcome/', '/home/bhanu/web2py/applications/sss/', '/home/bhanu/web2py/applications/kt/'])"
p2216
asbasbasbag68
(g84
g70
NtRp2217
(dp2218
g73
(dp2219
sg82
g2192
sg75
(lp2220
g68
(g89
g70
NtRp2221
(dp2222
g73
(dp2223
g93
g94
ssg82
g2217
sg75
(lp2224
g1078
asbag68
(g89
g70
NtRp2225
(dp2226
g73
(dp2227
g100
g101
ssg82
g2217
sg75
(lp2228
S':'
asbag68
(g89
g70
NtRp2229
(dp2230
g73
(dp2231
sg82
g2217
sg75
(lp2232
g68
(g69
g70
NtRp2233
(dp2234
g73
(dp2235
g81
I4
ssg82
g2229
sg75
(lp2236
g1091
asbasbasbag68
(g84
g70
NtRp2237
(dp2238
g73
(dp2239
sg82
g2192
sg75
(lp2240
g68
(g89
g70
NtRp2241
(dp2242
g73
(dp2243
g93
g94
ssg82
g2237
sg75
(lp2244
g1100
asbag68
(g89
g70
NtRp2245
(dp2246
g73
(dp2247
g100
g101
ssg82
g2237
sg75
(lp2248
S':'
asbag68
(g89
g70
NtRp2249
(dp2250
g73
(dp2251
sg82
g2237
sg75
(lp2252
g68
(g69
g70
NtRp2253
(dp2254
g73
(dp2255
g81
I4
ssg82
g2249
sg75
(lp2256
g68
(g77
g70
NtRp2257
(dp2258
g73
(dp2259
g81
I3
ssg82
Nsg75
(lp2260
sbasbasbasbag68
(g84
g70
NtRp2261
(dp2262
g73
(dp2263
sg82
g2192
sg75
(lp2264
g68
(g89
g70
NtRp2265
(dp2266
g73
(dp2267
g93
g94
ssg82
g2261
sg75
(lp2268
g1125
asbag68
(g89
g70
NtRp2269
(dp2270
g73
(dp2271
g100
g101
ssg82
g2261
sg75
(lp2272
S':'
asbag68
(g89
g70
NtRp2273
(dp2274
g73
(dp2275
sg82
g2261
sg75
(lp2276
g68
(g69
g70
NtRp2277
(dp2278
g73
(dp2279
g81
I4
ssg82
g2273
sg75
(lp2280
S"<Values at 0x2715f80: {'verbose': False, 'ip': '127.0.0.1', 'with_scheduler': False, 'ips': ['127.0.1.1'], 'shutdown_timeout': 5, 'taskbar': False, 'port': 8000, 'maxthreads': None, 'softcron': False, 'server_name': 'bhanu-Dell-System-XPS-L502X', 'bpython': False, 'nogui': False, 'pid_filename': 'httpserver.pid', 'extcron': False, 'runcron': False, 'run_system_tests': False, 'test': None, 'folder': '/home/bhanu/web2py', 'config': '', 'minthreads': None, 'winservice': '', 'shell': None, 'run': '', 'log_filename': 'httpserver.log', 'debuglevel': 30, 'args': [''], 'socket_timeout': 5, 'ssl_ca_certificate': None, 'scheduler': None, 'profiler_filename': None, 'ssl_private_key': '', 'scheduler_groups': None, 'password': '1', 'request_queue_size': 5, 'ssl_certificate': '', 'cronjob': False, 'numthreads': None, 'quiet': False, 'interfaces': None, 'import_models': False, 'timeout': 10, 'plain': False, 'nobanner': False}>"
p2281
asbasbasbag68
(g84
g70
NtRp2282
(dp2283
g73
(dp2284
sg82
g2192
sg75
(lp2285
g68
(g89
g70
NtRp2286
(dp2287
g73
(dp2288
g93
g94
ssg82
g2282
sg75
(lp2289
g1147
asbag68
(g89
g70
NtRp2290
(dp2291
g73
(dp2292
g100
g101
ssg82
g2282
sg75
(lp2293
S':'
asbag68
(g89
g70
NtRp2294
(dp2295
g73
(dp2296
sg82
g2282
sg75
(lp2297
g68
(g69
g70
NtRp2298
(dp2299
g73
(dp2300
g81
I4
ssg82
g2294
sg75
(lp2301
S'set([])'
p2302
asbasbasbag68
(g84
g70
NtRp2303
(dp2304
g73
(dp2305
sg82
g2192
sg75
(lp2306
g68
(g89
g70
NtRp2307
(dp2308
g73
(dp2309
g93
g94
ssg82
g2303
sg75
(lp2310
g1169
asbag68
(g89
g70
NtRp2311
(dp2312
g73
(dp2313
g100
g101
ssg82
g2303
sg75
(lp2314
S':'
asbag68
(g89
g70
NtRp2315
(dp2316
g73
(dp2317
sg82
g2303
sg75
(lp2318
g68
(g69
g70
NtRp2319
(dp2320
g73
(dp2321
g81
I4
ssg82
g2315
sg75
(lp2322
g111
asbasbasbag68
(g84
g70
NtRp2323
(dp2324
g73
(dp2325
sg82
g2192
sg75
(lp2326
g68
(g89
g70
NtRp2327
(dp2328
g73
(dp2329
g93
g94
ssg82
g2323
sg75
(lp2330
g1190
asbag68
(g89
g70
NtRp2331
(dp2332
g73
(dp2333
g100
g101
ssg82
g2323
sg75
(lp2334
S':'
asbag68
(g89
g70
NtRp2335
(dp2336
g73
(dp2337
sg82
g2323
sg75
(lp2338
g68
(g69
g70
NtRp2339
(dp2340
g73
(dp2341
g81
I4
ssg82
g2335
sg75
(lp2342
g1203
asbasbasbag68
(g84
g70
NtRp2343
(dp2344
g73
(dp2345
sg82
g2192
sg75
(lp2346
g68
(g89
g70
NtRp2347
(dp2348
g73
(dp2349
g93
g94
ssg82
g2343
sg75
(lp2350
g1410
asbag68
(g89
g70
NtRp2351
(dp2352
g73
(dp2353
g100
g101
ssg82
g2343
sg75
(lp2354
S':'
asbag68
(g89
g70
NtRp2355
(dp2356
g73
(dp2357
sg82
g2343
sg75
(lp2358
g68
(g69
g70
NtRp2359
(dp2360
g73
(dp2361
g81
I4
ssg82
g2355
sg75
(lp2362
g111
asbasbasbag68
(g84
g70
NtRp2363
(dp2364
g73
(dp2365
sg82
g2192
sg75
(lp2366
g68
(g89
g70
NtRp2367
(dp2368
g73
(dp2369
g93
g94
ssg82
g2363
sg75
(lp2370
g1431
asbag68
(g89
g70
NtRp2371
(dp2372
g73
(dp2373
g100
g101
ssg82
g2363
sg75
(lp2374
S':'
asbag68
(g89
g70
NtRp2375
(dp2376
g73
(dp2377
sg82
g2363
sg75
(lp2378
g68
(g69
g70
NtRp2379
(dp2380
g73
(dp2381
g81
I4
ssg82
g2375
sg75
(lp2382
g111
asbasbasbag68
(g84
g70
NtRp2383
(dp2384
g73
(dp2385
sg82
g2192
sg75
(lp2386
g68
(g89
g70
NtRp2387
(dp2388
g73
(dp2389
g93
g94
ssg82
g2383
sg75
(lp2390
g1452
asbag68
(g89
g70
NtRp2391
(dp2392
g73
(dp2393
g100
g101
ssg82
g2383
sg75
(lp2394
S':'
asbag68
(g89
g70
NtRp2395
(dp2396
g73
(dp2397
sg82
g2383
sg75
(lp2398
g68
(g69
g70
NtRp2399
(dp2400
g73
(dp2401
g81
I4
ssg82
g2395
sg75
(lp2402
g68
(g77
g70
NtRp2403
(dp2404
g73
(dp2405
g81
I3
ssg82
Nsg75
(lp2406
g68
(g84
g70
NtRp2407
(dp2408
g73
(dp2409
sg82
g2403
sg75
(lp2410
g68
(g89
g70
NtRp2411
(dp2412
g73
(dp2413
sg82
g2407
sg75
(lp2414
g68
(g69
g70
NtRp2415
(dp2416
g73
(dp2417
g81
I3
ssg82
g2411
sg75
(lp2418
g1481
asbasbasbag68
(g84
g70
NtRp2419
(dp2420
g73
(dp2421
sg82
g2403
sg75
(lp2422
g68
(g89
g70
NtRp2423
(dp2424
g73
(dp2425
sg82
g2419
sg75
(lp2426
g68
(g69
g70
NtRp2427
(dp2428
g73
(dp2429
g81
I3
ssg82
g2423
sg75
(lp2430
g1494
asbasbasbag68
(g84
g70
NtRp2431
(dp2432
g73
(dp2433
sg82
g2403
sg75
(lp2434
g68
(g89
g70
NtRp2435
(dp2436
g73
(dp2437
sg82
g2431
sg75
(lp2438
g68
(g69
g70
NtRp2439
(dp2440
g73
(dp2441
g81
I3
ssg82
g2435
sg75
(lp2442
g1507
asbasbasbag68
(g84
g70
NtRp2443
(dp2444
g73
(dp2445
sg82
g2403
sg75
(lp2446
g68
(g89
g70
NtRp2447
(dp2448
g73
(dp2449
sg82
g2443
sg75
(lp2450
g68
(g69
g70
NtRp2451
(dp2452
g73
(dp2453
g81
I3
ssg82
g2447
sg75
(lp2454
g1520
asbasbasbag68
(g84
g70
NtRp2455
(dp2456
g73
(dp2457
sg82
g2403
sg75
(lp2458
g68
(g89
g70
NtRp2459
(dp2460
g73
(dp2461
sg82
g2455
sg75
(lp2462
g68
(g69
g70
NtRp2463
(dp2464
g73
(dp2465
g81
I3
ssg82
g2459
sg75
(lp2466
g1533
asbasbasbasbasbasbasbag68
(g84
g70
NtRp2467
(dp2468
g73
(dp2469
sg82
g2192
sg75
(lp2470
g68
(g89
g70
NtRp2471
(dp2472
g73
(dp2473
g93
g94
ssg82
g2467
sg75
(lp2474
g1800
asbag68
(g89
g70
NtRp2475
(dp2476
g73
(dp2477
g100
g101
ssg82
g2467
sg75
(lp2478
S':'
asbag68
(g89
g70
NtRp2479
(dp2480
g73
(dp2481
sg82
g2467
sg75
(lp2482
g68
(g69
g70
NtRp2483
(dp2484
g73
(dp2485
g81
I4
ssg82
g2479
sg75
(lp2486
g68
(g77
g70
NtRp2487
(dp2488
g73
(dp2489
g81
I3
ssg82
Nsg75
(lp2490
g68
(g84
g70
NtRp2491
(dp2492
g73
(dp2493
sg82
g2487
sg75
(lp2494
g68
(g89
g70
NtRp2495
(dp2496
g73
(dp2497
sg82
g2491
sg75
(lp2498
g68
(g69
g70
NtRp2499
(dp2500
g73
(dp2501
g81
I3
ssg82
g2495
sg75
(lp2502
S'2'
asbasbasbag68
(g84
g70
NtRp2503
(dp2504
g73
(dp2505
sg82
g2487
sg75
(lp2506
g68
(g89
g70
NtRp2507
(dp2508
g73
(dp2509
sg82
g2503
sg75
(lp2510
g68
(g69
g70
NtRp2511
(dp2512
g73
(dp2513
g81
I3
ssg82
g2507
sg75
(lp2514
S'2'
asbasbasbag68
(g84
g70
NtRp2515
(dp2516
g73
(dp2517
sg82
g2487
sg75
(lp2518
g68
(g89
g70
NtRp2519
(dp2520
g73
(dp2521
sg82
g2515
sg75
(lp2522
g68
(g69
g70
NtRp2523
(dp2524
g73
(dp2525
g81
I3
ssg82
g2519
sg75
(lp2526
S'1'
asbasbasbag68
(g84
g70
NtRp2527
(dp2528
g73
(dp2529
sg82
g2487
sg75
(lp2530
g68
(g89
g70
NtRp2531
(dp2532
g73
(dp2533
sg82
g2527
sg75
(lp2534
g68
(g69
g70
NtRp2535
(dp2536
g73
(dp2537
g81
I3
ssg82
g2531
sg75
(lp2538
S'datetime.datetime(2012, 10, 21, 16, 57, 4)'
p2539
asbasbasbag68
(g84
g70
NtRp2540
(dp2541
g73
(dp2542
sg82
g2487
sg75
(lp2543
g68
(g89
g70
NtRp2544
(dp2545
g73
(dp2546
sg82
g2540
sg75
(lp2547
g68
(g69
g70
NtRp2548
(dp2549
g73
(dp2550
g81
I3
ssg82
g2544
sg75
(lp2551
g1878
asbasbasbasbasbasbasbasbasbasbasbag68
(g84
g70
NtRp2552
(dp2553
g73
(dp2554
sg82
g78
sg75
(lp2555
g68
(g89
g70
NtRp2556
(dp2557
g73
(dp2558
g93
g94
ssg82
g2552
sg75
(lp2559
S'is_https'
p2560
asbag68
(g89
g70
NtRp2561
(dp2562
g73
(dp2563
g100
g101
ssg82
g2552
sg75
(lp2564
S':'
asbag68
(g89
g70
NtRp2565
(dp2566
g73
(dp2567
sg82
g2552
sg75
(lp2568
g68
(g69
g70
NtRp2569
(dp2570
g73
(dp2571
g81
I5
ssg82
g2565
sg75
(lp2572
g111
asbasbasbag68
(g84
g70
NtRp2573
(dp2574
g73
(dp2575
sg82
g78
sg75
(lp2576
g68
(g89
g70
NtRp2577
(dp2578
g73
(dp2579
g93
g94
ssg82
g2573
sg75
(lp2580
S'is_local'
p2581
asbag68
(g89
g70
NtRp2582
(dp2583
g73
(dp2584
g100
g101
ssg82
g2573
sg75
(lp2585
S':'
asbag68
(g89
g70
NtRp2586
(dp2587
g73
(dp2588
sg82
g2573
sg75
(lp2589
g68
(g69
g70
NtRp2590
(dp2591
g73
(dp2592
g81
I5
ssg82
g2586
sg75
(lp2593
g1987
asbasbasbag68
(g84
g70
NtRp2594
(dp2595
g73
(dp2596
sg82
g78
sg75
(lp2597
g68
(g89
g70
NtRp2598
(dp2599
g73
(dp2600
g93
g94
ssg82
g2594
sg75
(lp2601
S'is_restful'
p2602
asbag68
(g89
g70
NtRp2603
(dp2604
g73
(dp2605
g100
g101
ssg82
g2594
sg75
(lp2606
S':'
asbag68
(g89
g70
NtRp2607
(dp2608
g73
(dp2609
sg82
g2594
sg75
(lp2610
g68
(g69
g70
NtRp2611
(dp2612
g73
(dp2613
g81
I5
ssg82
g2607
sg75
(lp2614
g111
asbasbasbag68
(g84
g70
NtRp2615
(dp2616
g73
(dp2617
sg82
g78
sg75
(lp2618
g68
(g89
g70
NtRp2619
(dp2620
g73
(dp2621
g93
g94
ssg82
g2615
sg75
(lp2622
S'now'
p2623
asbag68
(g89
g70
NtRp2624
(dp2625
g73
(dp2626
g100
g101
ssg82
g2615
sg75
(lp2627
S':'
asbag68
(g89
g70
NtRp2628
(dp2629
g73
(dp2630
sg82
g2615
sg75
(lp2631
g68
(g69
g70
NtRp2632
(dp2633
g73
(dp2634
g81
I5
ssg82
g2628
sg75
(lp2635
S'datetime.datetime(2012, 11, 14, 0, 45, 51, 449014)'
p2636
asbasbasbag68
(g84
g70
NtRp2637
(dp2638
g73
(dp2639
sg82
g78
sg75
(lp2640
g68
(g89
g70
NtRp2641
(dp2642
g73
(dp2643
g93
g94
ssg82
g2637
sg75
(lp2644
S'post_vars'
p2645
asbag68
(g89
g70
NtRp2646
(dp2647
g73
(dp2648
g100
g101
ssg82
g2637
sg75
(lp2649
S':'
asbag68
(g89
g70
NtRp2650
(dp2651
g73
(dp2652
sg82
g2637
sg75
(lp2653
g68
(g69
g70
NtRp2654
(dp2655
g73
(dp2656
g81
I5
ssg82
g2650
sg75
(lp2657
g68
(g77
g70
NtRp2658
(dp2659
g73
(dp2660
g81
I4
ssg82
Nsg75
(lp2661
sbasbasbasbag68
(g84
g70
NtRp2662
(dp2663
g73
(dp2664
sg82
g78
sg75
(lp2665
g68
(g89
g70
NtRp2666
(dp2667
g73
(dp2668
g93
g94
ssg82
g2662
sg75
(lp2669
S'raw_args'
p2670
asbag68
(g89
g70
NtRp2671
(dp2672
g73
(dp2673
g100
g101
ssg82
g2662
sg75
(lp2674
S':'
asbag68
(g89
g70
NtRp2675
(dp2676
g73
(dp2677
sg82
g2662
sg75
(lp2678
g68
(g69
g70
NtRp2679
(dp2680
g73
(dp2681
g81
I5
ssg82
g2675
sg75
(lp2682
S''
asbasbasbag68
(g84
g70
NtRp2683
(dp2684
g73
(dp2685
sg82
g78
sg75
(lp2686
g68
(g89
g70
NtRp2687
(dp2688
g73
(dp2689
g93
g94
ssg82
g2683
sg75
(lp2690
S'raw_extension'
p2691
asbag68
(g89
g70
NtRp2692
(dp2693
g73
(dp2694
g100
g101
ssg82
g2683
sg75
(lp2695
S':'
asbag68
(g89
g70
NtRp2696
(dp2697
g73
(dp2698
sg82
g2683
sg75
(lp2699
g68
(g69
g70
NtRp2700
(dp2701
g73
(dp2702
g81
I5
ssg82
g2696
sg75
(lp2703
S'None'
p2704
asbasbasbag68
(g84
g70
NtRp2705
(dp2706
g73
(dp2707
sg82
g78
sg75
(lp2708
g68
(g89
g70
NtRp2709
(dp2710
g73
(dp2711
g93
g94
ssg82
g2705
sg75
(lp2712
S'url'
p2713
asbag68
(g89
g70
NtRp2714
(dp2715
g73
(dp2716
g100
g101
ssg82
g2705
sg75
(lp2717
S':'
asbag68
(g89
g70
NtRp2718
(dp2719
g73
(dp2720
sg82
g2705
sg75
(lp2721
g68
(g69
g70
NtRp2722
(dp2723
g73
(dp2724
g81
I5
ssg82
g2718
sg75
(lp2725
g1555
asbasbasbag68
(g84
g70
NtRp2726
(dp2727
g73
(dp2728
sg82
g78
sg75
(lp2729
g68
(g89
g70
NtRp2730
(dp2731
g73
(dp2732
g93
g94
ssg82
g2726
sg75
(lp2733
S'utcnow'
p2734
asbag68
(g89
g70
NtRp2735
(dp2736
g73
(dp2737
g100
g101
ssg82
g2726
sg75
(lp2738
S':'
asbag68
(g89
g70
NtRp2739
(dp2740
g73
(dp2741
sg82
g2726
sg75
(lp2742
g68
(g69
g70
NtRp2743
(dp2744
g73
(dp2745
g81
I5
ssg82
g2739
sg75
(lp2746
S'datetime.datetime(2012, 11, 13, 19, 15, 51, 449084)'
p2747
asbasbasbag68
(g84
g70
NtRp2748
(dp2749
g73
(dp2750
sg82
g78
sg75
(lp2751
g68
(g89
g70
NtRp2752
(dp2753
g73
(dp2754
g93
g94
ssg82
g2748
sg75
(lp2755
S'uuid'
p2756
asbag68
(g89
g70
NtRp2757
(dp2758
g73
(dp2759
g100
g101
ssg82
g2748
sg75
(lp2760
S':'
asbag68
(g89
g70
NtRp2761
(dp2762
g73
(dp2763
sg82
g2748
sg75
(lp2764
g68
(g69
g70
NtRp2765
(dp2766
g73
(dp2767
g81
I5
ssg82
g2761
sg75
(lp2768
S'sss/127.0.0.1.2012-11-14.00-45-51.53fea3f2-83d8-40b8-8c41-5f9b01422881'
p2769
asbasbasbag68
(g84
g70
NtRp2770
(dp2771
g73
(dp2772
sg82
g78
sg75
(lp2773
g68
(g89
g70
NtRp2774
(dp2775
g73
(dp2776
g93
g94
ssg82
g2770
sg75
(lp2777
S'vars'
p2778
asbag68
(g89
g70
NtRp2779
(dp2780
g73
(dp2781
g100
g101
ssg82
g2770
sg75
(lp2782
S':'
asbag68
(g89
g70
NtRp2783
(dp2784
g73
(dp2785
sg82
g2770
sg75
(lp2786
g68
(g69
g70
NtRp2787
(dp2788
g73
(dp2789
g81
I5
ssg82
g2783
sg75
(lp2790
g68
(g77
g70
NtRp2791
(dp2792
g73
(dp2793
g81
I4
ssg82
Nsg75
(lp2794
sbasbasbasbag68
(g84
g70
NtRp2795
(dp2796
g73
(dp2797
sg82
g78
sg75
(lp2798
g68
(g89
g70
NtRp2799
(dp2800
g73
(dp2801
g93
g94
ssg82
g2795
sg75
(lp2802
S'wsgi'
p2803
asbag68
(g89
g70
NtRp2804
(dp2805
g73
(dp2806
g100
g101
ssg82
g2795
sg75
(lp2807
S':'
asbag68
(g89
g70
NtRp2808
(dp2809
g73
(dp2810
sg82
g2795
sg75
(lp2811
g68
(g69
g70
NtRp2812
(dp2813
g73
(dp2814
g81
I5
ssg82
g2808
sg75
(lp2815
g68
(g77
g70
NtRp2816
(dp2817
g73
(dp2818
g81
I4
ssg82
Nsg75
(lp2819
g68
(g84
g70
NtRp2820
(dp2821
g73
(dp2822
sg82
g2816
sg75
(lp2823
g68
(g89
g70
NtRp2824
(dp2825
g73
(dp2826
g93
g94
ssg82
g2820
sg75
(lp2827
S'environ'
p2828
asbag68
(g89
g70
NtRp2829
(dp2830
g73
(dp2831
g100
g101
ssg82
g2820
sg75
(lp2832
S':'
asbag68
(g89
g70
NtRp2833
(dp2834
g73
(dp2835
sg82
g2820
sg75
(lp2836
g68
(g69
g70
NtRp2837
(dp2838
g73
(dp2839
g81
I4
ssg82
g2833
sg75
(lp2840
g68
(g77
g70
NtRp2841
(dp2842
g73
(dp2843
g81
I3
ssg82
Nsg75
(lp2844
g68
(g84
g70
NtRp2845
(dp2846
g73
(dp2847
sg82
g2841
sg75
(lp2848
g68
(g89
g70
NtRp2849
(dp2850
g73
(dp2851
g93
g94
ssg82
g2845
sg75
(lp2852
S'HTTP_ACCEPT'
p2853
asbag68
(g89
g70
NtRp2854
(dp2855
g73
(dp2856
g100
g101
ssg82
g2845
sg75
(lp2857
S':'
asbag68
(g89
g70
NtRp2858
(dp2859
g73
(dp2860
sg82
g2845
sg75
(lp2861
g68
(g69
g70
NtRp2862
(dp2863
g73
(dp2864
g81
I3
ssg82
g2858
sg75
(lp2865
g1225
asbasbasbag68
(g84
g70
NtRp2866
(dp2867
g73
(dp2868
sg82
g2841
sg75
(lp2869
g68
(g89
g70
NtRp2870
(dp2871
g73
(dp2872
g93
g94
ssg82
g2866
sg75
(lp2873
S'HTTP_ACCEPT_ENCODING'
p2874
asbag68
(g89
g70
NtRp2875
(dp2876
g73
(dp2877
g100
g101
ssg82
g2866
sg75
(lp2878
S':'
asbag68
(g89
g70
NtRp2879
(dp2880
g73
(dp2881
sg82
g2866
sg75
(lp2882
g68
(g69
g70
NtRp2883
(dp2884
g73
(dp2885
g81
I3
ssg82
g2879
sg75
(lp2886
g1247
asbasbasbag68
(g84
g70
NtRp2887
(dp2888
g73
(dp2889
sg82
g2841
sg75
(lp2890
g68
(g89
g70
NtRp2891
(dp2892
g73
(dp2893
g93
g94
ssg82
g2887
sg75
(lp2894
S'HTTP_ACCEPT_LANGUAGE'
p2895
asbag68
(g89
g70
NtRp2896
(dp2897
g73
(dp2898
g100
g101
ssg82
g2887
sg75
(lp2899
S':'
asbag68
(g89
g70
NtRp2900
(dp2901
g73
(dp2902
sg82
g2887
sg75
(lp2903
g68
(g69
g70
NtRp2904
(dp2905
g73
(dp2906
g81
I3
ssg82
g2900
sg75
(lp2907
g1269
asbasbasbag68
(g84
g70
NtRp2908
(dp2909
g73
(dp2910
sg82
g2841
sg75
(lp2911
g68
(g89
g70
NtRp2912
(dp2913
g73
(dp2914
g93
g94
ssg82
g2908
sg75
(lp2915
S'HTTP_CACHE_CONTROL'
p2916
asbag68
(g89
g70
NtRp2917
(dp2918
g73
(dp2919
g100
g101
ssg82
g2908
sg75
(lp2920
S':'
asbag68
(g89
g70
NtRp2921
(dp2922
g73
(dp2923
sg82
g2908
sg75
(lp2924
g68
(g69
g70
NtRp2925
(dp2926
g73
(dp2927
g81
I3
ssg82
g2921
sg75
(lp2928
g1291
asbasbasbag68
(g84
g70
NtRp2929
(dp2930
g73
(dp2931
sg82
g2841
sg75
(lp2932
g68
(g89
g70
NtRp2933
(dp2934
g73
(dp2935
g93
g94
ssg82
g2929
sg75
(lp2936
S'HTTP_CONNECTION'
p2937
asbag68
(g89
g70
NtRp2938
(dp2939
g73
(dp2940
g100
g101
ssg82
g2929
sg75
(lp2941
S':'
asbag68
(g89
g70
NtRp2942
(dp2943
g73
(dp2944
sg82
g2929
sg75
(lp2945
g68
(g69
g70
NtRp2946
(dp2947
g73
(dp2948
g81
I3
ssg82
g2942
sg75
(lp2949
g1313
asbasbasbag68
(g84
g70
NtRp2950
(dp2951
g73
(dp2952
sg82
g2841
sg75
(lp2953
g68
(g89
g70
NtRp2954
(dp2955
g73
(dp2956
g93
g94
ssg82
g2950
sg75
(lp2957
S'HTTP_COOKIE'
p2958
asbag68
(g89
g70
NtRp2959
(dp2960
g73
(dp2961
g100
g101
ssg82
g2950
sg75
(lp2962
S':'
asbag68
(g89
g70
NtRp2963
(dp2964
g73
(dp2965
sg82
g2950
sg75
(lp2966
g68
(g69
g70
NtRp2967
(dp2968
g73
(dp2969
g81
I3
ssg82
g2963
sg75
(lp2970
g1335
asbasbasbag68
(g84
g70
NtRp2971
(dp2972
g73
(dp2973
sg82
g2841
sg75
(lp2974
g68
(g89
g70
NtRp2975
(dp2976
g73
(dp2977
g93
g94
ssg82
g2971
sg75
(lp2978
S'HTTP_HOST'
p2979
asbag68
(g89
g70
NtRp2980
(dp2981
g73
(dp2982
g100
g101
ssg82
g2971
sg75
(lp2983
S':'
asbag68
(g89
g70
NtRp2984
(dp2985
g73
(dp2986
sg82
g2971
sg75
(lp2987
g68
(g69
g70
NtRp2988
(dp2989
g73
(dp2990
g81
I3
ssg82
g2984
sg75
(lp2991
g1357
asbasbasbag68
(g84
g70
NtRp2992
(dp2993
g73
(dp2994
sg82
g2841
sg75
(lp2995
g68
(g89
g70
NtRp2996
(dp2997
g73
(dp2998
g93
g94
ssg82
g2992
sg75
(lp2999
S'HTTP_REFERER'
p3000
asbag68
(g89
g70
NtRp3001
(dp3002
g73
(dp3003
g100
g101
ssg82
g2992
sg75
(lp3004
S':'
asbag68
(g89
g70
NtRp3005
(dp3006
g73
(dp3007
sg82
g2992
sg75
(lp3008
g68
(g69
g70
NtRp3009
(dp3010
g73
(dp3011
g81
I3
ssg82
g3005
sg75
(lp3012
g1379
asbasbasbag68
(g84
g70
NtRp3013
(dp3014
g73
(dp3015
sg82
g2841
sg75
(lp3016
g68
(g89
g70
NtRp3017
(dp3018
g73
(dp3019
g93
g94
ssg82
g3013
sg75
(lp3020
S'HTTP_USER_AGENT'
p3021
asbag68
(g89
g70
NtRp3022
(dp3023
g73
(dp3024
g100
g101
ssg82
g3013
sg75
(lp3025
S':'
asbag68
(g89
g70
NtRp3026
(dp3027
g73
(dp3028
sg82
g3013
sg75
(lp3029
g68
(g69
g70
NtRp3030
(dp3031
g73
(dp3032
g81
I3
ssg82
g3026
sg75
(lp3033
g1401
asbasbasbag68
(g84
g70
NtRp3034
(dp3035
g73
(dp3036
sg82
g2841
sg75
(lp3037
g68
(g89
g70
NtRp3038
(dp3039
g73
(dp3040
g93
g94
ssg82
g3034
sg75
(lp3041
S'PATH_INFO'
p3042
asbag68
(g89
g70
NtRp3043
(dp3044
g73
(dp3045
g100
g101
ssg82
g3034
sg75
(lp3046
S':'
asbag68
(g89
g70
NtRp3047
(dp3048
g73
(dp3049
sg82
g3034
sg75
(lp3050
g68
(g69
g70
NtRp3051
(dp3052
g73
(dp3053
g81
I3
ssg82
g3047
sg75
(lp3054
g1555
asbasbasbag68
(g84
g70
NtRp3055
(dp3056
g73
(dp3057
sg82
g2841
sg75
(lp3058
g68
(g89
g70
NtRp3059
(dp3060
g73
(dp3061
g93
g94
ssg82
g3055
sg75
(lp3062
S'QUERY_STRING'
p3063
asbag68
(g89
g70
NtRp3064
(dp3065
g73
(dp3066
g100
g101
ssg82
g3055
sg75
(lp3067
S':'
asbag68
(g89
g70
NtRp3068
(dp3069
g73
(dp3070
sg82
g3055
sg75
(lp3071
g68
(g69
g70
NtRp3072
(dp3073
g73
(dp3074
g81
I3
ssg82
g3068
sg75
(lp3075
S''
asbasbasbag68
(g84
g70
NtRp3076
(dp3077
g73
(dp3078
sg82
g2841
sg75
(lp3079
g68
(g89
g70
NtRp3080
(dp3081
g73
(dp3082
g93
g94
ssg82
g3076
sg75
(lp3083
S'REMOTE_ADDR'
p3084
asbag68
(g89
g70
NtRp3085
(dp3086
g73
(dp3087
g100
g101
ssg82
g3076
sg75
(lp3088
S':'
asbag68
(g89
g70
NtRp3089
(dp3090
g73
(dp3091
sg82
g3076
sg75
(lp3092
g68
(g69
g70
NtRp3093
(dp3094
g73
(dp3095
g81
I3
ssg82
g3089
sg75
(lp3096
g223
asbasbasbag68
(g84
g70
NtRp3097
(dp3098
g73
(dp3099
sg82
g2841
sg75
(lp3100
g68
(g89
g70
NtRp3101
(dp3102
g73
(dp3103
g93
g94
ssg82
g3097
sg75
(lp3104
S'REMOTE_PORT'
p3105
asbag68
(g89
g70
NtRp3106
(dp3107
g73
(dp3108
g100
g101
ssg82
g3097
sg75
(lp3109
S':'
asbag68
(g89
g70
NtRp3110
(dp3111
g73
(dp3112
sg82
g3097
sg75
(lp3113
g68
(g69
g70
NtRp3114
(dp3115
g73
(dp3116
g81
I3
ssg82
g3110
sg75
(lp3117
g1619
asbasbasbag68
(g84
g70
NtRp3118
(dp3119
g73
(dp3120
sg82
g2841
sg75
(lp3121
g68
(g89
g70
NtRp3122
(dp3123
g73
(dp3124
g93
g94
ssg82
g3118
sg75
(lp3125
S'REQUEST_METHOD'
p3126
asbag68
(g89
g70
NtRp3127
(dp3128
g73
(dp3129
g100
g101
ssg82
g3118
sg75
(lp3130
S':'
asbag68
(g89
g70
NtRp3131
(dp3132
g73
(dp3133
sg82
g3118
sg75
(lp3134
g68
(g69
g70
NtRp3135
(dp3136
g73
(dp3137
g81
I3
ssg82
g3131
sg75
(lp3138
g1641
asbasbasbag68
(g84
g70
NtRp3139
(dp3140
g73
(dp3141
sg82
g2841
sg75
(lp3142
g68
(g89
g70
NtRp3143
(dp3144
g73
(dp3145
g93
g94
ssg82
g3139
sg75
(lp3146
S'REQUEST_URI'
p3147
asbag68
(g89
g70
NtRp3148
(dp3149
g73
(dp3150
g100
g101
ssg82
g3139
sg75
(lp3151
S':'
asbag68
(g89
g70
NtRp3152
(dp3153
g73
(dp3154
sg82
g3139
sg75
(lp3155
g68
(g69
g70
NtRp3156
(dp3157
g73
(dp3158
g81
I3
ssg82
g3152
sg75
(lp3159
g1555
asbasbasbag68
(g84
g70
NtRp3160
(dp3161
g73
(dp3162
sg82
g2841
sg75
(lp3163
g68
(g89
g70
NtRp3164
(dp3165
g73
(dp3166
g93
g94
ssg82
g3160
sg75
(lp3167
S'SCRIPT_NAME'
p3168
asbag68
(g89
g70
NtRp3169
(dp3170
g73
(dp3171
g100
g101
ssg82
g3160
sg75
(lp3172
S':'
asbag68
(g89
g70
NtRp3173
(dp3174
g73
(dp3175
sg82
g3160
sg75
(lp3176
g68
(g69
g70
NtRp3177
(dp3178
g73
(dp3179
g81
I3
ssg82
g3173
sg75
(lp3180
S''
asbasbasbag68
(g84
g70
NtRp3181
(dp3182
g73
(dp3183
sg82
g2841
sg75
(lp3184
g68
(g89
g70
NtRp3185
(dp3186
g73
(dp3187
g93
g94
ssg82
g3181
sg75
(lp3188
S'SERVER_NAME'
p3189
asbag68
(g89
g70
NtRp3190
(dp3191
g73
(dp3192
g100
g101
ssg82
g3181
sg75
(lp3193
S':'
asbag68
(g89
g70
NtRp3194
(dp3195
g73
(dp3196
sg82
g3181
sg75
(lp3197
g68
(g69
g70
NtRp3198
(dp3199
g73
(dp3200
g81
I3
ssg82
g3194
sg75
(lp3201
g1520
asbasbasbag68
(g84
g70
NtRp3202
(dp3203
g73
(dp3204
sg82
g2841
sg75
(lp3205
g68
(g89
g70
NtRp3206
(dp3207
g73
(dp3208
g93
g94
ssg82
g3202
sg75
(lp3209
S'SERVER_PORT'
p3210
asbag68
(g89
g70
NtRp3211
(dp3212
g73
(dp3213
g100
g101
ssg82
g3202
sg75
(lp3214
S':'
asbag68
(g89
g70
NtRp3215
(dp3216
g73
(dp3217
sg82
g3202
sg75
(lp3218
g68
(g69
g70
NtRp3219
(dp3220
g73
(dp3221
g81
I3
ssg82
g3215
sg75
(lp3222
g1726
asbasbasbag68
(g84
g70
NtRp3223
(dp3224
g73
(dp3225
sg82
g2841
sg75
(lp3226
g68
(g89
g70
NtRp3227
(dp3228
g73
(dp3229
g93
g94
ssg82
g3223
sg75
(lp3230
S'SERVER_PROTOCOL'
p3231
asbag68
(g89
g70
NtRp3232
(dp3233
g73
(dp3234
g100
g101
ssg82
g3223
sg75
(lp3235
S':'
asbag68
(g89
g70
NtRp3236
(dp3237
g73
(dp3238
sg82
g3223
sg75
(lp3239
g68
(g69
g70
NtRp3240
(dp3241
g73
(dp3242
g81
I3
ssg82
g3236
sg75
(lp3243
g1748
asbasbasbag68
(g84
g70
NtRp3244
(dp3245
g73
(dp3246
sg82
g2841
sg75
(lp3247
g68
(g89
g70
NtRp3248
(dp3249
g73
(dp3250
g93
g94
ssg82
g3244
sg75
(lp3251
S'SERVER_SOFTWARE'
p3252
asbag68
(g89
g70
NtRp3253
(dp3254
g73
(dp3255
g100
g101
ssg82
g3244
sg75
(lp3256
S':'
asbag68
(g89
g70
NtRp3257
(dp3258
g73
(dp3259
sg82
g3244
sg75
(lp3260
g68
(g69
g70
NtRp3261
(dp3262
g73
(dp3263
g81
I3
ssg82
g3257
sg75
(lp3264
g1770
asbasbasbag68
(g84
g70
NtRp3265
(dp3266
g73
(dp3267
sg82
g2841
sg75
(lp3268
g68
(g89
g70
NtRp3269
(dp3270
g73
(dp3271
g93
g94
ssg82
g3265
sg75
(lp3272
S'wsgi.errors'
p3273
asbag68
(g89
g70
NtRp3274
(dp3275
g73
(dp3276
g100
g101
ssg82
g3265
sg75
(lp3277
S':'
asbag68
(g89
g70
NtRp3278
(dp3279
g73
(dp3280
sg82
g3265
sg75
(lp3281
g68
(g69
g70
NtRp3282
(dp3283
g73
(dp3284
g81
I3
ssg82
g3278
sg75
(lp3285
S"<open file '<stderr>', mode 'w' at 0x7fea0c376270>"
p3286
asbasbasbag68
(g84
g70
NtRp3287
(dp3288
g73
(dp3289
sg82
g2841
sg75
(lp3290
g68
(g89
g70
NtRp3291
(dp3292
g73
(dp3293
g93
g94
ssg82
g3287
sg75
(lp3294
S'wsgi.file_wrapper'
p3295
asbag68
(g89
g70
NtRp3296
(dp3297
g73
(dp3298
g100
g101
ssg82
g3287
sg75
(lp3299
S':'
asbag68
(g89
g70
NtRp3300
(dp3301
g73
(dp3302
sg82
g3287
sg75
(lp3303
g68
(g69
g70
NtRp3304
(dp3305
g73
(dp3306
g81
I3
ssg82
g3300
sg75
(lp3307
S'<class wsgiref.util.FileWrapper at 0x2649d50>'
p3308
asbasbasbag68
(g84
g70
NtRp3309
(dp3310
g73
(dp3311
sg82
g2841
sg75
(lp3312
g68
(g89
g70
NtRp3313
(dp3314
g73
(dp3315
g93
g94
ssg82
g3309
sg75
(lp3316
S'wsgi.input'
p3317
asbag68
(g89
g70
NtRp3318
(dp3319
g73
(dp3320
g100
g101
ssg82
g3309
sg75
(lp3321
S':'
asbag68
(g89
g70
NtRp3322
(dp3323
g73
(dp3324
sg82
g3309
sg75
(lp3325
g68
(g69
g70
NtRp3326
(dp3327
g73
(dp3328
g81
I3
ssg82
g3322
sg75
(lp3329
S'<cStringIO.StringO object at 0x7fe9f0349b58>'
p3330
asbasbasbag68
(g84
g70
NtRp3331
(dp3332
g73
(dp3333
sg82
g2841
sg75
(lp3334
g68
(g89
g70
NtRp3335
(dp3336
g73
(dp3337
g93
g94
ssg82
g3331
sg75
(lp3338
S'wsgi.multiprocess'
p3339
asbag68
(g89
g70
NtRp3340
(dp3341
g73
(dp3342
g100
g101
ssg82
g3331
sg75
(lp3343
S':'
asbag68
(g89
g70
NtRp3344
(dp3345
g73
(dp3346
sg82
g3331
sg75
(lp3347
g68
(g69
g70
NtRp3348
(dp3349
g73
(dp3350
g81
I3
ssg82
g3344
sg75
(lp3351
g111
asbasbasbag68
(g84
g70
NtRp3352
(dp3353
g73
(dp3354
sg82
g2841
sg75
(lp3355
g68
(g89
g70
NtRp3356
(dp3357
g73
(dp3358
g93
g94
ssg82
g3352
sg75
(lp3359
S'wsgi.multithread'
p3360
asbag68
(g89
g70
NtRp3361
(dp3362
g73
(dp3363
g100
g101
ssg82
g3352
sg75
(lp3364
S':'
asbag68
(g89
g70
NtRp3365
(dp3366
g73
(dp3367
sg82
g3352
sg75
(lp3368
g68
(g69
g70
NtRp3369
(dp3370
g73
(dp3371
g81
I3
ssg82
g3365
sg75
(lp3372
g1987
asbasbasbag68
(g84
g70
NtRp3373
(dp3374
g73
(dp3375
sg82
g2841
sg75
(lp3376
g68
(g89
g70
NtRp3377
(dp3378
g73
(dp3379
g93
g94
ssg82
g3373
sg75
(lp3380
S'wsgi.run_once'
p3381
asbag68
(g89
g70
NtRp3382
(dp3383
g73
(dp3384
g100
g101
ssg82
g3373
sg75
(lp3385
S':'
asbag68
(g89
g70
NtRp3386
(dp3387
g73
(dp3388
sg82
g3373
sg75
(lp3389
g68
(g69
g70
NtRp3390
(dp3391
g73
(dp3392
g81
I3
ssg82
g3386
sg75
(lp3393
g111
asbasbasbag68
(g84
g70
NtRp3394
(dp3395
g73
(dp3396
sg82
g2841
sg75
(lp3397
g68
(g89
g70
NtRp3398
(dp3399
g73
(dp3400
g93
g94
ssg82
g3394
sg75
(lp3401
S'wsgi.url_scheme'
p3402
asbag68
(g89
g70
NtRp3403
(dp3404
g73
(dp3405
g100
g101
ssg82
g3394
sg75
(lp3406
S':'
asbag68
(g89
g70
NtRp3407
(dp3408
g73
(dp3409
sg82
g3394
sg75
(lp3410
g68
(g69
g70
NtRp3411
(dp3412
g73
(dp3413
g81
I3
ssg82
g3407
sg75
(lp3414
g2030
asbasbasbag68
(g84
g70
NtRp3415
(dp3416
g73
(dp3417
sg82
g2841
sg75
(lp3418
g68
(g89
g70
NtRp3419
(dp3420
g73
(dp3421
g93
g94
ssg82
g3415
sg75
(lp3422
S'wsgi.version'
p3423
asbag68
(g89
g70
NtRp3424
(dp3425
g73
(dp3426
g100
g101
ssg82
g3415
sg75
(lp3427
S':'
asbag68
(g89
g70
NtRp3428
(dp3429
g73
(dp3430
sg82
g3415
sg75
(lp3431
g68
(g69
g70
NtRp3432
(dp3433
g73
(dp3434
g81
I3
ssg82
g3428
sg75
(lp3435
S'1'
asbasbasbasbasbasbasbasbasbasbasbasbasbsS'frames'
p3436
(lp3437
(dp3438
S'file'
p3439
S'/home/bhanu/web2py/gluon/restricted.py'
p3440
sS'dump'
p3441
(dp3442
S'code'
p3443
S'\'response.write(\\\'<!DOCTYPE html PUBLIC "-//W3C//D...->>\\\\n \\\\n \\\\n \\\\n </body>\\\\n</html>\\\\n\\\', escape=False)\''
p3444
sS'layer'
p3445
S"'/home/bhanu/web2py/applications/sss/views/default/regcomplaint.html'"
p3446
sS'global compile2'
p3447
S'<function compile2>'
p3448
sS'ccode'
p3449
S'undefined'
p3450
ssS'lnum'
p3451
I211
sS'lines'
p3452
(dp3453
I206
S"    environment['__name__'] = '__restricted__'"
p3454
sI207
S'    try:'
p3455
sI208
S'        if isinstance(code, types.CodeType):'
p3456
sI209
S'            ccode = code'
p3457
sI210
S'        else:'
p3458
sI211
S'            ccode = compile2(code, layer)'
p3459
sI212
S'        exec ccode in environment'
p3460
sI213
S'    except HTTP:'
p3461
sI214
S'        raise'
p3462
sI215
S'    except RestrictedError:'
p3463
ssS'call'
p3464
S'(code=\'response.write(\\\'<!DOCTYPE html PUBLIC "-//W3C//D...->>\\\\n \\\\n \\\\n \\\\n </body>\\\\n</html>\\\\n\\\', escape=False)\', environment={\'A\': <class \'gluon.html.A\'>, \'Auth\': <class \'gluon.tools.Auth\'>, \'B\': <class \'gluon.html.B\'>, \'BEAUTIFY\': <class \'gluon.html.BEAUTIFY\'>, \'BODY\': <class \'gluon.html.BODY\'>, \'BR\': <class \'gluon.html.BR\'>, \'BUTTON\': <class \'gluon.html.BUTTON\'>, \'CAS\': <Storage {\'check_url\': \'https://login.iiit.ac.in...url\': \'http://127.0.0.1:8000/sss/default/login\'}>, \'CAT\': <class \'gluon.html.CAT\'>, \'CENTER\': <class \'gluon.html.CENTER\'>, ...}, layer=\'/home/bhanu/web2py/applications/sss/views/default/regcomplaint.html\')'
p3465
sS'func'
p3466
S'restricted'
p3467
sa(dp3468
g3439
S'/home/bhanu/web2py/gluon/restricted.py'
p3469
sg3441
(dp3470
S'builtincompile'
p3471
S'<built-in function compile>'
p3472
sS'code'
p3473
S'\'response.write(\\\'<!DOCTYPE html PUBLIC "-//W3C//D...->>\\\\n \\\\n \\\\n \\\\n </body>\\\\n</html>\\\\n\\\', escape=False)\''
p3474
sS'code.rstrip'
p3475
S'<built-in method rstrip of str object>'
p3476
sS').replace'
p3477
g3450
sS'layer'
p3478
S"'/home/bhanu/web2py/applications/sss/views/default/regcomplaint.html'"
p3479
ssg3451
I194
sg3452
(dp3480
I192
S"    The +'\\n' is necessary else compile fails when code ends in a comment."
p3481
sI193
S'    """'
p3482
sI194
S"    return compile(code.rstrip().replace('\\r\\n', '\\n') + '\\n', layer, 'exec')"
p3483
sI195
S''
sI196
S''
sI197
S"def restricted(code, environment=None, layer='Unknown'):"
p3484
sI198
S'    """'
p3485
sI189
S''
sI190
S'def compile2(code, layer):'
p3486
sI191
S'    """'
p3487
ssg3464
S'(code=\'response.write(\\\'<!DOCTYPE html PUBLIC "-//W3C//D...->>\\\\n \\\\n \\\\n \\\\n </body>\\\\n</html>\\\\n\\\', escape=False)\', layer=\'/home/bhanu/web2py/applications/sss/views/default/regcomplaint.html\')'
p3488
sg3466
S'compile2'
p3489
sasS'pyver'
p3490
S'Python 2.7.3: /usr/bin/python'
p3491
sS'session'
p3492
g68
(g69
g70
NtRp3493
(dp3494
g73
(dp3495
sg75
(lp3496
g68
(g77
g70
NtRp3497
(dp3498
g73
(dp3499
g81
I5
ssg82
Nsg75
(lp3500
g68
(g84
g70
NtRp3501
(dp3502
g73
(dp3503
sg82
g3497
sg75
(lp3504
g68
(g89
g70
NtRp3505
(dp3506
g73
(dp3507
g93
g94
ssg82
g3501
sg75
(lp3508
S'flash'
p3509
asbag68
(g89
g70
NtRp3510
(dp3511
g73
(dp3512
g100
g101
ssg82
g3501
sg75
(lp3513
S':'
asbag68
(g89
g70
NtRp3514
(dp3515
g73
(dp3516
sg82
g3501
sg75
(lp3517
g68
(g69
g70
NtRp3518
(dp3519
g73
(dp3520
g81
I5
ssg82
g3514
sg75
(lp3521
S'None'
p3522
asbasbasbag68
(g84
g70
NtRp3523
(dp3524
g73
(dp3525
sg82
g3497
sg75
(lp3526
g68
(g89
g70
NtRp3527
(dp3528
g73
(dp3529
g93
g94
ssg82
g3523
sg75
(lp3530
S'login'
p3531
asbag68
(g89
g70
NtRp3532
(dp3533
g73
(dp3534
g100
g101
ssg82
g3523
sg75
(lp3535
S':'
asbag68
(g89
g70
NtRp3536
(dp3537
g73
(dp3538
sg82
g3523
sg75
(lp3539
g68
(g69
g70
NtRp3540
(dp3541
g73
(dp3542
g81
I5
ssg82
g3536
sg75
(lp3543
S'1'
asbasbasbag68
(g84
g70
NtRp3544
(dp3545
g73
(dp3546
sg82
g3497
sg75
(lp3547
g68
(g89
g70
NtRp3548
(dp3549
g73
(dp3550
g93
g94
ssg82
g3544
sg75
(lp3551
S'name'
p3552
asbag68
(g89
g70
NtRp3553
(dp3554
g73
(dp3555
g100
g101
ssg82
g3544
sg75
(lp3556
S':'
asbag68
(g89
g70
NtRp3557
(dp3558
g73
(dp3559
sg82
g3544
sg75
(lp3560
g68
(g69
g70
NtRp3561
(dp3562
g73
(dp3563
g81
I5
ssg82
g3557
sg75
(lp3564
S'bhanu dev'
p3565
asbasbasbag68
(g84
g70
NtRp3566
(dp3567
g73
(dp3568
sg82
g3497
sg75
(lp3569
g68
(g89
g70
NtRp3570
(dp3571
g73
(dp3572
g93
g94
ssg82
g3566
sg75
(lp3573
S'roll_no'
p3574
asbag68
(g89
g70
NtRp3575
(dp3576
g73
(dp3577
g100
g101
ssg82
g3566
sg75
(lp3578
S':'
asbag68
(g89
g70
NtRp3579
(dp3580
g73
(dp3581
sg82
g3566
sg75
(lp3582
g68
(g69
g70
NtRp3583
(dp3584
g73
(dp3585
g81
I5
ssg82
g3579
sg75
(lp3586
S'201102082'
p3587
asbasbasbag68
(g84
g70
NtRp3588
(dp3589
g73
(dp3590
sg82
g3497
sg75
(lp3591
g68
(g89
g70
NtRp3592
(dp3593
g73
(dp3594
g93
g94
ssg82
g3588
sg75
(lp3595
S'student_email'
p3596
asbag68
(g89
g70
NtRp3597
(dp3598
g73
(dp3599
g100
g101
ssg82
g3588
sg75
(lp3600
S':'
asbag68
(g89
g70
NtRp3601
(dp3602
g73
(dp3603
sg82
g3588
sg75
(lp3604
g68
(g69
g70
NtRp3605
(dp3606
g73
(dp3607
g81
I5
ssg82
g3601
sg75
(lp3608
S'chaluvadibhanu.dev@students.iiit.ac.in'
p3609
asbasbasbag68
(g84
g70
NtRp3610
(dp3611
g73
(dp3612
sg82
g3497
sg75
(lp3613
g68
(g89
g70
NtRp3614
(dp3615
g73
(dp3616
g93
g94
ssg82
g3610
sg75
(lp3617
S'token'
p3618
asbag68
(g89
g70
NtRp3619
(dp3620
g73
(dp3621
g100
g101
ssg82
g3610
sg75
(lp3622
S':'
asbag68
(g89
g70
NtRp3623
(dp3624
g73
(dp3625
sg82
g3610
sg75
(lp3626
g68
(g69
g70
NtRp3627
(dp3628
g73
(dp3629
g81
I5
ssg82
g3623
sg75
(lp3630
g3609
asbasbasbasbasbsS'etype'
p3631
S"<type 'exceptions.SyntaxError'>"
p3632
sS'date'
p3633
S'Wed Nov 14 00:45:51 2012'
p3634
sS'response'
p3635
g68
(g69
g70
NtRp3636
(dp3637
g73
(dp3638
sg75
(lp3639
g68
(g77
g70
NtRp3640
(dp3641
g73
(dp3642
g81
I5
ssg82
Nsg75
(lp3643
g68
(g84
g70
NtRp3644
(dp3645
g73
(dp3646
sg82
g3640
sg75
(lp3647
g68
(g89
g70
NtRp3648
(dp3649
g73
(dp3650
g93
g94
ssg82
g3644
sg75
(lp3651
g166
asbag68
(g89
g70
NtRp3652
(dp3653
g73
(dp3654
g100
g101
ssg82
g3644
sg75
(lp3655
S':'
asbag68
(g89
g70
NtRp3656
(dp3657
g73
(dp3658
sg82
g3644
sg75
(lp3659
g68
(g69
g70
NtRp3660
(dp3661
g73
(dp3662
g81
I5
ssg82
g3656
sg75
(lp3663
S'<cStringIO.StringO object at 0x7fe9d448a538>'
p3664
asbasbasbag68
(g84
g70
NtRp3665
(dp3666
g73
(dp3667
sg82
g3640
sg75
(lp3668
g68
(g89
g70
NtRp3669
(dp3670
g73
(dp3671
g93
g94
ssg82
g3665
sg75
(lp3672
S'complaint'
p3673
asbag68
(g89
g70
NtRp3674
(dp3675
g73
(dp3676
g100
g101
ssg82
g3665
sg75
(lp3677
S':'
asbag68
(g89
g70
NtRp3678
(dp3679
g73
(dp3680
sg82
g3665
sg75
(lp3681
g68
(g69
g70
NtRp3682
(dp3683
g73
(dp3684
g81
I5
ssg82
g3678
sg75
(lp3685
g68
(g77
g70
NtRp3686
(dp3687
g73
(dp3688
g81
I4
ssg82
Nsg75
(lp3689
g68
(g84
g70
NtRp3690
(dp3691
g73
(dp3692
sg82
g3686
sg75
(lp3693
g68
(g89
g70
NtRp3694
(dp3695
g73
(dp3696
sg82
g3690
sg75
(lp3697
g68
(g69
g70
NtRp3698
(dp3699
g73
(dp3700
g81
I4
ssg82
g3694
sg75
(lp3701
g68
(g77
g70
NtRp3702
(dp3703
g73
(dp3704
g81
I3
ssg82
Nsg75
(lp3705
g68
(g84
g70
NtRp3706
(dp3707
g73
(dp3708
sg82
g3702
sg75
(lp3709
g68
(g89
g70
NtRp3710
(dp3711
g73
(dp3712
sg82
g3706
sg75
(lp3713
g68
(g69
g70
NtRp3714
(dp3715
g73
(dp3716
g81
I3
ssg82
g3710
sg75
(lp3717
cgluon.languages
lazyT_unpickle
p3718
(S't\t\x00\x00\x00COMPLAINT'
tRp3719
asbasbasbag68
(g84
g70
NtRp3720
(dp3721
g73
(dp3722
sg82
g3702
sg75
(lp3723
g68
(g89
g70
NtRp3724
(dp3725
g73
(dp3726
sg82
g3720
sg75
(lp3727
g68
(g69
g70
NtRp3728
(dp3729
g73
(dp3730
g81
I3
ssg82
g3724
sg75
(lp3731
g111
asbasbasbag68
(g84
g70
NtRp3732
(dp3733
g73
(dp3734
sg82
g3702
sg75
(lp3735
g68
(g89
g70
NtRp3736
(dp3737
g73
(dp3738
sg82
g3732
sg75
(lp3739
g68
(g69
g70
NtRp3740
(dp3741
g73
(dp3742
g81
I3
ssg82
g3736
sg75
(lp3743
S'/sss/default/complaint'
p3744
asbasbasbag68
(g84
g70
NtRp3745
(dp3746
g73
(dp3747
sg82
g3702
sg75
(lp3748
g68
(g89
g70
NtRp3749
(dp3750
g73
(dp3751
sg82
g3745
sg75
(lp3752
g68
(g69
g70
NtRp3753
(dp3754
g73
(dp3755
g81
I3
ssg82
g3749
sg75
(lp3756
g68
(g77
g70
NtRp3757
(dp3758
g73
(dp3759
g81
I2
ssg82
Nsg75
(lp3760
sbasbasbasbasbasbasbasbasbasbasbasbag68
(g84
g70
NtRp3761
(dp3762
g73
(dp3763
sg82
g3640
sg75
(lp3764
g68
(g89
g70
NtRp3765
(dp3766
g73
(dp3767
g93
g94
ssg82
g3761
sg75
(lp3768
g254
asbag68
(g89
g70
NtRp3769
(dp3770
g73
(dp3771
g100
g101
ssg82
g3761
sg75
(lp3772
S':'
asbag68
(g89
g70
NtRp3773
(dp3774
g73
(dp3775
sg82
g3761
sg75
(lp3776
g68
(g69
g70
NtRp3777
(dp3778
g73
(dp3779
g81
I5
ssg82
g3773
sg75
(lp3780
g68
(g77
g70
NtRp3781
(dp3782
g73
(dp3783
g81
I4
ssg82
Nsg75
(lp3784
g68
(g84
g70
NtRp3785
(dp3786
g73
(dp3787
sg82
g3781
sg75
(lp3788
g68
(g89
g70
NtRp3789
(dp3790
g73
(dp3791
g93
g94
ssg82
g3785
sg75
(lp3792
S'session_id_sss'
p3793
asbag68
(g89
g70
NtRp3794
(dp3795
g73
(dp3796
g100
g101
ssg82
g3785
sg75
(lp3797
S':'
asbag68
(g89
g70
NtRp3798
(dp3799
g73
(dp3800
sg82
g3785
sg75
(lp3801
g68
(g69
g70
NtRp3802
(dp3803
g73
(dp3804
g81
I4
ssg82
g3798
sg75
(lp3805
g672
ag68
(g77
g70
NtRp3806
(dp3807
g73
(dp3808
g81
I3
ssg82
Nsg75
(lp3809
g68
(g84
g70
NtRp3810
(dp3811
g73
(dp3812
sg82
g3806
sg75
(lp3813
g68
(g89
g70
NtRp3814
(dp3815
g73
(dp3816
g93
g94
ssg82
g3810
sg75
(lp3817
g305
asbag68
(g89
g70
NtRp3818
(dp3819
g73
(dp3820
g100
g101
ssg82
g3810
sg75
(lp3821
S':'
asbag68
(g89
g70
NtRp3822
(dp3823
g73
(dp3824
sg82
g3810
sg75
(lp3825
g68
(g69
g70
NtRp3826
(dp3827
g73
(dp3828
g81
I3
ssg82
g3822
sg75
(lp3829
S''
asbasbasbag68
(g84
g70
NtRp3830
(dp3831
g73
(dp3832
sg82
g3806
sg75
(lp3833
g68
(g89
g70
NtRp3834
(dp3835
g73
(dp3836
g93
g94
ssg82
g3830
sg75
(lp3837
g326
asbag68
(g89
g70
NtRp3838
(dp3839
g73
(dp3840
g100
g101
ssg82
g3830
sg75
(lp3841
S':'
asbag68
(g89
g70
NtRp3842
(dp3843
g73
(dp3844
sg82
g3830
sg75
(lp3845
g68
(g69
g70
NtRp3846
(dp3847
g73
(dp3848
g81
I3
ssg82
g3842
sg75
(lp3849
S''
asbasbasbag68
(g84
g70
NtRp3850
(dp3851
g73
(dp3852
sg82
g3806
sg75
(lp3853
g68
(g89
g70
NtRp3854
(dp3855
g73
(dp3856
g93
g94
ssg82
g3850
sg75
(lp3857
g347
asbag68
(g89
g70
NtRp3858
(dp3859
g73
(dp3860
g100
g101
ssg82
g3850
sg75
(lp3861
S':'
asbag68
(g89
g70
NtRp3862
(dp3863
g73
(dp3864
sg82
g3850
sg75
(lp3865
g68
(g69
g70
NtRp3866
(dp3867
g73
(dp3868
g81
I3
ssg82
g3862
sg75
(lp3869
S''
asbasbasbag68
(g84
g70
NtRp3870
(dp3871
g73
(dp3872
sg82
g3806
sg75
(lp3873
g68
(g89
g70
NtRp3874
(dp3875
g73
(dp3876
g93
g94
ssg82
g3870
sg75
(lp3877
g368
asbag68
(g89
g70
NtRp3878
(dp3879
g73
(dp3880
g100
g101
ssg82
g3870
sg75
(lp3881
S':'
asbag68
(g89
g70
NtRp3882
(dp3883
g73
(dp3884
sg82
g3870
sg75
(lp3885
g68
(g69
g70
NtRp3886
(dp3887
g73
(dp3888
g81
I3
ssg82
g3882
sg75
(lp3889
S''
asbasbasbag68
(g84
g70
NtRp3890
(dp3891
g73
(dp3892
sg82
g3806
sg75
(lp3893
g68
(g89
g70
NtRp3894
(dp3895
g73
(dp3896
g93
g94
ssg82
g3890
sg75
(lp3897
g389
asbag68
(g89
g70
NtRp3898
(dp3899
g73
(dp3900
g100
g101
ssg82
g3890
sg75
(lp3901
S':'
asbag68
(g89
g70
NtRp3902
(dp3903
g73
(dp3904
sg82
g3890
sg75
(lp3905
g68
(g69
g70
NtRp3906
(dp3907
g73
(dp3908
g81
I3
ssg82
g3902
sg75
(lp3909
S''
asbasbasbag68
(g84
g70
NtRp3910
(dp3911
g73
(dp3912
sg82
g3806
sg75
(lp3913
g68
(g89
g70
NtRp3914
(dp3915
g73
(dp3916
g93
g94
ssg82
g3910
sg75
(lp3917
g410
asbag68
(g89
g70
NtRp3918
(dp3919
g73
(dp3920
g100
g101
ssg82
g3910
sg75
(lp3921
S':'
asbag68
(g89
g70
NtRp3922
(dp3923
g73
(dp3924
sg82
g3910
sg75
(lp3925
g68
(g69
g70
NtRp3926
(dp3927
g73
(dp3928
g81
I3
ssg82
g3922
sg75
(lp3929
S'/'
asbasbasbag68
(g84
g70
NtRp3930
(dp3931
g73
(dp3932
sg82
g3806
sg75
(lp3933
g68
(g89
g70
NtRp3934
(dp3935
g73
(dp3936
g93
g94
ssg82
g3930
sg75
(lp3937
g431
asbag68
(g89
g70
NtRp3938
(dp3939
g73
(dp3940
g100
g101
ssg82
g3930
sg75
(lp3941
S':'
asbag68
(g89
g70
NtRp3942
(dp3943
g73
(dp3944
sg82
g3930
sg75
(lp3945
g68
(g69
g70
NtRp3946
(dp3947
g73
(dp3948
g81
I3
ssg82
g3942
sg75
(lp3949
S''
asbasbasbag68
(g84
g70
NtRp3950
(dp3951
g73
(dp3952
sg82
g3806
sg75
(lp3953
g68
(g89
g70
NtRp3954
(dp3955
g73
(dp3956
g93
g94
ssg82
g3950
sg75
(lp3957
g452
asbag68
(g89
g70
NtRp3958
(dp3959
g73
(dp3960
g100
g101
ssg82
g3950
sg75
(lp3961
S':'
asbag68
(g89
g70
NtRp3962
(dp3963
g73
(dp3964
sg82
g3950
sg75
(lp3965
g68
(g69
g70
NtRp3966
(dp3967
g73
(dp3968
g81
I3
ssg82
g3962
sg75
(lp3969
S''
asbasbasbasbasbasbasbasbasbasbasbag68
(g84
g70
NtRp3970
(dp3971
g73
(dp3972
sg82
g3640
sg75
(lp3973
g68
(g89
g70
NtRp3974
(dp3975
g73
(dp3976
g93
g94
ssg82
g3970
sg75
(lp3977
S'delimiters'
p3978
asbag68
(g89
g70
NtRp3979
(dp3980
g73
(dp3981
g100
g101
ssg82
g3970
sg75
(lp3982
S':'
asbag68
(g89
g70
NtRp3983
(dp3984
g73
(dp3985
sg82
g3970
sg75
(lp3986
g68
(g69
g70
NtRp3987
(dp3988
g73
(dp3989
g81
I5
ssg82
g3983
sg75
(lp3990
g68
(g77
g70
NtRp3991
(dp3992
g73
(dp3993
g81
I4
ssg82
Nsg75
(lp3994
g68
(g84
g70
NtRp3995
(dp3996
g73
(dp3997
sg82
g3991
sg75
(lp3998
g68
(g89
g70
NtRp3999
(dp4000
g73
(dp4001
sg82
g3995
sg75
(lp4002
g68
(g69
g70
NtRp4003
(dp4004
g73
(dp4005
g81
I4
ssg82
g3999
sg75
(lp4006
S'{{'
p4007
asbasbasbag68
(g84
g70
NtRp4008
(dp4009
g73
(dp4010
sg82
g3991
sg75
(lp4011
g68
(g89
g70
NtRp4012
(dp4013
g73
(dp4014
sg82
g4008
sg75
(lp4015
g68
(g69
g70
NtRp4016
(dp4017
g73
(dp4018
g81
I4
ssg82
g4012
sg75
(lp4019
S'}}'
p4020
asbasbasbasbasbasbasbag68
(g84
g70
NtRp4021
(dp4022
g73
(dp4023
sg82
g3640
sg75
(lp4024
g68
(g89
g70
NtRp4025
(dp4026
g73
(dp4027
g93
g94
ssg82
g4021
sg75
(lp4028
S'enter_laptop_details'
p4029
asbag68
(g89
g70
NtRp4030
(dp4031
g73
(dp4032
g100
g101
ssg82
g4021
sg75
(lp4033
S':'
asbag68
(g89
g70
NtRp4034
(dp4035
g73
(dp4036
sg82
g4021
sg75
(lp4037
g68
(g69
g70
NtRp4038
(dp4039
g73
(dp4040
g81
I5
ssg82
g4034
sg75
(lp4041
g68
(g77
g70
NtRp4042
(dp4043
g73
(dp4044
g81
I4
ssg82
Nsg75
(lp4045
g68
(g84
g70
NtRp4046
(dp4047
g73
(dp4048
sg82
g4042
sg75
(lp4049
g68
(g89
g70
NtRp4050
(dp4051
g73
(dp4052
sg82
g4046
sg75
(lp4053
g68
(g69
g70
NtRp4054
(dp4055
g73
(dp4056
g81
I4
ssg82
g4050
sg75
(lp4057
g68
(g77
g70
NtRp4058
(dp4059
g73
(dp4060
g81
I3
ssg82
Nsg75
(lp4061
g68
(g84
g70
NtRp4062
(dp4063
g73
(dp4064
sg82
g4058
sg75
(lp4065
g68
(g89
g70
NtRp4066
(dp4067
g73
(dp4068
sg82
g4062
sg75
(lp4069
g68
(g69
g70
NtRp4070
(dp4071
g73
(dp4072
g81
I3
ssg82
g4066
sg75
(lp4073
g3718
(S's\x14\x00\x00\x00Enter Laptop Details'
tRp4074
asbasbasbag68
(g84
g70
NtRp4075
(dp4076
g73
(dp4077
sg82
g4058
sg75
(lp4078
g68
(g89
g70
NtRp4079
(dp4080
g73
(dp4081
sg82
g4075
sg75
(lp4082
g68
(g69
g70
NtRp4083
(dp4084
g73
(dp4085
g81
I3
ssg82
g4079
sg75
(lp4086
g111
asbasbasbag68
(g84
g70
NtRp4087
(dp4088
g73
(dp4089
sg82
g4058
sg75
(lp4090
g68
(g89
g70
NtRp4091
(dp4092
g73
(dp4093
sg82
g4087
sg75
(lp4094
g68
(g69
g70
NtRp4095
(dp4096
g73
(dp4097
g81
I3
ssg82
g4091
sg75
(lp4098
S'/sss/default/enter_laptop_details'
p4099
asbasbasbag68
(g84
g70
NtRp4100
(dp4101
g73
(dp4102
sg82
g4058
sg75
(lp4103
g68
(g89
g70
NtRp4104
(dp4105
g73
(dp4106
sg82
g4100
sg75
(lp4107
g68
(g69
g70
NtRp4108
(dp4109
g73
(dp4110
g81
I3
ssg82
g4104
sg75
(lp4111
g68
(g77
g70
NtRp4112
(dp4113
g73
(dp4114
g81
I2
ssg82
Nsg75
(lp4115
sbasbasbasbasbasbasbasbasbasbasbasbag68
(g84
g70
NtRp4116
(dp4117
g73
(dp4118
sg82
g3640
sg75
(lp4119
g68
(g89
g70
NtRp4120
(dp4121
g73
(dp4122
g93
g94
ssg82
g4116
sg75
(lp4123
S'files'
p4124
asbag68
(g89
g70
NtRp4125
(dp4126
g73
(dp4127
g100
g101
ssg82
g4116
sg75
(lp4128
S':'
asbag68
(g89
g70
NtRp4129
(dp4130
g73
(dp4131
sg82
g4116
sg75
(lp4132
g68
(g69
g70
NtRp4133
(dp4134
g73
(dp4135
g81
I5
ssg82
g4129
sg75
(lp4136
g68
(g77
g70
NtRp4137
(dp4138
g73
(dp4139
g81
I4
ssg82
Nsg75
(lp4140
sbasbasbasbag68
(g84
g70
NtRp4141
(dp4142
g73
(dp4143
sg82
g3640
sg75
(lp4144
g68
(g89
g70
NtRp4145
(dp4146
g73
(dp4147
g93
g94
ssg82
g4141
sg75
(lp4148
S'flash'
p4149
asbag68
(g89
g70
NtRp4150
(dp4151
g73
(dp4152
g100
g101
ssg82
g4141
sg75
(lp4153
S':'
asbag68
(g89
g70
NtRp4154
(dp4155
g73
(dp4156
sg82
g4141
sg75
(lp4157
g68
(g69
g70
NtRp4158
(dp4159
g73
(dp4160
g81
I5
ssg82
g4154
sg75
(lp4161
S''
asbasbasbag68
(g84
g70
NtRp4162
(dp4163
g73
(dp4164
sg82
g3640
sg75
(lp4165
g68
(g89
g70
NtRp4166
(dp4167
g73
(dp4168
g93
g94
ssg82
g4162
sg75
(lp4169
S'generic_patterns'
p4170
asbag68
(g89
g70
NtRp4171
(dp4172
g73
(dp4173
g100
g101
ssg82
g4162
sg75
(lp4174
S':'
asbag68
(g89
g70
NtRp4175
(dp4176
g73
(dp4177
sg82
g4162
sg75
(lp4178
g68
(g69
g70
NtRp4179
(dp4180
g73
(dp4181
g81
I5
ssg82
g4175
sg75
(lp4182
g68
(g77
g70
NtRp4183
(dp4184
g73
(dp4185
g81
I4
ssg82
Nsg75
(lp4186
g68
(g84
g70
NtRp4187
(dp4188
g73
(dp4189
sg82
g4183
sg75
(lp4190
g68
(g89
g70
NtRp4191
(dp4192
g73
(dp4193
sg82
g4187
sg75
(lp4194
g68
(g69
g70
NtRp4195
(dp4196
g73
(dp4197
g81
I4
ssg82
g4191
sg75
(lp4198
S'*'
asbasbasbasbasbasbasbag68
(g84
g70
NtRp4199
(dp4200
g73
(dp4201
sg82
g3640
sg75
(lp4202
g68
(g89
g70
NtRp4203
(dp4204
g73
(dp4205
g93
g94
ssg82
g4199
sg75
(lp4206
S'headers'
p4207
asbag68
(g89
g70
NtRp4208
(dp4209
g73
(dp4210
g100
g101
ssg82
g4199
sg75
(lp4211
S':'
asbag68
(g89
g70
NtRp4212
(dp4213
g73
(dp4214
sg82
g4199
sg75
(lp4215
g68
(g69
g70
NtRp4216
(dp4217
g73
(dp4218
g81
I5
ssg82
g4212
sg75
(lp4219
g68
(g77
g70
NtRp4220
(dp4221
g73
(dp4222
g81
I4
ssg82
Nsg75
(lp4223
g68
(g84
g70
NtRp4224
(dp4225
g73
(dp4226
sg82
g4220
sg75
(lp4227
g68
(g89
g70
NtRp4228
(dp4229
g73
(dp4230
g93
g94
ssg82
g4224
sg75
(lp4231
S'X-Powered-By'
p4232
asbag68
(g89
g70
NtRp4233
(dp4234
g73
(dp4235
g100
g101
ssg82
g4224
sg75
(lp4236
S':'
asbag68
(g89
g70
NtRp4237
(dp4238
g73
(dp4239
sg82
g4224
sg75
(lp4240
g68
(g69
g70
NtRp4241
(dp4242
g73
(dp4243
g81
I4
ssg82
g4237
sg75
(lp4244
S'web2py'
p4245
asbasbasbasbasbasbasbag68
(g84
g70
NtRp4246
(dp4247
g73
(dp4248
sg82
g3640
sg75
(lp4249
g68
(g89
g70
NtRp4250
(dp4251
g73
(dp4252
g93
g94
ssg82
g4246
sg75
(lp4253
S'laptop_out_details'
p4254
asbag68
(g89
g70
NtRp4255
(dp4256
g73
(dp4257
g100
g101
ssg82
g4246
sg75
(lp4258
S':'
asbag68
(g89
g70
NtRp4259
(dp4260
g73
(dp4261
sg82
g4246
sg75
(lp4262
g68
(g69
g70
NtRp4263
(dp4264
g73
(dp4265
g81
I5
ssg82
g4259
sg75
(lp4266
g68
(g77
g70
NtRp4267
(dp4268
g73
(dp4269
g81
I4
ssg82
Nsg75
(lp4270
g68
(g84
g70
NtRp4271
(dp4272
g73
(dp4273
sg82
g4267
sg75
(lp4274
g68
(g89
g70
NtRp4275
(dp4276
g73
(dp4277
sg82
g4271
sg75
(lp4278
g68
(g69
g70
NtRp4279
(dp4280
g73
(dp4281
g81
I4
ssg82
g4275
sg75
(lp4282
g68
(g77
g70
NtRp4283
(dp4284
g73
(dp4285
g81
I3
ssg82
Nsg75
(lp4286
g68
(g84
g70
NtRp4287
(dp4288
g73
(dp4289
sg82
g4283
sg75
(lp4290
g68
(g89
g70
NtRp4291
(dp4292
g73
(dp4293
sg82
g4287
sg75
(lp4294
g68
(g69
g70
NtRp4295
(dp4296
g73
(dp4297
g81
I3
ssg82
g4291
sg75
(lp4298
g3718
(S's\x0f\x00\x00\x00Laptop Movement'
tRp4299
asbasbasbag68
(g84
g70
NtRp4300
(dp4301
g73
(dp4302
sg82
g4283
sg75
(lp4303
g68
(g89
g70
NtRp4304
(dp4305
g73
(dp4306
sg82
g4300
sg75
(lp4307
g68
(g69
g70
NtRp4308
(dp4309
g73
(dp4310
g81
I3
ssg82
g4304
sg75
(lp4311
g111
asbasbasbag68
(g84
g70
NtRp4312
(dp4313
g73
(dp4314
sg82
g4283
sg75
(lp4315
g68
(g89
g70
NtRp4316
(dp4317
g73
(dp4318
sg82
g4312
sg75
(lp4319
g68
(g69
g70
NtRp4320
(dp4321
g73
(dp4322
g81
I3
ssg82
g4316
sg75
(lp4323
S'/sss/default/laptop_out_details'
p4324
asbasbasbag68
(g84
g70
NtRp4325
(dp4326
g73
(dp4327
sg82
g4283
sg75
(lp4328
g68
(g89
g70
NtRp4329
(dp4330
g73
(dp4331
sg82
g4325
sg75
(lp4332
g68
(g69
g70
NtRp4333
(dp4334
g73
(dp4335
g81
I3
ssg82
g4329
sg75
(lp4336
g68
(g77
g70
NtRp4337
(dp4338
g73
(dp4339
g81
I2
ssg82
Nsg75
(lp4340
sbasbasbasbasbasbasbasbasbasbasbasbag68
(g84
g70
NtRp4341
(dp4342
g73
(dp4343
sg82
g3640
sg75
(lp4344
g68
(g89
g70
NtRp4345
(dp4346
g73
(dp4347
g93
g94
ssg82
g4341
sg75
(lp4348
S'menu'
p4349
asbag68
(g89
g70
NtRp4350
(dp4351
g73
(dp4352
g100
g101
ssg82
g4341
sg75
(lp4353
S':'
asbag68
(g89
g70
NtRp4354
(dp4355
g73
(dp4356
sg82
g4341
sg75
(lp4357
g68
(g69
g70
NtRp4358
(dp4359
g73
(dp4360
g81
I5
ssg82
g4354
sg75
(lp4361
g68
(g77
g70
NtRp4362
(dp4363
g73
(dp4364
g81
I4
ssg82
Nsg75
(lp4365
g68
(g84
g70
NtRp4366
(dp4367
g73
(dp4368
sg82
g4362
sg75
(lp4369
g68
(g89
g70
NtRp4370
(dp4371
g73
(dp4372
sg82
g4366
sg75
(lp4373
g68
(g69
g70
NtRp4374
(dp4375
g73
(dp4376
g81
I4
ssg82
g4370
sg75
(lp4377
g68
(g77
g70
NtRp4378
(dp4379
g73
(dp4380
g81
I3
ssg82
Nsg75
(lp4381
g68
(g84
g70
NtRp4382
(dp4383
g73
(dp4384
sg82
g4378
sg75
(lp4385
g68
(g89
g70
NtRp4386
(dp4387
g73
(dp4388
sg82
g4382
sg75
(lp4389
g68
(g69
g70
NtRp4390
(dp4391
g73
(dp4392
g81
I3
ssg82
g4386
sg75
(lp4393
g3718
(S't\x04\x00\x00\x00HOME'
tRp4394
asbasbasbag68
(g84
g70
NtRp4395
(dp4396
g73
(dp4397
sg82
g4378
sg75
(lp4398
g68
(g89
g70
NtRp4399
(dp4400
g73
(dp4401
sg82
g4395
sg75
(lp4402
g68
(g69
g70
NtRp4403
(dp4404
g73
(dp4405
g81
I3
ssg82
g4399
sg75
(lp4406
g111
asbasbasbag68
(g84
g70
NtRp4407
(dp4408
g73
(dp4409
sg82
g4378
sg75
(lp4410
g68
(g89
g70
NtRp4411
(dp4412
g73
(dp4413
sg82
g4407
sg75
(lp4414
g68
(g69
g70
NtRp4415
(dp4416
g73
(dp4417
g81
I3
ssg82
g4411
sg75
(lp4418
S'/sss/default/index'
p4419
asbasbasbag68
(g84
g70
NtRp4420
(dp4421
g73
(dp4422
sg82
g4378
sg75
(lp4423
g68
(g89
g70
NtRp4424
(dp4425
g73
(dp4426
sg82
g4420
sg75
(lp4427
g68
(g69
g70
NtRp4428
(dp4429
g73
(dp4430
g81
I3
ssg82
g4424
sg75
(lp4431
g68
(g77
g70
NtRp4432
(dp4433
g73
(dp4434
g81
I2
ssg82
Nsg75
(lp4435
sbasbasbasbasbasbasbasbasbasbasbasbag68
(g84
g70
NtRp4436
(dp4437
g73
(dp4438
sg82
g3640
sg75
(lp4439
g68
(g89
g70
NtRp4440
(dp4441
g73
(dp4442
g93
g94
ssg82
g4436
sg75
(lp4443
S'meta'
p4444
asbag68
(g89
g70
NtRp4445
(dp4446
g73
(dp4447
g100
g101
ssg82
g4436
sg75
(lp4448
S':'
asbag68
(g89
g70
NtRp4449
(dp4450
g73
(dp4451
sg82
g4436
sg75
(lp4452
g68
(g69
g70
NtRp4453
(dp4454
g73
(dp4455
g81
I5
ssg82
g4449
sg75
(lp4456
g68
(g77
g70
NtRp4457
(dp4458
g73
(dp4459
g81
I4
ssg82
Nsg75
(lp4460
g68
(g84
g70
NtRp4461
(dp4462
g73
(dp4463
sg82
g4457
sg75
(lp4464
g68
(g89
g70
NtRp4465
(dp4466
g73
(dp4467
g93
g94
ssg82
g4461
sg75
(lp4468
S'author'
p4469
asbag68
(g89
g70
NtRp4470
(dp4471
g73
(dp4472
g100
g101
ssg82
g4461
sg75
(lp4473
S':'
asbag68
(g89
g70
NtRp4474
(dp4475
g73
(dp4476
sg82
g4461
sg75
(lp4477
g68
(g69
g70
NtRp4478
(dp4479
g73
(dp4480
g81
I4
ssg82
g4474
sg75
(lp4481
S'you <you@example.com>'
p4482
asbasbasbag68
(g84
g70
NtRp4483
(dp4484
g73
(dp4485
sg82
g4457
sg75
(lp4486
g68
(g89
g70
NtRp4487
(dp4488
g73
(dp4489
g93
g94
ssg82
g4483
sg75
(lp4490
S'description'
p4491
asbag68
(g89
g70
NtRp4492
(dp4493
g73
(dp4494
g100
g101
ssg82
g4483
sg75
(lp4495
S':'
asbag68
(g89
g70
NtRp4496
(dp4497
g73
(dp4498
sg82
g4483
sg75
(lp4499
g68
(g69
g70
NtRp4500
(dp4501
g73
(dp4502
g81
I4
ssg82
g4496
sg75
(lp4503
S''
asbasbasbag68
(g84
g70
NtRp4504
(dp4505
g73
(dp4506
sg82
g4457
sg75
(lp4507
g68
(g89
g70
NtRp4508
(dp4509
g73
(dp4510
g93
g94
ssg82
g4504
sg75
(lp4511
S'keywords'
p4512
asbag68
(g89
g70
NtRp4513
(dp4514
g73
(dp4515
g100
g101
ssg82
g4504
sg75
(lp4516
S':'
asbag68
(g89
g70
NtRp4517
(dp4518
g73
(dp4519
sg82
g4504
sg75
(lp4520
g68
(g69
g70
NtRp4521
(dp4522
g73
(dp4523
g81
I4
ssg82
g4517
sg75
(lp4524
S''
asbasbasbasbasbasbasbag68
(g84
g70
NtRp4525
(dp4526
g73
(dp4527
sg82
g3640
sg75
(lp4528
g68
(g89
g70
NtRp4529
(dp4530
g73
(dp4531
g93
g94
ssg82
g4525
sg75
(lp4532
S'models_to_run'
p4533
asbag68
(g89
g70
NtRp4534
(dp4535
g73
(dp4536
g100
g101
ssg82
g4525
sg75
(lp4537
S':'
asbag68
(g89
g70
NtRp4538
(dp4539
g73
(dp4540
sg82
g4525
sg75
(lp4541
g68
(g69
g70
NtRp4542
(dp4543
g73
(dp4544
g81
I5
ssg82
g4538
sg75
(lp4545
g68
(g77
g70
NtRp4546
(dp4547
g73
(dp4548
g81
I4
ssg82
Nsg75
(lp4549
g68
(g84
g70
NtRp4550
(dp4551
g73
(dp4552
sg82
g4546
sg75
(lp4553
g68
(g89
g70
NtRp4554
(dp4555
g73
(dp4556
sg82
g4550
sg75
(lp4557
g68
(g69
g70
NtRp4558
(dp4559
g73
(dp4560
g81
I4
ssg82
g4554
sg75
(lp4561
S'^\\w+\\.py$'
p4562
asbasbasbag68
(g84
g70
NtRp4563
(dp4564
g73
(dp4565
sg82
g4546
sg75
(lp4566
g68
(g89
g70
NtRp4567
(dp4568
g73
(dp4569
sg82
g4563
sg75
(lp4570
g68
(g69
g70
NtRp4571
(dp4572
g73
(dp4573
g81
I4
ssg82
g4567
sg75
(lp4574
S'^default/\\w+\\.py$'
p4575
asbasbasbag68
(g84
g70
NtRp4576
(dp4577
g73
(dp4578
sg82
g4546
sg75
(lp4579
g68
(g89
g70
NtRp4580
(dp4581
g73
(dp4582
sg82
g4576
sg75
(lp4583
g68
(g69
g70
NtRp4584
(dp4585
g73
(dp4586
g81
I4
ssg82
g4580
sg75
(lp4587
S'^default/regcomplaint/\\w+\\.py$'
p4588
asbasbasbasbasbasbasbag68
(g84
g70
NtRp4589
(dp4590
g73
(dp4591
sg82
g3640
sg75
(lp4592
g68
(g89
g70
NtRp4593
(dp4594
g73
(dp4595
g93
g94
ssg82
g4589
sg75
(lp4596
S'postprocessing'
p4597
asbag68
(g89
g70
NtRp4598
(dp4599
g73
(dp4600
g100
g101
ssg82
g4589
sg75
(lp4601
S':'
asbag68
(g89
g70
NtRp4602
(dp4603
g73
(dp4604
sg82
g4589
sg75
(lp4605
g68
(g69
g70
NtRp4606
(dp4607
g73
(dp4608
g81
I5
ssg82
g4602
sg75
(lp4609
g68
(g77
g70
NtRp4610
(dp4611
g73
(dp4612
g81
I4
ssg82
Nsg75
(lp4613
sbasbasbasbag68
(g84
g70
NtRp4614
(dp4615
g73
(dp4616
sg82
g3640
sg75
(lp4617
g68
(g89
g70
NtRp4618
(dp4619
g73
(dp4620
g93
g94
ssg82
g4614
sg75
(lp4621
S'rooms'
p4622
asbag68
(g89
g70
NtRp4623
(dp4624
g73
(dp4625
g100
g101
ssg82
g4614
sg75
(lp4626
S':'
asbag68
(g89
g70
NtRp4627
(dp4628
g73
(dp4629
sg82
g4614
sg75
(lp4630
g68
(g69
g70
NtRp4631
(dp4632
g73
(dp4633
g81
I5
ssg82
g4627
sg75
(lp4634
g68
(g77
g70
NtRp4635
(dp4636
g73
(dp4637
g81
I4
ssg82
Nsg75
(lp4638
g68
(g84
g70
NtRp4639
(dp4640
g73
(dp4641
sg82
g4635
sg75
(lp4642
g68
(g89
g70
NtRp4643
(dp4644
g73
(dp4645
sg82
g4639
sg75
(lp4646
g68
(g69
g70
NtRp4647
(dp4648
g73
(dp4649
g81
I4
ssg82
g4643
sg75
(lp4650
g68
(g77
g70
NtRp4651
(dp4652
g73
(dp4653
g81
I3
ssg82
Nsg75
(lp4654
g68
(g84
g70
NtRp4655
(dp4656
g73
(dp4657
sg82
g4651
sg75
(lp4658
g68
(g89
g70
NtRp4659
(dp4660
g73
(dp4661
sg82
g4655
sg75
(lp4662
g68
(g69
g70
NtRp4663
(dp4664
g73
(dp4665
g81
I3
ssg82
g4659
sg75
(lp4666
g3718
(S's\x0c\x00\x00\x00Room Vacancy'
tRp4667
asbasbasbag68
(g84
g70
NtRp4668
(dp4669
g73
(dp4670
sg82
g4651
sg75
(lp4671
g68
(g89
g70
NtRp4672
(dp4673
g73
(dp4674
sg82
g4668
sg75
(lp4675
g68
(g69
g70
NtRp4676
(dp4677
g73
(dp4678
g81
I3
ssg82
g4672
sg75
(lp4679
g111
asbasbasbag68
(g84
g70
NtRp4680
(dp4681
g73
(dp4682
sg82
g4651
sg75
(lp4683
g68
(g89
g70
NtRp4684
(dp4685
g73
(dp4686
sg82
g4680
sg75
(lp4687
g68
(g69
g70
NtRp4688
(dp4689
g73
(dp4690
g81
I3
ssg82
g4684
sg75
(lp4691
S'/sss/default/view_vacant_rooms'
p4692
asbasbasbag68
(g84
g70
NtRp4693
(dp4694
g73
(dp4695
sg82
g4651
sg75
(lp4696
g68
(g89
g70
NtRp4697
(dp4698
g73
(dp4699
sg82
g4693
sg75
(lp4700
g68
(g69
g70
NtRp4701
(dp4702
g73
(dp4703
g81
I3
ssg82
g4697
sg75
(lp4704
g68
(g77
g70
NtRp4705
(dp4706
g73
(dp4707
g81
I2
ssg82
Nsg75
(lp4708
sbasbasbasbasbasbasbasbasbasbasbasbag68
(g84
g70
NtRp4709
(dp4710
g73
(dp4711
sg82
g3640
sg75
(lp4712
g68
(g89
g70
NtRp4713
(dp4714
g73
(dp4715
g93
g94
ssg82
g4709
sg75
(lp4716
S'search'
p4717
asbag68
(g89
g70
NtRp4718
(dp4719
g73
(dp4720
g100
g101
ssg82
g4709
sg75
(lp4721
S':'
asbag68
(g89
g70
NtRp4722
(dp4723
g73
(dp4724
sg82
g4709
sg75
(lp4725
g68
(g69
g70
NtRp4726
(dp4727
g73
(dp4728
g81
I5
ssg82
g4722
sg75
(lp4729
g68
(g77
g70
NtRp4730
(dp4731
g73
(dp4732
g81
I4
ssg82
Nsg75
(lp4733
g68
(g84
g70
NtRp4734
(dp4735
g73
(dp4736
sg82
g4730
sg75
(lp4737
g68
(g89
g70
NtRp4738
(dp4739
g73
(dp4740
sg82
g4734
sg75
(lp4741
g68
(g69
g70
NtRp4742
(dp4743
g73
(dp4744
g81
I4
ssg82
g4738
sg75
(lp4745
g68
(g77
g70
NtRp4746
(dp4747
g73
(dp4748
g81
I3
ssg82
Nsg75
(lp4749
g68
(g84
g70
NtRp4750
(dp4751
g73
(dp4752
sg82
g4746
sg75
(lp4753
g68
(g89
g70
NtRp4754
(dp4755
g73
(dp4756
sg82
g4750
sg75
(lp4757
g68
(g69
g70
NtRp4758
(dp4759
g73
(dp4760
g81
I3
ssg82
g4754
sg75
(lp4761
g3718
(S't\x06\x00\x00\x00SEARCH'
tRp4762
asbasbasbag68
(g84
g70
NtRp4763
(dp4764
g73
(dp4765
sg82
g4746
sg75
(lp4766
g68
(g89
g70
NtRp4767
(dp4768
g73
(dp4769
sg82
g4763
sg75
(lp4770
g68
(g69
g70
NtRp4771
(dp4772
g73
(dp4773
g81
I3
ssg82
g4767
sg75
(lp4774
g111
asbasbasbag68
(g84
g70
NtRp4775
(dp4776
g73
(dp4777
sg82
g4746
sg75
(lp4778
g68
(g89
g70
NtRp4779
(dp4780
g73
(dp4781
sg82
g4775
sg75
(lp4782
g68
(g69
g70
NtRp4783
(dp4784
g73
(dp4785
g81
I3
ssg82
g4779
sg75
(lp4786
S'/sss/default/search'
p4787
asbasbasbag68
(g84
g70
NtRp4788
(dp4789
g73
(dp4790
sg82
g4746
sg75
(lp4791
g68
(g89
g70
NtRp4792
(dp4793
g73
(dp4794
sg82
g4788
sg75
(lp4795
g68
(g69
g70
NtRp4796
(dp4797
g73
(dp4798
g81
I3
ssg82
g4792
sg75
(lp4799
g68
(g77
g70
NtRp4800
(dp4801
g73
(dp4802
g81
I2
ssg82
Nsg75
(lp4803
sbasbasbasbasbasbasbasbasbasbasbasbag68
(g84
g70
NtRp4804
(dp4805
g73
(dp4806
sg82
g3640
sg75
(lp4807
g68
(g89
g70
NtRp4808
(dp4809
g73
(dp4810
g93
g94
ssg82
g4804
sg75
(lp4811
S'session_cookie_expires'
p4812
asbag68
(g89
g70
NtRp4813
(dp4814
g73
(dp4815
g100
g101
ssg82
g4804
sg75
(lp4816
S':'
asbag68
(g89
g70
NtRp4817
(dp4818
g73
(dp4819
sg82
g4804
sg75
(lp4820
g68
(g69
g70
NtRp4821
(dp4822
g73
(dp4823
g81
I5
ssg82
g4817
sg75
(lp4824
S'None'
p4825
asbasbasbag68
(g84
g70
NtRp4826
(dp4827
g73
(dp4828
sg82
g3640
sg75
(lp4829
g68
(g89
g70
NtRp4830
(dp4831
g73
(dp4832
g93
g94
ssg82
g4826
sg75
(lp4833
S'session_data_name'
p4834
asbag68
(g89
g70
NtRp4835
(dp4836
g73
(dp4837
g100
g101
ssg82
g4826
sg75
(lp4838
S':'
asbag68
(g89
g70
NtRp4839
(dp4840
g73
(dp4841
sg82
g4826
sg75
(lp4842
g68
(g69
g70
NtRp4843
(dp4844
g73
(dp4845
g81
I5
ssg82
g4839
sg75
(lp4846
S'session_data_sss'
p4847
asbasbasbag68
(g84
g70
NtRp4848
(dp4849
g73
(dp4850
sg82
g3640
sg75
(lp4851
g68
(g89
g70
NtRp4852
(dp4853
g73
(dp4854
g93
g94
ssg82
g4848
sg75
(lp4855
S'session_file'
p4856
asbag68
(g89
g70
NtRp4857
(dp4858
g73
(dp4859
g100
g101
ssg82
g4848
sg75
(lp4860
S':'
asbag68
(g89
g70
NtRp4861
(dp4862
g73
(dp4863
sg82
g4848
sg75
(lp4864
g68
(g69
g70
NtRp4865
(dp4866
g73
(dp4867
g81
I5
ssg82
g4861
sg75
(lp4868
S"<open file '/home/bhanu/web2py/applications/sss/sessions/127.0.0.1-3710a024-f9d4-48b6-82d8-76e05ad14bc4', mode 'rb+' at 0x7fe9f49ce030>"
p4869
asbasbasbag68
(g84
g70
NtRp4870
(dp4871
g73
(dp4872
sg82
g3640
sg75
(lp4873
g68
(g89
g70
NtRp4874
(dp4875
g73
(dp4876
g93
g94
ssg82
g4870
sg75
(lp4877
S'session_filename'
p4878
asbag68
(g89
g70
NtRp4879
(dp4880
g73
(dp4881
g100
g101
ssg82
g4870
sg75
(lp4882
S':'
asbag68
(g89
g70
NtRp4883
(dp4884
g73
(dp4885
sg82
g4870
sg75
(lp4886
g68
(g69
g70
NtRp4887
(dp4888
g73
(dp4889
g81
I5
ssg82
g4883
sg75
(lp4890
S'/home/bhanu/web2py/applications/sss/sessions/127.0.0.1-3710a024-f9d4-48b6-82d8-76e05ad14bc4'
p4891
asbasbasbag68
(g84
g70
NtRp4892
(dp4893
g73
(dp4894
sg82
g3640
sg75
(lp4895
g68
(g89
g70
NtRp4896
(dp4897
g73
(dp4898
g93
g94
ssg82
g4892
sg75
(lp4899
S'session_id'
p4900
asbag68
(g89
g70
NtRp4901
(dp4902
g73
(dp4903
g100
g101
ssg82
g4892
sg75
(lp4904
S':'
asbag68
(g89
g70
NtRp4905
(dp4906
g73
(dp4907
sg82
g4892
sg75
(lp4908
g68
(g69
g70
NtRp4909
(dp4910
g73
(dp4911
g81
I5
ssg82
g4905
sg75
(lp4912
g672
asbasbasbag68
(g84
g70
NtRp4913
(dp4914
g73
(dp4915
sg82
g3640
sg75
(lp4916
g68
(g89
g70
NtRp4917
(dp4918
g73
(dp4919
g93
g94
ssg82
g4913
sg75
(lp4920
S'session_id_name'
p4921
asbag68
(g89
g70
NtRp4922
(dp4923
g73
(dp4924
g100
g101
ssg82
g4913
sg75
(lp4925
S':'
asbag68
(g89
g70
NtRp4926
(dp4927
g73
(dp4928
sg82
g4913
sg75
(lp4929
g68
(g69
g70
NtRp4930
(dp4931
g73
(dp4932
g81
I5
ssg82
g4926
sg75
(lp4933
g3793
asbasbasbag68
(g84
g70
NtRp4934
(dp4935
g73
(dp4936
sg82
g3640
sg75
(lp4937
g68
(g89
g70
NtRp4938
(dp4939
g73
(dp4940
g93
g94
ssg82
g4934
sg75
(lp4941
S'session_locked'
p4942
asbag68
(g89
g70
NtRp4943
(dp4944
g73
(dp4945
g100
g101
ssg82
g4934
sg75
(lp4946
S':'
asbag68
(g89
g70
NtRp4947
(dp4948
g73
(dp4949
sg82
g4934
sg75
(lp4950
g68
(g69
g70
NtRp4951
(dp4952
g73
(dp4953
g81
I5
ssg82
g4947
sg75
(lp4954
g1987
asbasbasbag68
(g84
g70
NtRp4955
(dp4956
g73
(dp4957
sg82
g3640
sg75
(lp4958
g68
(g89
g70
NtRp4959
(dp4960
g73
(dp4961
g93
g94
ssg82
g4955
sg75
(lp4962
S'session_new'
p4963
asbag68
(g89
g70
NtRp4964
(dp4965
g73
(dp4966
g100
g101
ssg82
g4955
sg75
(lp4967
S':'
asbag68
(g89
g70
NtRp4968
(dp4969
g73
(dp4970
sg82
g4955
sg75
(lp4971
g68
(g69
g70
NtRp4972
(dp4973
g73
(dp4974
g81
I5
ssg82
g4968
sg75
(lp4975
g111
asbasbasbag68
(g84
g70
NtRp4976
(dp4977
g73
(dp4978
sg82
g3640
sg75
(lp4979
g68
(g89
g70
NtRp4980
(dp4981
g73
(dp4982
g93
g94
ssg82
g4976
sg75
(lp4983
S'session_storage_type'
p4984
asbag68
(g89
g70
NtRp4985
(dp4986
g73
(dp4987
g100
g101
ssg82
g4976
sg75
(lp4988
S':'
asbag68
(g89
g70
NtRp4989
(dp4990
g73
(dp4991
sg82
g4976
sg75
(lp4992
g68
(g69
g70
NtRp4993
(dp4994
g73
(dp4995
g81
I5
ssg82
g4989
sg75
(lp4996
g3439
asbasbasbag68
(g84
g70
NtRp4997
(dp4998
g73
(dp4999
sg82
g3640
sg75
(lp5000
g68
(g89
g70
NtRp5001
(dp5002
g73
(dp5003
g93
g94
ssg82
g4997
sg75
(lp5004
S'status'
p5005
asbag68
(g89
g70
NtRp5006
(dp5007
g73
(dp5008
g100
g101
ssg82
g4997
sg75
(lp5009
S':'
asbag68
(g89
g70
NtRp5010
(dp5011
g73
(dp5012
sg82
g4997
sg75
(lp5013
g68
(g69
g70
NtRp5014
(dp5015
g73
(dp5016
g81
I5
ssg82
g5010
sg75
(lp5017
S'200'
p5018
asbasbasbag68
(g84
g70
NtRp5019
(dp5020
g73
(dp5021
sg82
g3640
sg75
(lp5022
g68
(g89
g70
NtRp5023
(dp5024
g73
(dp5025
g93
g94
ssg82
g5019
sg75
(lp5026
S'student'
p5027
asbag68
(g89
g70
NtRp5028
(dp5029
g73
(dp5030
g100
g101
ssg82
g5019
sg75
(lp5031
S':'
asbag68
(g89
g70
NtRp5032
(dp5033
g73
(dp5034
sg82
g5019
sg75
(lp5035
g68
(g69
g70
NtRp5036
(dp5037
g73
(dp5038
g81
I5
ssg82
g5032
sg75
(lp5039
g68
(g77
g70
NtRp5040
(dp5041
g73
(dp5042
g81
I4
ssg82
Nsg75
(lp5043
g68
(g84
g70
NtRp5044
(dp5045
g73
(dp5046
sg82
g5040
sg75
(lp5047
g68
(g89
g70
NtRp5048
(dp5049
g73
(dp5050
sg82
g5044
sg75
(lp5051
g68
(g69
g70
NtRp5052
(dp5053
g73
(dp5054
g81
I4
ssg82
g5048
sg75
(lp5055
g68
(g77
g70
NtRp5056
(dp5057
g73
(dp5058
g81
I3
ssg82
Nsg75
(lp5059
g68
(g84
g70
NtRp5060
(dp5061
g73
(dp5062
sg82
g5056
sg75
(lp5063
g68
(g89
g70
NtRp5064
(dp5065
g73
(dp5066
sg82
g5060
sg75
(lp5067
g68
(g69
g70
NtRp5068
(dp5069
g73
(dp5070
g81
I3
ssg82
g5064
sg75
(lp5071
g4394
asbasbasbag68
(g84
g70
NtRp5072
(dp5073
g73
(dp5074
sg82
g5056
sg75
(lp5075
g68
(g89
g70
NtRp5076
(dp5077
g73
(dp5078
sg82
g5072
sg75
(lp5079
g68
(g69
g70
NtRp5080
(dp5081
g73
(dp5082
g81
I3
ssg82
g5076
sg75
(lp5083
g111
asbasbasbag68
(g84
g70
NtRp5084
(dp5085
g73
(dp5086
sg82
g5056
sg75
(lp5087
g68
(g89
g70
NtRp5088
(dp5089
g73
(dp5090
sg82
g5084
sg75
(lp5091
g68
(g69
g70
NtRp5092
(dp5093
g73
(dp5094
g81
I3
ssg82
g5088
sg75
(lp5095
g4419
asbasbasbag68
(g84
g70
NtRp5096
(dp5097
g73
(dp5098
sg82
g5056
sg75
(lp5099
g68
(g89
g70
NtRp5100
(dp5101
g73
(dp5102
sg82
g5096
sg75
(lp5103
g68
(g69
g70
NtRp5104
(dp5105
g73
(dp5106
g81
I3
ssg82
g5100
sg75
(lp5107
g68
(g77
g70
NtRp5108
(dp5109
g73
(dp5110
g81
I2
ssg82
Nsg75
(lp5111
sbasbasbasbasbasbasbasbag68
(g84
g70
NtRp5112
(dp5113
g73
(dp5114
sg82
g5040
sg75
(lp5115
g68
(g89
g70
NtRp5116
(dp5117
g73
(dp5118
sg82
g5112
sg75
(lp5119
g68
(g69
g70
NtRp5120
(dp5121
g73
(dp5122
g81
I4
ssg82
g5116
sg75
(lp5123
g68
(g77
g70
NtRp5124
(dp5125
g73
(dp5126
g81
I3
ssg82
Nsg75
(lp5127
g68
(g84
g70
NtRp5128
(dp5129
g73
(dp5130
sg82
g5124
sg75
(lp5131
g68
(g89
g70
NtRp5132
(dp5133
g73
(dp5134
sg82
g5128
sg75
(lp5135
g68
(g69
g70
NtRp5136
(dp5137
g73
(dp5138
g81
I3
ssg82
g5132
sg75
(lp5139
g3719
asbasbasbag68
(g84
g70
NtRp5140
(dp5141
g73
(dp5142
sg82
g5124
sg75
(lp5143
g68
(g89
g70
NtRp5144
(dp5145
g73
(dp5146
sg82
g5140
sg75
(lp5147
g68
(g69
g70
NtRp5148
(dp5149
g73
(dp5150
g81
I3
ssg82
g5144
sg75
(lp5151
g111
asbasbasbag68
(g84
g70
NtRp5152
(dp5153
g73
(dp5154
sg82
g5124
sg75
(lp5155
g68
(g89
g70
NtRp5156
(dp5157
g73
(dp5158
sg82
g5152
sg75
(lp5159
g68
(g69
g70
NtRp5160
(dp5161
g73
(dp5162
g81
I3
ssg82
g5156
sg75
(lp5163
g3744
asbasbasbag68
(g84
g70
NtRp5164
(dp5165
g73
(dp5166
sg82
g5124
sg75
(lp5167
g68
(g89
g70
NtRp5168
(dp5169
g73
(dp5170
sg82
g5164
sg75
(lp5171
g68
(g69
g70
NtRp5172
(dp5173
g73
(dp5174
g81
I3
ssg82
g5168
sg75
(lp5175
g68
(g77
g70
NtRp5176
(dp5177
g73
(dp5178
g81
I2
ssg82
Nsg75
(lp5179
sbasbasbasbasbasbasbasbag68
(g84
g70
NtRp5180
(dp5181
g73
(dp5182
sg82
g5040
sg75
(lp5183
g68
(g89
g70
NtRp5184
(dp5185
g73
(dp5186
sg82
g5180
sg75
(lp5187
g68
(g69
g70
NtRp5188
(dp5189
g73
(dp5190
g81
I4
ssg82
g5184
sg75
(lp5191
g68
(g77
g70
NtRp5192
(dp5193
g73
(dp5194
g81
I3
ssg82
Nsg75
(lp5195
g68
(g84
g70
NtRp5196
(dp5197
g73
(dp5198
sg82
g5192
sg75
(lp5199
g68
(g89
g70
NtRp5200
(dp5201
g73
(dp5202
sg82
g5196
sg75
(lp5203
g68
(g69
g70
NtRp5204
(dp5205
g73
(dp5206
g81
I3
ssg82
g5200
sg75
(lp5207
g4667
asbasbasbag68
(g84
g70
NtRp5208
(dp5209
g73
(dp5210
sg82
g5192
sg75
(lp5211
g68
(g89
g70
NtRp5212
(dp5213
g73
(dp5214
sg82
g5208
sg75
(lp5215
g68
(g69
g70
NtRp5216
(dp5217
g73
(dp5218
g81
I3
ssg82
g5212
sg75
(lp5219
g111
asbasbasbag68
(g84
g70
NtRp5220
(dp5221
g73
(dp5222
sg82
g5192
sg75
(lp5223
g68
(g89
g70
NtRp5224
(dp5225
g73
(dp5226
sg82
g5220
sg75
(lp5227
g68
(g69
g70
NtRp5228
(dp5229
g73
(dp5230
g81
I3
ssg82
g5224
sg75
(lp5231
g4692
asbasbasbag68
(g84
g70
NtRp5232
(dp5233
g73
(dp5234
sg82
g5192
sg75
(lp5235
g68
(g89
g70
NtRp5236
(dp5237
g73
(dp5238
sg82
g5232
sg75
(lp5239
g68
(g69
g70
NtRp5240
(dp5241
g73
(dp5242
g81
I3
ssg82
g5236
sg75
(lp5243
g68
(g77
g70
NtRp5244
(dp5245
g73
(dp5246
g81
I2
ssg82
Nsg75
(lp5247
sbasbasbasbasbasbasbasbasbasbasbasbag68
(g84
g70
NtRp5248
(dp5249
g73
(dp5250
sg82
g3640
sg75
(lp5251
g68
(g89
g70
NtRp5252
(dp5253
g73
(dp5254
g93
g94
ssg82
g5248
sg75
(lp5255
S'student_out_details'
p5256
asbag68
(g89
g70
NtRp5257
(dp5258
g73
(dp5259
g100
g101
ssg82
g5248
sg75
(lp5260
S':'
asbag68
(g89
g70
NtRp5261
(dp5262
g73
(dp5263
sg82
g5248
sg75
(lp5264
g68
(g69
g70
NtRp5265
(dp5266
g73
(dp5267
g81
I5
ssg82
g5261
sg75
(lp5268
g68
(g77
g70
NtRp5269
(dp5270
g73
(dp5271
g81
I4
ssg82
Nsg75
(lp5272
g68
(g84
g70
NtRp5273
(dp5274
g73
(dp5275
sg82
g5269
sg75
(lp5276
g68
(g89
g70
NtRp5277
(dp5278
g73
(dp5279
sg82
g5273
sg75
(lp5280
g68
(g69
g70
NtRp5281
(dp5282
g73
(dp5283
g81
I4
ssg82
g5277
sg75
(lp5284
g68
(g77
g70
NtRp5285
(dp5286
g73
(dp5287
g81
I3
ssg82
Nsg75
(lp5288
g68
(g84
g70
NtRp5289
(dp5290
g73
(dp5291
sg82
g5285
sg75
(lp5292
g68
(g89
g70
NtRp5293
(dp5294
g73
(dp5295
sg82
g5289
sg75
(lp5296
g68
(g69
g70
NtRp5297
(dp5298
g73
(dp5299
g81
I3
ssg82
g5293
sg75
(lp5300
g3718
(S's\x0e\x00\x00\x00Outing Details'
tRp5301
asbasbasbag68
(g84
g70
NtRp5302
(dp5303
g73
(dp5304
sg82
g5285
sg75
(lp5305
g68
(g89
g70
NtRp5306
(dp5307
g73
(dp5308
sg82
g5302
sg75
(lp5309
g68
(g69
g70
NtRp5310
(dp5311
g73
(dp5312
g81
I3
ssg82
g5306
sg75
(lp5313
g111
asbasbasbag68
(g84
g70
NtRp5314
(dp5315
g73
(dp5316
sg82
g5285
sg75
(lp5317
g68
(g89
g70
NtRp5318
(dp5319
g73
(dp5320
sg82
g5314
sg75
(lp5321
g68
(g69
g70
NtRp5322
(dp5323
g73
(dp5324
g81
I3
ssg82
g5318
sg75
(lp5325
S'/sss/default/student_out_details'
p5326
asbasbasbag68
(g84
g70
NtRp5327
(dp5328
g73
(dp5329
sg82
g5285
sg75
(lp5330
g68
(g89
g70
NtRp5331
(dp5332
g73
(dp5333
sg82
g5327
sg75
(lp5334
g68
(g69
g70
NtRp5335
(dp5336
g73
(dp5337
g81
I3
ssg82
g5331
sg75
(lp5338
g68
(g77
g70
NtRp5339
(dp5340
g73
(dp5341
g81
I2
ssg82
Nsg75
(lp5342
sbasbasbasbasbasbasbasbasbasbasbasbag68
(g84
g70
NtRp5343
(dp5344
g73
(dp5345
sg82
g3640
sg75
(lp5346
g68
(g89
g70
NtRp5347
(dp5348
g73
(dp5349
g93
g94
ssg82
g5343
sg75
(lp5350
S'subtitle'
p5351
asbag68
(g89
g70
NtRp5352
(dp5353
g73
(dp5354
g100
g101
ssg82
g5343
sg75
(lp5355
S':'
asbag68
(g89
g70
NtRp5356
(dp5357
g73
(dp5358
sg82
g5343
sg75
(lp5359
g68
(g69
g70
NtRp5360
(dp5361
g73
(dp5362
g81
I5
ssg82
g5356
sg75
(lp5363
S'powered by web2py'
p5364
asbasbasbag68
(g84
g70
NtRp5365
(dp5366
g73
(dp5367
sg82
g3640
sg75
(lp5368
g68
(g89
g70
NtRp5369
(dp5370
g73
(dp5371
g93
g94
ssg82
g5365
sg75
(lp5372
S'title'
p5373
asbag68
(g89
g70
NtRp5374
(dp5375
g73
(dp5376
g100
g101
ssg82
g5365
sg75
(lp5377
S':'
asbag68
(g89
g70
NtRp5378
(dp5379
g73
(dp5380
sg82
g5365
sg75
(lp5381
g68
(g69
g70
NtRp5382
(dp5383
g73
(dp5384
g81
I5
ssg82
g5378
sg75
(lp5385
S'IIIT-H Hostel Management Portal'
p5386
asbasbasbag68
(g84
g70
NtRp5387
(dp5388
g73
(dp5389
sg82
g3640
sg75
(lp5390
g68
(g89
g70
NtRp5391
(dp5392
g73
(dp5393
g93
g94
ssg82
g5387
sg75
(lp5394
S'vcomplaint'
p5395
asbag68
(g89
g70
NtRp5396
(dp5397
g73
(dp5398
g100
g101
ssg82
g5387
sg75
(lp5399
S':'
asbag68
(g89
g70
NtRp5400
(dp5401
g73
(dp5402
sg82
g5387
sg75
(lp5403
g68
(g69
g70
NtRp5404
(dp5405
g73
(dp5406
g81
I5
ssg82
g5400
sg75
(lp5407
g68
(g77
g70
NtRp5408
(dp5409
g73
(dp5410
g81
I4
ssg82
Nsg75
(lp5411
g68
(g84
g70
NtRp5412
(dp5413
g73
(dp5414
sg82
g5408
sg75
(lp5415
g68
(g89
g70
NtRp5416
(dp5417
g73
(dp5418
sg82
g5412
sg75
(lp5419
g68
(g69
g70
NtRp5420
(dp5421
g73
(dp5422
g81
I4
ssg82
g5416
sg75
(lp5423
g68
(g77
g70
NtRp5424
(dp5425
g73
(dp5426
g81
I3
ssg82
Nsg75
(lp5427
g68
(g84
g70
NtRp5428
(dp5429
g73
(dp5430
sg82
g5424
sg75
(lp5431
g68
(g89
g70
NtRp5432
(dp5433
g73
(dp5434
sg82
g5428
sg75
(lp5435
g68
(g69
g70
NtRp5436
(dp5437
g73
(dp5438
g81
I3
ssg82
g5432
sg75
(lp5439
g3718
(S's\x0f\x00\x00\x00View Complaints'
tRp5440
asbasbasbag68
(g84
g70
NtRp5441
(dp5442
g73
(dp5443
sg82
g5424
sg75
(lp5444
g68
(g89
g70
NtRp5445
(dp5446
g73
(dp5447
sg82
g5441
sg75
(lp5448
g68
(g69
g70
NtRp5449
(dp5450
g73
(dp5451
g81
I3
ssg82
g5445
sg75
(lp5452
g111
asbasbasbag68
(g84
g70
NtRp5453
(dp5454
g73
(dp5455
sg82
g5424
sg75
(lp5456
g68
(g89
g70
NtRp5457
(dp5458
g73
(dp5459
sg82
g5453
sg75
(lp5460
g68
(g69
g70
NtRp5461
(dp5462
g73
(dp5463
g81
I3
ssg82
g5457
sg75
(lp5464
S'/sss/default/vcomplaint'
p5465
asbasbasbag68
(g84
g70
NtRp5466
(dp5467
g73
(dp5468
sg82
g5424
sg75
(lp5469
g68
(g89
g70
NtRp5470
(dp5471
g73
(dp5472
sg82
g5466
sg75
(lp5473
g68
(g69
g70
NtRp5474
(dp5475
g73
(dp5476
g81
I3
ssg82
g5470
sg75
(lp5477
g68
(g77
g70
NtRp5478
(dp5479
g73
(dp5480
g81
I2
ssg82
Nsg75
(lp5481
sbasbasbasbasbasbasbasbasbasbasbasbag68
(g84
g70
NtRp5482
(dp5483
g73
(dp5484
sg82
g3640
sg75
(lp5485
g68
(g89
g70
NtRp5486
(dp5487
g73
(dp5488
g93
g94
ssg82
g5482
sg75
(lp5489
S'view'
p5490
asbag68
(g89
g70
NtRp5491
(dp5492
g73
(dp5493
g100
g101
ssg82
g5482
sg75
(lp5494
S':'
asbag68
(g89
g70
NtRp5495
(dp5496
g73
(dp5497
sg82
g5482
sg75
(lp5498
g68
(g69
g70
NtRp5499
(dp5500
g73
(dp5501
g81
I5
ssg82
g5495
sg75
(lp5502
S'default/regcomplaint.html'
p5503
asbasbasbasbasbsS'locals'
p5504
(dp5505
g4
S"'/home/bhanu/web2py/applications/sss/views/default/regcomplaint.html'"
p5506
sg6
S'\'response.write(\\\'<!DOCTYPE html PUBLIC "-//W3C//D...->>\\\\n \\\\n \\\\n \\\\n </body>\\\\n</html>\\\\n\\\', escape=False)\''
p5507
sssS'traceback'
p5508
S'Traceback (most recent call last):\n  File "/home/bhanu/web2py/gluon/restricted.py", line 211, in restricted\n    ccode = compile2(code, layer)\n  File "/home/bhanu/web2py/gluon/restricted.py", line 194, in compile2\n    return compile(code.rstrip().replace(\'\\r\\n\', \'\\n\') + \'\\n\', layer, \'exec\')\n  File "/home/bhanu/web2py/applications/sss/views/default/regcomplaint.html", line 36\n    {{=form\n      ^\nSyntaxError: invalid syntax\n'
p5509
s.