(dp1
S'output'
p2
S"<type 'exceptions.IndexError'> list index out of range"
p3
sS'layer'
p4
S'/home/bhanu/web2py/applications/sss/controllers/default.py'
p5
sS'code'
p6
S'# -*- coding: utf-8 -*-\n### required - do no delete\n\nresponse.title="IIIT-H Hostel Management Portal"\n\nfrom gluon.sqlhtml import form_factory\nimport socket\nimport re\n\nCAS.login_url=\'https://login.iiit.ac.in/cas/login\'\nCAS.check_url=\'https://login.iiit.ac.in/cas/validate\'\nCAS.logout_url=\'https://login.iiit.ac.in/cas/logout\'\nCAS.my_url=\'http://127.0.0.1:8000/sss/default/login\'\n\nif not session.token and not request.function==\'login\':\n   redirect(URL(r=request, f=\'login\'))\n#session.name="aaa"\n\ndef login():\n    session.login = 0 \n    session.token = CAS.login(request)\n    name=db(db.students.email==str(session.token)).select(db.students.ALL);\n    session.name=name[0].name\n    session.roll_no=name[0].roll_no\n    session.student_email = session.token\n    redirect(URL(r=request, f=\'index\'))\n    return dict()\n    \ndef logout():\n    session.token=None\n    session.name=""\n    CAS.logout()\n\n\ndef user(): return dict(form=auth())\ndef download(): return response.download(request,db)\ndef call(): return service()\n### end requires\n#@auth.requires_login()\n\ndef poll():\n    return dict()\n#@auth.requires_login()\ndef sr():\n    l=len(request.args)\n    db.poll.insert(question=request.args(0),options_no=l-1,posted_by=session.name)\n    q=db(db.poll.question==request.args(0)).select(db.poll.ALL)\n    pid=q[0].id\n    i=1\n    while i<l :\n        db.options.insert(option=request.args(i),qid=pid)\n        i=i+1\n\n     \n    if session.login==2:\n        db(db.poll.id==pid).update(flag=1)    \n        session.flash="New Poll Created"\n    else:\n        db(db.poll.id==pid).update(flag=0)    \n        session.flash="Your request has been sent"\n    redirect(URL(r=request,f=\'index\'))\n    return dict(a=request.args,l=l)\n\n#@auth.requires_login()\n\ndef searchbyroll():\n    roll=request.vars.roll\n    query=(db.students.roll_no==roll)\n    set=db(query)\n    result=set.select()\n    return dict(result=result)\n\ndef searchbyroom():\n    room=request.vars.room\n    query=(db.students.room_no==room)\n    set=db(query)\n    result=set.select()\n    return dict(result=result)\n\ndef searchbyname():\n    name=request.vars.name.lower()\n    query=db.students.name.lower().startswith(name)\n    set=db(query)\n    result=set.select()\n    return dict(result=result)\n\ndef index():\n  if session.login==0:\n        session.flash=response.flash\n        if db(db.puser.email==session.token).select(db.puser.ALL) :\n                session.login = 2\n                redirect(URL(r=request, f=\'puser\'))\n  \n        if db(db.admin.email==session.token).select(db.admin.ALL) :\n                session.login = 4\n                redirect(URL(r=request, f=\'admin\'))\n\n                      \n        if db(db.staff.email==session.token).select(db.staff.ALL) :\n                session.login = 3\n                redirect(URL(r=request, f=\'staff\'))\n\n        else: \n                session.login = 1\n                redirect(URL(r=request, f=\'student\'))\n  else:\n         if session.login==1:\n                redirect(URL(r=request, f=\'student\'))\n                \n         if session.login==2:\n                redirect(URL(r=request, f=\'puser\'))\n                \n         if session.login==3:\n                redirect(URL(r=request, f=\'staff\'))\n                \n         if session.login==4:\n                redirect(URL(r=request, f=\'admin\'))                                                 \n\n\n \ndef requests():\n    poll=db(db.poll.flag==0).select(db.poll.ALL)\n    newsfeed=db(db.news_feed.flag==0).select(db.news_feed.ALL)\n   # query=((db.poll.flag==0))\n    #query2=((db.news_feed.flag==0))\n    #newsfeed=SQLFORM.smartgrid(newsfeed=newsfeed)\n    #form1=SQLFORM.grid(query=query)\n    \n    #form2=SQLFORM.grid(query=query2)\n    if not (poll or  newsfeed):\n        session.flash="All requests processed"\n        redirect(URL(r=request,f=\'index\'))\n    return dict(form1=poll,form2=newsfeed)\n    \ndef request_poll():\n    i=request.args\n    if i[1]=="1":\n        db(db.poll.id==i[0]).update(flag=1)\n    if i[1]=="-1":\n        db(db.poll.id==i[0]).delete()\n        db(db.options.qid==i[0]).delete()\n    redirect(URL(r=request,f=\'requests\'))\n    return dict()\n\ndef request_newsfeed():\n    i=request.args\n    if i[1]=="1":\n        db(db.news_feed.id==i[0]).update(flag=1)\n    if i[1]=="-1":\n        db(db.news_feed.id==i[0]).delete()\n    redirect(URL(r=request,f=\'requests\'))\n    return dict()    \n\n\n\ndef add_news_feed():\n    form=SQLFORM(db.news_feed);\n    form.vars.posted_by=session.name\n    \n    if session.login==2:\n            form.vars.flag=1\n    else:\n            form.vars.flag=0\n            \n    if form.accepts(request.vars,session):\n        if session.login==2:\n            session.flash="Newsfeed Added"\n\n        else:\n            session.flash="Your request has been sent"\n\n        redirect(URL(r=request,f=\'index\'))\n    return dict(form=form)\n      \n\ndef student():\n    if request.vars.option!=None:\n        k=request.vars.option\n        l=db(db.options.id==k).select(db.options.ALL)\n        la=l[0].qid\n        l=l[0].counter\n        db(db.options.id==k).update(counter=l+1)\n        l2=db(db.poll.id==la).select(db.poll.ALL)\n        l2=l2[0].counter\n        db(db.poll.id==la).update(counter=l2+1)\n        db.vote.insert(qid=la)\n        redirect(URL(r=request,f=\'index\'))\n    newsfeed=db().select(db.news_feed.ALL,orderby=~db.news_feed.id)\n    polls=db().select(db.poll.ALL,orderby=~db.poll.id)\n    return dict(newsfeed=newsfeed,polls=polls)\n   \ndef staff():\n    return dict()\n \ndef one(): \n    return dict()\n\ndef puser():\n    if request.vars.option!=None:\n        k=request.vars.option\n        l=db(db.options.id==k).select(db.options.ALL)\n        \n        la=l[0].qid\n        l=l[0].counter\n        db(db.options.id==k).update(counter=l+1)\n        l2=db(db.poll.id==la).select(db.poll.ALL)\n        l2=l2[0].counter\n        db(db.poll.id==la).update(counter=l2+1)\n        db.vote.insert(qid=la,voted_by=session.name)\n        redirect(URL(r=request,f=\'index\'))\n\n    newsfeed=db().select(db.news_feed.ALL,orderby=~db.news_feed.id)\n    polls=db().select(db.poll.ALL,orderby=~db.poll.id)\n    return dict(newsfeed=newsfeed,polls=polls)\n\ndef vacant_rooms():\n    #request.vars=None\n    if request.vars.hostel!=None:\n        k=request.vars.hostel\n        l=request.vars.room_no\n        db.vacant_rooms.insert(hostel=k,room_no=l)\n        redirect(URL(r=request,f=\'vacant_rooms\'))\n    from gluon.tools import Crud\n    crud = Crud(db)\n    return dict(form=SQLFORM.smartgrid(db.vacant_rooms,user_signature=False,create=False))\n\ndef view_vacant_rooms():\n    return dict()\n\ndef vacant_rooms_request():\n    a=request.args\n    db.vacant_rooms_request.insert(hostel=a[0],room_no=a[1],requested_by=session.name)\n    redirect(URL(r=request,f=\'view_vacant_rooms\'))\n\ndef guest_rooms():\n    #request.vars=None\n   #  form=SQLFORM.smartgrid(db.available_guest_rooms,user_signature=False)\n     form2=SQLFORM.smartgrid(db.booked_guest_rooms,user_signature=False)\n     return dict(form=form2)\n\ndef available_guest_rooms():\n    #request.vars=None\n     form=SQLFORM.smartgrid(db.available_guest_rooms,user_signature=False)\n     #form2=SQLFORM.smartgrid(db.booked_guest_rooms,user_signature=False)\n     return dict(form=form)\n\ndef view_guest_rooms():\n    return dict()\n\ndef guest_rooms_request():\n    a=request.args\n    form=SQLFORM(db.booked_guest_rooms);\n    form.vars.booked_by=session.name\n    form.vars.flag=0\n    form.vars.room_no=a[1]\n    form.vars.hostel=a[0]        \n    if form.accepts(request.vars,session):\n             session.flash="Your request has been sent"\n    return dict(form=form)    \n\ndef admin():\n    return dict()   \n         \ndef error():\n    return dict()\n    \nimport datetime\nimport time\ndef enter_laptop_details():\n    form=SQLFORM(db.laptop)\n    if form.accepts(request.vars,session):\n        session.flash = T(\'laptop details entered\')\n        redirect(URL(r=request,f=\'index\'))\n\n    return dict(form=form)\ndef laptop_out_details():\n    form=SQLFORM(db.laptop_out)\n    if form.accepts(request.vars,session):\n        session.flash="Laptop Details Entered"\n        redirect(URL(r=request,f=\'show_laptop_details\',args=form.vars.roll_no))\n    return dict(form=form)\ndef student_out_details():\n    form=SQLFORM(db.student_out)\n    if form.accepts(request.vars,session):\n        session.flash="student Details Entered"\n        if form.vars.laptop_presence=="present":\n            db.laptop_out.insert(roll_no=form.vars.roll_no,reason="outside campus")\n            redirect(URL(r=request,f=\'show_laptop_details\',args=form.vars.roll_no))\n        else:\n            redirect(URL(r=request,f=\'index\'))\n    return dict(form=form)\ndef show_laptop_details():\n    i=request.args\n    \n    laptop=db(db.laptop.roll_no==i[0]).select(db.laptop.ALL)\n    if not laptop:\n        session.flash="No Record Found Enter Details"\n        redirect(URL(r=request,f= enter_laptop_details))\n    name=db(db.students.roll_no==i[0]).select(db.students.name)\n    return dict(form=laptop)\n    \ndef regcomplaint():\n    now = time.localtime(time.time())\n    year, month, day, hour, minute, second, weekday, yearday, daylight = now\n    \n    db.complaint.User.default=session.name\n    db.complaint.Date.default=datetime.datetime.today()\n    db.complaint.Time.default="%02d:%02d:%02d" % (hour, minute, second)\n    db.complaint.Flag.default=1\n    form = SQLFORM(db.complaint)\n    if form.process().accepted:\n        response.flash = \'your complaint is registered\'\n        redirect(URL(r=request,f=\'index\'))\n    return dict(form=form)\n#@auth.requires_login()\ndef complaint():\n    return dict()\ndef showcomplaint():\n    return dict()\ndef viewprivate():\n    if(request.args(0)==\'1\'):\n        query=(db.complaint.User==session.name) & (db.complaint.Flag==1)\n        set=db(query)\n        complaints=set.select()\n        return dict(complaints=complaints)\n    else:\n        if(request.vars.place==\'1\'):\n            query=(db.complaint.User==session.name) & (db.complaint.Flag==1)\n        else:\n            query=(db.complaint.User==session.namee)&(db.complaint.category==request.vars.place) & (db.complaint.Flag==1)\n        set=db(query)\n        complaints=set.select()\n        return dict(complaints=complaints)\ndef delcomplaint():\n    remove = db(db.complaint.id==request.args(0)).delete()\n    if remove:\n        response.flash=\'complaint deleted succesfully\'\n        redirect(URL(\'viewprivate\'))\n    else:\n        response.flash=\'image deletion failed\'\ndef viewpublic():\n    query=(db.complaint.access!="Private") & (db.complaint.Flag!=0)\n    set=db(query)\n    complaints=set.select()\n    return dict(complaints=complaints)\ndef metcomplaint():\n    db(db.complaint.id==request.args(0)).update(Flag=0)\n    response.flash=\'Removed the complaint succesfully\'\n    redirect(URL(\'viewprivate\'))\ndef search():\n    return dict()\ndef byname():\n    return dict()\ndef byroll():\n    return dict()\ndef byroom():\n    return dict()\ndef searchbyroll():\n    roll=request.vars.roll\n    query=(db.students.roll_no==roll)\n    set=db(query)\n    result=set.select()\n    return dict(result=result)\n\ndef searchbyroom():\n    room=request.vars.room\n    query=(db.students.room_no==room)\n    set=db(query)\n    result=set.select()\n    return dict(result=result)\n\ndef searchbyname():\n    name=request.vars.name.lower()\n    query=db.students.name.lower().startswith(name)\n    set=db(query)\n    result=set.select()\n    return dict(result=result)\n\ndef viewprofile():\n    query=(db.students.roll_no==request.args(0))\n    set=db(query)\n    prof=set.select()\n    return dict(prof=prof)\n\ndef vcomplaint():\n    if(request.vars.place==None):\n        complaints = db().select(db.complaint.ALL)\n    else:\n         if(request.vars.place==\'1\'):\n           complaints = db().select(db.complaint.ALL)\n         else:\n            query=(db.complaint.category==request.vars.place)\n            set=db(query)\n            complaints=set.select()\n    return dict(complaints=complaints)\ndef month_input():\n    return dict()\n\ndef month_selector():\n    if not request.vars.name:\n        return \'\'\n    pattern = request.vars.name.capitalize() + \'%\'\n    selected = [row.name for row in db(db.students.name.like(pattern)).select()]\n    return \'\'.join([DIV(k,\n                 _onclick="jQuery(\'#name\').val(\'%s\')" % k,\n                 _onmouseover="this.style.backgroundColor=\'yellow\'",\n                 _onmouseout="this.style.backgroundColor=\'white\'"\n                 ).xml() for k in selected])\n\nresponse._vars=response._caller(login)\n'
p7
sS'snapshot'
p8
(dp9
S'exception'
p10
(dp11
S'__hash__'
p12
S"<method-wrapper '__hash__' of exceptions.IndexError object>"
p13
sS'__setattr__'
p14
S"<method-wrapper '__setattr__' of exceptions.IndexError object>"
p15
sS'__reduce_ex__'
p16
S'<built-in method __reduce_ex__ of exceptions.IndexError object>'
p17
sS'__getslice__'
p18
S"<method-wrapper '__getslice__' of exceptions.IndexError object>"
p19
sS'__getitem__'
p20
S"<method-wrapper '__getitem__' of exceptions.IndexError object>"
p21
sS'__setstate__'
p22
S'<built-in method __setstate__ of exceptions.IndexError object>'
p23
sS'args'
p24
S"('list index out of range',)"
p25
sS'__reduce__'
p26
S'<built-in method __reduce__ of exceptions.IndexError object>'
p27
sS'__str__'
p28
S"<method-wrapper '__str__' of exceptions.IndexError object>"
p29
sS'__format__'
p30
S'<built-in method __format__ of exceptions.IndexError object>'
p31
sS'__getattribute__'
p32
S"<method-wrapper '__getattribute__' of exceptions.IndexError object>"
p33
sS'__class__'
p34
S"<type 'exceptions.IndexError'>"
p35
sS'__unicode__'
p36
S'<built-in method __unicode__ of exceptions.IndexError object>'
p37
sS'__delattr__'
p38
S"<method-wrapper '__delattr__' of exceptions.IndexError object>"
p39
sS'__subclasshook__'
p40
S'<built-in method __subclasshook__ of type object>'
p41
sS'__repr__'
p42
S"<method-wrapper '__repr__' of exceptions.IndexError object>"
p43
sS'__dict__'
p44
S'{}'
p45
sS'__sizeof__'
p46
S'<built-in method __sizeof__ of exceptions.IndexError object>'
p47
sS'__doc__'
p48
S"'Sequence index out of range.'"
p49
sS'__init__'
p50
S"<method-wrapper '__init__' of exceptions.IndexError object>"
p51
sS'__new__'
p52
S'<built-in method __new__ of type object>'
p53
ssS'evalue'
p54
S'list index out of range'
p55
sS'request'
p56
ccopy_reg
_reconstructor
p57
(cgluon.html
BEAUTIFY
p58
c__builtin__
object
p59
NtRp60
(dp61
S'attributes'
p62
(dp63
sS'components'
p64
(lp65
g57
(cgluon.html
TABLE
p66
g59
NtRp67
(dp68
g62
(dp69
S'level'
p70
I5
ssS'parent'
p71
Nsg64
(lp72
g57
(cgluon.html
TR
p73
g59
NtRp74
(dp75
g62
(dp76
sg71
g67
sg64
(lp77
g57
(cgluon.html
TD
p78
g59
NtRp79
(dp80
g62
(dp81
S'_style'
p82
S'font-weight:bold;vertical-align:top'
p83
ssg71
g74
sg64
(lp84
S'ajax'
p85
asbag57
(g78
g59
NtRp86
(dp87
g62
(dp88
S'_valign'
p89
S'top'
p90
ssg71
g74
sg64
(lp91
S':'
asbag57
(g78
g59
NtRp92
(dp93
g62
(dp94
sg71
g74
sg64
(lp95
g57
(g58
g59
NtRp96
(dp97
g62
(dp98
g70
I5
ssg71
g92
sg64
(lp99
S'False'
p100
asbasbasbag57
(g73
g59
NtRp101
(dp102
g62
(dp103
sg71
g67
sg64
(lp104
g57
(g78
g59
NtRp105
(dp106
g62
(dp107
g82
g83
ssg71
g101
sg64
(lp108
S'application'
p109
asbag57
(g78
g59
NtRp110
(dp111
g62
(dp112
g89
g90
ssg71
g101
sg64
(lp113
S':'
asbag57
(g78
g59
NtRp114
(dp115
g62
(dp116
sg71
g101
sg64
(lp117
g57
(g58
g59
NtRp118
(dp119
g62
(dp120
g70
I5
ssg71
g114
sg64
(lp121
S'sss'
p122
asbasbasbag57
(g73
g59
NtRp123
(dp124
g62
(dp125
sg71
g67
sg64
(lp126
g57
(g78
g59
NtRp127
(dp128
g62
(dp129
g82
g83
ssg71
g123
sg64
(lp130
g24
asbag57
(g78
g59
NtRp131
(dp132
g62
(dp133
g89
g90
ssg71
g123
sg64
(lp134
S':'
asbag57
(g78
g59
NtRp135
(dp136
g62
(dp137
sg71
g123
sg64
(lp138
g57
(g58
g59
NtRp139
(dp140
g62
(dp141
g70
I5
ssg71
g135
sg64
(lp142
g57
(g66
g59
NtRp143
(dp144
g62
(dp145
g70
I4
ssg71
Nsg64
(lp146
sbasbasbasbag57
(g73
g59
NtRp147
(dp148
g62
(dp149
sg71
g67
sg64
(lp150
g57
(g78
g59
NtRp151
(dp152
g62
(dp153
g82
g83
ssg71
g147
sg64
(lp154
S'body'
p155
asbag57
(g78
g59
NtRp156
(dp157
g62
(dp158
g89
g90
ssg71
g147
sg64
(lp159
S':'
asbag57
(g78
g59
NtRp160
(dp161
g62
(dp162
sg71
g147
sg64
(lp163
g57
(g58
g59
NtRp164
(dp165
g62
(dp166
g70
I5
ssg71
g160
sg64
(lp167
S'<cStringIO.StringO object at 0x7f67e8389810>'
p168
asbasbasbag57
(g73
g59
NtRp169
(dp170
g62
(dp171
sg71
g67
sg64
(lp172
g57
(g78
g59
NtRp173
(dp174
g62
(dp175
g82
g83
ssg71
g169
sg64
(lp176
S'cid'
p177
asbag57
(g78
g59
NtRp178
(dp179
g62
(dp180
g89
g90
ssg71
g169
sg64
(lp181
S':'
asbag57
(g78
g59
NtRp182
(dp183
g62
(dp184
sg71
g169
sg64
(lp185
g57
(g58
g59
NtRp186
(dp187
g62
(dp188
g70
I5
ssg71
g182
sg64
(lp189
S'None'
p190
asbasbasbag57
(g73
g59
NtRp191
(dp192
g62
(dp193
sg71
g67
sg64
(lp194
g57
(g78
g59
NtRp195
(dp196
g62
(dp197
g82
g83
ssg71
g191
sg64
(lp198
S'client'
p199
asbag57
(g78
g59
NtRp200
(dp201
g62
(dp202
g89
g90
ssg71
g191
sg64
(lp203
S':'
asbag57
(g78
g59
NtRp204
(dp205
g62
(dp206
sg71
g191
sg64
(lp207
g57
(g58
g59
NtRp208
(dp209
g62
(dp210
g70
I5
ssg71
g204
sg64
(lp211
S'127.0.0.1'
p212
asbasbasbag57
(g73
g59
NtRp213
(dp214
g62
(dp215
sg71
g67
sg64
(lp216
g57
(g78
g59
NtRp217
(dp218
g62
(dp219
g82
g83
ssg71
g213
sg64
(lp220
S'controller'
p221
asbag57
(g78
g59
NtRp222
(dp223
g62
(dp224
g89
g90
ssg71
g213
sg64
(lp225
S':'
asbag57
(g78
g59
NtRp226
(dp227
g62
(dp228
sg71
g213
sg64
(lp229
g57
(g58
g59
NtRp230
(dp231
g62
(dp232
g70
I5
ssg71
g226
sg64
(lp233
S'default'
p234
asbasbasbag57
(g73
g59
NtRp235
(dp236
g62
(dp237
sg71
g67
sg64
(lp238
g57
(g78
g59
NtRp239
(dp240
g62
(dp241
g82
g83
ssg71
g235
sg64
(lp242
S'cookies'
p243
asbag57
(g78
g59
NtRp244
(dp245
g62
(dp246
g89
g90
ssg71
g235
sg64
(lp247
S':'
asbag57
(g78
g59
NtRp248
(dp249
g62
(dp250
sg71
g235
sg64
(lp251
g57
(g58
g59
NtRp252
(dp253
g62
(dp254
g70
I5
ssg71
g248
sg64
(lp255
g57
(g66
g59
NtRp256
(dp257
g62
(dp258
g70
I4
ssg71
Nsg64
(lp259
g57
(g73
g59
NtRp260
(dp261
g62
(dp262
sg71
g256
sg64
(lp263
g57
(g78
g59
NtRp264
(dp265
g62
(dp266
g82
g83
ssg71
g260
sg64
(lp267
S'session_id_admin'
p268
asbag57
(g78
g59
NtRp269
(dp270
g62
(dp271
g89
g90
ssg71
g260
sg64
(lp272
S':'
asbag57
(g78
g59
NtRp273
(dp274
g62
(dp275
sg71
g260
sg64
(lp276
g57
(g58
g59
NtRp277
(dp278
g62
(dp279
g70
I4
ssg71
g273
sg64
(lp280
S'127.0.0.1-d5d2864e-19e9-44b0-a003-f5c68b686d08'
p281
ag57
(g66
g59
NtRp282
(dp283
g62
(dp284
g70
I3
ssg71
Nsg64
(lp285
g57
(g73
g59
NtRp286
(dp287
g62
(dp288
sg71
g282
sg64
(lp289
g57
(g78
g59
NtRp290
(dp291
g62
(dp292
g82
g83
ssg71
g286
sg64
(lp293
S'comment'
p294
asbag57
(g78
g59
NtRp295
(dp296
g62
(dp297
g89
g90
ssg71
g286
sg64
(lp298
S':'
asbag57
(g78
g59
NtRp299
(dp300
g62
(dp301
sg71
g286
sg64
(lp302
g57
(g58
g59
NtRp303
(dp304
g62
(dp305
g70
I3
ssg71
g299
sg64
(lp306
S''
asbasbasbag57
(g73
g59
NtRp307
(dp308
g62
(dp309
sg71
g282
sg64
(lp310
g57
(g78
g59
NtRp311
(dp312
g62
(dp313
g82
g83
ssg71
g307
sg64
(lp314
S'domain'
p315
asbag57
(g78
g59
NtRp316
(dp317
g62
(dp318
g89
g90
ssg71
g307
sg64
(lp319
S':'
asbag57
(g78
g59
NtRp320
(dp321
g62
(dp322
sg71
g307
sg64
(lp323
g57
(g58
g59
NtRp324
(dp325
g62
(dp326
g70
I3
ssg71
g320
sg64
(lp327
S''
asbasbasbag57
(g73
g59
NtRp328
(dp329
g62
(dp330
sg71
g282
sg64
(lp331
g57
(g78
g59
NtRp332
(dp333
g62
(dp334
g82
g83
ssg71
g328
sg64
(lp335
S'expires'
p336
asbag57
(g78
g59
NtRp337
(dp338
g62
(dp339
g89
g90
ssg71
g328
sg64
(lp340
S':'
asbag57
(g78
g59
NtRp341
(dp342
g62
(dp343
sg71
g328
sg64
(lp344
g57
(g58
g59
NtRp345
(dp346
g62
(dp347
g70
I3
ssg71
g341
sg64
(lp348
S''
asbasbasbag57
(g73
g59
NtRp349
(dp350
g62
(dp351
sg71
g282
sg64
(lp352
g57
(g78
g59
NtRp353
(dp354
g62
(dp355
g82
g83
ssg71
g349
sg64
(lp356
S'httponly'
p357
asbag57
(g78
g59
NtRp358
(dp359
g62
(dp360
g89
g90
ssg71
g349
sg64
(lp361
S':'
asbag57
(g78
g59
NtRp362
(dp363
g62
(dp364
sg71
g349
sg64
(lp365
g57
(g58
g59
NtRp366
(dp367
g62
(dp368
g70
I3
ssg71
g362
sg64
(lp369
S''
asbasbasbag57
(g73
g59
NtRp370
(dp371
g62
(dp372
sg71
g282
sg64
(lp373
g57
(g78
g59
NtRp374
(dp375
g62
(dp376
g82
g83
ssg71
g370
sg64
(lp377
S'max-age'
p378
asbag57
(g78
g59
NtRp379
(dp380
g62
(dp381
g89
g90
ssg71
g370
sg64
(lp382
S':'
asbag57
(g78
g59
NtRp383
(dp384
g62
(dp385
sg71
g370
sg64
(lp386
g57
(g58
g59
NtRp387
(dp388
g62
(dp389
g70
I3
ssg71
g383
sg64
(lp390
S''
asbasbasbag57
(g73
g59
NtRp391
(dp392
g62
(dp393
sg71
g282
sg64
(lp394
g57
(g78
g59
NtRp395
(dp396
g62
(dp397
g82
g83
ssg71
g391
sg64
(lp398
S'path'
p399
asbag57
(g78
g59
NtRp400
(dp401
g62
(dp402
g89
g90
ssg71
g391
sg64
(lp403
S':'
asbag57
(g78
g59
NtRp404
(dp405
g62
(dp406
sg71
g391
sg64
(lp407
g57
(g58
g59
NtRp408
(dp409
g62
(dp410
g70
I3
ssg71
g404
sg64
(lp411
S''
asbasbasbag57
(g73
g59
NtRp412
(dp413
g62
(dp414
sg71
g282
sg64
(lp415
g57
(g78
g59
NtRp416
(dp417
g62
(dp418
g82
g83
ssg71
g412
sg64
(lp419
S'secure'
p420
asbag57
(g78
g59
NtRp421
(dp422
g62
(dp423
g89
g90
ssg71
g412
sg64
(lp424
S':'
asbag57
(g78
g59
NtRp425
(dp426
g62
(dp427
sg71
g412
sg64
(lp428
g57
(g58
g59
NtRp429
(dp430
g62
(dp431
g70
I3
ssg71
g425
sg64
(lp432
S''
asbasbasbag57
(g73
g59
NtRp433
(dp434
g62
(dp435
sg71
g282
sg64
(lp436
g57
(g78
g59
NtRp437
(dp438
g62
(dp439
g82
g83
ssg71
g433
sg64
(lp440
S'version'
p441
asbag57
(g78
g59
NtRp442
(dp443
g62
(dp444
g89
g90
ssg71
g433
sg64
(lp445
S':'
asbag57
(g78
g59
NtRp446
(dp447
g62
(dp448
sg71
g433
sg64
(lp449
g57
(g58
g59
NtRp450
(dp451
g62
(dp452
g70
I3
ssg71
g446
sg64
(lp453
S''
asbasbasbasbasbasbasbag57
(g73
g59
NtRp454
(dp455
g62
(dp456
sg71
g256
sg64
(lp457
g57
(g78
g59
NtRp458
(dp459
g62
(dp460
g82
g83
ssg71
g454
sg64
(lp461
S'session_id_hostel_r1'
p462
asbag57
(g78
g59
NtRp463
(dp464
g62
(dp465
g89
g90
ssg71
g454
sg64
(lp466
S':'
asbag57
(g78
g59
NtRp467
(dp468
g62
(dp469
sg71
g454
sg64
(lp470
g57
(g58
g59
NtRp471
(dp472
g62
(dp473
g70
I4
ssg71
g467
sg64
(lp474
S'127.0.0.1-9f691032-d7e6-4439-bd7e-c7eb020e1ab2'
p475
ag57
(g66
g59
NtRp476
(dp477
g62
(dp478
g70
I3
ssg71
Nsg64
(lp479
g57
(g73
g59
NtRp480
(dp481
g62
(dp482
sg71
g476
sg64
(lp483
g57
(g78
g59
NtRp484
(dp485
g62
(dp486
g82
g83
ssg71
g480
sg64
(lp487
g294
asbag57
(g78
g59
NtRp488
(dp489
g62
(dp490
g89
g90
ssg71
g480
sg64
(lp491
S':'
asbag57
(g78
g59
NtRp492
(dp493
g62
(dp494
sg71
g480
sg64
(lp495
g57
(g58
g59
NtRp496
(dp497
g62
(dp498
g70
I3
ssg71
g492
sg64
(lp499
S''
asbasbasbag57
(g73
g59
NtRp500
(dp501
g62
(dp502
sg71
g476
sg64
(lp503
g57
(g78
g59
NtRp504
(dp505
g62
(dp506
g82
g83
ssg71
g500
sg64
(lp507
g315
asbag57
(g78
g59
NtRp508
(dp509
g62
(dp510
g89
g90
ssg71
g500
sg64
(lp511
S':'
asbag57
(g78
g59
NtRp512
(dp513
g62
(dp514
sg71
g500
sg64
(lp515
g57
(g58
g59
NtRp516
(dp517
g62
(dp518
g70
I3
ssg71
g512
sg64
(lp519
S''
asbasbasbag57
(g73
g59
NtRp520
(dp521
g62
(dp522
sg71
g476
sg64
(lp523
g57
(g78
g59
NtRp524
(dp525
g62
(dp526
g82
g83
ssg71
g520
sg64
(lp527
g336
asbag57
(g78
g59
NtRp528
(dp529
g62
(dp530
g89
g90
ssg71
g520
sg64
(lp531
S':'
asbag57
(g78
g59
NtRp532
(dp533
g62
(dp534
sg71
g520
sg64
(lp535
g57
(g58
g59
NtRp536
(dp537
g62
(dp538
g70
I3
ssg71
g532
sg64
(lp539
S''
asbasbasbag57
(g73
g59
NtRp540
(dp541
g62
(dp542
sg71
g476
sg64
(lp543
g57
(g78
g59
NtRp544
(dp545
g62
(dp546
g82
g83
ssg71
g540
sg64
(lp547
g357
asbag57
(g78
g59
NtRp548
(dp549
g62
(dp550
g89
g90
ssg71
g540
sg64
(lp551
S':'
asbag57
(g78
g59
NtRp552
(dp553
g62
(dp554
sg71
g540
sg64
(lp555
g57
(g58
g59
NtRp556
(dp557
g62
(dp558
g70
I3
ssg71
g552
sg64
(lp559
S''
asbasbasbag57
(g73
g59
NtRp560
(dp561
g62
(dp562
sg71
g476
sg64
(lp563
g57
(g78
g59
NtRp564
(dp565
g62
(dp566
g82
g83
ssg71
g560
sg64
(lp567
g378
asbag57
(g78
g59
NtRp568
(dp569
g62
(dp570
g89
g90
ssg71
g560
sg64
(lp571
S':'
asbag57
(g78
g59
NtRp572
(dp573
g62
(dp574
sg71
g560
sg64
(lp575
g57
(g58
g59
NtRp576
(dp577
g62
(dp578
g70
I3
ssg71
g572
sg64
(lp579
S''
asbasbasbag57
(g73
g59
NtRp580
(dp581
g62
(dp582
sg71
g476
sg64
(lp583
g57
(g78
g59
NtRp584
(dp585
g62
(dp586
g82
g83
ssg71
g580
sg64
(lp587
g399
asbag57
(g78
g59
NtRp588
(dp589
g62
(dp590
g89
g90
ssg71
g580
sg64
(lp591
S':'
asbag57
(g78
g59
NtRp592
(dp593
g62
(dp594
sg71
g580
sg64
(lp595
g57
(g58
g59
NtRp596
(dp597
g62
(dp598
g70
I3
ssg71
g592
sg64
(lp599
S''
asbasbasbag57
(g73
g59
NtRp600
(dp601
g62
(dp602
sg71
g476
sg64
(lp603
g57
(g78
g59
NtRp604
(dp605
g62
(dp606
g82
g83
ssg71
g600
sg64
(lp607
g420
asbag57
(g78
g59
NtRp608
(dp609
g62
(dp610
g89
g90
ssg71
g600
sg64
(lp611
S':'
asbag57
(g78
g59
NtRp612
(dp613
g62
(dp614
sg71
g600
sg64
(lp615
g57
(g58
g59
NtRp616
(dp617
g62
(dp618
g70
I3
ssg71
g612
sg64
(lp619
S''
asbasbasbag57
(g73
g59
NtRp620
(dp621
g62
(dp622
sg71
g476
sg64
(lp623
g57
(g78
g59
NtRp624
(dp625
g62
(dp626
g82
g83
ssg71
g620
sg64
(lp627
g441
asbag57
(g78
g59
NtRp628
(dp629
g62
(dp630
g89
g90
ssg71
g620
sg64
(lp631
S':'
asbag57
(g78
g59
NtRp632
(dp633
g62
(dp634
sg71
g620
sg64
(lp635
g57
(g58
g59
NtRp636
(dp637
g62
(dp638
g70
I3
ssg71
g632
sg64
(lp639
S''
asbasbasbasbasbasbasbag57
(g73
g59
NtRp640
(dp641
g62
(dp642
sg71
g256
sg64
(lp643
g57
(g78
g59
NtRp644
(dp645
g62
(dp646
g82
g83
ssg71
g640
sg64
(lp647
S'session_id_kt'
p648
asbag57
(g78
g59
NtRp649
(dp650
g62
(dp651
g89
g90
ssg71
g640
sg64
(lp652
S':'
asbag57
(g78
g59
NtRp653
(dp654
g62
(dp655
sg71
g640
sg64
(lp656
g57
(g58
g59
NtRp657
(dp658
g62
(dp659
g70
I4
ssg71
g653
sg64
(lp660
S'127.0.0.1-e10bbc2a-207e-4677-898d-8f60f216faa2'
p661
ag57
(g66
g59
NtRp662
(dp663
g62
(dp664
g70
I3
ssg71
Nsg64
(lp665
g57
(g73
g59
NtRp666
(dp667
g62
(dp668
sg71
g662
sg64
(lp669
g57
(g78
g59
NtRp670
(dp671
g62
(dp672
g82
g83
ssg71
g666
sg64
(lp673
g294
asbag57
(g78
g59
NtRp674
(dp675
g62
(dp676
g89
g90
ssg71
g666
sg64
(lp677
S':'
asbag57
(g78
g59
NtRp678
(dp679
g62
(dp680
sg71
g666
sg64
(lp681
g57
(g58
g59
NtRp682
(dp683
g62
(dp684
g70
I3
ssg71
g678
sg64
(lp685
S''
asbasbasbag57
(g73
g59
NtRp686
(dp687
g62
(dp688
sg71
g662
sg64
(lp689
g57
(g78
g59
NtRp690
(dp691
g62
(dp692
g82
g83
ssg71
g686
sg64
(lp693
g315
asbag57
(g78
g59
NtRp694
(dp695
g62
(dp696
g89
g90
ssg71
g686
sg64
(lp697
S':'
asbag57
(g78
g59
NtRp698
(dp699
g62
(dp700
sg71
g686
sg64
(lp701
g57
(g58
g59
NtRp702
(dp703
g62
(dp704
g70
I3
ssg71
g698
sg64
(lp705
S''
asbasbasbag57
(g73
g59
NtRp706
(dp707
g62
(dp708
sg71
g662
sg64
(lp709
g57
(g78
g59
NtRp710
(dp711
g62
(dp712
g82
g83
ssg71
g706
sg64
(lp713
g336
asbag57
(g78
g59
NtRp714
(dp715
g62
(dp716
g89
g90
ssg71
g706
sg64
(lp717
S':'
asbag57
(g78
g59
NtRp718
(dp719
g62
(dp720
sg71
g706
sg64
(lp721
g57
(g58
g59
NtRp722
(dp723
g62
(dp724
g70
I3
ssg71
g718
sg64
(lp725
S''
asbasbasbag57
(g73
g59
NtRp726
(dp727
g62
(dp728
sg71
g662
sg64
(lp729
g57
(g78
g59
NtRp730
(dp731
g62
(dp732
g82
g83
ssg71
g726
sg64
(lp733
g357
asbag57
(g78
g59
NtRp734
(dp735
g62
(dp736
g89
g90
ssg71
g726
sg64
(lp737
S':'
asbag57
(g78
g59
NtRp738
(dp739
g62
(dp740
sg71
g726
sg64
(lp741
g57
(g58
g59
NtRp742
(dp743
g62
(dp744
g70
I3
ssg71
g738
sg64
(lp745
S''
asbasbasbag57
(g73
g59
NtRp746
(dp747
g62
(dp748
sg71
g662
sg64
(lp749
g57
(g78
g59
NtRp750
(dp751
g62
(dp752
g82
g83
ssg71
g746
sg64
(lp753
g378
asbag57
(g78
g59
NtRp754
(dp755
g62
(dp756
g89
g90
ssg71
g746
sg64
(lp757
S':'
asbag57
(g78
g59
NtRp758
(dp759
g62
(dp760
sg71
g746
sg64
(lp761
g57
(g58
g59
NtRp762
(dp763
g62
(dp764
g70
I3
ssg71
g758
sg64
(lp765
S''
asbasbasbag57
(g73
g59
NtRp766
(dp767
g62
(dp768
sg71
g662
sg64
(lp769
g57
(g78
g59
NtRp770
(dp771
g62
(dp772
g82
g83
ssg71
g766
sg64
(lp773
g399
asbag57
(g78
g59
NtRp774
(dp775
g62
(dp776
g89
g90
ssg71
g766
sg64
(lp777
S':'
asbag57
(g78
g59
NtRp778
(dp779
g62
(dp780
sg71
g766
sg64
(lp781
g57
(g58
g59
NtRp782
(dp783
g62
(dp784
g70
I3
ssg71
g778
sg64
(lp785
S''
asbasbasbag57
(g73
g59
NtRp786
(dp787
g62
(dp788
sg71
g662
sg64
(lp789
g57
(g78
g59
NtRp790
(dp791
g62
(dp792
g82
g83
ssg71
g786
sg64
(lp793
g420
asbag57
(g78
g59
NtRp794
(dp795
g62
(dp796
g89
g90
ssg71
g786
sg64
(lp797
S':'
asbag57
(g78
g59
NtRp798
(dp799
g62
(dp800
sg71
g786
sg64
(lp801
g57
(g58
g59
NtRp802
(dp803
g62
(dp804
g70
I3
ssg71
g798
sg64
(lp805
S''
asbasbasbag57
(g73
g59
NtRp806
(dp807
g62
(dp808
sg71
g662
sg64
(lp809
g57
(g78
g59
NtRp810
(dp811
g62
(dp812
g82
g83
ssg71
g806
sg64
(lp813
g441
asbag57
(g78
g59
NtRp814
(dp815
g62
(dp816
g89
g90
ssg71
g806
sg64
(lp817
S':'
asbag57
(g78
g59
NtRp818
(dp819
g62
(dp820
sg71
g806
sg64
(lp821
g57
(g58
g59
NtRp822
(dp823
g62
(dp824
g70
I3
ssg71
g818
sg64
(lp825
S''
asbasbasbasbasbasbasbag57
(g73
g59
NtRp826
(dp827
g62
(dp828
sg71
g256
sg64
(lp829
g57
(g78
g59
NtRp830
(dp831
g62
(dp832
g82
g83
ssg71
g826
sg64
(lp833
S'session_id_kthostel'
p834
asbag57
(g78
g59
NtRp835
(dp836
g62
(dp837
g89
g90
ssg71
g826
sg64
(lp838
S':'
asbag57
(g78
g59
NtRp839
(dp840
g62
(dp841
sg71
g826
sg64
(lp842
g57
(g58
g59
NtRp843
(dp844
g62
(dp845
g70
I4
ssg71
g839
sg64
(lp846
S'127.0.0.1-47e0be83-5f17-4dd9-a699-64078c982045'
p847
ag57
(g66
g59
NtRp848
(dp849
g62
(dp850
g70
I3
ssg71
Nsg64
(lp851
g57
(g73
g59
NtRp852
(dp853
g62
(dp854
sg71
g848
sg64
(lp855
g57
(g78
g59
NtRp856
(dp857
g62
(dp858
g82
g83
ssg71
g852
sg64
(lp859
g294
asbag57
(g78
g59
NtRp860
(dp861
g62
(dp862
g89
g90
ssg71
g852
sg64
(lp863
S':'
asbag57
(g78
g59
NtRp864
(dp865
g62
(dp866
sg71
g852
sg64
(lp867
g57
(g58
g59
NtRp868
(dp869
g62
(dp870
g70
I3
ssg71
g864
sg64
(lp871
S''
asbasbasbag57
(g73
g59
NtRp872
(dp873
g62
(dp874
sg71
g848
sg64
(lp875
g57
(g78
g59
NtRp876
(dp877
g62
(dp878
g82
g83
ssg71
g872
sg64
(lp879
g315
asbag57
(g78
g59
NtRp880
(dp881
g62
(dp882
g89
g90
ssg71
g872
sg64
(lp883
S':'
asbag57
(g78
g59
NtRp884
(dp885
g62
(dp886
sg71
g872
sg64
(lp887
g57
(g58
g59
NtRp888
(dp889
g62
(dp890
g70
I3
ssg71
g884
sg64
(lp891
S''
asbasbasbag57
(g73
g59
NtRp892
(dp893
g62
(dp894
sg71
g848
sg64
(lp895
g57
(g78
g59
NtRp896
(dp897
g62
(dp898
g82
g83
ssg71
g892
sg64
(lp899
g336
asbag57
(g78
g59
NtRp900
(dp901
g62
(dp902
g89
g90
ssg71
g892
sg64
(lp903
S':'
asbag57
(g78
g59
NtRp904
(dp905
g62
(dp906
sg71
g892
sg64
(lp907
g57
(g58
g59
NtRp908
(dp909
g62
(dp910
g70
I3
ssg71
g904
sg64
(lp911
S''
asbasbasbag57
(g73
g59
NtRp912
(dp913
g62
(dp914
sg71
g848
sg64
(lp915
g57
(g78
g59
NtRp916
(dp917
g62
(dp918
g82
g83
ssg71
g912
sg64
(lp919
g357
asbag57
(g78
g59
NtRp920
(dp921
g62
(dp922
g89
g90
ssg71
g912
sg64
(lp923
S':'
asbag57
(g78
g59
NtRp924
(dp925
g62
(dp926
sg71
g912
sg64
(lp927
g57
(g58
g59
NtRp928
(dp929
g62
(dp930
g70
I3
ssg71
g924
sg64
(lp931
S''
asbasbasbag57
(g73
g59
NtRp932
(dp933
g62
(dp934
sg71
g848
sg64
(lp935
g57
(g78
g59
NtRp936
(dp937
g62
(dp938
g82
g83
ssg71
g932
sg64
(lp939
g378
asbag57
(g78
g59
NtRp940
(dp941
g62
(dp942
g89
g90
ssg71
g932
sg64
(lp943
S':'
asbag57
(g78
g59
NtRp944
(dp945
g62
(dp946
sg71
g932
sg64
(lp947
g57
(g58
g59
NtRp948
(dp949
g62
(dp950
g70
I3
ssg71
g944
sg64
(lp951
S''
asbasbasbag57
(g73
g59
NtRp952
(dp953
g62
(dp954
sg71
g848
sg64
(lp955
g57
(g78
g59
NtRp956
(dp957
g62
(dp958
g82
g83
ssg71
g952
sg64
(lp959
g399
asbag57
(g78
g59
NtRp960
(dp961
g62
(dp962
g89
g90
ssg71
g952
sg64
(lp963
S':'
asbag57
(g78
g59
NtRp964
(dp965
g62
(dp966
sg71
g952
sg64
(lp967
g57
(g58
g59
NtRp968
(dp969
g62
(dp970
g70
I3
ssg71
g964
sg64
(lp971
S''
asbasbasbag57
(g73
g59
NtRp972
(dp973
g62
(dp974
sg71
g848
sg64
(lp975
g57
(g78
g59
NtRp976
(dp977
g62
(dp978
g82
g83
ssg71
g972
sg64
(lp979
g420
asbag57
(g78
g59
NtRp980
(dp981
g62
(dp982
g89
g90
ssg71
g972
sg64
(lp983
S':'
asbag57
(g78
g59
NtRp984
(dp985
g62
(dp986
sg71
g972
sg64
(lp987
g57
(g58
g59
NtRp988
(dp989
g62
(dp990
g70
I3
ssg71
g984
sg64
(lp991
S''
asbasbasbag57
(g73
g59
NtRp992
(dp993
g62
(dp994
sg71
g848
sg64
(lp995
g57
(g78
g59
NtRp996
(dp997
g62
(dp998
g82
g83
ssg71
g992
sg64
(lp999
g441
asbag57
(g78
g59
NtRp1000
(dp1001
g62
(dp1002
g89
g90
ssg71
g992
sg64
(lp1003
S':'
asbag57
(g78
g59
NtRp1004
(dp1005
g62
(dp1006
sg71
g992
sg64
(lp1007
g57
(g58
g59
NtRp1008
(dp1009
g62
(dp1010
g70
I3
ssg71
g1004
sg64
(lp1011
S''
asbasbasbasbasbasbasbag57
(g73
g59
NtRp1012
(dp1013
g62
(dp1014
sg71
g256
sg64
(lp1015
g57
(g78
g59
NtRp1016
(dp1017
g62
(dp1018
g82
g83
ssg71
g1012
sg64
(lp1019
S'session_id_photo_uploader'
p1020
asbag57
(g78
g59
NtRp1021
(dp1022
g62
(dp1023
g89
g90
ssg71
g1012
sg64
(lp1024
S':'
asbag57
(g78
g59
NtRp1025
(dp1026
g62
(dp1027
sg71
g1012
sg64
(lp1028
g57
(g58
g59
NtRp1029
(dp1030
g62
(dp1031
g70
I4
ssg71
g1025
sg64
(lp1032
S'127.0.0.1-d53eae2e-470e-4419-86a6-ad356ecbbbec'
p1033
ag57
(g66
g59
NtRp1034
(dp1035
g62
(dp1036
g70
I3
ssg71
Nsg64
(lp1037
g57
(g73
g59
NtRp1038
(dp1039
g62
(dp1040
sg71
g1034
sg64
(lp1041
g57
(g78
g59
NtRp1042
(dp1043
g62
(dp1044
g82
g83
ssg71
g1038
sg64
(lp1045
g294
asbag57
(g78
g59
NtRp1046
(dp1047
g62
(dp1048
g89
g90
ssg71
g1038
sg64
(lp1049
S':'
asbag57
(g78
g59
NtRp1050
(dp1051
g62
(dp1052
sg71
g1038
sg64
(lp1053
g57
(g58
g59
NtRp1054
(dp1055
g62
(dp1056
g70
I3
ssg71
g1050
sg64
(lp1057
S''
asbasbasbag57
(g73
g59
NtRp1058
(dp1059
g62
(dp1060
sg71
g1034
sg64
(lp1061
g57
(g78
g59
NtRp1062
(dp1063
g62
(dp1064
g82
g83
ssg71
g1058
sg64
(lp1065
g315
asbag57
(g78
g59
NtRp1066
(dp1067
g62
(dp1068
g89
g90
ssg71
g1058
sg64
(lp1069
S':'
asbag57
(g78
g59
NtRp1070
(dp1071
g62
(dp1072
sg71
g1058
sg64
(lp1073
g57
(g58
g59
NtRp1074
(dp1075
g62
(dp1076
g70
I3
ssg71
g1070
sg64
(lp1077
S''
asbasbasbag57
(g73
g59
NtRp1078
(dp1079
g62
(dp1080
sg71
g1034
sg64
(lp1081
g57
(g78
g59
NtRp1082
(dp1083
g62
(dp1084
g82
g83
ssg71
g1078
sg64
(lp1085
g336
asbag57
(g78
g59
NtRp1086
(dp1087
g62
(dp1088
g89
g90
ssg71
g1078
sg64
(lp1089
S':'
asbag57
(g78
g59
NtRp1090
(dp1091
g62
(dp1092
sg71
g1078
sg64
(lp1093
g57
(g58
g59
NtRp1094
(dp1095
g62
(dp1096
g70
I3
ssg71
g1090
sg64
(lp1097
S''
asbasbasbag57
(g73
g59
NtRp1098
(dp1099
g62
(dp1100
sg71
g1034
sg64
(lp1101
g57
(g78
g59
NtRp1102
(dp1103
g62
(dp1104
g82
g83
ssg71
g1098
sg64
(lp1105
g357
asbag57
(g78
g59
NtRp1106
(dp1107
g62
(dp1108
g89
g90
ssg71
g1098
sg64
(lp1109
S':'
asbag57
(g78
g59
NtRp1110
(dp1111
g62
(dp1112
sg71
g1098
sg64
(lp1113
g57
(g58
g59
NtRp1114
(dp1115
g62
(dp1116
g70
I3
ssg71
g1110
sg64
(lp1117
S''
asbasbasbag57
(g73
g59
NtRp1118
(dp1119
g62
(dp1120
sg71
g1034
sg64
(lp1121
g57
(g78
g59
NtRp1122
(dp1123
g62
(dp1124
g82
g83
ssg71
g1118
sg64
(lp1125
g378
asbag57
(g78
g59
NtRp1126
(dp1127
g62
(dp1128
g89
g90
ssg71
g1118
sg64
(lp1129
S':'
asbag57
(g78
g59
NtRp1130
(dp1131
g62
(dp1132
sg71
g1118
sg64
(lp1133
g57
(g58
g59
NtRp1134
(dp1135
g62
(dp1136
g70
I3
ssg71
g1130
sg64
(lp1137
S''
asbasbasbag57
(g73
g59
NtRp1138
(dp1139
g62
(dp1140
sg71
g1034
sg64
(lp1141
g57
(g78
g59
NtRp1142
(dp1143
g62
(dp1144
g82
g83
ssg71
g1138
sg64
(lp1145
g399
asbag57
(g78
g59
NtRp1146
(dp1147
g62
(dp1148
g89
g90
ssg71
g1138
sg64
(lp1149
S':'
asbag57
(g78
g59
NtRp1150
(dp1151
g62
(dp1152
sg71
g1138
sg64
(lp1153
g57
(g58
g59
NtRp1154
(dp1155
g62
(dp1156
g70
I3
ssg71
g1150
sg64
(lp1157
S''
asbasbasbag57
(g73
g59
NtRp1158
(dp1159
g62
(dp1160
sg71
g1034
sg64
(lp1161
g57
(g78
g59
NtRp1162
(dp1163
g62
(dp1164
g82
g83
ssg71
g1158
sg64
(lp1165
g420
asbag57
(g78
g59
NtRp1166
(dp1167
g62
(dp1168
g89
g90
ssg71
g1158
sg64
(lp1169
S':'
asbag57
(g78
g59
NtRp1170
(dp1171
g62
(dp1172
sg71
g1158
sg64
(lp1173
g57
(g58
g59
NtRp1174
(dp1175
g62
(dp1176
g70
I3
ssg71
g1170
sg64
(lp1177
S''
asbasbasbag57
(g73
g59
NtRp1178
(dp1179
g62
(dp1180
sg71
g1034
sg64
(lp1181
g57
(g78
g59
NtRp1182
(dp1183
g62
(dp1184
g82
g83
ssg71
g1178
sg64
(lp1185
g441
asbag57
(g78
g59
NtRp1186
(dp1187
g62
(dp1188
g89
g90
ssg71
g1178
sg64
(lp1189
S':'
asbag57
(g78
g59
NtRp1190
(dp1191
g62
(dp1192
sg71
g1178
sg64
(lp1193
g57
(g58
g59
NtRp1194
(dp1195
g62
(dp1196
g70
I3
ssg71
g1190
sg64
(lp1197
S''
asbasbasbasbasbasbasbag57
(g73
g59
NtRp1198
(dp1199
g62
(dp1200
sg71
g256
sg64
(lp1201
g57
(g78
g59
NtRp1202
(dp1203
g62
(dp1204
g82
g83
ssg71
g1198
sg64
(lp1205
S'session_id_r1layout'
p1206
asbag57
(g78
g59
NtRp1207
(dp1208
g62
(dp1209
g89
g90
ssg71
g1198
sg64
(lp1210
S':'
asbag57
(g78
g59
NtRp1211
(dp1212
g62
(dp1213
sg71
g1198
sg64
(lp1214
g57
(g58
g59
NtRp1215
(dp1216
g62
(dp1217
g70
I4
ssg71
g1211
sg64
(lp1218
S'127.0.0.1-48514a73-0c85-4e09-8601-cb4c7bd2d175'
p1219
ag57
(g66
g59
NtRp1220
(dp1221
g62
(dp1222
g70
I3
ssg71
Nsg64
(lp1223
g57
(g73
g59
NtRp1224
(dp1225
g62
(dp1226
sg71
g1220
sg64
(lp1227
g57
(g78
g59
NtRp1228
(dp1229
g62
(dp1230
g82
g83
ssg71
g1224
sg64
(lp1231
g294
asbag57
(g78
g59
NtRp1232
(dp1233
g62
(dp1234
g89
g90
ssg71
g1224
sg64
(lp1235
S':'
asbag57
(g78
g59
NtRp1236
(dp1237
g62
(dp1238
sg71
g1224
sg64
(lp1239
g57
(g58
g59
NtRp1240
(dp1241
g62
(dp1242
g70
I3
ssg71
g1236
sg64
(lp1243
S''
asbasbasbag57
(g73
g59
NtRp1244
(dp1245
g62
(dp1246
sg71
g1220
sg64
(lp1247
g57
(g78
g59
NtRp1248
(dp1249
g62
(dp1250
g82
g83
ssg71
g1244
sg64
(lp1251
g315
asbag57
(g78
g59
NtRp1252
(dp1253
g62
(dp1254
g89
g90
ssg71
g1244
sg64
(lp1255
S':'
asbag57
(g78
g59
NtRp1256
(dp1257
g62
(dp1258
sg71
g1244
sg64
(lp1259
g57
(g58
g59
NtRp1260
(dp1261
g62
(dp1262
g70
I3
ssg71
g1256
sg64
(lp1263
S''
asbasbasbag57
(g73
g59
NtRp1264
(dp1265
g62
(dp1266
sg71
g1220
sg64
(lp1267
g57
(g78
g59
NtRp1268
(dp1269
g62
(dp1270
g82
g83
ssg71
g1264
sg64
(lp1271
g336
asbag57
(g78
g59
NtRp1272
(dp1273
g62
(dp1274
g89
g90
ssg71
g1264
sg64
(lp1275
S':'
asbag57
(g78
g59
NtRp1276
(dp1277
g62
(dp1278
sg71
g1264
sg64
(lp1279
g57
(g58
g59
NtRp1280
(dp1281
g62
(dp1282
g70
I3
ssg71
g1276
sg64
(lp1283
S''
asbasbasbag57
(g73
g59
NtRp1284
(dp1285
g62
(dp1286
sg71
g1220
sg64
(lp1287
g57
(g78
g59
NtRp1288
(dp1289
g62
(dp1290
g82
g83
ssg71
g1284
sg64
(lp1291
g357
asbag57
(g78
g59
NtRp1292
(dp1293
g62
(dp1294
g89
g90
ssg71
g1284
sg64
(lp1295
S':'
asbag57
(g78
g59
NtRp1296
(dp1297
g62
(dp1298
sg71
g1284
sg64
(lp1299
g57
(g58
g59
NtRp1300
(dp1301
g62
(dp1302
g70
I3
ssg71
g1296
sg64
(lp1303
S''
asbasbasbag57
(g73
g59
NtRp1304
(dp1305
g62
(dp1306
sg71
g1220
sg64
(lp1307
g57
(g78
g59
NtRp1308
(dp1309
g62
(dp1310
g82
g83
ssg71
g1304
sg64
(lp1311
g378
asbag57
(g78
g59
NtRp1312
(dp1313
g62
(dp1314
g89
g90
ssg71
g1304
sg64
(lp1315
S':'
asbag57
(g78
g59
NtRp1316
(dp1317
g62
(dp1318
sg71
g1304
sg64
(lp1319
g57
(g58
g59
NtRp1320
(dp1321
g62
(dp1322
g70
I3
ssg71
g1316
sg64
(lp1323
S''
asbasbasbag57
(g73
g59
NtRp1324
(dp1325
g62
(dp1326
sg71
g1220
sg64
(lp1327
g57
(g78
g59
NtRp1328
(dp1329
g62
(dp1330
g82
g83
ssg71
g1324
sg64
(lp1331
g399
asbag57
(g78
g59
NtRp1332
(dp1333
g62
(dp1334
g89
g90
ssg71
g1324
sg64
(lp1335
S':'
asbag57
(g78
g59
NtRp1336
(dp1337
g62
(dp1338
sg71
g1324
sg64
(lp1339
g57
(g58
g59
NtRp1340
(dp1341
g62
(dp1342
g70
I3
ssg71
g1336
sg64
(lp1343
S''
asbasbasbag57
(g73
g59
NtRp1344
(dp1345
g62
(dp1346
sg71
g1220
sg64
(lp1347
g57
(g78
g59
NtRp1348
(dp1349
g62
(dp1350
g82
g83
ssg71
g1344
sg64
(lp1351
g420
asbag57
(g78
g59
NtRp1352
(dp1353
g62
(dp1354
g89
g90
ssg71
g1344
sg64
(lp1355
S':'
asbag57
(g78
g59
NtRp1356
(dp1357
g62
(dp1358
sg71
g1344
sg64
(lp1359
g57
(g58
g59
NtRp1360
(dp1361
g62
(dp1362
g70
I3
ssg71
g1356
sg64
(lp1363
S''
asbasbasbag57
(g73
g59
NtRp1364
(dp1365
g62
(dp1366
sg71
g1220
sg64
(lp1367
g57
(g78
g59
NtRp1368
(dp1369
g62
(dp1370
g82
g83
ssg71
g1364
sg64
(lp1371
g441
asbag57
(g78
g59
NtRp1372
(dp1373
g62
(dp1374
g89
g90
ssg71
g1364
sg64
(lp1375
S':'
asbag57
(g78
g59
NtRp1376
(dp1377
g62
(dp1378
sg71
g1364
sg64
(lp1379
g57
(g58
g59
NtRp1380
(dp1381
g62
(dp1382
g70
I3
ssg71
g1376
sg64
(lp1383
S''
asbasbasbasbasbasbasbag57
(g73
g59
NtRp1384
(dp1385
g62
(dp1386
sg71
g256
sg64
(lp1387
g57
(g78
g59
NtRp1388
(dp1389
g62
(dp1390
g82
g83
ssg71
g1384
sg64
(lp1391
S'session_id_sss'
p1392
asbag57
(g78
g59
NtRp1393
(dp1394
g62
(dp1395
g89
g90
ssg71
g1384
sg64
(lp1396
S':'
asbag57
(g78
g59
NtRp1397
(dp1398
g62
(dp1399
sg71
g1384
sg64
(lp1400
g57
(g58
g59
NtRp1401
(dp1402
g62
(dp1403
g70
I4
ssg71
g1397
sg64
(lp1404
S'127.0.0.1-33a365f5-c433-4446-b3c2-9e2aea142bbb'
p1405
ag57
(g66
g59
NtRp1406
(dp1407
g62
(dp1408
g70
I3
ssg71
Nsg64
(lp1409
g57
(g73
g59
NtRp1410
(dp1411
g62
(dp1412
sg71
g1406
sg64
(lp1413
g57
(g78
g59
NtRp1414
(dp1415
g62
(dp1416
g82
g83
ssg71
g1410
sg64
(lp1417
g294
asbag57
(g78
g59
NtRp1418
(dp1419
g62
(dp1420
g89
g90
ssg71
g1410
sg64
(lp1421
S':'
asbag57
(g78
g59
NtRp1422
(dp1423
g62
(dp1424
sg71
g1410
sg64
(lp1425
g57
(g58
g59
NtRp1426
(dp1427
g62
(dp1428
g70
I3
ssg71
g1422
sg64
(lp1429
S''
asbasbasbag57
(g73
g59
NtRp1430
(dp1431
g62
(dp1432
sg71
g1406
sg64
(lp1433
g57
(g78
g59
NtRp1434
(dp1435
g62
(dp1436
g82
g83
ssg71
g1430
sg64
(lp1437
g315
asbag57
(g78
g59
NtRp1438
(dp1439
g62
(dp1440
g89
g90
ssg71
g1430
sg64
(lp1441
S':'
asbag57
(g78
g59
NtRp1442
(dp1443
g62
(dp1444
sg71
g1430
sg64
(lp1445
g57
(g58
g59
NtRp1446
(dp1447
g62
(dp1448
g70
I3
ssg71
g1442
sg64
(lp1449
S''
asbasbasbag57
(g73
g59
NtRp1450
(dp1451
g62
(dp1452
sg71
g1406
sg64
(lp1453
g57
(g78
g59
NtRp1454
(dp1455
g62
(dp1456
g82
g83
ssg71
g1450
sg64
(lp1457
g336
asbag57
(g78
g59
NtRp1458
(dp1459
g62
(dp1460
g89
g90
ssg71
g1450
sg64
(lp1461
S':'
asbag57
(g78
g59
NtRp1462
(dp1463
g62
(dp1464
sg71
g1450
sg64
(lp1465
g57
(g58
g59
NtRp1466
(dp1467
g62
(dp1468
g70
I3
ssg71
g1462
sg64
(lp1469
S''
asbasbasbag57
(g73
g59
NtRp1470
(dp1471
g62
(dp1472
sg71
g1406
sg64
(lp1473
g57
(g78
g59
NtRp1474
(dp1475
g62
(dp1476
g82
g83
ssg71
g1470
sg64
(lp1477
g357
asbag57
(g78
g59
NtRp1478
(dp1479
g62
(dp1480
g89
g90
ssg71
g1470
sg64
(lp1481
S':'
asbag57
(g78
g59
NtRp1482
(dp1483
g62
(dp1484
sg71
g1470
sg64
(lp1485
g57
(g58
g59
NtRp1486
(dp1487
g62
(dp1488
g70
I3
ssg71
g1482
sg64
(lp1489
S''
asbasbasbag57
(g73
g59
NtRp1490
(dp1491
g62
(dp1492
sg71
g1406
sg64
(lp1493
g57
(g78
g59
NtRp1494
(dp1495
g62
(dp1496
g82
g83
ssg71
g1490
sg64
(lp1497
g378
asbag57
(g78
g59
NtRp1498
(dp1499
g62
(dp1500
g89
g90
ssg71
g1490
sg64
(lp1501
S':'
asbag57
(g78
g59
NtRp1502
(dp1503
g62
(dp1504
sg71
g1490
sg64
(lp1505
g57
(g58
g59
NtRp1506
(dp1507
g62
(dp1508
g70
I3
ssg71
g1502
sg64
(lp1509
S''
asbasbasbag57
(g73
g59
NtRp1510
(dp1511
g62
(dp1512
sg71
g1406
sg64
(lp1513
g57
(g78
g59
NtRp1514
(dp1515
g62
(dp1516
g82
g83
ssg71
g1510
sg64
(lp1517
g399
asbag57
(g78
g59
NtRp1518
(dp1519
g62
(dp1520
g89
g90
ssg71
g1510
sg64
(lp1521
S':'
asbag57
(g78
g59
NtRp1522
(dp1523
g62
(dp1524
sg71
g1510
sg64
(lp1525
g57
(g58
g59
NtRp1526
(dp1527
g62
(dp1528
g70
I3
ssg71
g1522
sg64
(lp1529
S''
asbasbasbag57
(g73
g59
NtRp1530
(dp1531
g62
(dp1532
sg71
g1406
sg64
(lp1533
g57
(g78
g59
NtRp1534
(dp1535
g62
(dp1536
g82
g83
ssg71
g1530
sg64
(lp1537
g420
asbag57
(g78
g59
NtRp1538
(dp1539
g62
(dp1540
g89
g90
ssg71
g1530
sg64
(lp1541
S':'
asbag57
(g78
g59
NtRp1542
(dp1543
g62
(dp1544
sg71
g1530
sg64
(lp1545
g57
(g58
g59
NtRp1546
(dp1547
g62
(dp1548
g70
I3
ssg71
g1542
sg64
(lp1549
S''
asbasbasbag57
(g73
g59
NtRp1550
(dp1551
g62
(dp1552
sg71
g1406
sg64
(lp1553
g57
(g78
g59
NtRp1554
(dp1555
g62
(dp1556
g82
g83
ssg71
g1550
sg64
(lp1557
g441
asbag57
(g78
g59
NtRp1558
(dp1559
g62
(dp1560
g89
g90
ssg71
g1550
sg64
(lp1561
S':'
asbag57
(g78
g59
NtRp1562
(dp1563
g62
(dp1564
sg71
g1550
sg64
(lp1565
g57
(g58
g59
NtRp1566
(dp1567
g62
(dp1568
g70
I3
ssg71
g1562
sg64
(lp1569
S''
asbasbasbasbasbasbasbag57
(g73
g59
NtRp1570
(dp1571
g62
(dp1572
sg71
g256
sg64
(lp1573
g57
(g78
g59
NtRp1574
(dp1575
g62
(dp1576
g82
g83
ssg71
g1570
sg64
(lp1577
S'session_id_welcome'
p1578
asbag57
(g78
g59
NtRp1579
(dp1580
g62
(dp1581
g89
g90
ssg71
g1570
sg64
(lp1582
S':'
asbag57
(g78
g59
NtRp1583
(dp1584
g62
(dp1585
sg71
g1570
sg64
(lp1586
g57
(g58
g59
NtRp1587
(dp1588
g62
(dp1589
g70
I4
ssg71
g1583
sg64
(lp1590
S'127.0.0.1-bbf76e39-53f4-479c-af20-1f0a8e91527b'
p1591
ag57
(g66
g59
NtRp1592
(dp1593
g62
(dp1594
g70
I3
ssg71
Nsg64
(lp1595
g57
(g73
g59
NtRp1596
(dp1597
g62
(dp1598
sg71
g1592
sg64
(lp1599
g57
(g78
g59
NtRp1600
(dp1601
g62
(dp1602
g82
g83
ssg71
g1596
sg64
(lp1603
g294
asbag57
(g78
g59
NtRp1604
(dp1605
g62
(dp1606
g89
g90
ssg71
g1596
sg64
(lp1607
S':'
asbag57
(g78
g59
NtRp1608
(dp1609
g62
(dp1610
sg71
g1596
sg64
(lp1611
g57
(g58
g59
NtRp1612
(dp1613
g62
(dp1614
g70
I3
ssg71
g1608
sg64
(lp1615
S''
asbasbasbag57
(g73
g59
NtRp1616
(dp1617
g62
(dp1618
sg71
g1592
sg64
(lp1619
g57
(g78
g59
NtRp1620
(dp1621
g62
(dp1622
g82
g83
ssg71
g1616
sg64
(lp1623
g315
asbag57
(g78
g59
NtRp1624
(dp1625
g62
(dp1626
g89
g90
ssg71
g1616
sg64
(lp1627
S':'
asbag57
(g78
g59
NtRp1628
(dp1629
g62
(dp1630
sg71
g1616
sg64
(lp1631
g57
(g58
g59
NtRp1632
(dp1633
g62
(dp1634
g70
I3
ssg71
g1628
sg64
(lp1635
S''
asbasbasbag57
(g73
g59
NtRp1636
(dp1637
g62
(dp1638
sg71
g1592
sg64
(lp1639
g57
(g78
g59
NtRp1640
(dp1641
g62
(dp1642
g82
g83
ssg71
g1636
sg64
(lp1643
g336
asbag57
(g78
g59
NtRp1644
(dp1645
g62
(dp1646
g89
g90
ssg71
g1636
sg64
(lp1647
S':'
asbag57
(g78
g59
NtRp1648
(dp1649
g62
(dp1650
sg71
g1636
sg64
(lp1651
g57
(g58
g59
NtRp1652
(dp1653
g62
(dp1654
g70
I3
ssg71
g1648
sg64
(lp1655
S''
asbasbasbag57
(g73
g59
NtRp1656
(dp1657
g62
(dp1658
sg71
g1592
sg64
(lp1659
g57
(g78
g59
NtRp1660
(dp1661
g62
(dp1662
g82
g83
ssg71
g1656
sg64
(lp1663
g357
asbag57
(g78
g59
NtRp1664
(dp1665
g62
(dp1666
g89
g90
ssg71
g1656
sg64
(lp1667
S':'
asbag57
(g78
g59
NtRp1668
(dp1669
g62
(dp1670
sg71
g1656
sg64
(lp1671
g57
(g58
g59
NtRp1672
(dp1673
g62
(dp1674
g70
I3
ssg71
g1668
sg64
(lp1675
S''
asbasbasbag57
(g73
g59
NtRp1676
(dp1677
g62
(dp1678
sg71
g1592
sg64
(lp1679
g57
(g78
g59
NtRp1680
(dp1681
g62
(dp1682
g82
g83
ssg71
g1676
sg64
(lp1683
g378
asbag57
(g78
g59
NtRp1684
(dp1685
g62
(dp1686
g89
g90
ssg71
g1676
sg64
(lp1687
S':'
asbag57
(g78
g59
NtRp1688
(dp1689
g62
(dp1690
sg71
g1676
sg64
(lp1691
g57
(g58
g59
NtRp1692
(dp1693
g62
(dp1694
g70
I3
ssg71
g1688
sg64
(lp1695
S''
asbasbasbag57
(g73
g59
NtRp1696
(dp1697
g62
(dp1698
sg71
g1592
sg64
(lp1699
g57
(g78
g59
NtRp1700
(dp1701
g62
(dp1702
g82
g83
ssg71
g1696
sg64
(lp1703
g399
asbag57
(g78
g59
NtRp1704
(dp1705
g62
(dp1706
g89
g90
ssg71
g1696
sg64
(lp1707
S':'
asbag57
(g78
g59
NtRp1708
(dp1709
g62
(dp1710
sg71
g1696
sg64
(lp1711
g57
(g58
g59
NtRp1712
(dp1713
g62
(dp1714
g70
I3
ssg71
g1708
sg64
(lp1715
S''
asbasbasbag57
(g73
g59
NtRp1716
(dp1717
g62
(dp1718
sg71
g1592
sg64
(lp1719
g57
(g78
g59
NtRp1720
(dp1721
g62
(dp1722
g82
g83
ssg71
g1716
sg64
(lp1723
g420
asbag57
(g78
g59
NtRp1724
(dp1725
g62
(dp1726
g89
g90
ssg71
g1716
sg64
(lp1727
S':'
asbag57
(g78
g59
NtRp1728
(dp1729
g62
(dp1730
sg71
g1716
sg64
(lp1731
g57
(g58
g59
NtRp1732
(dp1733
g62
(dp1734
g70
I3
ssg71
g1728
sg64
(lp1735
S''
asbasbasbag57
(g73
g59
NtRp1736
(dp1737
g62
(dp1738
sg71
g1592
sg64
(lp1739
g57
(g78
g59
NtRp1740
(dp1741
g62
(dp1742
g82
g83
ssg71
g1736
sg64
(lp1743
g441
asbag57
(g78
g59
NtRp1744
(dp1745
g62
(dp1746
g89
g90
ssg71
g1736
sg64
(lp1747
S':'
asbag57
(g78
g59
NtRp1748
(dp1749
g62
(dp1750
sg71
g1736
sg64
(lp1751
g57
(g58
g59
NtRp1752
(dp1753
g62
(dp1754
g70
I3
ssg71
g1748
sg64
(lp1755
S''
asbasbasbasbasbasbasbasbasbasbasbag57
(g73
g59
NtRp1756
(dp1757
g62
(dp1758
sg71
g67
sg64
(lp1759
g57
(g78
g59
NtRp1760
(dp1761
g62
(dp1762
g82
g83
ssg71
g1756
sg64
(lp1763
S'env'
p1764
asbag57
(g78
g59
NtRp1765
(dp1766
g62
(dp1767
g89
g90
ssg71
g1756
sg64
(lp1768
S':'
asbag57
(g78
g59
NtRp1769
(dp1770
g62
(dp1771
sg71
g1756
sg64
(lp1772
g57
(g58
g59
NtRp1773
(dp1774
g62
(dp1775
g70
I5
ssg71
g1769
sg64
(lp1776
g57
(g66
g59
NtRp1777
(dp1778
g62
(dp1779
g70
I4
ssg71
Nsg64
(lp1780
g57
(g73
g59
NtRp1781
(dp1782
g62
(dp1783
sg71
g1777
sg64
(lp1784
g57
(g78
g59
NtRp1785
(dp1786
g62
(dp1787
g82
g83
ssg71
g1781
sg64
(lp1788
S'app_folders'
p1789
asbag57
(g78
g59
NtRp1790
(dp1791
g62
(dp1792
g89
g90
ssg71
g1781
sg64
(lp1793
S':'
asbag57
(g78
g59
NtRp1794
(dp1795
g62
(dp1796
sg71
g1781
sg64
(lp1797
g57
(g58
g59
NtRp1798
(dp1799
g62
(dp1800
g70
I4
ssg71
g1794
sg64
(lp1801
S"set(['/home/bhanu/web2py/applications/welcome/', '/home/bhanu/web2py/applications/photo_uploader/', '/home/bhanu/web2py/applications/kt/', '/home/bhanu/web2py/applications/admin/', '/home/bhanu/web2py/applications/r1layout/', '/home/bhanu/web2py/applications/sss/', '/home/bhanu/web2py/applications/kthostel/', '/home/bhanu/web2py/applications/hostel_r1/'])"
p1802
asbasbasbag57
(g73
g59
NtRp1803
(dp1804
g62
(dp1805
sg71
g1777
sg64
(lp1806
g57
(g78
g59
NtRp1807
(dp1808
g62
(dp1809
g82
g83
ssg71
g1803
sg64
(lp1810
S'applications_parent'
p1811
asbag57
(g78
g59
NtRp1812
(dp1813
g62
(dp1814
g89
g90
ssg71
g1803
sg64
(lp1815
S':'
asbag57
(g78
g59
NtRp1816
(dp1817
g62
(dp1818
sg71
g1803
sg64
(lp1819
g57
(g58
g59
NtRp1820
(dp1821
g62
(dp1822
g70
I4
ssg71
g1816
sg64
(lp1823
S'/home/bhanu/web2py'
p1824
asbasbasbag57
(g73
g59
NtRp1825
(dp1826
g62
(dp1827
sg71
g1777
sg64
(lp1828
g57
(g78
g59
NtRp1829
(dp1830
g62
(dp1831
g82
g83
ssg71
g1825
sg64
(lp1832
S'cmd_args'
p1833
asbag57
(g78
g59
NtRp1834
(dp1835
g62
(dp1836
g89
g90
ssg71
g1825
sg64
(lp1837
S':'
asbag57
(g78
g59
NtRp1838
(dp1839
g62
(dp1840
sg71
g1825
sg64
(lp1841
g57
(g58
g59
NtRp1842
(dp1843
g62
(dp1844
g70
I4
ssg71
g1838
sg64
(lp1845
g57
(g66
g59
NtRp1846
(dp1847
g62
(dp1848
g70
I3
ssg71
Nsg64
(lp1849
sbasbasbasbag57
(g73
g59
NtRp1850
(dp1851
g62
(dp1852
sg71
g1777
sg64
(lp1853
g57
(g78
g59
NtRp1854
(dp1855
g62
(dp1856
g82
g83
ssg71
g1850
sg64
(lp1857
S'cmd_options'
p1858
asbag57
(g78
g59
NtRp1859
(dp1860
g62
(dp1861
g89
g90
ssg71
g1850
sg64
(lp1862
S':'
asbag57
(g78
g59
NtRp1863
(dp1864
g62
(dp1865
sg71
g1850
sg64
(lp1866
g57
(g58
g59
NtRp1867
(dp1868
g62
(dp1869
g70
I4
ssg71
g1863
sg64
(lp1870
S"<Values at 0x2542f80: {'verbose': False, 'ip': '127.0.0.1', 'with_scheduler': False, 'ips': ['127.0.1.1'], 'shutdown_timeout': 5, 'taskbar': False, 'port': 8000, 'maxthreads': None, 'softcron': False, 'server_name': 'bhanu-Dell-System-XPS-L502X', 'bpython': False, 'nogui': False, 'pid_filename': 'httpserver.pid', 'extcron': False, 'runcron': False, 'run_system_tests': False, 'test': None, 'folder': '/home/bhanu/web2py', 'config': '', 'minthreads': None, 'winservice': '', 'shell': None, 'run': '', 'log_filename': 'httpserver.log', 'debuglevel': 30, 'args': [''], 'socket_timeout': 5, 'ssl_ca_certificate': None, 'scheduler': None, 'profiler_filename': None, 'ssl_private_key': '', 'scheduler_groups': None, 'password': '1', 'request_queue_size': 5, 'ssl_certificate': '', 'cronjob': False, 'numthreads': None, 'quiet': False, 'interfaces': None, 'import_models': False, 'timeout': 10, 'plain': False, 'nobanner': False}>"
p1871
asbasbasbag57
(g73
g59
NtRp1872
(dp1873
g62
(dp1874
sg71
g1777
sg64
(lp1875
g57
(g78
g59
NtRp1876
(dp1877
g62
(dp1878
g82
g83
ssg71
g1872
sg64
(lp1879
S'db_sessions'
p1880
asbag57
(g78
g59
NtRp1881
(dp1882
g62
(dp1883
g89
g90
ssg71
g1872
sg64
(lp1884
S':'
asbag57
(g78
g59
NtRp1885
(dp1886
g62
(dp1887
sg71
g1872
sg64
(lp1888
g57
(g58
g59
NtRp1889
(dp1890
g62
(dp1891
g70
I4
ssg71
g1885
sg64
(lp1892
S'set([])'
p1893
asbasbasbag57
(g73
g59
NtRp1894
(dp1895
g62
(dp1896
sg71
g1777
sg64
(lp1897
g57
(g78
g59
NtRp1898
(dp1899
g62
(dp1900
g82
g83
ssg71
g1894
sg64
(lp1901
S'debugging'
p1902
asbag57
(g78
g59
NtRp1903
(dp1904
g62
(dp1905
g89
g90
ssg71
g1894
sg64
(lp1906
S':'
asbag57
(g78
g59
NtRp1907
(dp1908
g62
(dp1909
sg71
g1894
sg64
(lp1910
g57
(g58
g59
NtRp1911
(dp1912
g62
(dp1913
g70
I4
ssg71
g1907
sg64
(lp1914
g100
asbasbasbag57
(g73
g59
NtRp1915
(dp1916
g62
(dp1917
sg71
g1777
sg64
(lp1918
g57
(g78
g59
NtRp1919
(dp1920
g62
(dp1921
g82
g83
ssg71
g1915
sg64
(lp1922
S'gluon_parent'
p1923
asbag57
(g78
g59
NtRp1924
(dp1925
g62
(dp1926
g89
g90
ssg71
g1915
sg64
(lp1927
S':'
asbag57
(g78
g59
NtRp1928
(dp1929
g62
(dp1930
sg71
g1915
sg64
(lp1931
g57
(g58
g59
NtRp1932
(dp1933
g62
(dp1934
g70
I4
ssg71
g1928
sg64
(lp1935
S'/home/bhanu/web2py'
p1936
asbasbasbag57
(g73
g59
NtRp1937
(dp1938
g62
(dp1939
sg71
g1777
sg64
(lp1940
g57
(g78
g59
NtRp1941
(dp1942
g62
(dp1943
g82
g83
ssg71
g1937
sg64
(lp1944
S'http_accept'
p1945
asbag57
(g78
g59
NtRp1946
(dp1947
g62
(dp1948
g89
g90
ssg71
g1937
sg64
(lp1949
S':'
asbag57
(g78
g59
NtRp1950
(dp1951
g62
(dp1952
sg71
g1937
sg64
(lp1953
g57
(g58
g59
NtRp1954
(dp1955
g62
(dp1956
g70
I4
ssg71
g1950
sg64
(lp1957
S'text/html,application/xhtml+xml,application/xml;q=0.9,*/*;q=0.8'
p1958
asbasbasbag57
(g73
g59
NtRp1959
(dp1960
g62
(dp1961
sg71
g1777
sg64
(lp1962
g57
(g78
g59
NtRp1963
(dp1964
g62
(dp1965
g82
g83
ssg71
g1959
sg64
(lp1966
S'http_accept_encoding'
p1967
asbag57
(g78
g59
NtRp1968
(dp1969
g62
(dp1970
g89
g90
ssg71
g1959
sg64
(lp1971
S':'
asbag57
(g78
g59
NtRp1972
(dp1973
g62
(dp1974
sg71
g1959
sg64
(lp1975
g57
(g58
g59
NtRp1976
(dp1977
g62
(dp1978
g70
I4
ssg71
g1972
sg64
(lp1979
S'gzip, deflate'
p1980
asbasbasbag57
(g73
g59
NtRp1981
(dp1982
g62
(dp1983
sg71
g1777
sg64
(lp1984
g57
(g78
g59
NtRp1985
(dp1986
g62
(dp1987
g82
g83
ssg71
g1981
sg64
(lp1988
S'http_accept_language'
p1989
asbag57
(g78
g59
NtRp1990
(dp1991
g62
(dp1992
g89
g90
ssg71
g1981
sg64
(lp1993
S':'
asbag57
(g78
g59
NtRp1994
(dp1995
g62
(dp1996
sg71
g1981
sg64
(lp1997
g57
(g58
g59
NtRp1998
(dp1999
g62
(dp2000
g70
I4
ssg71
g1994
sg64
(lp2001
S'en-US,en;q=0.5'
p2002
asbasbasbag57
(g73
g59
NtRp2003
(dp2004
g62
(dp2005
sg71
g1777
sg64
(lp2006
g57
(g78
g59
NtRp2007
(dp2008
g62
(dp2009
g82
g83
ssg71
g2003
sg64
(lp2010
S'http_connection'
p2011
asbag57
(g78
g59
NtRp2012
(dp2013
g62
(dp2014
g89
g90
ssg71
g2003
sg64
(lp2015
S':'
asbag57
(g78
g59
NtRp2016
(dp2017
g62
(dp2018
sg71
g2003
sg64
(lp2019
g57
(g58
g59
NtRp2020
(dp2021
g62
(dp2022
g70
I4
ssg71
g2016
sg64
(lp2023
S'keep-alive'
p2024
asbasbasbag57
(g73
g59
NtRp2025
(dp2026
g62
(dp2027
sg71
g1777
sg64
(lp2028
g57
(g78
g59
NtRp2029
(dp2030
g62
(dp2031
g82
g83
ssg71
g2025
sg64
(lp2032
S'http_cookie'
p2033
asbag57
(g78
g59
NtRp2034
(dp2035
g62
(dp2036
g89
g90
ssg71
g2025
sg64
(lp2037
S':'
asbag57
(g78
g59
NtRp2038
(dp2039
g62
(dp2040
sg71
g2025
sg64
(lp2041
g57
(g58
g59
NtRp2042
(dp2043
g62
(dp2044
g70
I4
ssg71
g2038
sg64
(lp2045
S'session_id_admin=127.0.0.1-d5d2864e-19e9-44b0-a003-f5c68b686d08; session_id_photo_uploader=127.0.0.1-d53eae2e-470e-4419-86a6-ad356ecbbbec; session_id_hostel_r1=127.0.0.1-9f691032-d7e6-4439-bd7e-c7eb020e1ab2; session_id_welcome=127.0.0.1-bbf76e39-53f4-479c-af20-1f0a8e91527b; session_id_sss=127.0.0.1-33a365f5-c433-4446-b3c2-9e2aea142bbb; session_id_kt=127.0.0.1-e10bbc2a-207e-4677-898d-8f60f216faa2; session_id_kthostel=127.0.0.1-47e0be83-5f17-4dd9-a699-64078c982045; session_id_r1layout=127.0.0.1-48514a73-0c85-4e09-8601-cb4c7bd2d175'
p2046
asbasbasbag57
(g73
g59
NtRp2047
(dp2048
g62
(dp2049
sg71
g1777
sg64
(lp2050
g57
(g78
g59
NtRp2051
(dp2052
g62
(dp2053
g82
g83
ssg71
g2047
sg64
(lp2054
S'http_host'
p2055
asbag57
(g78
g59
NtRp2056
(dp2057
g62
(dp2058
g89
g90
ssg71
g2047
sg64
(lp2059
S':'
asbag57
(g78
g59
NtRp2060
(dp2061
g62
(dp2062
sg71
g2047
sg64
(lp2063
g57
(g58
g59
NtRp2064
(dp2065
g62
(dp2066
g70
I4
ssg71
g2060
sg64
(lp2067
S'127.0.0.1:8000'
p2068
asbasbasbag57
(g73
g59
NtRp2069
(dp2070
g62
(dp2071
sg71
g1777
sg64
(lp2072
g57
(g78
g59
NtRp2073
(dp2074
g62
(dp2075
g82
g83
ssg71
g2069
sg64
(lp2076
S'http_user_agent'
p2077
asbag57
(g78
g59
NtRp2078
(dp2079
g62
(dp2080
g89
g90
ssg71
g2069
sg64
(lp2081
S':'
asbag57
(g78
g59
NtRp2082
(dp2083
g62
(dp2084
sg71
g2069
sg64
(lp2085
g57
(g58
g59
NtRp2086
(dp2087
g62
(dp2088
g70
I4
ssg71
g2082
sg64
(lp2089
S'Mozilla/5.0 (X11; Ubuntu; Linux x86_64; rv:16.0) Gecko/20100101 Firefox/16.0'
p2090
asbasbasbag57
(g73
g59
NtRp2091
(dp2092
g62
(dp2093
sg71
g1777
sg64
(lp2094
g57
(g78
g59
NtRp2095
(dp2096
g62
(dp2097
g82
g83
ssg71
g2091
sg64
(lp2098
S'is_jython'
p2099
asbag57
(g78
g59
NtRp2100
(dp2101
g62
(dp2102
g89
g90
ssg71
g2091
sg64
(lp2103
S':'
asbag57
(g78
g59
NtRp2104
(dp2105
g62
(dp2106
sg71
g2091
sg64
(lp2107
g57
(g58
g59
NtRp2108
(dp2109
g62
(dp2110
g70
I4
ssg71
g2104
sg64
(lp2111
g100
asbasbasbag57
(g73
g59
NtRp2112
(dp2113
g62
(dp2114
sg71
g1777
sg64
(lp2115
g57
(g78
g59
NtRp2116
(dp2117
g62
(dp2118
g82
g83
ssg71
g2112
sg64
(lp2119
S'is_pypy'
p2120
asbag57
(g78
g59
NtRp2121
(dp2122
g62
(dp2123
g89
g90
ssg71
g2112
sg64
(lp2124
S':'
asbag57
(g78
g59
NtRp2125
(dp2126
g62
(dp2127
sg71
g2112
sg64
(lp2128
g57
(g58
g59
NtRp2129
(dp2130
g62
(dp2131
g70
I4
ssg71
g2125
sg64
(lp2132
g100
asbasbasbag57
(g73
g59
NtRp2133
(dp2134
g62
(dp2135
sg71
g1777
sg64
(lp2136
g57
(g78
g59
NtRp2137
(dp2138
g62
(dp2139
g82
g83
ssg71
g2133
sg64
(lp2140
S'local_hosts'
p2141
asbag57
(g78
g59
NtRp2142
(dp2143
g62
(dp2144
g89
g90
ssg71
g2133
sg64
(lp2145
S':'
asbag57
(g78
g59
NtRp2146
(dp2147
g62
(dp2148
sg71
g2133
sg64
(lp2149
g57
(g58
g59
NtRp2150
(dp2151
g62
(dp2152
g70
I4
ssg71
g2146
sg64
(lp2153
g57
(g66
g59
NtRp2154
(dp2155
g62
(dp2156
g70
I3
ssg71
Nsg64
(lp2157
g57
(g73
g59
NtRp2158
(dp2159
g62
(dp2160
sg71
g2154
sg64
(lp2161
g57
(g78
g59
NtRp2162
(dp2163
g62
(dp2164
sg71
g2158
sg64
(lp2165
g57
(g58
g59
NtRp2166
(dp2167
g62
(dp2168
g70
I3
ssg71
g2162
sg64
(lp2169
S'127.0.0.1'
p2170
asbasbasbag57
(g73
g59
NtRp2171
(dp2172
g62
(dp2173
sg71
g2154
sg64
(lp2174
g57
(g78
g59
NtRp2175
(dp2176
g62
(dp2177
sg71
g2171
sg64
(lp2178
g57
(g58
g59
NtRp2179
(dp2180
g62
(dp2181
g70
I3
ssg71
g2175
sg64
(lp2182
S'::ffff:127.0.0.1'
p2183
asbasbasbag57
(g73
g59
NtRp2184
(dp2185
g62
(dp2186
sg71
g2154
sg64
(lp2187
g57
(g78
g59
NtRp2188
(dp2189
g62
(dp2190
sg71
g2184
sg64
(lp2191
g57
(g58
g59
NtRp2192
(dp2193
g62
(dp2194
g70
I3
ssg71
g2188
sg64
(lp2195
S'bhanu-Dell-System-XPS-L502X'
p2196
asbasbasbag57
(g73
g59
NtRp2197
(dp2198
g62
(dp2199
sg71
g2154
sg64
(lp2200
g57
(g78
g59
NtRp2201
(dp2202
g62
(dp2203
sg71
g2197
sg64
(lp2204
g57
(g58
g59
NtRp2205
(dp2206
g62
(dp2207
g70
I3
ssg71
g2201
sg64
(lp2208
S'bhanu-Dell-System-XPS-L502X'
p2209
asbasbasbag57
(g73
g59
NtRp2210
(dp2211
g62
(dp2212
sg71
g2154
sg64
(lp2213
g57
(g78
g59
NtRp2214
(dp2215
g62
(dp2216
sg71
g2210
sg64
(lp2217
g57
(g58
g59
NtRp2218
(dp2219
g62
(dp2220
g70
I3
ssg71
g2214
sg64
(lp2221
S'127.0.1.1'
p2222
asbasbasbasbasbasbasbag57
(g73
g59
NtRp2223
(dp2224
g62
(dp2225
sg71
g1777
sg64
(lp2226
g57
(g78
g59
NtRp2227
(dp2228
g62
(dp2229
g82
g83
ssg71
g2223
sg64
(lp2230
S'path_info'
p2231
asbag57
(g78
g59
NtRp2232
(dp2233
g62
(dp2234
g89
g90
ssg71
g2223
sg64
(lp2235
S':'
asbag57
(g78
g59
NtRp2236
(dp2237
g62
(dp2238
sg71
g2223
sg64
(lp2239
g57
(g58
g59
NtRp2240
(dp2241
g62
(dp2242
g70
I4
ssg71
g2236
sg64
(lp2243
S'/sss/default/login'
p2244
asbasbasbag57
(g73
g59
NtRp2245
(dp2246
g62
(dp2247
sg71
g1777
sg64
(lp2248
g57
(g78
g59
NtRp2249
(dp2250
g62
(dp2251
g82
g83
ssg71
g2245
sg64
(lp2252
S'query_string'
p2253
asbag57
(g78
g59
NtRp2254
(dp2255
g62
(dp2256
g89
g90
ssg71
g2245
sg64
(lp2257
S':'
asbag57
(g78
g59
NtRp2258
(dp2259
g62
(dp2260
sg71
g2245
sg64
(lp2261
g57
(g58
g59
NtRp2262
(dp2263
g62
(dp2264
g70
I4
ssg71
g2258
sg64
(lp2265
S'ticket=ST-78340-SJzWSb3aaVgLuOGZSsPq-cas'
p2266
asbasbasbag57
(g73
g59
NtRp2267
(dp2268
g62
(dp2269
sg71
g1777
sg64
(lp2270
g57
(g78
g59
NtRp2271
(dp2272
g62
(dp2273
g82
g83
ssg71
g2267
sg64
(lp2274
S'remote_addr'
p2275
asbag57
(g78
g59
NtRp2276
(dp2277
g62
(dp2278
g89
g90
ssg71
g2267
sg64
(lp2279
S':'
asbag57
(g78
g59
NtRp2280
(dp2281
g62
(dp2282
sg71
g2267
sg64
(lp2283
g57
(g58
g59
NtRp2284
(dp2285
g62
(dp2286
g70
I4
ssg71
g2280
sg64
(lp2287
g212
asbasbasbag57
(g73
g59
NtRp2288
(dp2289
g62
(dp2290
sg71
g1777
sg64
(lp2291
g57
(g78
g59
NtRp2292
(dp2293
g62
(dp2294
g82
g83
ssg71
g2288
sg64
(lp2295
S'remote_port'
p2296
asbag57
(g78
g59
NtRp2297
(dp2298
g62
(dp2299
g89
g90
ssg71
g2288
sg64
(lp2300
S':'
asbag57
(g78
g59
NtRp2301
(dp2302
g62
(dp2303
sg71
g2288
sg64
(lp2304
g57
(g58
g59
NtRp2305
(dp2306
g62
(dp2307
g70
I4
ssg71
g2301
sg64
(lp2308
S'41902'
p2309
asbasbasbag57
(g73
g59
NtRp2310
(dp2311
g62
(dp2312
sg71
g1777
sg64
(lp2313
g57
(g78
g59
NtRp2314
(dp2315
g62
(dp2316
g82
g83
ssg71
g2310
sg64
(lp2317
S'request_method'
p2318
asbag57
(g78
g59
NtRp2319
(dp2320
g62
(dp2321
g89
g90
ssg71
g2310
sg64
(lp2322
S':'
asbag57
(g78
g59
NtRp2323
(dp2324
g62
(dp2325
sg71
g2310
sg64
(lp2326
g57
(g58
g59
NtRp2327
(dp2328
g62
(dp2329
g70
I4
ssg71
g2323
sg64
(lp2330
S'GET'
p2331
asbasbasbag57
(g73
g59
NtRp2332
(dp2333
g62
(dp2334
sg71
g1777
sg64
(lp2335
g57
(g78
g59
NtRp2336
(dp2337
g62
(dp2338
g82
g83
ssg71
g2332
sg64
(lp2339
S'request_uri'
p2340
asbag57
(g78
g59
NtRp2341
(dp2342
g62
(dp2343
g89
g90
ssg71
g2332
sg64
(lp2344
S':'
asbag57
(g78
g59
NtRp2345
(dp2346
g62
(dp2347
sg71
g2332
sg64
(lp2348
g57
(g58
g59
NtRp2349
(dp2350
g62
(dp2351
g70
I4
ssg71
g2345
sg64
(lp2352
S'/sss/default/login?ticket=ST-78340-SJzWSb3aaVgLuOGZSsPq-cas'
p2353
asbasbasbag57
(g73
g59
NtRp2354
(dp2355
g62
(dp2356
sg71
g1777
sg64
(lp2357
g57
(g78
g59
NtRp2358
(dp2359
g62
(dp2360
g82
g83
ssg71
g2354
sg64
(lp2361
S'script_name'
p2362
asbag57
(g78
g59
NtRp2363
(dp2364
g62
(dp2365
g89
g90
ssg71
g2354
sg64
(lp2366
S':'
asbag57
(g78
g59
NtRp2367
(dp2368
g62
(dp2369
sg71
g2354
sg64
(lp2370
g57
(g58
g59
NtRp2371
(dp2372
g62
(dp2373
g70
I4
ssg71
g2367
sg64
(lp2374
S''
asbasbasbag57
(g73
g59
NtRp2375
(dp2376
g62
(dp2377
sg71
g1777
sg64
(lp2378
g57
(g78
g59
NtRp2379
(dp2380
g62
(dp2381
g82
g83
ssg71
g2375
sg64
(lp2382
S'server_name'
p2383
asbag57
(g78
g59
NtRp2384
(dp2385
g62
(dp2386
g89
g90
ssg71
g2375
sg64
(lp2387
S':'
asbag57
(g78
g59
NtRp2388
(dp2389
g62
(dp2390
sg71
g2375
sg64
(lp2391
g57
(g58
g59
NtRp2392
(dp2393
g62
(dp2394
g70
I4
ssg71
g2388
sg64
(lp2395
g2209
asbasbasbag57
(g73
g59
NtRp2396
(dp2397
g62
(dp2398
sg71
g1777
sg64
(lp2399
g57
(g78
g59
NtRp2400
(dp2401
g62
(dp2402
g82
g83
ssg71
g2396
sg64
(lp2403
S'server_port'
p2404
asbag57
(g78
g59
NtRp2405
(dp2406
g62
(dp2407
g89
g90
ssg71
g2396
sg64
(lp2408
S':'
asbag57
(g78
g59
NtRp2409
(dp2410
g62
(dp2411
sg71
g2396
sg64
(lp2412
g57
(g58
g59
NtRp2413
(dp2414
g62
(dp2415
g70
I4
ssg71
g2409
sg64
(lp2416
S'8000'
p2417
asbasbasbag57
(g73
g59
NtRp2418
(dp2419
g62
(dp2420
sg71
g1777
sg64
(lp2421
g57
(g78
g59
NtRp2422
(dp2423
g62
(dp2424
g82
g83
ssg71
g2418
sg64
(lp2425
S'server_protocol'
p2426
asbag57
(g78
g59
NtRp2427
(dp2428
g62
(dp2429
g89
g90
ssg71
g2418
sg64
(lp2430
S':'
asbag57
(g78
g59
NtRp2431
(dp2432
g62
(dp2433
sg71
g2418
sg64
(lp2434
g57
(g58
g59
NtRp2435
(dp2436
g62
(dp2437
g70
I4
ssg71
g2431
sg64
(lp2438
S'HTTP/1.1'
p2439
asbasbasbag57
(g73
g59
NtRp2440
(dp2441
g62
(dp2442
sg71
g1777
sg64
(lp2443
g57
(g78
g59
NtRp2444
(dp2445
g62
(dp2446
g82
g83
ssg71
g2440
sg64
(lp2447
S'server_software'
p2448
asbag57
(g78
g59
NtRp2449
(dp2450
g62
(dp2451
g89
g90
ssg71
g2440
sg64
(lp2452
S':'
asbag57
(g78
g59
NtRp2453
(dp2454
g62
(dp2455
sg71
g2440
sg64
(lp2456
g57
(g58
g59
NtRp2457
(dp2458
g62
(dp2459
g70
I4
ssg71
g2453
sg64
(lp2460
S'Rocket 1.2.5'
p2461
asbasbasbag57
(g73
g59
NtRp2462
(dp2463
g62
(dp2464
sg71
g1777
sg64
(lp2465
g57
(g78
g59
NtRp2466
(dp2467
g62
(dp2468
g82
g83
ssg71
g2462
sg64
(lp2469
S'web2py_path'
p2470
asbag57
(g78
g59
NtRp2471
(dp2472
g62
(dp2473
g89
g90
ssg71
g2462
sg64
(lp2474
S':'
asbag57
(g78
g59
NtRp2475
(dp2476
g62
(dp2477
sg71
g2462
sg64
(lp2478
g57
(g58
g59
NtRp2479
(dp2480
g62
(dp2481
g70
I4
ssg71
g2475
sg64
(lp2482
g1824
asbasbasbag57
(g73
g59
NtRp2483
(dp2484
g62
(dp2485
sg71
g1777
sg64
(lp2486
g57
(g78
g59
NtRp2487
(dp2488
g62
(dp2489
g82
g83
ssg71
g2483
sg64
(lp2490
S'web2py_version'
p2491
asbag57
(g78
g59
NtRp2492
(dp2493
g62
(dp2494
g89
g90
ssg71
g2483
sg64
(lp2495
S':'
asbag57
(g78
g59
NtRp2496
(dp2497
g62
(dp2498
sg71
g2483
sg64
(lp2499
g57
(g58
g59
NtRp2500
(dp2501
g62
(dp2502
g70
I4
ssg71
g2496
sg64
(lp2503
g57
(g66
g59
NtRp2504
(dp2505
g62
(dp2506
g70
I3
ssg71
Nsg64
(lp2507
g57
(g73
g59
NtRp2508
(dp2509
g62
(dp2510
sg71
g2504
sg64
(lp2511
g57
(g78
g59
NtRp2512
(dp2513
g62
(dp2514
sg71
g2508
sg64
(lp2515
g57
(g58
g59
NtRp2516
(dp2517
g62
(dp2518
g70
I3
ssg71
g2512
sg64
(lp2519
S'2'
asbasbasbag57
(g73
g59
NtRp2520
(dp2521
g62
(dp2522
sg71
g2504
sg64
(lp2523
g57
(g78
g59
NtRp2524
(dp2525
g62
(dp2526
sg71
g2520
sg64
(lp2527
g57
(g58
g59
NtRp2528
(dp2529
g62
(dp2530
g70
I3
ssg71
g2524
sg64
(lp2531
S'2'
asbasbasbag57
(g73
g59
NtRp2532
(dp2533
g62
(dp2534
sg71
g2504
sg64
(lp2535
g57
(g78
g59
NtRp2536
(dp2537
g62
(dp2538
sg71
g2532
sg64
(lp2539
g57
(g58
g59
NtRp2540
(dp2541
g62
(dp2542
g70
I3
ssg71
g2536
sg64
(lp2543
S'1'
asbasbasbag57
(g73
g59
NtRp2544
(dp2545
g62
(dp2546
sg71
g2504
sg64
(lp2547
g57
(g78
g59
NtRp2548
(dp2549
g62
(dp2550
sg71
g2544
sg64
(lp2551
g57
(g58
g59
NtRp2552
(dp2553
g62
(dp2554
g70
I3
ssg71
g2548
sg64
(lp2555
S'datetime.datetime(2012, 10, 21, 16, 57, 4)'
p2556
asbasbasbag57
(g73
g59
NtRp2557
(dp2558
g62
(dp2559
sg71
g2504
sg64
(lp2560
g57
(g78
g59
NtRp2561
(dp2562
g62
(dp2563
sg71
g2557
sg64
(lp2564
g57
(g58
g59
NtRp2565
(dp2566
g62
(dp2567
g70
I3
ssg71
g2561
sg64
(lp2568
S'stable'
p2569
asbasbasbasbasbasbasbag57
(g73
g59
NtRp2570
(dp2571
g62
(dp2572
sg71
g1777
sg64
(lp2573
g57
(g78
g59
NtRp2574
(dp2575
g62
(dp2576
g82
g83
ssg71
g2570
sg64
(lp2577
S'wsgi_errors'
p2578
asbag57
(g78
g59
NtRp2579
(dp2580
g62
(dp2581
g89
g90
ssg71
g2570
sg64
(lp2582
S':'
asbag57
(g78
g59
NtRp2583
(dp2584
g62
(dp2585
sg71
g2570
sg64
(lp2586
g57
(g58
g59
NtRp2587
(dp2588
g62
(dp2589
g70
I4
ssg71
g2583
sg64
(lp2590
S"<open file '<stderr>', mode 'w' at 0x7f680d4b4270>"
p2591
asbasbasbag57
(g73
g59
NtRp2592
(dp2593
g62
(dp2594
sg71
g1777
sg64
(lp2595
g57
(g78
g59
NtRp2596
(dp2597
g62
(dp2598
g82
g83
ssg71
g2592
sg64
(lp2599
S'wsgi_file_wrapper'
p2600
asbag57
(g78
g59
NtRp2601
(dp2602
g62
(dp2603
g89
g90
ssg71
g2592
sg64
(lp2604
S':'
asbag57
(g78
g59
NtRp2605
(dp2606
g62
(dp2607
sg71
g2592
sg64
(lp2608
g57
(g58
g59
NtRp2609
(dp2610
g62
(dp2611
g70
I4
ssg71
g2605
sg64
(lp2612
S'<class wsgiref.util.FileWrapper at 0x2476d50>'
p2613
asbasbasbag57
(g73
g59
NtRp2614
(dp2615
g62
(dp2616
sg71
g1777
sg64
(lp2617
g57
(g78
g59
NtRp2618
(dp2619
g62
(dp2620
g82
g83
ssg71
g2614
sg64
(lp2621
S'wsgi_input'
p2622
asbag57
(g78
g59
NtRp2623
(dp2624
g62
(dp2625
g89
g90
ssg71
g2614
sg64
(lp2626
S':'
asbag57
(g78
g59
NtRp2627
(dp2628
g62
(dp2629
sg71
g2614
sg64
(lp2630
g57
(g58
g59
NtRp2631
(dp2632
g62
(dp2633
g70
I4
ssg71
g2627
sg64
(lp2634
S'<socket._fileobject object at 0x7f67e0740650>'
p2635
asbasbasbag57
(g73
g59
NtRp2636
(dp2637
g62
(dp2638
sg71
g1777
sg64
(lp2639
g57
(g78
g59
NtRp2640
(dp2641
g62
(dp2642
g82
g83
ssg71
g2636
sg64
(lp2643
S'wsgi_multiprocess'
p2644
asbag57
(g78
g59
NtRp2645
(dp2646
g62
(dp2647
g89
g90
ssg71
g2636
sg64
(lp2648
S':'
asbag57
(g78
g59
NtRp2649
(dp2650
g62
(dp2651
sg71
g2636
sg64
(lp2652
g57
(g58
g59
NtRp2653
(dp2654
g62
(dp2655
g70
I4
ssg71
g2649
sg64
(lp2656
g100
asbasbasbag57
(g73
g59
NtRp2657
(dp2658
g62
(dp2659
sg71
g1777
sg64
(lp2660
g57
(g78
g59
NtRp2661
(dp2662
g62
(dp2663
g82
g83
ssg71
g2657
sg64
(lp2664
S'wsgi_multithread'
p2665
asbag57
(g78
g59
NtRp2666
(dp2667
g62
(dp2668
g89
g90
ssg71
g2657
sg64
(lp2669
S':'
asbag57
(g78
g59
NtRp2670
(dp2671
g62
(dp2672
sg71
g2657
sg64
(lp2673
g57
(g58
g59
NtRp2674
(dp2675
g62
(dp2676
g70
I4
ssg71
g2670
sg64
(lp2677
S'True'
p2678
asbasbasbag57
(g73
g59
NtRp2679
(dp2680
g62
(dp2681
sg71
g1777
sg64
(lp2682
g57
(g78
g59
NtRp2683
(dp2684
g62
(dp2685
g82
g83
ssg71
g2679
sg64
(lp2686
S'wsgi_run_once'
p2687
asbag57
(g78
g59
NtRp2688
(dp2689
g62
(dp2690
g89
g90
ssg71
g2679
sg64
(lp2691
S':'
asbag57
(g78
g59
NtRp2692
(dp2693
g62
(dp2694
sg71
g2679
sg64
(lp2695
g57
(g58
g59
NtRp2696
(dp2697
g62
(dp2698
g70
I4
ssg71
g2692
sg64
(lp2699
g100
asbasbasbag57
(g73
g59
NtRp2700
(dp2701
g62
(dp2702
sg71
g1777
sg64
(lp2703
g57
(g78
g59
NtRp2704
(dp2705
g62
(dp2706
g82
g83
ssg71
g2700
sg64
(lp2707
S'wsgi_url_scheme'
p2708
asbag57
(g78
g59
NtRp2709
(dp2710
g62
(dp2711
g89
g90
ssg71
g2700
sg64
(lp2712
S':'
asbag57
(g78
g59
NtRp2713
(dp2714
g62
(dp2715
sg71
g2700
sg64
(lp2716
g57
(g58
g59
NtRp2717
(dp2718
g62
(dp2719
g70
I4
ssg71
g2713
sg64
(lp2720
S'http'
p2721
asbasbasbag57
(g73
g59
NtRp2722
(dp2723
g62
(dp2724
sg71
g1777
sg64
(lp2725
g57
(g78
g59
NtRp2726
(dp2727
g62
(dp2728
g82
g83
ssg71
g2722
sg64
(lp2729
S'wsgi_version'
p2730
asbag57
(g78
g59
NtRp2731
(dp2732
g62
(dp2733
g89
g90
ssg71
g2722
sg64
(lp2734
S':'
asbag57
(g78
g59
NtRp2735
(dp2736
g62
(dp2737
sg71
g2722
sg64
(lp2738
g57
(g58
g59
NtRp2739
(dp2740
g62
(dp2741
g70
I4
ssg71
g2735
sg64
(lp2742
g57
(g66
g59
NtRp2743
(dp2744
g62
(dp2745
g70
I3
ssg71
Nsg64
(lp2746
g57
(g73
g59
NtRp2747
(dp2748
g62
(dp2749
sg71
g2743
sg64
(lp2750
g57
(g78
g59
NtRp2751
(dp2752
g62
(dp2753
sg71
g2747
sg64
(lp2754
g57
(g58
g59
NtRp2755
(dp2756
g62
(dp2757
g70
I3
ssg71
g2751
sg64
(lp2758
S'1'
asbasbasbag57
(g73
g59
NtRp2759
(dp2760
g62
(dp2761
sg71
g2743
sg64
(lp2762
g57
(g78
g59
NtRp2763
(dp2764
g62
(dp2765
sg71
g2759
sg64
(lp2766
g57
(g58
g59
NtRp2767
(dp2768
g62
(dp2769
g70
I3
ssg71
g2763
sg64
(lp2770
S'0'
asbasbasbasbasbasbasbasbasbasbasbag57
(g73
g59
NtRp2771
(dp2772
g62
(dp2773
sg71
g67
sg64
(lp2774
g57
(g78
g59
NtRp2775
(dp2776
g62
(dp2777
g82
g83
ssg71
g2771
sg64
(lp2778
S'extension'
p2779
asbag57
(g78
g59
NtRp2780
(dp2781
g62
(dp2782
g89
g90
ssg71
g2771
sg64
(lp2783
S':'
asbag57
(g78
g59
NtRp2784
(dp2785
g62
(dp2786
sg71
g2771
sg64
(lp2787
g57
(g58
g59
NtRp2788
(dp2789
g62
(dp2790
g70
I5
ssg71
g2784
sg64
(lp2791
S'html'
p2792
asbasbasbag57
(g73
g59
NtRp2793
(dp2794
g62
(dp2795
sg71
g67
sg64
(lp2796
g57
(g78
g59
NtRp2797
(dp2798
g62
(dp2799
g82
g83
ssg71
g2793
sg64
(lp2800
S'folder'
p2801
asbag57
(g78
g59
NtRp2802
(dp2803
g62
(dp2804
g89
g90
ssg71
g2793
sg64
(lp2805
S':'
asbag57
(g78
g59
NtRp2806
(dp2807
g62
(dp2808
sg71
g2793
sg64
(lp2809
g57
(g58
g59
NtRp2810
(dp2811
g62
(dp2812
g70
I5
ssg71
g2806
sg64
(lp2813
S'/home/bhanu/web2py/applications/sss/'
p2814
asbasbasbag57
(g73
g59
NtRp2815
(dp2816
g62
(dp2817
sg71
g67
sg64
(lp2818
g57
(g78
g59
NtRp2819
(dp2820
g62
(dp2821
g82
g83
ssg71
g2815
sg64
(lp2822
S'function'
p2823
asbag57
(g78
g59
NtRp2824
(dp2825
g62
(dp2826
g89
g90
ssg71
g2815
sg64
(lp2827
S':'
asbag57
(g78
g59
NtRp2828
(dp2829
g62
(dp2830
sg71
g2815
sg64
(lp2831
g57
(g58
g59
NtRp2832
(dp2833
g62
(dp2834
g70
I5
ssg71
g2828
sg64
(lp2835
S'login'
p2836
asbasbasbag57
(g73
g59
NtRp2837
(dp2838
g62
(dp2839
sg71
g67
sg64
(lp2840
g57
(g78
g59
NtRp2841
(dp2842
g62
(dp2843
g82
g83
ssg71
g2837
sg64
(lp2844
S'get_vars'
p2845
asbag57
(g78
g59
NtRp2846
(dp2847
g62
(dp2848
g89
g90
ssg71
g2837
sg64
(lp2849
S':'
asbag57
(g78
g59
NtRp2850
(dp2851
g62
(dp2852
sg71
g2837
sg64
(lp2853
g57
(g58
g59
NtRp2854
(dp2855
g62
(dp2856
g70
I5
ssg71
g2850
sg64
(lp2857
g57
(g66
g59
NtRp2858
(dp2859
g62
(dp2860
g70
I4
ssg71
Nsg64
(lp2861
g57
(g73
g59
NtRp2862
(dp2863
g62
(dp2864
sg71
g2858
sg64
(lp2865
g57
(g78
g59
NtRp2866
(dp2867
g62
(dp2868
g82
g83
ssg71
g2862
sg64
(lp2869
S'ticket'
p2870
asbag57
(g78
g59
NtRp2871
(dp2872
g62
(dp2873
g89
g90
ssg71
g2862
sg64
(lp2874
S':'
asbag57
(g78
g59
NtRp2875
(dp2876
g62
(dp2877
sg71
g2862
sg64
(lp2878
g57
(g58
g59
NtRp2879
(dp2880
g62
(dp2881
g70
I4
ssg71
g2875
sg64
(lp2882
S'ST-78340-SJzWSb3aaVgLuOGZSsPq-cas'
p2883
asbasbasbasbasbasbasbag57
(g73
g59
NtRp2884
(dp2885
g62
(dp2886
sg71
g67
sg64
(lp2887
g57
(g78
g59
NtRp2888
(dp2889
g62
(dp2890
g82
g83
ssg71
g2884
sg64
(lp2891
S'global_settings'
p2892
asbag57
(g78
g59
NtRp2893
(dp2894
g62
(dp2895
g89
g90
ssg71
g2884
sg64
(lp2896
S':'
asbag57
(g78
g59
NtRp2897
(dp2898
g62
(dp2899
sg71
g2884
sg64
(lp2900
g57
(g58
g59
NtRp2901
(dp2902
g62
(dp2903
g70
I5
ssg71
g2897
sg64
(lp2904
g57
(g66
g59
NtRp2905
(dp2906
g62
(dp2907
g70
I4
ssg71
Nsg64
(lp2908
g57
(g73
g59
NtRp2909
(dp2910
g62
(dp2911
sg71
g2905
sg64
(lp2912
g57
(g78
g59
NtRp2913
(dp2914
g62
(dp2915
g82
g83
ssg71
g2909
sg64
(lp2916
g1789
asbag57
(g78
g59
NtRp2917
(dp2918
g62
(dp2919
g89
g90
ssg71
g2909
sg64
(lp2920
S':'
asbag57
(g78
g59
NtRp2921
(dp2922
g62
(dp2923
sg71
g2909
sg64
(lp2924
g57
(g58
g59
NtRp2925
(dp2926
g62
(dp2927
g70
I4
ssg71
g2921
sg64
(lp2928
S"set(['/home/bhanu/web2py/applications/welcome/', '/home/bhanu/web2py/applications/photo_uploader/', '/home/bhanu/web2py/applications/kt/', '/home/bhanu/web2py/applications/admin/', '/home/bhanu/web2py/applications/r1layout/', '/home/bhanu/web2py/applications/sss/', '/home/bhanu/web2py/applications/kthostel/', '/home/bhanu/web2py/applications/hostel_r1/'])"
p2929
asbasbasbag57
(g73
g59
NtRp2930
(dp2931
g62
(dp2932
sg71
g2905
sg64
(lp2933
g57
(g78
g59
NtRp2934
(dp2935
g62
(dp2936
g82
g83
ssg71
g2930
sg64
(lp2937
g1811
asbag57
(g78
g59
NtRp2938
(dp2939
g62
(dp2940
g89
g90
ssg71
g2930
sg64
(lp2941
S':'
asbag57
(g78
g59
NtRp2942
(dp2943
g62
(dp2944
sg71
g2930
sg64
(lp2945
g57
(g58
g59
NtRp2946
(dp2947
g62
(dp2948
g70
I4
ssg71
g2942
sg64
(lp2949
g1824
asbasbasbag57
(g73
g59
NtRp2950
(dp2951
g62
(dp2952
sg71
g2905
sg64
(lp2953
g57
(g78
g59
NtRp2954
(dp2955
g62
(dp2956
g82
g83
ssg71
g2950
sg64
(lp2957
g1833
asbag57
(g78
g59
NtRp2958
(dp2959
g62
(dp2960
g89
g90
ssg71
g2950
sg64
(lp2961
S':'
asbag57
(g78
g59
NtRp2962
(dp2963
g62
(dp2964
sg71
g2950
sg64
(lp2965
g57
(g58
g59
NtRp2966
(dp2967
g62
(dp2968
g70
I4
ssg71
g2962
sg64
(lp2969
g57
(g66
g59
NtRp2970
(dp2971
g62
(dp2972
g70
I3
ssg71
Nsg64
(lp2973
sbasbasbasbag57
(g73
g59
NtRp2974
(dp2975
g62
(dp2976
sg71
g2905
sg64
(lp2977
g57
(g78
g59
NtRp2978
(dp2979
g62
(dp2980
g82
g83
ssg71
g2974
sg64
(lp2981
g1858
asbag57
(g78
g59
NtRp2982
(dp2983
g62
(dp2984
g89
g90
ssg71
g2974
sg64
(lp2985
S':'
asbag57
(g78
g59
NtRp2986
(dp2987
g62
(dp2988
sg71
g2974
sg64
(lp2989
g57
(g58
g59
NtRp2990
(dp2991
g62
(dp2992
g70
I4
ssg71
g2986
sg64
(lp2993
S"<Values at 0x2542f80: {'verbose': False, 'ip': '127.0.0.1', 'with_scheduler': False, 'ips': ['127.0.1.1'], 'shutdown_timeout': 5, 'taskbar': False, 'port': 8000, 'maxthreads': None, 'softcron': False, 'server_name': 'bhanu-Dell-System-XPS-L502X', 'bpython': False, 'nogui': False, 'pid_filename': 'httpserver.pid', 'extcron': False, 'runcron': False, 'run_system_tests': False, 'test': None, 'folder': '/home/bhanu/web2py', 'config': '', 'minthreads': None, 'winservice': '', 'shell': None, 'run': '', 'log_filename': 'httpserver.log', 'debuglevel': 30, 'args': [''], 'socket_timeout': 5, 'ssl_ca_certificate': None, 'scheduler': None, 'profiler_filename': None, 'ssl_private_key': '', 'scheduler_groups': None, 'password': '1', 'request_queue_size': 5, 'ssl_certificate': '', 'cronjob': False, 'numthreads': None, 'quiet': False, 'interfaces': None, 'import_models': False, 'timeout': 10, 'plain': False, 'nobanner': False}>"
p2994
asbasbasbag57
(g73
g59
NtRp2995
(dp2996
g62
(dp2997
sg71
g2905
sg64
(lp2998
g57
(g78
g59
NtRp2999
(dp3000
g62
(dp3001
g82
g83
ssg71
g2995
sg64
(lp3002
g1880
asbag57
(g78
g59
NtRp3003
(dp3004
g62
(dp3005
g89
g90
ssg71
g2995
sg64
(lp3006
S':'
asbag57
(g78
g59
NtRp3007
(dp3008
g62
(dp3009
sg71
g2995
sg64
(lp3010
g57
(g58
g59
NtRp3011
(dp3012
g62
(dp3013
g70
I4
ssg71
g3007
sg64
(lp3014
S'set([])'
p3015
asbasbasbag57
(g73
g59
NtRp3016
(dp3017
g62
(dp3018
sg71
g2905
sg64
(lp3019
g57
(g78
g59
NtRp3020
(dp3021
g62
(dp3022
g82
g83
ssg71
g3016
sg64
(lp3023
g1902
asbag57
(g78
g59
NtRp3024
(dp3025
g62
(dp3026
g89
g90
ssg71
g3016
sg64
(lp3027
S':'
asbag57
(g78
g59
NtRp3028
(dp3029
g62
(dp3030
sg71
g3016
sg64
(lp3031
g57
(g58
g59
NtRp3032
(dp3033
g62
(dp3034
g70
I4
ssg71
g3028
sg64
(lp3035
g100
asbasbasbag57
(g73
g59
NtRp3036
(dp3037
g62
(dp3038
sg71
g2905
sg64
(lp3039
g57
(g78
g59
NtRp3040
(dp3041
g62
(dp3042
g82
g83
ssg71
g3036
sg64
(lp3043
g1923
asbag57
(g78
g59
NtRp3044
(dp3045
g62
(dp3046
g89
g90
ssg71
g3036
sg64
(lp3047
S':'
asbag57
(g78
g59
NtRp3048
(dp3049
g62
(dp3050
sg71
g3036
sg64
(lp3051
g57
(g58
g59
NtRp3052
(dp3053
g62
(dp3054
g70
I4
ssg71
g3048
sg64
(lp3055
g1936
asbasbasbag57
(g73
g59
NtRp3056
(dp3057
g62
(dp3058
sg71
g2905
sg64
(lp3059
g57
(g78
g59
NtRp3060
(dp3061
g62
(dp3062
g82
g83
ssg71
g3056
sg64
(lp3063
g2099
asbag57
(g78
g59
NtRp3064
(dp3065
g62
(dp3066
g89
g90
ssg71
g3056
sg64
(lp3067
S':'
asbag57
(g78
g59
NtRp3068
(dp3069
g62
(dp3070
sg71
g3056
sg64
(lp3071
g57
(g58
g59
NtRp3072
(dp3073
g62
(dp3074
g70
I4
ssg71
g3068
sg64
(lp3075
g100
asbasbasbag57
(g73
g59
NtRp3076
(dp3077
g62
(dp3078
sg71
g2905
sg64
(lp3079
g57
(g78
g59
NtRp3080
(dp3081
g62
(dp3082
g82
g83
ssg71
g3076
sg64
(lp3083
g2120
asbag57
(g78
g59
NtRp3084
(dp3085
g62
(dp3086
g89
g90
ssg71
g3076
sg64
(lp3087
S':'
asbag57
(g78
g59
NtRp3088
(dp3089
g62
(dp3090
sg71
g3076
sg64
(lp3091
g57
(g58
g59
NtRp3092
(dp3093
g62
(dp3094
g70
I4
ssg71
g3088
sg64
(lp3095
g100
asbasbasbag57
(g73
g59
NtRp3096
(dp3097
g62
(dp3098
sg71
g2905
sg64
(lp3099
g57
(g78
g59
NtRp3100
(dp3101
g62
(dp3102
g82
g83
ssg71
g3096
sg64
(lp3103
g2141
asbag57
(g78
g59
NtRp3104
(dp3105
g62
(dp3106
g89
g90
ssg71
g3096
sg64
(lp3107
S':'
asbag57
(g78
g59
NtRp3108
(dp3109
g62
(dp3110
sg71
g3096
sg64
(lp3111
g57
(g58
g59
NtRp3112
(dp3113
g62
(dp3114
g70
I4
ssg71
g3108
sg64
(lp3115
g57
(g66
g59
NtRp3116
(dp3117
g62
(dp3118
g70
I3
ssg71
Nsg64
(lp3119
g57
(g73
g59
NtRp3120
(dp3121
g62
(dp3122
sg71
g3116
sg64
(lp3123
g57
(g78
g59
NtRp3124
(dp3125
g62
(dp3126
sg71
g3120
sg64
(lp3127
g57
(g58
g59
NtRp3128
(dp3129
g62
(dp3130
g70
I3
ssg71
g3124
sg64
(lp3131
g2170
asbasbasbag57
(g73
g59
NtRp3132
(dp3133
g62
(dp3134
sg71
g3116
sg64
(lp3135
g57
(g78
g59
NtRp3136
(dp3137
g62
(dp3138
sg71
g3132
sg64
(lp3139
g57
(g58
g59
NtRp3140
(dp3141
g62
(dp3142
g70
I3
ssg71
g3136
sg64
(lp3143
g2183
asbasbasbag57
(g73
g59
NtRp3144
(dp3145
g62
(dp3146
sg71
g3116
sg64
(lp3147
g57
(g78
g59
NtRp3148
(dp3149
g62
(dp3150
sg71
g3144
sg64
(lp3151
g57
(g58
g59
NtRp3152
(dp3153
g62
(dp3154
g70
I3
ssg71
g3148
sg64
(lp3155
g2196
asbasbasbag57
(g73
g59
NtRp3156
(dp3157
g62
(dp3158
sg71
g3116
sg64
(lp3159
g57
(g78
g59
NtRp3160
(dp3161
g62
(dp3162
sg71
g3156
sg64
(lp3163
g57
(g58
g59
NtRp3164
(dp3165
g62
(dp3166
g70
I3
ssg71
g3160
sg64
(lp3167
g2209
asbasbasbag57
(g73
g59
NtRp3168
(dp3169
g62
(dp3170
sg71
g3116
sg64
(lp3171
g57
(g78
g59
NtRp3172
(dp3173
g62
(dp3174
sg71
g3168
sg64
(lp3175
g57
(g58
g59
NtRp3176
(dp3177
g62
(dp3178
g70
I3
ssg71
g3172
sg64
(lp3179
g2222
asbasbasbasbasbasbasbag57
(g73
g59
NtRp3180
(dp3181
g62
(dp3182
sg71
g2905
sg64
(lp3183
g57
(g78
g59
NtRp3184
(dp3185
g62
(dp3186
g82
g83
ssg71
g3180
sg64
(lp3187
g2491
asbag57
(g78
g59
NtRp3188
(dp3189
g62
(dp3190
g89
g90
ssg71
g3180
sg64
(lp3191
S':'
asbag57
(g78
g59
NtRp3192
(dp3193
g62
(dp3194
sg71
g3180
sg64
(lp3195
g57
(g58
g59
NtRp3196
(dp3197
g62
(dp3198
g70
I4
ssg71
g3192
sg64
(lp3199
g57
(g66
g59
NtRp3200
(dp3201
g62
(dp3202
g70
I3
ssg71
Nsg64
(lp3203
g57
(g73
g59
NtRp3204
(dp3205
g62
(dp3206
sg71
g3200
sg64
(lp3207
g57
(g78
g59
NtRp3208
(dp3209
g62
(dp3210
sg71
g3204
sg64
(lp3211
g57
(g58
g59
NtRp3212
(dp3213
g62
(dp3214
g70
I3
ssg71
g3208
sg64
(lp3215
S'2'
asbasbasbag57
(g73
g59
NtRp3216
(dp3217
g62
(dp3218
sg71
g3200
sg64
(lp3219
g57
(g78
g59
NtRp3220
(dp3221
g62
(dp3222
sg71
g3216
sg64
(lp3223
g57
(g58
g59
NtRp3224
(dp3225
g62
(dp3226
g70
I3
ssg71
g3220
sg64
(lp3227
S'2'
asbasbasbag57
(g73
g59
NtRp3228
(dp3229
g62
(dp3230
sg71
g3200
sg64
(lp3231
g57
(g78
g59
NtRp3232
(dp3233
g62
(dp3234
sg71
g3228
sg64
(lp3235
g57
(g58
g59
NtRp3236
(dp3237
g62
(dp3238
g70
I3
ssg71
g3232
sg64
(lp3239
S'1'
asbasbasbag57
(g73
g59
NtRp3240
(dp3241
g62
(dp3242
sg71
g3200
sg64
(lp3243
g57
(g78
g59
NtRp3244
(dp3245
g62
(dp3246
sg71
g3240
sg64
(lp3247
g57
(g58
g59
NtRp3248
(dp3249
g62
(dp3250
g70
I3
ssg71
g3244
sg64
(lp3251
S'datetime.datetime(2012, 10, 21, 16, 57, 4)'
p3252
asbasbasbag57
(g73
g59
NtRp3253
(dp3254
g62
(dp3255
sg71
g3200
sg64
(lp3256
g57
(g78
g59
NtRp3257
(dp3258
g62
(dp3259
sg71
g3253
sg64
(lp3260
g57
(g58
g59
NtRp3261
(dp3262
g62
(dp3263
g70
I3
ssg71
g3257
sg64
(lp3264
g2569
asbasbasbasbasbasbasbasbasbasbasbag57
(g73
g59
NtRp3265
(dp3266
g62
(dp3267
sg71
g67
sg64
(lp3268
g57
(g78
g59
NtRp3269
(dp3270
g62
(dp3271
g82
g83
ssg71
g3265
sg64
(lp3272
S'is_https'
p3273
asbag57
(g78
g59
NtRp3274
(dp3275
g62
(dp3276
g89
g90
ssg71
g3265
sg64
(lp3277
S':'
asbag57
(g78
g59
NtRp3278
(dp3279
g62
(dp3280
sg71
g3265
sg64
(lp3281
g57
(g58
g59
NtRp3282
(dp3283
g62
(dp3284
g70
I5
ssg71
g3278
sg64
(lp3285
g100
asbasbasbag57
(g73
g59
NtRp3286
(dp3287
g62
(dp3288
sg71
g67
sg64
(lp3289
g57
(g78
g59
NtRp3290
(dp3291
g62
(dp3292
g82
g83
ssg71
g3286
sg64
(lp3293
S'is_local'
p3294
asbag57
(g78
g59
NtRp3295
(dp3296
g62
(dp3297
g89
g90
ssg71
g3286
sg64
(lp3298
S':'
asbag57
(g78
g59
NtRp3299
(dp3300
g62
(dp3301
sg71
g3286
sg64
(lp3302
g57
(g58
g59
NtRp3303
(dp3304
g62
(dp3305
g70
I5
ssg71
g3299
sg64
(lp3306
g2678
asbasbasbag57
(g73
g59
NtRp3307
(dp3308
g62
(dp3309
sg71
g67
sg64
(lp3310
g57
(g78
g59
NtRp3311
(dp3312
g62
(dp3313
g82
g83
ssg71
g3307
sg64
(lp3314
S'is_restful'
p3315
asbag57
(g78
g59
NtRp3316
(dp3317
g62
(dp3318
g89
g90
ssg71
g3307
sg64
(lp3319
S':'
asbag57
(g78
g59
NtRp3320
(dp3321
g62
(dp3322
sg71
g3307
sg64
(lp3323
g57
(g58
g59
NtRp3324
(dp3325
g62
(dp3326
g70
I5
ssg71
g3320
sg64
(lp3327
g100
asbasbasbag57
(g73
g59
NtRp3328
(dp3329
g62
(dp3330
sg71
g67
sg64
(lp3331
g57
(g78
g59
NtRp3332
(dp3333
g62
(dp3334
g82
g83
ssg71
g3328
sg64
(lp3335
S'now'
p3336
asbag57
(g78
g59
NtRp3337
(dp3338
g62
(dp3339
g89
g90
ssg71
g3328
sg64
(lp3340
S':'
asbag57
(g78
g59
NtRp3341
(dp3342
g62
(dp3343
sg71
g3328
sg64
(lp3344
g57
(g58
g59
NtRp3345
(dp3346
g62
(dp3347
g70
I5
ssg71
g3341
sg64
(lp3348
S'datetime.datetime(2012, 11, 12, 22, 16, 49, 714063)'
p3349
asbasbasbag57
(g73
g59
NtRp3350
(dp3351
g62
(dp3352
sg71
g67
sg64
(lp3353
g57
(g78
g59
NtRp3354
(dp3355
g62
(dp3356
g82
g83
ssg71
g3350
sg64
(lp3357
S'post_vars'
p3358
asbag57
(g78
g59
NtRp3359
(dp3360
g62
(dp3361
g89
g90
ssg71
g3350
sg64
(lp3362
S':'
asbag57
(g78
g59
NtRp3363
(dp3364
g62
(dp3365
sg71
g3350
sg64
(lp3366
g57
(g58
g59
NtRp3367
(dp3368
g62
(dp3369
g70
I5
ssg71
g3363
sg64
(lp3370
g57
(g66
g59
NtRp3371
(dp3372
g62
(dp3373
g70
I4
ssg71
Nsg64
(lp3374
sbasbasbasbag57
(g73
g59
NtRp3375
(dp3376
g62
(dp3377
sg71
g67
sg64
(lp3378
g57
(g78
g59
NtRp3379
(dp3380
g62
(dp3381
g82
g83
ssg71
g3375
sg64
(lp3382
S'raw_args'
p3383
asbag57
(g78
g59
NtRp3384
(dp3385
g62
(dp3386
g89
g90
ssg71
g3375
sg64
(lp3387
S':'
asbag57
(g78
g59
NtRp3388
(dp3389
g62
(dp3390
sg71
g3375
sg64
(lp3391
g57
(g58
g59
NtRp3392
(dp3393
g62
(dp3394
g70
I5
ssg71
g3388
sg64
(lp3395
S''
asbasbasbag57
(g73
g59
NtRp3396
(dp3397
g62
(dp3398
sg71
g67
sg64
(lp3399
g57
(g78
g59
NtRp3400
(dp3401
g62
(dp3402
g82
g83
ssg71
g3396
sg64
(lp3403
S'raw_extension'
p3404
asbag57
(g78
g59
NtRp3405
(dp3406
g62
(dp3407
g89
g90
ssg71
g3396
sg64
(lp3408
S':'
asbag57
(g78
g59
NtRp3409
(dp3410
g62
(dp3411
sg71
g3396
sg64
(lp3412
g57
(g58
g59
NtRp3413
(dp3414
g62
(dp3415
g70
I5
ssg71
g3409
sg64
(lp3416
S'None'
p3417
asbasbasbag57
(g73
g59
NtRp3418
(dp3419
g62
(dp3420
sg71
g67
sg64
(lp3421
g57
(g78
g59
NtRp3422
(dp3423
g62
(dp3424
g82
g83
ssg71
g3418
sg64
(lp3425
S'url'
p3426
asbag57
(g78
g59
NtRp3427
(dp3428
g62
(dp3429
g89
g90
ssg71
g3418
sg64
(lp3430
S':'
asbag57
(g78
g59
NtRp3431
(dp3432
g62
(dp3433
sg71
g3418
sg64
(lp3434
g57
(g58
g59
NtRp3435
(dp3436
g62
(dp3437
g70
I5
ssg71
g3431
sg64
(lp3438
g2244
asbasbasbag57
(g73
g59
NtRp3439
(dp3440
g62
(dp3441
sg71
g67
sg64
(lp3442
g57
(g78
g59
NtRp3443
(dp3444
g62
(dp3445
g82
g83
ssg71
g3439
sg64
(lp3446
S'utcnow'
p3447
asbag57
(g78
g59
NtRp3448
(dp3449
g62
(dp3450
g89
g90
ssg71
g3439
sg64
(lp3451
S':'
asbag57
(g78
g59
NtRp3452
(dp3453
g62
(dp3454
sg71
g3439
sg64
(lp3455
g57
(g58
g59
NtRp3456
(dp3457
g62
(dp3458
g70
I5
ssg71
g3452
sg64
(lp3459
S'datetime.datetime(2012, 11, 12, 16, 46, 49, 714119)'
p3460
asbasbasbag57
(g73
g59
NtRp3461
(dp3462
g62
(dp3463
sg71
g67
sg64
(lp3464
g57
(g78
g59
NtRp3465
(dp3466
g62
(dp3467
g82
g83
ssg71
g3461
sg64
(lp3468
S'uuid'
p3469
asbag57
(g78
g59
NtRp3470
(dp3471
g62
(dp3472
g89
g90
ssg71
g3461
sg64
(lp3473
S':'
asbag57
(g78
g59
NtRp3474
(dp3475
g62
(dp3476
sg71
g3461
sg64
(lp3477
g57
(g58
g59
NtRp3478
(dp3479
g62
(dp3480
g70
I5
ssg71
g3474
sg64
(lp3481
S'sss/127.0.0.1.2012-11-12.22-16-49.3435889c-6fa9-42fe-bf45-9801d4949c70'
p3482
asbasbasbag57
(g73
g59
NtRp3483
(dp3484
g62
(dp3485
sg71
g67
sg64
(lp3486
g57
(g78
g59
NtRp3487
(dp3488
g62
(dp3489
g82
g83
ssg71
g3483
sg64
(lp3490
S'vars'
p3491
asbag57
(g78
g59
NtRp3492
(dp3493
g62
(dp3494
g89
g90
ssg71
g3483
sg64
(lp3495
S':'
asbag57
(g78
g59
NtRp3496
(dp3497
g62
(dp3498
sg71
g3483
sg64
(lp3499
g57
(g58
g59
NtRp3500
(dp3501
g62
(dp3502
g70
I5
ssg71
g3496
sg64
(lp3503
g57
(g66
g59
NtRp3504
(dp3505
g62
(dp3506
g70
I4
ssg71
Nsg64
(lp3507
g57
(g73
g59
NtRp3508
(dp3509
g62
(dp3510
sg71
g3504
sg64
(lp3511
g57
(g78
g59
NtRp3512
(dp3513
g62
(dp3514
g82
g83
ssg71
g3508
sg64
(lp3515
g2870
asbag57
(g78
g59
NtRp3516
(dp3517
g62
(dp3518
g89
g90
ssg71
g3508
sg64
(lp3519
S':'
asbag57
(g78
g59
NtRp3520
(dp3521
g62
(dp3522
sg71
g3508
sg64
(lp3523
g57
(g58
g59
NtRp3524
(dp3525
g62
(dp3526
g70
I4
ssg71
g3520
sg64
(lp3527
g2883
asbasbasbasbasbasbasbag57
(g73
g59
NtRp3528
(dp3529
g62
(dp3530
sg71
g67
sg64
(lp3531
g57
(g78
g59
NtRp3532
(dp3533
g62
(dp3534
g82
g83
ssg71
g3528
sg64
(lp3535
S'wsgi'
p3536
asbag57
(g78
g59
NtRp3537
(dp3538
g62
(dp3539
g89
g90
ssg71
g3528
sg64
(lp3540
S':'
asbag57
(g78
g59
NtRp3541
(dp3542
g62
(dp3543
sg71
g3528
sg64
(lp3544
g57
(g58
g59
NtRp3545
(dp3546
g62
(dp3547
g70
I5
ssg71
g3541
sg64
(lp3548
g57
(g66
g59
NtRp3549
(dp3550
g62
(dp3551
g70
I4
ssg71
Nsg64
(lp3552
g57
(g73
g59
NtRp3553
(dp3554
g62
(dp3555
sg71
g3549
sg64
(lp3556
g57
(g78
g59
NtRp3557
(dp3558
g62
(dp3559
g82
g83
ssg71
g3553
sg64
(lp3560
S'environ'
p3561
asbag57
(g78
g59
NtRp3562
(dp3563
g62
(dp3564
g89
g90
ssg71
g3553
sg64
(lp3565
S':'
asbag57
(g78
g59
NtRp3566
(dp3567
g62
(dp3568
sg71
g3553
sg64
(lp3569
g57
(g58
g59
NtRp3570
(dp3571
g62
(dp3572
g70
I4
ssg71
g3566
sg64
(lp3573
g57
(g66
g59
NtRp3574
(dp3575
g62
(dp3576
g70
I3
ssg71
Nsg64
(lp3577
g57
(g73
g59
NtRp3578
(dp3579
g62
(dp3580
sg71
g3574
sg64
(lp3581
g57
(g78
g59
NtRp3582
(dp3583
g62
(dp3584
g82
g83
ssg71
g3578
sg64
(lp3585
S'HTTP_ACCEPT'
p3586
asbag57
(g78
g59
NtRp3587
(dp3588
g62
(dp3589
g89
g90
ssg71
g3578
sg64
(lp3590
S':'
asbag57
(g78
g59
NtRp3591
(dp3592
g62
(dp3593
sg71
g3578
sg64
(lp3594
g57
(g58
g59
NtRp3595
(dp3596
g62
(dp3597
g70
I3
ssg71
g3591
sg64
(lp3598
g1958
asbasbasbag57
(g73
g59
NtRp3599
(dp3600
g62
(dp3601
sg71
g3574
sg64
(lp3602
g57
(g78
g59
NtRp3603
(dp3604
g62
(dp3605
g82
g83
ssg71
g3599
sg64
(lp3606
S'HTTP_ACCEPT_ENCODING'
p3607
asbag57
(g78
g59
NtRp3608
(dp3609
g62
(dp3610
g89
g90
ssg71
g3599
sg64
(lp3611
S':'
asbag57
(g78
g59
NtRp3612
(dp3613
g62
(dp3614
sg71
g3599
sg64
(lp3615
g57
(g58
g59
NtRp3616
(dp3617
g62
(dp3618
g70
I3
ssg71
g3612
sg64
(lp3619
g1980
asbasbasbag57
(g73
g59
NtRp3620
(dp3621
g62
(dp3622
sg71
g3574
sg64
(lp3623
g57
(g78
g59
NtRp3624
(dp3625
g62
(dp3626
g82
g83
ssg71
g3620
sg64
(lp3627
S'HTTP_ACCEPT_LANGUAGE'
p3628
asbag57
(g78
g59
NtRp3629
(dp3630
g62
(dp3631
g89
g90
ssg71
g3620
sg64
(lp3632
S':'
asbag57
(g78
g59
NtRp3633
(dp3634
g62
(dp3635
sg71
g3620
sg64
(lp3636
g57
(g58
g59
NtRp3637
(dp3638
g62
(dp3639
g70
I3
ssg71
g3633
sg64
(lp3640
g2002
asbasbasbag57
(g73
g59
NtRp3641
(dp3642
g62
(dp3643
sg71
g3574
sg64
(lp3644
g57
(g78
g59
NtRp3645
(dp3646
g62
(dp3647
g82
g83
ssg71
g3641
sg64
(lp3648
S'HTTP_CONNECTION'
p3649
asbag57
(g78
g59
NtRp3650
(dp3651
g62
(dp3652
g89
g90
ssg71
g3641
sg64
(lp3653
S':'
asbag57
(g78
g59
NtRp3654
(dp3655
g62
(dp3656
sg71
g3641
sg64
(lp3657
g57
(g58
g59
NtRp3658
(dp3659
g62
(dp3660
g70
I3
ssg71
g3654
sg64
(lp3661
g2024
asbasbasbag57
(g73
g59
NtRp3662
(dp3663
g62
(dp3664
sg71
g3574
sg64
(lp3665
g57
(g78
g59
NtRp3666
(dp3667
g62
(dp3668
g82
g83
ssg71
g3662
sg64
(lp3669
S'HTTP_COOKIE'
p3670
asbag57
(g78
g59
NtRp3671
(dp3672
g62
(dp3673
g89
g90
ssg71
g3662
sg64
(lp3674
S':'
asbag57
(g78
g59
NtRp3675
(dp3676
g62
(dp3677
sg71
g3662
sg64
(lp3678
g57
(g58
g59
NtRp3679
(dp3680
g62
(dp3681
g70
I3
ssg71
g3675
sg64
(lp3682
g2046
asbasbasbag57
(g73
g59
NtRp3683
(dp3684
g62
(dp3685
sg71
g3574
sg64
(lp3686
g57
(g78
g59
NtRp3687
(dp3688
g62
(dp3689
g82
g83
ssg71
g3683
sg64
(lp3690
S'HTTP_HOST'
p3691
asbag57
(g78
g59
NtRp3692
(dp3693
g62
(dp3694
g89
g90
ssg71
g3683
sg64
(lp3695
S':'
asbag57
(g78
g59
NtRp3696
(dp3697
g62
(dp3698
sg71
g3683
sg64
(lp3699
g57
(g58
g59
NtRp3700
(dp3701
g62
(dp3702
g70
I3
ssg71
g3696
sg64
(lp3703
g2068
asbasbasbag57
(g73
g59
NtRp3704
(dp3705
g62
(dp3706
sg71
g3574
sg64
(lp3707
g57
(g78
g59
NtRp3708
(dp3709
g62
(dp3710
g82
g83
ssg71
g3704
sg64
(lp3711
S'HTTP_USER_AGENT'
p3712
asbag57
(g78
g59
NtRp3713
(dp3714
g62
(dp3715
g89
g90
ssg71
g3704
sg64
(lp3716
S':'
asbag57
(g78
g59
NtRp3717
(dp3718
g62
(dp3719
sg71
g3704
sg64
(lp3720
g57
(g58
g59
NtRp3721
(dp3722
g62
(dp3723
g70
I3
ssg71
g3717
sg64
(lp3724
g2090
asbasbasbag57
(g73
g59
NtRp3725
(dp3726
g62
(dp3727
sg71
g3574
sg64
(lp3728
g57
(g78
g59
NtRp3729
(dp3730
g62
(dp3731
g82
g83
ssg71
g3725
sg64
(lp3732
S'PATH_INFO'
p3733
asbag57
(g78
g59
NtRp3734
(dp3735
g62
(dp3736
g89
g90
ssg71
g3725
sg64
(lp3737
S':'
asbag57
(g78
g59
NtRp3738
(dp3739
g62
(dp3740
sg71
g3725
sg64
(lp3741
g57
(g58
g59
NtRp3742
(dp3743
g62
(dp3744
g70
I3
ssg71
g3738
sg64
(lp3745
g2244
asbasbasbag57
(g73
g59
NtRp3746
(dp3747
g62
(dp3748
sg71
g3574
sg64
(lp3749
g57
(g78
g59
NtRp3750
(dp3751
g62
(dp3752
g82
g83
ssg71
g3746
sg64
(lp3753
S'QUERY_STRING'
p3754
asbag57
(g78
g59
NtRp3755
(dp3756
g62
(dp3757
g89
g90
ssg71
g3746
sg64
(lp3758
S':'
asbag57
(g78
g59
NtRp3759
(dp3760
g62
(dp3761
sg71
g3746
sg64
(lp3762
g57
(g58
g59
NtRp3763
(dp3764
g62
(dp3765
g70
I3
ssg71
g3759
sg64
(lp3766
g2266
asbasbasbag57
(g73
g59
NtRp3767
(dp3768
g62
(dp3769
sg71
g3574
sg64
(lp3770
g57
(g78
g59
NtRp3771
(dp3772
g62
(dp3773
g82
g83
ssg71
g3767
sg64
(lp3774
S'REMOTE_ADDR'
p3775
asbag57
(g78
g59
NtRp3776
(dp3777
g62
(dp3778
g89
g90
ssg71
g3767
sg64
(lp3779
S':'
asbag57
(g78
g59
NtRp3780
(dp3781
g62
(dp3782
sg71
g3767
sg64
(lp3783
g57
(g58
g59
NtRp3784
(dp3785
g62
(dp3786
g70
I3
ssg71
g3780
sg64
(lp3787
g212
asbasbasbag57
(g73
g59
NtRp3788
(dp3789
g62
(dp3790
sg71
g3574
sg64
(lp3791
g57
(g78
g59
NtRp3792
(dp3793
g62
(dp3794
g82
g83
ssg71
g3788
sg64
(lp3795
S'REMOTE_PORT'
p3796
asbag57
(g78
g59
NtRp3797
(dp3798
g62
(dp3799
g89
g90
ssg71
g3788
sg64
(lp3800
S':'
asbag57
(g78
g59
NtRp3801
(dp3802
g62
(dp3803
sg71
g3788
sg64
(lp3804
g57
(g58
g59
NtRp3805
(dp3806
g62
(dp3807
g70
I3
ssg71
g3801
sg64
(lp3808
g2309
asbasbasbag57
(g73
g59
NtRp3809
(dp3810
g62
(dp3811
sg71
g3574
sg64
(lp3812
g57
(g78
g59
NtRp3813
(dp3814
g62
(dp3815
g82
g83
ssg71
g3809
sg64
(lp3816
S'REQUEST_METHOD'
p3817
asbag57
(g78
g59
NtRp3818
(dp3819
g62
(dp3820
g89
g90
ssg71
g3809
sg64
(lp3821
S':'
asbag57
(g78
g59
NtRp3822
(dp3823
g62
(dp3824
sg71
g3809
sg64
(lp3825
g57
(g58
g59
NtRp3826
(dp3827
g62
(dp3828
g70
I3
ssg71
g3822
sg64
(lp3829
g2331
asbasbasbag57
(g73
g59
NtRp3830
(dp3831
g62
(dp3832
sg71
g3574
sg64
(lp3833
g57
(g78
g59
NtRp3834
(dp3835
g62
(dp3836
g82
g83
ssg71
g3830
sg64
(lp3837
S'REQUEST_URI'
p3838
asbag57
(g78
g59
NtRp3839
(dp3840
g62
(dp3841
g89
g90
ssg71
g3830
sg64
(lp3842
S':'
asbag57
(g78
g59
NtRp3843
(dp3844
g62
(dp3845
sg71
g3830
sg64
(lp3846
g57
(g58
g59
NtRp3847
(dp3848
g62
(dp3849
g70
I3
ssg71
g3843
sg64
(lp3850
g2353
asbasbasbag57
(g73
g59
NtRp3851
(dp3852
g62
(dp3853
sg71
g3574
sg64
(lp3854
g57
(g78
g59
NtRp3855
(dp3856
g62
(dp3857
g82
g83
ssg71
g3851
sg64
(lp3858
S'SCRIPT_NAME'
p3859
asbag57
(g78
g59
NtRp3860
(dp3861
g62
(dp3862
g89
g90
ssg71
g3851
sg64
(lp3863
S':'
asbag57
(g78
g59
NtRp3864
(dp3865
g62
(dp3866
sg71
g3851
sg64
(lp3867
g57
(g58
g59
NtRp3868
(dp3869
g62
(dp3870
g70
I3
ssg71
g3864
sg64
(lp3871
S''
asbasbasbag57
(g73
g59
NtRp3872
(dp3873
g62
(dp3874
sg71
g3574
sg64
(lp3875
g57
(g78
g59
NtRp3876
(dp3877
g62
(dp3878
g82
g83
ssg71
g3872
sg64
(lp3879
S'SERVER_NAME'
p3880
asbag57
(g78
g59
NtRp3881
(dp3882
g62
(dp3883
g89
g90
ssg71
g3872
sg64
(lp3884
S':'
asbag57
(g78
g59
NtRp3885
(dp3886
g62
(dp3887
sg71
g3872
sg64
(lp3888
g57
(g58
g59
NtRp3889
(dp3890
g62
(dp3891
g70
I3
ssg71
g3885
sg64
(lp3892
g2209
asbasbasbag57
(g73
g59
NtRp3893
(dp3894
g62
(dp3895
sg71
g3574
sg64
(lp3896
g57
(g78
g59
NtRp3897
(dp3898
g62
(dp3899
g82
g83
ssg71
g3893
sg64
(lp3900
S'SERVER_PORT'
p3901
asbag57
(g78
g59
NtRp3902
(dp3903
g62
(dp3904
g89
g90
ssg71
g3893
sg64
(lp3905
S':'
asbag57
(g78
g59
NtRp3906
(dp3907
g62
(dp3908
sg71
g3893
sg64
(lp3909
g57
(g58
g59
NtRp3910
(dp3911
g62
(dp3912
g70
I3
ssg71
g3906
sg64
(lp3913
g2417
asbasbasbag57
(g73
g59
NtRp3914
(dp3915
g62
(dp3916
sg71
g3574
sg64
(lp3917
g57
(g78
g59
NtRp3918
(dp3919
g62
(dp3920
g82
g83
ssg71
g3914
sg64
(lp3921
S'SERVER_PROTOCOL'
p3922
asbag57
(g78
g59
NtRp3923
(dp3924
g62
(dp3925
g89
g90
ssg71
g3914
sg64
(lp3926
S':'
asbag57
(g78
g59
NtRp3927
(dp3928
g62
(dp3929
sg71
g3914
sg64
(lp3930
g57
(g58
g59
NtRp3931
(dp3932
g62
(dp3933
g70
I3
ssg71
g3927
sg64
(lp3934
g2439
asbasbasbag57
(g73
g59
NtRp3935
(dp3936
g62
(dp3937
sg71
g3574
sg64
(lp3938
g57
(g78
g59
NtRp3939
(dp3940
g62
(dp3941
g82
g83
ssg71
g3935
sg64
(lp3942
S'SERVER_SOFTWARE'
p3943
asbag57
(g78
g59
NtRp3944
(dp3945
g62
(dp3946
g89
g90
ssg71
g3935
sg64
(lp3947
S':'
asbag57
(g78
g59
NtRp3948
(dp3949
g62
(dp3950
sg71
g3935
sg64
(lp3951
g57
(g58
g59
NtRp3952
(dp3953
g62
(dp3954
g70
I3
ssg71
g3948
sg64
(lp3955
g2461
asbasbasbag57
(g73
g59
NtRp3956
(dp3957
g62
(dp3958
sg71
g3574
sg64
(lp3959
g57
(g78
g59
NtRp3960
(dp3961
g62
(dp3962
g82
g83
ssg71
g3956
sg64
(lp3963
S'wsgi.errors'
p3964
asbag57
(g78
g59
NtRp3965
(dp3966
g62
(dp3967
g89
g90
ssg71
g3956
sg64
(lp3968
S':'
asbag57
(g78
g59
NtRp3969
(dp3970
g62
(dp3971
sg71
g3956
sg64
(lp3972
g57
(g58
g59
NtRp3973
(dp3974
g62
(dp3975
g70
I3
ssg71
g3969
sg64
(lp3976
S"<open file '<stderr>', mode 'w' at 0x7f680d4b4270>"
p3977
asbasbasbag57
(g73
g59
NtRp3978
(dp3979
g62
(dp3980
sg71
g3574
sg64
(lp3981
g57
(g78
g59
NtRp3982
(dp3983
g62
(dp3984
g82
g83
ssg71
g3978
sg64
(lp3985
S'wsgi.file_wrapper'
p3986
asbag57
(g78
g59
NtRp3987
(dp3988
g62
(dp3989
g89
g90
ssg71
g3978
sg64
(lp3990
S':'
asbag57
(g78
g59
NtRp3991
(dp3992
g62
(dp3993
sg71
g3978
sg64
(lp3994
g57
(g58
g59
NtRp3995
(dp3996
g62
(dp3997
g70
I3
ssg71
g3991
sg64
(lp3998
S'<class wsgiref.util.FileWrapper at 0x2476d50>'
p3999
asbasbasbag57
(g73
g59
NtRp4000
(dp4001
g62
(dp4002
sg71
g3574
sg64
(lp4003
g57
(g78
g59
NtRp4004
(dp4005
g62
(dp4006
g82
g83
ssg71
g4000
sg64
(lp4007
S'wsgi.input'
p4008
asbag57
(g78
g59
NtRp4009
(dp4010
g62
(dp4011
g89
g90
ssg71
g4000
sg64
(lp4012
S':'
asbag57
(g78
g59
NtRp4013
(dp4014
g62
(dp4015
sg71
g4000
sg64
(lp4016
g57
(g58
g59
NtRp4017
(dp4018
g62
(dp4019
g70
I3
ssg71
g4013
sg64
(lp4020
S'<cStringIO.StringO object at 0x7f67e8389810>'
p4021
asbasbasbag57
(g73
g59
NtRp4022
(dp4023
g62
(dp4024
sg71
g3574
sg64
(lp4025
g57
(g78
g59
NtRp4026
(dp4027
g62
(dp4028
g82
g83
ssg71
g4022
sg64
(lp4029
S'wsgi.multiprocess'
p4030
asbag57
(g78
g59
NtRp4031
(dp4032
g62
(dp4033
g89
g90
ssg71
g4022
sg64
(lp4034
S':'
asbag57
(g78
g59
NtRp4035
(dp4036
g62
(dp4037
sg71
g4022
sg64
(lp4038
g57
(g58
g59
NtRp4039
(dp4040
g62
(dp4041
g70
I3
ssg71
g4035
sg64
(lp4042
g100
asbasbasbag57
(g73
g59
NtRp4043
(dp4044
g62
(dp4045
sg71
g3574
sg64
(lp4046
g57
(g78
g59
NtRp4047
(dp4048
g62
(dp4049
g82
g83
ssg71
g4043
sg64
(lp4050
S'wsgi.multithread'
p4051
asbag57
(g78
g59
NtRp4052
(dp4053
g62
(dp4054
g89
g90
ssg71
g4043
sg64
(lp4055
S':'
asbag57
(g78
g59
NtRp4056
(dp4057
g62
(dp4058
sg71
g4043
sg64
(lp4059
g57
(g58
g59
NtRp4060
(dp4061
g62
(dp4062
g70
I3
ssg71
g4056
sg64
(lp4063
g2678
asbasbasbag57
(g73
g59
NtRp4064
(dp4065
g62
(dp4066
sg71
g3574
sg64
(lp4067
g57
(g78
g59
NtRp4068
(dp4069
g62
(dp4070
g82
g83
ssg71
g4064
sg64
(lp4071
S'wsgi.run_once'
p4072
asbag57
(g78
g59
NtRp4073
(dp4074
g62
(dp4075
g89
g90
ssg71
g4064
sg64
(lp4076
S':'
asbag57
(g78
g59
NtRp4077
(dp4078
g62
(dp4079
sg71
g4064
sg64
(lp4080
g57
(g58
g59
NtRp4081
(dp4082
g62
(dp4083
g70
I3
ssg71
g4077
sg64
(lp4084
g100
asbasbasbag57
(g73
g59
NtRp4085
(dp4086
g62
(dp4087
sg71
g3574
sg64
(lp4088
g57
(g78
g59
NtRp4089
(dp4090
g62
(dp4091
g82
g83
ssg71
g4085
sg64
(lp4092
S'wsgi.url_scheme'
p4093
asbag57
(g78
g59
NtRp4094
(dp4095
g62
(dp4096
g89
g90
ssg71
g4085
sg64
(lp4097
S':'
asbag57
(g78
g59
NtRp4098
(dp4099
g62
(dp4100
sg71
g4085
sg64
(lp4101
g57
(g58
g59
NtRp4102
(dp4103
g62
(dp4104
g70
I3
ssg71
g4098
sg64
(lp4105
g2721
asbasbasbag57
(g73
g59
NtRp4106
(dp4107
g62
(dp4108
sg71
g3574
sg64
(lp4109
g57
(g78
g59
NtRp4110
(dp4111
g62
(dp4112
g82
g83
ssg71
g4106
sg64
(lp4113
S'wsgi.version'
p4114
asbag57
(g78
g59
NtRp4115
(dp4116
g62
(dp4117
g89
g90
ssg71
g4106
sg64
(lp4118
S':'
asbag57
(g78
g59
NtRp4119
(dp4120
g62
(dp4121
sg71
g4106
sg64
(lp4122
g57
(g58
g59
NtRp4123
(dp4124
g62
(dp4125
g70
I3
ssg71
g4119
sg64
(lp4126
S'1'
asbasbasbasbasbasbasbasbasbasbasbasbasbsS'frames'
p4127
(lp4128
(dp4129
S'file'
p4130
S'/home/bhanu/web2py/gluon/restricted.py'
p4131
sS'dump'
p4132
(dp4133
S'environment'
p4134
S"{'A': <class 'gluon.html.A'>, 'Auth': <class 'gluon.tools.Auth'>, 'B': <class 'gluon.html.B'>, 'BEAUTIFY': <class 'gluon.html.BEAUTIFY'>, 'BODY': <class 'gluon.html.BODY'>, 'BR': <class 'gluon.html.BR'>, 'BUTTON': <class 'gluon.html.BUTTON'>, 'CAS': <Storage {'check_url': 'https://login.iiit.ac.in...url': 'http://127.0.0.1:8000/sss/default/login'}>, 'CAT': <class 'gluon.html.CAT'>, 'CENTER': <class 'gluon.html.CENTER'>, ...}"
p4135
sS'ccode'
p4136
S'<code object <module> at 0x7f67e033c630, file "/...applications/sss/controllers/default.py", line 4>'
p4137
ssS'lnum'
p4138
I212
sS'lines'
p4139
(dp4140
I207
S'    try:'
p4141
sI208
S'        if isinstance(code, types.CodeType):'
p4142
sI209
S'            ccode = code'
p4143
sI210
S'        else:'
p4144
sI211
S'            ccode = compile2(code, layer)'
p4145
sI212
S'        exec ccode in environment'
p4146
sI213
S'    except HTTP:'
p4147
sI214
S'        raise'
p4148
sI215
S'    except RestrictedError:'
p4149
sI216
S'        # do not encapsulate (obfuscate) the original RestrictedError'
p4150
ssS'call'
p4151
S"(code='# -*- coding: utf-8 -*-\\n### required - do no del...lected])\\n\\nresponse._vars=response._caller(login)\\n', environment={'A': <class 'gluon.html.A'>, 'Auth': <class 'gluon.tools.Auth'>, 'B': <class 'gluon.html.B'>, 'BEAUTIFY': <class 'gluon.html.BEAUTIFY'>, 'BODY': <class 'gluon.html.BODY'>, 'BR': <class 'gluon.html.BR'>, 'BUTTON': <class 'gluon.html.BUTTON'>, 'CAS': <Storage {'check_url': 'https://login.iiit.ac.in...url': 'http://127.0.0.1:8000/sss/default/login'}>, 'CAT': <class 'gluon.html.CAT'>, 'CENTER': <class 'gluon.html.CENTER'>, ...}, layer='/home/bhanu/web2py/applications/sss/controllers/default.py')"
p4152
sS'func'
p4153
S'restricted'
p4154
sa(dp4155
g4130
S'/home/bhanu/web2py/applications/sss/controllers/default.py'
p4156
sg4132
(dp4157
sg4138
I410
sg4139
(dp4158
I399
S'def month_selector():'
p4159
sI400
S'    if not request.vars.name:'
p4160
sI401
S"        return ''"
p4161
sI402
S"    pattern = request.vars.name.capitalize() + '%'"
p4162
sI403
S'    selected = [row.name for row in db(db.students.name.like(pattern)).select()]'
p4163
sI404
S"    return ''.join([DIV(k,"
p4164
sI405
S'                 _onclick="jQuery(\'#name\').val(\'%s\')" % k,'
p4165
sI406
S'                 _onmouseover="this.style.backgroundColor=\'yellow\'",'
p4166
sI407
S'                 _onmouseout="this.style.backgroundColor=\'white\'"'
p4167
sI408
S'                 ).xml() for k in selected])'
p4168
ssg4151
S'()'
p4169
sg4153
S'<module>'
p4170
sa(dp4171
g4130
S'/home/bhanu/web2py/gluon/globals.py'
p4172
sg4132
(dp4173
S'self'
p4174
S'undefined'
p4175
sS'f'
S'<function login>'
p4176
ssg4138
I188
sg4139
(dp4177
I192
S''
sI183
S'        self.menu = []             # used by the default view layout'
p4178
sI184
S'        self.files = []            # used by web2py_ajax.html'
p4179
sI185
S'        self.generic_patterns = []  # patterns to allow generic views'
p4180
sI186
S"        self.delimiters = ('{{', '}}')"
p4181
sI187
S'        self._vars = None'
p4182
sI188
S'        self._caller = lambda f: f()'
p4183
sI189
S'        self._view_environment = None'
p4184
sI190
S'        self._custom_commit = None'
p4185
sI191
S'        self._custom_rollback = None'
p4186
ssg4151
S'(f=<function login>)'
p4187
sg4153
S'<lambda>'
p4188
sa(dp4189
g4130
S'/home/bhanu/web2py/applications/sss/controllers/default.py'
p4190
sg4132
(dp4191
S'session.name'
p4192
S'None'
p4193
sS'global session'
p4194
S"<Storage {'_formkey[complaint/create]': 'a65a859...login]': '82a359b5-dd93-4f39-8e95-e55b31c22e34'}>"
p4195
sS'name'
p4196
S'<Rows (0)>'
p4197
sS'].name'
p4198
g4175
ssg4138
I23
sg4139
(dp4199
I18
S''
sI19
S'def login():'
p4200
sI20
S'    session.login = 0'
p4201
sI21
S'    session.token = CAS.login(request)'
p4202
sI22
S'    name=db(db.students.email==str(session.token)).select(db.students.ALL);'
p4203
sI23
S'    session.name=name[0].name'
p4204
sI24
S'    session.roll_no=name[0].roll_no'
p4205
sI25
S'    session.student_email = session.token'
p4206
sI26
S"    redirect(URL(r=request, f='index'))"
p4207
sI27
S'    return dict()'
p4208
ssg4151
S'()'
p4209
sg4153
S'login'
p4210
sa(dp4211
g4130
S'/home/bhanu/web2py/gluon/dal.py'
p4212
sg4132
(dp4213
S'i'
S'0'
sS'self'
p4214
S'<Rows (0)>'
p4215
sS'self.records'
p4216
S'[]'
p4217
sS'row'
p4218
g4175
ssg4138
I9051
sg4139
(dp4219
I9046
S''
sI9047
S'    def __getslice__(self, a, b):'
p4220
sI9048
S'        return Rows(self.db,self.records[a:b],self.colnames)'
p4221
sI9049
S''
sI9050
S'    def __getitem__(self, i):'
p4222
sI9051
S'        row = self.records[i]'
p4223
sI9052
S'        keys = row.keys()'
p4224
sI9053
S"        if self.compact and len(keys) == 1 and keys[0] != '_extra':"
p4225
sI9054
S'            return row[row.keys()[0]]'
p4226
sI9055
S'        return row'
p4227
ssg4151
S'(self=<Rows (0)>, i=0)'
p4228
sg4153
g20
sasS'pyver'
p4229
S'Python 2.7.3: /usr/bin/python'
p4230
sS'session'
p4231
g57
(g58
g59
NtRp4232
(dp4233
g62
(dp4234
sg64
(lp4235
g57
(g66
g59
NtRp4236
(dp4237
g62
(dp4238
g70
I5
ssg71
Nsg64
(lp4239
g57
(g73
g59
NtRp4240
(dp4241
g62
(dp4242
sg71
g4236
sg64
(lp4243
g57
(g78
g59
NtRp4244
(dp4245
g62
(dp4246
g82
g83
ssg71
g4240
sg64
(lp4247
S'auth'
p4248
asbag57
(g78
g59
NtRp4249
(dp4250
g62
(dp4251
g89
g90
ssg71
g4240
sg64
(lp4252
S':'
asbag57
(g78
g59
NtRp4253
(dp4254
g62
(dp4255
sg71
g4240
sg64
(lp4256
g57
(g58
g59
NtRp4257
(dp4258
g62
(dp4259
g70
I5
ssg71
g4253
sg64
(lp4260
g57
(g66
g59
NtRp4261
(dp4262
g62
(dp4263
g70
I4
ssg71
Nsg64
(lp4264
g57
(g73
g59
NtRp4265
(dp4266
g62
(dp4267
sg71
g4261
sg64
(lp4268
g57
(g78
g59
NtRp4269
(dp4270
g62
(dp4271
g82
g83
ssg71
g4265
sg64
(lp4272
S'expiration'
p4273
asbag57
(g78
g59
NtRp4274
(dp4275
g62
(dp4276
g89
g90
ssg71
g4265
sg64
(lp4277
S':'
asbag57
(g78
g59
NtRp4278
(dp4279
g62
(dp4280
sg71
g4265
sg64
(lp4281
g57
(g58
g59
NtRp4282
(dp4283
g62
(dp4284
g70
I4
ssg71
g4278
sg64
(lp4285
S'3600'
p4286
asbasbasbag57
(g73
g59
NtRp4287
(dp4288
g62
(dp4289
sg71
g4261
sg64
(lp4290
g57
(g78
g59
NtRp4291
(dp4292
g62
(dp4293
g82
g83
ssg71
g4287
sg64
(lp4294
S'hmac_key'
p4295
asbag57
(g78
g59
NtRp4296
(dp4297
g62
(dp4298
g89
g90
ssg71
g4287
sg64
(lp4299
S':'
asbag57
(g78
g59
NtRp4300
(dp4301
g62
(dp4302
sg71
g4287
sg64
(lp4303
g57
(g58
g59
NtRp4304
(dp4305
g62
(dp4306
g70
I4
ssg71
g4300
sg64
(lp4307
S'99940ede-f44d-4c10-99ca-eabca514c97f'
p4308
asbasbasbag57
(g73
g59
NtRp4309
(dp4310
g62
(dp4311
sg71
g4261
sg64
(lp4312
g57
(g78
g59
NtRp4313
(dp4314
g62
(dp4315
g82
g83
ssg71
g4309
sg64
(lp4316
S'last_visit'
p4317
asbag57
(g78
g59
NtRp4318
(dp4319
g62
(dp4320
g89
g90
ssg71
g4309
sg64
(lp4321
S':'
asbag57
(g78
g59
NtRp4322
(dp4323
g62
(dp4324
sg71
g4309
sg64
(lp4325
g57
(g58
g59
NtRp4326
(dp4327
g62
(dp4328
g70
I4
ssg71
g4322
sg64
(lp4329
S'datetime.datetime(2012, 11, 12, 22, 15, 10, 579227)'
p4330
asbasbasbag57
(g73
g59
NtRp4331
(dp4332
g62
(dp4333
sg71
g4261
sg64
(lp4334
g57
(g78
g59
NtRp4335
(dp4336
g62
(dp4337
g82
g83
ssg71
g4331
sg64
(lp4338
S'remember'
p4339
asbag57
(g78
g59
NtRp4340
(dp4341
g62
(dp4342
g89
g90
ssg71
g4331
sg64
(lp4343
S':'
asbag57
(g78
g59
NtRp4344
(dp4345
g62
(dp4346
sg71
g4331
sg64
(lp4347
g57
(g58
g59
NtRp4348
(dp4349
g62
(dp4350
g70
I4
ssg71
g4344
sg64
(lp4351
g100
asbasbasbag57
(g73
g59
NtRp4352
(dp4353
g62
(dp4354
sg71
g4261
sg64
(lp4355
g57
(g78
g59
NtRp4356
(dp4357
g62
(dp4358
g82
g83
ssg71
g4352
sg64
(lp4359
S'user'
p4360
asbag57
(g78
g59
NtRp4361
(dp4362
g62
(dp4363
g89
g90
ssg71
g4352
sg64
(lp4364
S':'
asbag57
(g78
g59
NtRp4365
(dp4366
g62
(dp4367
sg71
g4352
sg64
(lp4368
g57
(g58
g59
NtRp4369
(dp4370
g62
(dp4371
g70
I4
ssg71
g4365
sg64
(lp4372
g57
(g66
g59
NtRp4373
(dp4374
g62
(dp4375
g70
I3
ssg71
Nsg64
(lp4376
g57
(g73
g59
NtRp4377
(dp4378
g62
(dp4379
sg71
g4373
sg64
(lp4380
g57
(g78
g59
NtRp4381
(dp4382
g62
(dp4383
g82
g83
ssg71
g4377
sg64
(lp4384
S'created_on'
p4385
asbag57
(g78
g59
NtRp4386
(dp4387
g62
(dp4388
g89
g90
ssg71
g4377
sg64
(lp4389
S':'
asbag57
(g78
g59
NtRp4390
(dp4391
g62
(dp4392
sg71
g4377
sg64
(lp4393
g57
(g58
g59
NtRp4394
(dp4395
g62
(dp4396
g70
I3
ssg71
g4390
sg64
(lp4397
S'datetime.datetime(2012, 10, 14, 19, 25, 18)'
p4398
asbasbasbag57
(g73
g59
NtRp4399
(dp4400
g62
(dp4401
sg71
g4373
sg64
(lp4402
g57
(g78
g59
NtRp4403
(dp4404
g62
(dp4405
g82
g83
ssg71
g4399
sg64
(lp4406
S'email'
p4407
asbag57
(g78
g59
NtRp4408
(dp4409
g62
(dp4410
g89
g90
ssg71
g4399
sg64
(lp4411
S':'
asbag57
(g78
g59
NtRp4412
(dp4413
g62
(dp4414
sg71
g4399
sg64
(lp4415
g57
(g58
g59
NtRp4416
(dp4417
g62
(dp4418
g70
I3
ssg71
g4412
sg64
(lp4419
S'student@s.com'
p4420
asbasbasbag57
(g73
g59
NtRp4421
(dp4422
g62
(dp4423
sg71
g4373
sg64
(lp4424
g57
(g78
g59
NtRp4425
(dp4426
g62
(dp4427
g82
g83
ssg71
g4421
sg64
(lp4428
S'first_name'
p4429
asbag57
(g78
g59
NtRp4430
(dp4431
g62
(dp4432
g89
g90
ssg71
g4421
sg64
(lp4433
S':'
asbag57
(g78
g59
NtRp4434
(dp4435
g62
(dp4436
sg71
g4421
sg64
(lp4437
g57
(g58
g59
NtRp4438
(dp4439
g62
(dp4440
g70
I3
ssg71
g4434
sg64
(lp4441
S'normal'
p4442
asbasbasbag57
(g73
g59
NtRp4443
(dp4444
g62
(dp4445
sg71
g4373
sg64
(lp4446
g57
(g78
g59
NtRp4447
(dp4448
g62
(dp4449
g82
g83
ssg71
g4443
sg64
(lp4450
S'id'
p4451
asbag57
(g78
g59
NtRp4452
(dp4453
g62
(dp4454
g89
g90
ssg71
g4443
sg64
(lp4455
S':'
asbag57
(g78
g59
NtRp4456
(dp4457
g62
(dp4458
sg71
g4443
sg64
(lp4459
g57
(g58
g59
NtRp4460
(dp4461
g62
(dp4462
g70
I3
ssg71
g4456
sg64
(lp4463
S'15'
p4464
asbasbasbag57
(g73
g59
NtRp4465
(dp4466
g62
(dp4467
sg71
g4373
sg64
(lp4468
g57
(g78
g59
NtRp4469
(dp4470
g62
(dp4471
g82
g83
ssg71
g4465
sg64
(lp4472
S'last_name'
p4473
asbag57
(g78
g59
NtRp4474
(dp4475
g62
(dp4476
g89
g90
ssg71
g4465
sg64
(lp4477
S':'
asbag57
(g78
g59
NtRp4478
(dp4479
g62
(dp4480
sg71
g4465
sg64
(lp4481
g57
(g58
g59
NtRp4482
(dp4483
g62
(dp4484
g70
I3
ssg71
g4478
sg64
(lp4485
S'user'
p4486
asbasbasbag57
(g73
g59
NtRp4487
(dp4488
g62
(dp4489
sg71
g4373
sg64
(lp4490
g57
(g78
g59
NtRp4491
(dp4492
g62
(dp4493
g82
g83
ssg71
g4487
sg64
(lp4494
S'modified_on'
p4495
asbag57
(g78
g59
NtRp4496
(dp4497
g62
(dp4498
g89
g90
ssg71
g4487
sg64
(lp4499
S':'
asbag57
(g78
g59
NtRp4500
(dp4501
g62
(dp4502
sg71
g4487
sg64
(lp4503
g57
(g58
g59
NtRp4504
(dp4505
g62
(dp4506
g70
I3
ssg71
g4500
sg64
(lp4507
S'datetime.datetime(2012, 10, 14, 19, 25, 18)'
p4508
asbasbasbag57
(g73
g59
NtRp4509
(dp4510
g62
(dp4511
sg71
g4373
sg64
(lp4512
g57
(g78
g59
NtRp4513
(dp4514
g62
(dp4515
g82
g83
ssg71
g4509
sg64
(lp4516
S'registration_id'
p4517
asbag57
(g78
g59
NtRp4518
(dp4519
g62
(dp4520
g89
g90
ssg71
g4509
sg64
(lp4521
S':'
asbag57
(g78
g59
NtRp4522
(dp4523
g62
(dp4524
sg71
g4509
sg64
(lp4525
g57
(g58
g59
NtRp4526
(dp4527
g62
(dp4528
g70
I3
ssg71
g4522
sg64
(lp4529
S''
asbasbasbag57
(g73
g59
NtRp4530
(dp4531
g62
(dp4532
sg71
g4373
sg64
(lp4533
g57
(g78
g59
NtRp4534
(dp4535
g62
(dp4536
g82
g83
ssg71
g4530
sg64
(lp4537
S'registration_key'
p4538
asbag57
(g78
g59
NtRp4539
(dp4540
g62
(dp4541
g89
g90
ssg71
g4530
sg64
(lp4542
S':'
asbag57
(g78
g59
NtRp4543
(dp4544
g62
(dp4545
sg71
g4530
sg64
(lp4546
g57
(g58
g59
NtRp4547
(dp4548
g62
(dp4549
g70
I3
ssg71
g4543
sg64
(lp4550
S''
asbasbasbag57
(g73
g59
NtRp4551
(dp4552
g62
(dp4553
sg71
g4373
sg64
(lp4554
g57
(g78
g59
NtRp4555
(dp4556
g62
(dp4557
g82
g83
ssg71
g4551
sg64
(lp4558
S'reset_password_key'
p4559
asbag57
(g78
g59
NtRp4560
(dp4561
g62
(dp4562
g89
g90
ssg71
g4551
sg64
(lp4563
S':'
asbag57
(g78
g59
NtRp4564
(dp4565
g62
(dp4566
sg71
g4551
sg64
(lp4567
g57
(g58
g59
NtRp4568
(dp4569
g62
(dp4570
g70
I3
ssg71
g4564
sg64
(lp4571
S''
asbasbasbag57
(g73
g59
NtRp4572
(dp4573
g62
(dp4574
sg71
g4373
sg64
(lp4575
g57
(g78
g59
NtRp4576
(dp4577
g62
(dp4578
g82
g83
ssg71
g4572
sg64
(lp4579
S'username'
p4580
asbag57
(g78
g59
NtRp4581
(dp4582
g62
(dp4583
g89
g90
ssg71
g4572
sg64
(lp4584
S':'
asbag57
(g78
g59
NtRp4585
(dp4586
g62
(dp4587
sg71
g4572
sg64
(lp4588
g57
(g58
g59
NtRp4589
(dp4590
g62
(dp4591
g70
I3
ssg71
g4585
sg64
(lp4592
S'Student'
p4593
asbasbasbasbasbasbasbag57
(g73
g59
NtRp4594
(dp4595
g62
(dp4596
sg71
g4261
sg64
(lp4597
g57
(g78
g59
NtRp4598
(dp4599
g62
(dp4600
g82
g83
ssg71
g4594
sg64
(lp4601
S'user_groups'
p4602
asbag57
(g78
g59
NtRp4603
(dp4604
g62
(dp4605
g89
g90
ssg71
g4594
sg64
(lp4606
S':'
asbag57
(g78
g59
NtRp4607
(dp4608
g62
(dp4609
sg71
g4594
sg64
(lp4610
g57
(g58
g59
NtRp4611
(dp4612
g62
(dp4613
g70
I4
ssg71
g4607
sg64
(lp4614
g57
(g66
g59
NtRp4615
(dp4616
g62
(dp4617
g70
I3
ssg71
Nsg64
(lp4618
g57
(g73
g59
NtRp4619
(dp4620
g62
(dp4621
sg71
g4615
sg64
(lp4622
g57
(g78
g59
NtRp4623
(dp4624
g62
(dp4625
g82
g83
ssg71
g4619
sg64
(lp4626
S'5'
asbag57
(g78
g59
NtRp4627
(dp4628
g62
(dp4629
g89
g90
ssg71
g4619
sg64
(lp4630
S':'
asbag57
(g78
g59
NtRp4631
(dp4632
g62
(dp4633
sg71
g4619
sg64
(lp4634
g57
(g58
g59
NtRp4635
(dp4636
g62
(dp4637
g70
I3
ssg71
g4631
sg64
(lp4638
S'students'
p4639
asbasbasbasbasbasbasbasbasbasbasbag57
(g73
g59
NtRp4640
(dp4641
g62
(dp4642
sg71
g4236
sg64
(lp4643
g57
(g78
g59
NtRp4644
(dp4645
g62
(dp4646
g82
g83
ssg71
g4640
sg64
(lp4647
S'flash'
p4648
asbag57
(g78
g59
NtRp4649
(dp4650
g62
(dp4651
g89
g90
ssg71
g4640
sg64
(lp4652
S':'
asbag57
(g78
g59
NtRp4653
(dp4654
g62
(dp4655
sg71
g4640
sg64
(lp4656
g57
(g58
g59
NtRp4657
(dp4658
g62
(dp4659
g70
I5
ssg71
g4653
sg64
(lp4660
S'None'
p4661
asbasbasbag57
(g73
g59
NtRp4662
(dp4663
g62
(dp4664
sg71
g4236
sg64
(lp4665
g57
(g78
g59
NtRp4666
(dp4667
g62
(dp4668
g82
g83
ssg71
g4662
sg64
(lp4669
S'login'
p4670
asbag57
(g78
g59
NtRp4671
(dp4672
g62
(dp4673
g89
g90
ssg71
g4662
sg64
(lp4674
S':'
asbag57
(g78
g59
NtRp4675
(dp4676
g62
(dp4677
sg71
g4662
sg64
(lp4678
g57
(g58
g59
NtRp4679
(dp4680
g62
(dp4681
g70
I5
ssg71
g4675
sg64
(lp4682
S'0'
asbasbasbag57
(g73
g59
NtRp4683
(dp4684
g62
(dp4685
sg71
g4236
sg64
(lp4686
g57
(g78
g59
NtRp4687
(dp4688
g62
(dp4689
g82
g83
ssg71
g4683
sg64
(lp4690
S'token'
p4691
asbag57
(g78
g59
NtRp4692
(dp4693
g62
(dp4694
g89
g90
ssg71
g4683
sg64
(lp4695
S':'
asbag57
(g78
g59
NtRp4696
(dp4697
g62
(dp4698
sg71
g4683
sg64
(lp4699
g57
(g58
g59
NtRp4700
(dp4701
g62
(dp4702
g70
I5
ssg71
g4696
sg64
(lp4703
S'chaluvadibhanu.dev@students.iiit.ac.in'
p4704
asbasbasbasbasbsS'etype'
p4705
S"<type 'exceptions.IndexError'>"
p4706
sS'date'
p4707
S'Mon Nov 12 22:16:49 2012'
p4708
sS'response'
p4709
g57
(g58
g59
NtRp4710
(dp4711
g62
(dp4712
sg64
(lp4713
g57
(g66
g59
NtRp4714
(dp4715
g62
(dp4716
g70
I5
ssg71
Nsg64
(lp4717
g57
(g73
g59
NtRp4718
(dp4719
g62
(dp4720
sg71
g4714
sg64
(lp4721
g57
(g78
g59
NtRp4722
(dp4723
g62
(dp4724
g82
g83
ssg71
g4718
sg64
(lp4725
g155
asbag57
(g78
g59
NtRp4726
(dp4727
g62
(dp4728
g89
g90
ssg71
g4718
sg64
(lp4729
S':'
asbag57
(g78
g59
NtRp4730
(dp4731
g62
(dp4732
sg71
g4718
sg64
(lp4733
g57
(g58
g59
NtRp4734
(dp4735
g62
(dp4736
g70
I5
ssg71
g4730
sg64
(lp4737
S'<cStringIO.StringO object at 0x7f67fc711e30>'
p4738
asbasbasbag57
(g73
g59
NtRp4739
(dp4740
g62
(dp4741
sg71
g4714
sg64
(lp4742
g57
(g78
g59
NtRp4743
(dp4744
g62
(dp4745
g82
g83
ssg71
g4739
sg64
(lp4746
S'complaint'
p4747
asbag57
(g78
g59
NtRp4748
(dp4749
g62
(dp4750
g89
g90
ssg71
g4739
sg64
(lp4751
S':'
asbag57
(g78
g59
NtRp4752
(dp4753
g62
(dp4754
sg71
g4739
sg64
(lp4755
g57
(g58
g59
NtRp4756
(dp4757
g62
(dp4758
g70
I5
ssg71
g4752
sg64
(lp4759
g57
(g66
g59
NtRp4760
(dp4761
g62
(dp4762
g70
I4
ssg71
Nsg64
(lp4763
g57
(g73
g59
NtRp4764
(dp4765
g62
(dp4766
sg71
g4760
sg64
(lp4767
g57
(g78
g59
NtRp4768
(dp4769
g62
(dp4770
sg71
g4764
sg64
(lp4771
g57
(g58
g59
NtRp4772
(dp4773
g62
(dp4774
g70
I4
ssg71
g4768
sg64
(lp4775
g57
(g66
g59
NtRp4776
(dp4777
g62
(dp4778
g70
I3
ssg71
Nsg64
(lp4779
g57
(g73
g59
NtRp4780
(dp4781
g62
(dp4782
sg71
g4776
sg64
(lp4783
g57
(g78
g59
NtRp4784
(dp4785
g62
(dp4786
sg71
g4780
sg64
(lp4787
g57
(g58
g59
NtRp4788
(dp4789
g62
(dp4790
g70
I3
ssg71
g4784
sg64
(lp4791
cgluon.languages
lazyT_unpickle
p4792
(S't\t\x00\x00\x00COMPLAINT'
tRp4793
asbasbasbag57
(g73
g59
NtRp4794
(dp4795
g62
(dp4796
sg71
g4776
sg64
(lp4797
g57
(g78
g59
NtRp4798
(dp4799
g62
(dp4800
sg71
g4794
sg64
(lp4801
g57
(g58
g59
NtRp4802
(dp4803
g62
(dp4804
g70
I3
ssg71
g4798
sg64
(lp4805
g100
asbasbasbag57
(g73
g59
NtRp4806
(dp4807
g62
(dp4808
sg71
g4776
sg64
(lp4809
g57
(g78
g59
NtRp4810
(dp4811
g62
(dp4812
sg71
g4806
sg64
(lp4813
g57
(g58
g59
NtRp4814
(dp4815
g62
(dp4816
g70
I3
ssg71
g4810
sg64
(lp4817
S'/sss/default/complaint'
p4818
asbasbasbag57
(g73
g59
NtRp4819
(dp4820
g62
(dp4821
sg71
g4776
sg64
(lp4822
g57
(g78
g59
NtRp4823
(dp4824
g62
(dp4825
sg71
g4819
sg64
(lp4826
g57
(g58
g59
NtRp4827
(dp4828
g62
(dp4829
g70
I3
ssg71
g4823
sg64
(lp4830
g57
(g66
g59
NtRp4831
(dp4832
g62
(dp4833
g70
I2
ssg71
Nsg64
(lp4834
sbasbasbasbasbasbasbasbasbasbasbasbag57
(g73
g59
NtRp4835
(dp4836
g62
(dp4837
sg71
g4714
sg64
(lp4838
g57
(g78
g59
NtRp4839
(dp4840
g62
(dp4841
g82
g83
ssg71
g4835
sg64
(lp4842
g243
asbag57
(g78
g59
NtRp4843
(dp4844
g62
(dp4845
g89
g90
ssg71
g4835
sg64
(lp4846
S':'
asbag57
(g78
g59
NtRp4847
(dp4848
g62
(dp4849
sg71
g4835
sg64
(lp4850
g57
(g58
g59
NtRp4851
(dp4852
g62
(dp4853
g70
I5
ssg71
g4847
sg64
(lp4854
g57
(g66
g59
NtRp4855
(dp4856
g62
(dp4857
g70
I4
ssg71
Nsg64
(lp4858
g57
(g73
g59
NtRp4859
(dp4860
g62
(dp4861
sg71
g4855
sg64
(lp4862
g57
(g78
g59
NtRp4863
(dp4864
g62
(dp4865
g82
g83
ssg71
g4859
sg64
(lp4866
S'session_id_sss'
p4867
asbag57
(g78
g59
NtRp4868
(dp4869
g62
(dp4870
g89
g90
ssg71
g4859
sg64
(lp4871
S':'
asbag57
(g78
g59
NtRp4872
(dp4873
g62
(dp4874
sg71
g4859
sg64
(lp4875
g57
(g58
g59
NtRp4876
(dp4877
g62
(dp4878
g70
I4
ssg71
g4872
sg64
(lp4879
g1405
ag57
(g66
g59
NtRp4880
(dp4881
g62
(dp4882
g70
I3
ssg71
Nsg64
(lp4883
g57
(g73
g59
NtRp4884
(dp4885
g62
(dp4886
sg71
g4880
sg64
(lp4887
g57
(g78
g59
NtRp4888
(dp4889
g62
(dp4890
g82
g83
ssg71
g4884
sg64
(lp4891
g294
asbag57
(g78
g59
NtRp4892
(dp4893
g62
(dp4894
g89
g90
ssg71
g4884
sg64
(lp4895
S':'
asbag57
(g78
g59
NtRp4896
(dp4897
g62
(dp4898
sg71
g4884
sg64
(lp4899
g57
(g58
g59
NtRp4900
(dp4901
g62
(dp4902
g70
I3
ssg71
g4896
sg64
(lp4903
S''
asbasbasbag57
(g73
g59
NtRp4904
(dp4905
g62
(dp4906
sg71
g4880
sg64
(lp4907
g57
(g78
g59
NtRp4908
(dp4909
g62
(dp4910
g82
g83
ssg71
g4904
sg64
(lp4911
g315
asbag57
(g78
g59
NtRp4912
(dp4913
g62
(dp4914
g89
g90
ssg71
g4904
sg64
(lp4915
S':'
asbag57
(g78
g59
NtRp4916
(dp4917
g62
(dp4918
sg71
g4904
sg64
(lp4919
g57
(g58
g59
NtRp4920
(dp4921
g62
(dp4922
g70
I3
ssg71
g4916
sg64
(lp4923
S''
asbasbasbag57
(g73
g59
NtRp4924
(dp4925
g62
(dp4926
sg71
g4880
sg64
(lp4927
g57
(g78
g59
NtRp4928
(dp4929
g62
(dp4930
g82
g83
ssg71
g4924
sg64
(lp4931
g336
asbag57
(g78
g59
NtRp4932
(dp4933
g62
(dp4934
g89
g90
ssg71
g4924
sg64
(lp4935
S':'
asbag57
(g78
g59
NtRp4936
(dp4937
g62
(dp4938
sg71
g4924
sg64
(lp4939
g57
(g58
g59
NtRp4940
(dp4941
g62
(dp4942
g70
I3
ssg71
g4936
sg64
(lp4943
S''
asbasbasbag57
(g73
g59
NtRp4944
(dp4945
g62
(dp4946
sg71
g4880
sg64
(lp4947
g57
(g78
g59
NtRp4948
(dp4949
g62
(dp4950
g82
g83
ssg71
g4944
sg64
(lp4951
g357
asbag57
(g78
g59
NtRp4952
(dp4953
g62
(dp4954
g89
g90
ssg71
g4944
sg64
(lp4955
S':'
asbag57
(g78
g59
NtRp4956
(dp4957
g62
(dp4958
sg71
g4944
sg64
(lp4959
g57
(g58
g59
NtRp4960
(dp4961
g62
(dp4962
g70
I3
ssg71
g4956
sg64
(lp4963
S''
asbasbasbag57
(g73
g59
NtRp4964
(dp4965
g62
(dp4966
sg71
g4880
sg64
(lp4967
g57
(g78
g59
NtRp4968
(dp4969
g62
(dp4970
g82
g83
ssg71
g4964
sg64
(lp4971
g378
asbag57
(g78
g59
NtRp4972
(dp4973
g62
(dp4974
g89
g90
ssg71
g4964
sg64
(lp4975
S':'
asbag57
(g78
g59
NtRp4976
(dp4977
g62
(dp4978
sg71
g4964
sg64
(lp4979
g57
(g58
g59
NtRp4980
(dp4981
g62
(dp4982
g70
I3
ssg71
g4976
sg64
(lp4983
S''
asbasbasbag57
(g73
g59
NtRp4984
(dp4985
g62
(dp4986
sg71
g4880
sg64
(lp4987
g57
(g78
g59
NtRp4988
(dp4989
g62
(dp4990
g82
g83
ssg71
g4984
sg64
(lp4991
g399
asbag57
(g78
g59
NtRp4992
(dp4993
g62
(dp4994
g89
g90
ssg71
g4984
sg64
(lp4995
S':'
asbag57
(g78
g59
NtRp4996
(dp4997
g62
(dp4998
sg71
g4984
sg64
(lp4999
g57
(g58
g59
NtRp5000
(dp5001
g62
(dp5002
g70
I3
ssg71
g4996
sg64
(lp5003
S'/'
asbasbasbag57
(g73
g59
NtRp5004
(dp5005
g62
(dp5006
sg71
g4880
sg64
(lp5007
g57
(g78
g59
NtRp5008
(dp5009
g62
(dp5010
g82
g83
ssg71
g5004
sg64
(lp5011
g420
asbag57
(g78
g59
NtRp5012
(dp5013
g62
(dp5014
g89
g90
ssg71
g5004
sg64
(lp5015
S':'
asbag57
(g78
g59
NtRp5016
(dp5017
g62
(dp5018
sg71
g5004
sg64
(lp5019
g57
(g58
g59
NtRp5020
(dp5021
g62
(dp5022
g70
I3
ssg71
g5016
sg64
(lp5023
S''
asbasbasbag57
(g73
g59
NtRp5024
(dp5025
g62
(dp5026
sg71
g4880
sg64
(lp5027
g57
(g78
g59
NtRp5028
(dp5029
g62
(dp5030
g82
g83
ssg71
g5024
sg64
(lp5031
g441
asbag57
(g78
g59
NtRp5032
(dp5033
g62
(dp5034
g89
g90
ssg71
g5024
sg64
(lp5035
S':'
asbag57
(g78
g59
NtRp5036
(dp5037
g62
(dp5038
sg71
g5024
sg64
(lp5039
g57
(g58
g59
NtRp5040
(dp5041
g62
(dp5042
g70
I3
ssg71
g5036
sg64
(lp5043
S''
asbasbasbasbasbasbasbasbasbasbasbag57
(g73
g59
NtRp5044
(dp5045
g62
(dp5046
sg71
g4714
sg64
(lp5047
g57
(g78
g59
NtRp5048
(dp5049
g62
(dp5050
g82
g83
ssg71
g5044
sg64
(lp5051
S'delimiters'
p5052
asbag57
(g78
g59
NtRp5053
(dp5054
g62
(dp5055
g89
g90
ssg71
g5044
sg64
(lp5056
S':'
asbag57
(g78
g59
NtRp5057
(dp5058
g62
(dp5059
sg71
g5044
sg64
(lp5060
g57
(g58
g59
NtRp5061
(dp5062
g62
(dp5063
g70
I5
ssg71
g5057
sg64
(lp5064
g57
(g66
g59
NtRp5065
(dp5066
g62
(dp5067
g70
I4
ssg71
Nsg64
(lp5068
g57
(g73
g59
NtRp5069
(dp5070
g62
(dp5071
sg71
g5065
sg64
(lp5072
g57
(g78
g59
NtRp5073
(dp5074
g62
(dp5075
sg71
g5069
sg64
(lp5076
g57
(g58
g59
NtRp5077
(dp5078
g62
(dp5079
g70
I4
ssg71
g5073
sg64
(lp5080
S'{{'
p5081
asbasbasbag57
(g73
g59
NtRp5082
(dp5083
g62
(dp5084
sg71
g5065
sg64
(lp5085
g57
(g78
g59
NtRp5086
(dp5087
g62
(dp5088
sg71
g5082
sg64
(lp5089
g57
(g58
g59
NtRp5090
(dp5091
g62
(dp5092
g70
I4
ssg71
g5086
sg64
(lp5093
S'}}'
p5094
asbasbasbasbasbasbasbag57
(g73
g59
NtRp5095
(dp5096
g62
(dp5097
sg71
g4714
sg64
(lp5098
g57
(g78
g59
NtRp5099
(dp5100
g62
(dp5101
g82
g83
ssg71
g5095
sg64
(lp5102
S'enter_laptop_details'
p5103
asbag57
(g78
g59
NtRp5104
(dp5105
g62
(dp5106
g89
g90
ssg71
g5095
sg64
(lp5107
S':'
asbag57
(g78
g59
NtRp5108
(dp5109
g62
(dp5110
sg71
g5095
sg64
(lp5111
g57
(g58
g59
NtRp5112
(dp5113
g62
(dp5114
g70
I5
ssg71
g5108
sg64
(lp5115
g57
(g66
g59
NtRp5116
(dp5117
g62
(dp5118
g70
I4
ssg71
Nsg64
(lp5119
g57
(g73
g59
NtRp5120
(dp5121
g62
(dp5122
sg71
g5116
sg64
(lp5123
g57
(g78
g59
NtRp5124
(dp5125
g62
(dp5126
sg71
g5120
sg64
(lp5127
g57
(g58
g59
NtRp5128
(dp5129
g62
(dp5130
g70
I4
ssg71
g5124
sg64
(lp5131
g57
(g66
g59
NtRp5132
(dp5133
g62
(dp5134
g70
I3
ssg71
Nsg64
(lp5135
g57
(g73
g59
NtRp5136
(dp5137
g62
(dp5138
sg71
g5132
sg64
(lp5139
g57
(g78
g59
NtRp5140
(dp5141
g62
(dp5142
sg71
g5136
sg64
(lp5143
g57
(g58
g59
NtRp5144
(dp5145
g62
(dp5146
g70
I3
ssg71
g5140
sg64
(lp5147
g4792
(S's\x14\x00\x00\x00Enter Laptop Details'
tRp5148
asbasbasbag57
(g73
g59
NtRp5149
(dp5150
g62
(dp5151
sg71
g5132
sg64
(lp5152
g57
(g78
g59
NtRp5153
(dp5154
g62
(dp5155
sg71
g5149
sg64
(lp5156
g57
(g58
g59
NtRp5157
(dp5158
g62
(dp5159
g70
I3
ssg71
g5153
sg64
(lp5160
g100
asbasbasbag57
(g73
g59
NtRp5161
(dp5162
g62
(dp5163
sg71
g5132
sg64
(lp5164
g57
(g78
g59
NtRp5165
(dp5166
g62
(dp5167
sg71
g5161
sg64
(lp5168
g57
(g58
g59
NtRp5169
(dp5170
g62
(dp5171
g70
I3
ssg71
g5165
sg64
(lp5172
S'/sss/default/enter_laptop_details'
p5173
asbasbasbag57
(g73
g59
NtRp5174
(dp5175
g62
(dp5176
sg71
g5132
sg64
(lp5177
g57
(g78
g59
NtRp5178
(dp5179
g62
(dp5180
sg71
g5174
sg64
(lp5181
g57
(g58
g59
NtRp5182
(dp5183
g62
(dp5184
g70
I3
ssg71
g5178
sg64
(lp5185
g57
(g66
g59
NtRp5186
(dp5187
g62
(dp5188
g70
I2
ssg71
Nsg64
(lp5189
sbasbasbasbasbasbasbasbasbasbasbasbag57
(g73
g59
NtRp5190
(dp5191
g62
(dp5192
sg71
g4714
sg64
(lp5193
g57
(g78
g59
NtRp5194
(dp5195
g62
(dp5196
g82
g83
ssg71
g5190
sg64
(lp5197
S'files'
p5198
asbag57
(g78
g59
NtRp5199
(dp5200
g62
(dp5201
g89
g90
ssg71
g5190
sg64
(lp5202
S':'
asbag57
(g78
g59
NtRp5203
(dp5204
g62
(dp5205
sg71
g5190
sg64
(lp5206
g57
(g58
g59
NtRp5207
(dp5208
g62
(dp5209
g70
I5
ssg71
g5203
sg64
(lp5210
g57
(g66
g59
NtRp5211
(dp5212
g62
(dp5213
g70
I4
ssg71
Nsg64
(lp5214
sbasbasbasbag57
(g73
g59
NtRp5215
(dp5216
g62
(dp5217
sg71
g4714
sg64
(lp5218
g57
(g78
g59
NtRp5219
(dp5220
g62
(dp5221
g82
g83
ssg71
g5215
sg64
(lp5222
S'flash'
p5223
asbag57
(g78
g59
NtRp5224
(dp5225
g62
(dp5226
g89
g90
ssg71
g5215
sg64
(lp5227
S':'
asbag57
(g78
g59
NtRp5228
(dp5229
g62
(dp5230
sg71
g5215
sg64
(lp5231
g57
(g58
g59
NtRp5232
(dp5233
g62
(dp5234
g70
I5
ssg71
g5228
sg64
(lp5235
S''
asbasbasbag57
(g73
g59
NtRp5236
(dp5237
g62
(dp5238
sg71
g4714
sg64
(lp5239
g57
(g78
g59
NtRp5240
(dp5241
g62
(dp5242
g82
g83
ssg71
g5236
sg64
(lp5243
S'generic_patterns'
p5244
asbag57
(g78
g59
NtRp5245
(dp5246
g62
(dp5247
g89
g90
ssg71
g5236
sg64
(lp5248
S':'
asbag57
(g78
g59
NtRp5249
(dp5250
g62
(dp5251
sg71
g5236
sg64
(lp5252
g57
(g58
g59
NtRp5253
(dp5254
g62
(dp5255
g70
I5
ssg71
g5249
sg64
(lp5256
g57
(g66
g59
NtRp5257
(dp5258
g62
(dp5259
g70
I4
ssg71
Nsg64
(lp5260
g57
(g73
g59
NtRp5261
(dp5262
g62
(dp5263
sg71
g5257
sg64
(lp5264
g57
(g78
g59
NtRp5265
(dp5266
g62
(dp5267
sg71
g5261
sg64
(lp5268
g57
(g58
g59
NtRp5269
(dp5270
g62
(dp5271
g70
I4
ssg71
g5265
sg64
(lp5272
S'*'
asbasbasbasbasbasbasbag57
(g73
g59
NtRp5273
(dp5274
g62
(dp5275
sg71
g4714
sg64
(lp5276
g57
(g78
g59
NtRp5277
(dp5278
g62
(dp5279
g82
g83
ssg71
g5273
sg64
(lp5280
S'headers'
p5281
asbag57
(g78
g59
NtRp5282
(dp5283
g62
(dp5284
g89
g90
ssg71
g5273
sg64
(lp5285
S':'
asbag57
(g78
g59
NtRp5286
(dp5287
g62
(dp5288
sg71
g5273
sg64
(lp5289
g57
(g58
g59
NtRp5290
(dp5291
g62
(dp5292
g70
I5
ssg71
g5286
sg64
(lp5293
g57
(g66
g59
NtRp5294
(dp5295
g62
(dp5296
g70
I4
ssg71
Nsg64
(lp5297
g57
(g73
g59
NtRp5298
(dp5299
g62
(dp5300
sg71
g5294
sg64
(lp5301
g57
(g78
g59
NtRp5302
(dp5303
g62
(dp5304
g82
g83
ssg71
g5298
sg64
(lp5305
S'X-Powered-By'
p5306
asbag57
(g78
g59
NtRp5307
(dp5308
g62
(dp5309
g89
g90
ssg71
g5298
sg64
(lp5310
S':'
asbag57
(g78
g59
NtRp5311
(dp5312
g62
(dp5313
sg71
g5298
sg64
(lp5314
g57
(g58
g59
NtRp5315
(dp5316
g62
(dp5317
g70
I4
ssg71
g5311
sg64
(lp5318
S'web2py'
p5319
asbasbasbasbasbasbasbag57
(g73
g59
NtRp5320
(dp5321
g62
(dp5322
sg71
g4714
sg64
(lp5323
g57
(g78
g59
NtRp5324
(dp5325
g62
(dp5326
g82
g83
ssg71
g5320
sg64
(lp5327
S'laptop_out_details'
p5328
asbag57
(g78
g59
NtRp5329
(dp5330
g62
(dp5331
g89
g90
ssg71
g5320
sg64
(lp5332
S':'
asbag57
(g78
g59
NtRp5333
(dp5334
g62
(dp5335
sg71
g5320
sg64
(lp5336
g57
(g58
g59
NtRp5337
(dp5338
g62
(dp5339
g70
I5
ssg71
g5333
sg64
(lp5340
g57
(g66
g59
NtRp5341
(dp5342
g62
(dp5343
g70
I4
ssg71
Nsg64
(lp5344
g57
(g73
g59
NtRp5345
(dp5346
g62
(dp5347
sg71
g5341
sg64
(lp5348
g57
(g78
g59
NtRp5349
(dp5350
g62
(dp5351
sg71
g5345
sg64
(lp5352
g57
(g58
g59
NtRp5353
(dp5354
g62
(dp5355
g70
I4
ssg71
g5349
sg64
(lp5356
g57
(g66
g59
NtRp5357
(dp5358
g62
(dp5359
g70
I3
ssg71
Nsg64
(lp5360
g57
(g73
g59
NtRp5361
(dp5362
g62
(dp5363
sg71
g5357
sg64
(lp5364
g57
(g78
g59
NtRp5365
(dp5366
g62
(dp5367
sg71
g5361
sg64
(lp5368
g57
(g58
g59
NtRp5369
(dp5370
g62
(dp5371
g70
I3
ssg71
g5365
sg64
(lp5372
g4792
(S's\x0f\x00\x00\x00Laptop Movement'
tRp5373
asbasbasbag57
(g73
g59
NtRp5374
(dp5375
g62
(dp5376
sg71
g5357
sg64
(lp5377
g57
(g78
g59
NtRp5378
(dp5379
g62
(dp5380
sg71
g5374
sg64
(lp5381
g57
(g58
g59
NtRp5382
(dp5383
g62
(dp5384
g70
I3
ssg71
g5378
sg64
(lp5385
g100
asbasbasbag57
(g73
g59
NtRp5386
(dp5387
g62
(dp5388
sg71
g5357
sg64
(lp5389
g57
(g78
g59
NtRp5390
(dp5391
g62
(dp5392
sg71
g5386
sg64
(lp5393
g57
(g58
g59
NtRp5394
(dp5395
g62
(dp5396
g70
I3
ssg71
g5390
sg64
(lp5397
S'/sss/default/laptop_out_details'
p5398
asbasbasbag57
(g73
g59
NtRp5399
(dp5400
g62
(dp5401
sg71
g5357
sg64
(lp5402
g57
(g78
g59
NtRp5403
(dp5404
g62
(dp5405
sg71
g5399
sg64
(lp5406
g57
(g58
g59
NtRp5407
(dp5408
g62
(dp5409
g70
I3
ssg71
g5403
sg64
(lp5410
g57
(g66
g59
NtRp5411
(dp5412
g62
(dp5413
g70
I2
ssg71
Nsg64
(lp5414
sbasbasbasbasbasbasbasbasbasbasbasbag57
(g73
g59
NtRp5415
(dp5416
g62
(dp5417
sg71
g4714
sg64
(lp5418
g57
(g78
g59
NtRp5419
(dp5420
g62
(dp5421
g82
g83
ssg71
g5415
sg64
(lp5422
S'menu'
p5423
asbag57
(g78
g59
NtRp5424
(dp5425
g62
(dp5426
g89
g90
ssg71
g5415
sg64
(lp5427
S':'
asbag57
(g78
g59
NtRp5428
(dp5429
g62
(dp5430
sg71
g5415
sg64
(lp5431
g57
(g58
g59
NtRp5432
(dp5433
g62
(dp5434
g70
I5
ssg71
g5428
sg64
(lp5435
g57
(g66
g59
NtRp5436
(dp5437
g62
(dp5438
g70
I4
ssg71
Nsg64
(lp5439
g57
(g73
g59
NtRp5440
(dp5441
g62
(dp5442
sg71
g5436
sg64
(lp5443
g57
(g78
g59
NtRp5444
(dp5445
g62
(dp5446
sg71
g5440
sg64
(lp5447
g57
(g58
g59
NtRp5448
(dp5449
g62
(dp5450
g70
I4
ssg71
g5444
sg64
(lp5451
g57
(g66
g59
NtRp5452
(dp5453
g62
(dp5454
g70
I3
ssg71
Nsg64
(lp5455
g57
(g73
g59
NtRp5456
(dp5457
g62
(dp5458
sg71
g5452
sg64
(lp5459
g57
(g78
g59
NtRp5460
(dp5461
g62
(dp5462
sg71
g5456
sg64
(lp5463
g57
(g58
g59
NtRp5464
(dp5465
g62
(dp5466
g70
I3
ssg71
g5460
sg64
(lp5467
g4792
(S't\x04\x00\x00\x00HOME'
tRp5468
asbasbasbag57
(g73
g59
NtRp5469
(dp5470
g62
(dp5471
sg71
g5452
sg64
(lp5472
g57
(g78
g59
NtRp5473
(dp5474
g62
(dp5475
sg71
g5469
sg64
(lp5476
g57
(g58
g59
NtRp5477
(dp5478
g62
(dp5479
g70
I3
ssg71
g5473
sg64
(lp5480
g100
asbasbasbag57
(g73
g59
NtRp5481
(dp5482
g62
(dp5483
sg71
g5452
sg64
(lp5484
g57
(g78
g59
NtRp5485
(dp5486
g62
(dp5487
sg71
g5481
sg64
(lp5488
g57
(g58
g59
NtRp5489
(dp5490
g62
(dp5491
g70
I3
ssg71
g5485
sg64
(lp5492
S'/sss/default/index'
p5493
asbasbasbag57
(g73
g59
NtRp5494
(dp5495
g62
(dp5496
sg71
g5452
sg64
(lp5497
g57
(g78
g59
NtRp5498
(dp5499
g62
(dp5500
sg71
g5494
sg64
(lp5501
g57
(g58
g59
NtRp5502
(dp5503
g62
(dp5504
g70
I3
ssg71
g5498
sg64
(lp5505
g57
(g66
g59
NtRp5506
(dp5507
g62
(dp5508
g70
I2
ssg71
Nsg64
(lp5509
sbasbasbasbasbasbasbasbasbasbasbasbag57
(g73
g59
NtRp5510
(dp5511
g62
(dp5512
sg71
g4714
sg64
(lp5513
g57
(g78
g59
NtRp5514
(dp5515
g62
(dp5516
g82
g83
ssg71
g5510
sg64
(lp5517
S'meta'
p5518
asbag57
(g78
g59
NtRp5519
(dp5520
g62
(dp5521
g89
g90
ssg71
g5510
sg64
(lp5522
S':'
asbag57
(g78
g59
NtRp5523
(dp5524
g62
(dp5525
sg71
g5510
sg64
(lp5526
g57
(g58
g59
NtRp5527
(dp5528
g62
(dp5529
g70
I5
ssg71
g5523
sg64
(lp5530
g57
(g66
g59
NtRp5531
(dp5532
g62
(dp5533
g70
I4
ssg71
Nsg64
(lp5534
g57
(g73
g59
NtRp5535
(dp5536
g62
(dp5537
sg71
g5531
sg64
(lp5538
g57
(g78
g59
NtRp5539
(dp5540
g62
(dp5541
g82
g83
ssg71
g5535
sg64
(lp5542
S'author'
p5543
asbag57
(g78
g59
NtRp5544
(dp5545
g62
(dp5546
g89
g90
ssg71
g5535
sg64
(lp5547
S':'
asbag57
(g78
g59
NtRp5548
(dp5549
g62
(dp5550
sg71
g5535
sg64
(lp5551
g57
(g58
g59
NtRp5552
(dp5553
g62
(dp5554
g70
I4
ssg71
g5548
sg64
(lp5555
S'you <you@example.com>'
p5556
asbasbasbag57
(g73
g59
NtRp5557
(dp5558
g62
(dp5559
sg71
g5531
sg64
(lp5560
g57
(g78
g59
NtRp5561
(dp5562
g62
(dp5563
g82
g83
ssg71
g5557
sg64
(lp5564
S'description'
p5565
asbag57
(g78
g59
NtRp5566
(dp5567
g62
(dp5568
g89
g90
ssg71
g5557
sg64
(lp5569
S':'
asbag57
(g78
g59
NtRp5570
(dp5571
g62
(dp5572
sg71
g5557
sg64
(lp5573
g57
(g58
g59
NtRp5574
(dp5575
g62
(dp5576
g70
I4
ssg71
g5570
sg64
(lp5577
S''
asbasbasbag57
(g73
g59
NtRp5578
(dp5579
g62
(dp5580
sg71
g5531
sg64
(lp5581
g57
(g78
g59
NtRp5582
(dp5583
g62
(dp5584
g82
g83
ssg71
g5578
sg64
(lp5585
S'keywords'
p5586
asbag57
(g78
g59
NtRp5587
(dp5588
g62
(dp5589
g89
g90
ssg71
g5578
sg64
(lp5590
S':'
asbag57
(g78
g59
NtRp5591
(dp5592
g62
(dp5593
sg71
g5578
sg64
(lp5594
g57
(g58
g59
NtRp5595
(dp5596
g62
(dp5597
g70
I4
ssg71
g5591
sg64
(lp5598
S''
asbasbasbasbasbasbasbag57
(g73
g59
NtRp5599
(dp5600
g62
(dp5601
sg71
g4714
sg64
(lp5602
g57
(g78
g59
NtRp5603
(dp5604
g62
(dp5605
g82
g83
ssg71
g5599
sg64
(lp5606
S'models_to_run'
p5607
asbag57
(g78
g59
NtRp5608
(dp5609
g62
(dp5610
g89
g90
ssg71
g5599
sg64
(lp5611
S':'
asbag57
(g78
g59
NtRp5612
(dp5613
g62
(dp5614
sg71
g5599
sg64
(lp5615
g57
(g58
g59
NtRp5616
(dp5617
g62
(dp5618
g70
I5
ssg71
g5612
sg64
(lp5619
g57
(g66
g59
NtRp5620
(dp5621
g62
(dp5622
g70
I4
ssg71
Nsg64
(lp5623
g57
(g73
g59
NtRp5624
(dp5625
g62
(dp5626
sg71
g5620
sg64
(lp5627
g57
(g78
g59
NtRp5628
(dp5629
g62
(dp5630
sg71
g5624
sg64
(lp5631
g57
(g58
g59
NtRp5632
(dp5633
g62
(dp5634
g70
I4
ssg71
g5628
sg64
(lp5635
S'^\\w+\\.py$'
p5636
asbasbasbag57
(g73
g59
NtRp5637
(dp5638
g62
(dp5639
sg71
g5620
sg64
(lp5640
g57
(g78
g59
NtRp5641
(dp5642
g62
(dp5643
sg71
g5637
sg64
(lp5644
g57
(g58
g59
NtRp5645
(dp5646
g62
(dp5647
g70
I4
ssg71
g5641
sg64
(lp5648
S'^default/\\w+\\.py$'
p5649
asbasbasbag57
(g73
g59
NtRp5650
(dp5651
g62
(dp5652
sg71
g5620
sg64
(lp5653
g57
(g78
g59
NtRp5654
(dp5655
g62
(dp5656
sg71
g5650
sg64
(lp5657
g57
(g58
g59
NtRp5658
(dp5659
g62
(dp5660
g70
I4
ssg71
g5654
sg64
(lp5661
S'^default/login/\\w+\\.py$'
p5662
asbasbasbasbasbasbasbag57
(g73
g59
NtRp5663
(dp5664
g62
(dp5665
sg71
g4714
sg64
(lp5666
g57
(g78
g59
NtRp5667
(dp5668
g62
(dp5669
g82
g83
ssg71
g5663
sg64
(lp5670
S'postprocessing'
p5671
asbag57
(g78
g59
NtRp5672
(dp5673
g62
(dp5674
g89
g90
ssg71
g5663
sg64
(lp5675
S':'
asbag57
(g78
g59
NtRp5676
(dp5677
g62
(dp5678
sg71
g5663
sg64
(lp5679
g57
(g58
g59
NtRp5680
(dp5681
g62
(dp5682
g70
I5
ssg71
g5676
sg64
(lp5683
g57
(g66
g59
NtRp5684
(dp5685
g62
(dp5686
g70
I4
ssg71
Nsg64
(lp5687
sbasbasbasbag57
(g73
g59
NtRp5688
(dp5689
g62
(dp5690
sg71
g4714
sg64
(lp5691
g57
(g78
g59
NtRp5692
(dp5693
g62
(dp5694
g82
g83
ssg71
g5688
sg64
(lp5695
S'search'
p5696
asbag57
(g78
g59
NtRp5697
(dp5698
g62
(dp5699
g89
g90
ssg71
g5688
sg64
(lp5700
S':'
asbag57
(g78
g59
NtRp5701
(dp5702
g62
(dp5703
sg71
g5688
sg64
(lp5704
g57
(g58
g59
NtRp5705
(dp5706
g62
(dp5707
g70
I5
ssg71
g5701
sg64
(lp5708
g57
(g66
g59
NtRp5709
(dp5710
g62
(dp5711
g70
I4
ssg71
Nsg64
(lp5712
g57
(g73
g59
NtRp5713
(dp5714
g62
(dp5715
sg71
g5709
sg64
(lp5716
g57
(g78
g59
NtRp5717
(dp5718
g62
(dp5719
sg71
g5713
sg64
(lp5720
g57
(g58
g59
NtRp5721
(dp5722
g62
(dp5723
g70
I4
ssg71
g5717
sg64
(lp5724
g57
(g66
g59
NtRp5725
(dp5726
g62
(dp5727
g70
I3
ssg71
Nsg64
(lp5728
g57
(g73
g59
NtRp5729
(dp5730
g62
(dp5731
sg71
g5725
sg64
(lp5732
g57
(g78
g59
NtRp5733
(dp5734
g62
(dp5735
sg71
g5729
sg64
(lp5736
g57
(g58
g59
NtRp5737
(dp5738
g62
(dp5739
g70
I3
ssg71
g5733
sg64
(lp5740
g4792
(S't\x06\x00\x00\x00SEARCH'
tRp5741
asbasbasbag57
(g73
g59
NtRp5742
(dp5743
g62
(dp5744
sg71
g5725
sg64
(lp5745
g57
(g78
g59
NtRp5746
(dp5747
g62
(dp5748
sg71
g5742
sg64
(lp5749
g57
(g58
g59
NtRp5750
(dp5751
g62
(dp5752
g70
I3
ssg71
g5746
sg64
(lp5753
g100
asbasbasbag57
(g73
g59
NtRp5754
(dp5755
g62
(dp5756
sg71
g5725
sg64
(lp5757
g57
(g78
g59
NtRp5758
(dp5759
g62
(dp5760
sg71
g5754
sg64
(lp5761
g57
(g58
g59
NtRp5762
(dp5763
g62
(dp5764
g70
I3
ssg71
g5758
sg64
(lp5765
S'/sss/default/search'
p5766
asbasbasbag57
(g73
g59
NtRp5767
(dp5768
g62
(dp5769
sg71
g5725
sg64
(lp5770
g57
(g78
g59
NtRp5771
(dp5772
g62
(dp5773
sg71
g5767
sg64
(lp5774
g57
(g58
g59
NtRp5775
(dp5776
g62
(dp5777
g70
I3
ssg71
g5771
sg64
(lp5778
g57
(g66
g59
NtRp5779
(dp5780
g62
(dp5781
g70
I2
ssg71
Nsg64
(lp5782
sbasbasbasbasbasbasbasbasbasbasbasbag57
(g73
g59
NtRp5783
(dp5784
g62
(dp5785
sg71
g4714
sg64
(lp5786
g57
(g78
g59
NtRp5787
(dp5788
g62
(dp5789
g82
g83
ssg71
g5783
sg64
(lp5790
S'session_cookie_expires'
p5791
asbag57
(g78
g59
NtRp5792
(dp5793
g62
(dp5794
g89
g90
ssg71
g5783
sg64
(lp5795
S':'
asbag57
(g78
g59
NtRp5796
(dp5797
g62
(dp5798
sg71
g5783
sg64
(lp5799
g57
(g58
g59
NtRp5800
(dp5801
g62
(dp5802
g70
I5
ssg71
g5796
sg64
(lp5803
S'None'
p5804
asbasbasbag57
(g73
g59
NtRp5805
(dp5806
g62
(dp5807
sg71
g4714
sg64
(lp5808
g57
(g78
g59
NtRp5809
(dp5810
g62
(dp5811
g82
g83
ssg71
g5805
sg64
(lp5812
S'session_data_name'
p5813
asbag57
(g78
g59
NtRp5814
(dp5815
g62
(dp5816
g89
g90
ssg71
g5805
sg64
(lp5817
S':'
asbag57
(g78
g59
NtRp5818
(dp5819
g62
(dp5820
sg71
g5805
sg64
(lp5821
g57
(g58
g59
NtRp5822
(dp5823
g62
(dp5824
g70
I5
ssg71
g5818
sg64
(lp5825
S'session_data_sss'
p5826
asbasbasbag57
(g73
g59
NtRp5827
(dp5828
g62
(dp5829
sg71
g4714
sg64
(lp5830
g57
(g78
g59
NtRp5831
(dp5832
g62
(dp5833
g82
g83
ssg71
g5827
sg64
(lp5834
S'session_file'
p5835
asbag57
(g78
g59
NtRp5836
(dp5837
g62
(dp5838
g89
g90
ssg71
g5827
sg64
(lp5839
S':'
asbag57
(g78
g59
NtRp5840
(dp5841
g62
(dp5842
sg71
g5827
sg64
(lp5843
g57
(g58
g59
NtRp5844
(dp5845
g62
(dp5846
g70
I5
ssg71
g5840
sg64
(lp5847
S"<open file '/home/bhanu/web2py/applications/sss/sessions/127.0.0.1-33a365f5-c433-4446-b3c2-9e2aea142bbb', mode 'rb+' at 0x7f67fc4a6ae0>"
p5848
asbasbasbag57
(g73
g59
NtRp5849
(dp5850
g62
(dp5851
sg71
g4714
sg64
(lp5852
g57
(g78
g59
NtRp5853
(dp5854
g62
(dp5855
g82
g83
ssg71
g5849
sg64
(lp5856
S'session_filename'
p5857
asbag57
(g78
g59
NtRp5858
(dp5859
g62
(dp5860
g89
g90
ssg71
g5849
sg64
(lp5861
S':'
asbag57
(g78
g59
NtRp5862
(dp5863
g62
(dp5864
sg71
g5849
sg64
(lp5865
g57
(g58
g59
NtRp5866
(dp5867
g62
(dp5868
g70
I5
ssg71
g5862
sg64
(lp5869
S'/home/bhanu/web2py/applications/sss/sessions/127.0.0.1-33a365f5-c433-4446-b3c2-9e2aea142bbb'
p5870
asbasbasbag57
(g73
g59
NtRp5871
(dp5872
g62
(dp5873
sg71
g4714
sg64
(lp5874
g57
(g78
g59
NtRp5875
(dp5876
g62
(dp5877
g82
g83
ssg71
g5871
sg64
(lp5878
S'session_id'
p5879
asbag57
(g78
g59
NtRp5880
(dp5881
g62
(dp5882
g89
g90
ssg71
g5871
sg64
(lp5883
S':'
asbag57
(g78
g59
NtRp5884
(dp5885
g62
(dp5886
sg71
g5871
sg64
(lp5887
g57
(g58
g59
NtRp5888
(dp5889
g62
(dp5890
g70
I5
ssg71
g5884
sg64
(lp5891
g1405
asbasbasbag57
(g73
g59
NtRp5892
(dp5893
g62
(dp5894
sg71
g4714
sg64
(lp5895
g57
(g78
g59
NtRp5896
(dp5897
g62
(dp5898
g82
g83
ssg71
g5892
sg64
(lp5899
S'session_id_name'
p5900
asbag57
(g78
g59
NtRp5901
(dp5902
g62
(dp5903
g89
g90
ssg71
g5892
sg64
(lp5904
S':'
asbag57
(g78
g59
NtRp5905
(dp5906
g62
(dp5907
sg71
g5892
sg64
(lp5908
g57
(g58
g59
NtRp5909
(dp5910
g62
(dp5911
g70
I5
ssg71
g5905
sg64
(lp5912
g4867
asbasbasbag57
(g73
g59
NtRp5913
(dp5914
g62
(dp5915
sg71
g4714
sg64
(lp5916
g57
(g78
g59
NtRp5917
(dp5918
g62
(dp5919
g82
g83
ssg71
g5913
sg64
(lp5920
S'session_locked'
p5921
asbag57
(g78
g59
NtRp5922
(dp5923
g62
(dp5924
g89
g90
ssg71
g5913
sg64
(lp5925
S':'
asbag57
(g78
g59
NtRp5926
(dp5927
g62
(dp5928
sg71
g5913
sg64
(lp5929
g57
(g58
g59
NtRp5930
(dp5931
g62
(dp5932
g70
I5
ssg71
g5926
sg64
(lp5933
g2678
asbasbasbag57
(g73
g59
NtRp5934
(dp5935
g62
(dp5936
sg71
g4714
sg64
(lp5937
g57
(g78
g59
NtRp5938
(dp5939
g62
(dp5940
g82
g83
ssg71
g5934
sg64
(lp5941
S'session_new'
p5942
asbag57
(g78
g59
NtRp5943
(dp5944
g62
(dp5945
g89
g90
ssg71
g5934
sg64
(lp5946
S':'
asbag57
(g78
g59
NtRp5947
(dp5948
g62
(dp5949
sg71
g5934
sg64
(lp5950
g57
(g58
g59
NtRp5951
(dp5952
g62
(dp5953
g70
I5
ssg71
g5947
sg64
(lp5954
g100
asbasbasbag57
(g73
g59
NtRp5955
(dp5956
g62
(dp5957
sg71
g4714
sg64
(lp5958
g57
(g78
g59
NtRp5959
(dp5960
g62
(dp5961
g82
g83
ssg71
g5955
sg64
(lp5962
S'session_storage_type'
p5963
asbag57
(g78
g59
NtRp5964
(dp5965
g62
(dp5966
g89
g90
ssg71
g5955
sg64
(lp5967
S':'
asbag57
(g78
g59
NtRp5968
(dp5969
g62
(dp5970
sg71
g5955
sg64
(lp5971
g57
(g58
g59
NtRp5972
(dp5973
g62
(dp5974
g70
I5
ssg71
g5968
sg64
(lp5975
g4130
asbasbasbag57
(g73
g59
NtRp5976
(dp5977
g62
(dp5978
sg71
g4714
sg64
(lp5979
g57
(g78
g59
NtRp5980
(dp5981
g62
(dp5982
g82
g83
ssg71
g5976
sg64
(lp5983
S'status'
p5984
asbag57
(g78
g59
NtRp5985
(dp5986
g62
(dp5987
g89
g90
ssg71
g5976
sg64
(lp5988
S':'
asbag57
(g78
g59
NtRp5989
(dp5990
g62
(dp5991
sg71
g5976
sg64
(lp5992
g57
(g58
g59
NtRp5993
(dp5994
g62
(dp5995
g70
I5
ssg71
g5989
sg64
(lp5996
S'200'
p5997
asbasbasbag57
(g73
g59
NtRp5998
(dp5999
g62
(dp6000
sg71
g4714
sg64
(lp6001
g57
(g78
g59
NtRp6002
(dp6003
g62
(dp6004
g82
g83
ssg71
g5998
sg64
(lp6005
S'student'
p6006
asbag57
(g78
g59
NtRp6007
(dp6008
g62
(dp6009
g89
g90
ssg71
g5998
sg64
(lp6010
S':'
asbag57
(g78
g59
NtRp6011
(dp6012
g62
(dp6013
sg71
g5998
sg64
(lp6014
g57
(g58
g59
NtRp6015
(dp6016
g62
(dp6017
g70
I5
ssg71
g6011
sg64
(lp6018
g57
(g66
g59
NtRp6019
(dp6020
g62
(dp6021
g70
I4
ssg71
Nsg64
(lp6022
g57
(g73
g59
NtRp6023
(dp6024
g62
(dp6025
sg71
g6019
sg64
(lp6026
g57
(g78
g59
NtRp6027
(dp6028
g62
(dp6029
sg71
g6023
sg64
(lp6030
g57
(g58
g59
NtRp6031
(dp6032
g62
(dp6033
g70
I4
ssg71
g6027
sg64
(lp6034
g57
(g66
g59
NtRp6035
(dp6036
g62
(dp6037
g70
I3
ssg71
Nsg64
(lp6038
g57
(g73
g59
NtRp6039
(dp6040
g62
(dp6041
sg71
g6035
sg64
(lp6042
g57
(g78
g59
NtRp6043
(dp6044
g62
(dp6045
sg71
g6039
sg64
(lp6046
g57
(g58
g59
NtRp6047
(dp6048
g62
(dp6049
g70
I3
ssg71
g6043
sg64
(lp6050
g5468
asbasbasbag57
(g73
g59
NtRp6051
(dp6052
g62
(dp6053
sg71
g6035
sg64
(lp6054
g57
(g78
g59
NtRp6055
(dp6056
g62
(dp6057
sg71
g6051
sg64
(lp6058
g57
(g58
g59
NtRp6059
(dp6060
g62
(dp6061
g70
I3
ssg71
g6055
sg64
(lp6062
g100
asbasbasbag57
(g73
g59
NtRp6063
(dp6064
g62
(dp6065
sg71
g6035
sg64
(lp6066
g57
(g78
g59
NtRp6067
(dp6068
g62
(dp6069
sg71
g6063
sg64
(lp6070
g57
(g58
g59
NtRp6071
(dp6072
g62
(dp6073
g70
I3
ssg71
g6067
sg64
(lp6074
g5493
asbasbasbag57
(g73
g59
NtRp6075
(dp6076
g62
(dp6077
sg71
g6035
sg64
(lp6078
g57
(g78
g59
NtRp6079
(dp6080
g62
(dp6081
sg71
g6075
sg64
(lp6082
g57
(g58
g59
NtRp6083
(dp6084
g62
(dp6085
g70
I3
ssg71
g6079
sg64
(lp6086
g57
(g66
g59
NtRp6087
(dp6088
g62
(dp6089
g70
I2
ssg71
Nsg64
(lp6090
sbasbasbasbasbasbasbasbag57
(g73
g59
NtRp6091
(dp6092
g62
(dp6093
sg71
g6019
sg64
(lp6094
g57
(g78
g59
NtRp6095
(dp6096
g62
(dp6097
sg71
g6091
sg64
(lp6098
g57
(g58
g59
NtRp6099
(dp6100
g62
(dp6101
g70
I4
ssg71
g6095
sg64
(lp6102
g57
(g66
g59
NtRp6103
(dp6104
g62
(dp6105
g70
I3
ssg71
Nsg64
(lp6106
g57
(g73
g59
NtRp6107
(dp6108
g62
(dp6109
sg71
g6103
sg64
(lp6110
g57
(g78
g59
NtRp6111
(dp6112
g62
(dp6113
sg71
g6107
sg64
(lp6114
g57
(g58
g59
NtRp6115
(dp6116
g62
(dp6117
g70
I3
ssg71
g6111
sg64
(lp6118
g4793
asbasbasbag57
(g73
g59
NtRp6119
(dp6120
g62
(dp6121
sg71
g6103
sg64
(lp6122
g57
(g78
g59
NtRp6123
(dp6124
g62
(dp6125
sg71
g6119
sg64
(lp6126
g57
(g58
g59
NtRp6127
(dp6128
g62
(dp6129
g70
I3
ssg71
g6123
sg64
(lp6130
g100
asbasbasbag57
(g73
g59
NtRp6131
(dp6132
g62
(dp6133
sg71
g6103
sg64
(lp6134
g57
(g78
g59
NtRp6135
(dp6136
g62
(dp6137
sg71
g6131
sg64
(lp6138
g57
(g58
g59
NtRp6139
(dp6140
g62
(dp6141
g70
I3
ssg71
g6135
sg64
(lp6142
g4818
asbasbasbag57
(g73
g59
NtRp6143
(dp6144
g62
(dp6145
sg71
g6103
sg64
(lp6146
g57
(g78
g59
NtRp6147
(dp6148
g62
(dp6149
sg71
g6143
sg64
(lp6150
g57
(g58
g59
NtRp6151
(dp6152
g62
(dp6153
g70
I3
ssg71
g6147
sg64
(lp6154
g57
(g66
g59
NtRp6155
(dp6156
g62
(dp6157
g70
I2
ssg71
Nsg64
(lp6158
sbasbasbasbasbasbasbasbag57
(g73
g59
NtRp6159
(dp6160
g62
(dp6161
sg71
g6019
sg64
(lp6162
g57
(g78
g59
NtRp6163
(dp6164
g62
(dp6165
sg71
g6159
sg64
(lp6166
g57
(g58
g59
NtRp6167
(dp6168
g62
(dp6169
g70
I4
ssg71
g6163
sg64
(lp6170
g57
(g66
g59
NtRp6171
(dp6172
g62
(dp6173
g70
I3
ssg71
Nsg64
(lp6174
g57
(g73
g59
NtRp6175
(dp6176
g62
(dp6177
sg71
g6171
sg64
(lp6178
g57
(g78
g59
NtRp6179
(dp6180
g62
(dp6181
sg71
g6175
sg64
(lp6182
g57
(g58
g59
NtRp6183
(dp6184
g62
(dp6185
g70
I3
ssg71
g6179
sg64
(lp6186
g5741
asbasbasbag57
(g73
g59
NtRp6187
(dp6188
g62
(dp6189
sg71
g6171
sg64
(lp6190
g57
(g78
g59
NtRp6191
(dp6192
g62
(dp6193
sg71
g6187
sg64
(lp6194
g57
(g58
g59
NtRp6195
(dp6196
g62
(dp6197
g70
I3
ssg71
g6191
sg64
(lp6198
g100
asbasbasbag57
(g73
g59
NtRp6199
(dp6200
g62
(dp6201
sg71
g6171
sg64
(lp6202
g57
(g78
g59
NtRp6203
(dp6204
g62
(dp6205
sg71
g6199
sg64
(lp6206
g57
(g58
g59
NtRp6207
(dp6208
g62
(dp6209
g70
I3
ssg71
g6203
sg64
(lp6210
g5766
asbasbasbag57
(g73
g59
NtRp6211
(dp6212
g62
(dp6213
sg71
g6171
sg64
(lp6214
g57
(g78
g59
NtRp6215
(dp6216
g62
(dp6217
sg71
g6211
sg64
(lp6218
g57
(g58
g59
NtRp6219
(dp6220
g62
(dp6221
g70
I3
ssg71
g6215
sg64
(lp6222
g57
(g66
g59
NtRp6223
(dp6224
g62
(dp6225
g70
I2
ssg71
Nsg64
(lp6226
sbasbasbasbasbasbasbasbasbasbasbasbag57
(g73
g59
NtRp6227
(dp6228
g62
(dp6229
sg71
g4714
sg64
(lp6230
g57
(g78
g59
NtRp6231
(dp6232
g62
(dp6233
g82
g83
ssg71
g6227
sg64
(lp6234
S'student_out_details'
p6235
asbag57
(g78
g59
NtRp6236
(dp6237
g62
(dp6238
g89
g90
ssg71
g6227
sg64
(lp6239
S':'
asbag57
(g78
g59
NtRp6240
(dp6241
g62
(dp6242
sg71
g6227
sg64
(lp6243
g57
(g58
g59
NtRp6244
(dp6245
g62
(dp6246
g70
I5
ssg71
g6240
sg64
(lp6247
g57
(g66
g59
NtRp6248
(dp6249
g62
(dp6250
g70
I4
ssg71
Nsg64
(lp6251
g57
(g73
g59
NtRp6252
(dp6253
g62
(dp6254
sg71
g6248
sg64
(lp6255
g57
(g78
g59
NtRp6256
(dp6257
g62
(dp6258
sg71
g6252
sg64
(lp6259
g57
(g58
g59
NtRp6260
(dp6261
g62
(dp6262
g70
I4
ssg71
g6256
sg64
(lp6263
g57
(g66
g59
NtRp6264
(dp6265
g62
(dp6266
g70
I3
ssg71
Nsg64
(lp6267
g57
(g73
g59
NtRp6268
(dp6269
g62
(dp6270
sg71
g6264
sg64
(lp6271
g57
(g78
g59
NtRp6272
(dp6273
g62
(dp6274
sg71
g6268
sg64
(lp6275
g57
(g58
g59
NtRp6276
(dp6277
g62
(dp6278
g70
I3
ssg71
g6272
sg64
(lp6279
g4792
(S's\x0e\x00\x00\x00Outing Details'
tRp6280
asbasbasbag57
(g73
g59
NtRp6281
(dp6282
g62
(dp6283
sg71
g6264
sg64
(lp6284
g57
(g78
g59
NtRp6285
(dp6286
g62
(dp6287
sg71
g6281
sg64
(lp6288
g57
(g58
g59
NtRp6289
(dp6290
g62
(dp6291
g70
I3
ssg71
g6285
sg64
(lp6292
g100
asbasbasbag57
(g73
g59
NtRp6293
(dp6294
g62
(dp6295
sg71
g6264
sg64
(lp6296
g57
(g78
g59
NtRp6297
(dp6298
g62
(dp6299
sg71
g6293
sg64
(lp6300
g57
(g58
g59
NtRp6301
(dp6302
g62
(dp6303
g70
I3
ssg71
g6297
sg64
(lp6304
S'/sss/default/student_out_details'
p6305
asbasbasbag57
(g73
g59
NtRp6306
(dp6307
g62
(dp6308
sg71
g6264
sg64
(lp6309
g57
(g78
g59
NtRp6310
(dp6311
g62
(dp6312
sg71
g6306
sg64
(lp6313
g57
(g58
g59
NtRp6314
(dp6315
g62
(dp6316
g70
I3
ssg71
g6310
sg64
(lp6317
g57
(g66
g59
NtRp6318
(dp6319
g62
(dp6320
g70
I2
ssg71
Nsg64
(lp6321
sbasbasbasbasbasbasbasbasbasbasbasbag57
(g73
g59
NtRp6322
(dp6323
g62
(dp6324
sg71
g4714
sg64
(lp6325
g57
(g78
g59
NtRp6326
(dp6327
g62
(dp6328
g82
g83
ssg71
g6322
sg64
(lp6329
S'subtitle'
p6330
asbag57
(g78
g59
NtRp6331
(dp6332
g62
(dp6333
g89
g90
ssg71
g6322
sg64
(lp6334
S':'
asbag57
(g78
g59
NtRp6335
(dp6336
g62
(dp6337
sg71
g6322
sg64
(lp6338
g57
(g58
g59
NtRp6339
(dp6340
g62
(dp6341
g70
I5
ssg71
g6335
sg64
(lp6342
S'powered by web2py'
p6343
asbasbasbag57
(g73
g59
NtRp6344
(dp6345
g62
(dp6346
sg71
g4714
sg64
(lp6347
g57
(g78
g59
NtRp6348
(dp6349
g62
(dp6350
g82
g83
ssg71
g6344
sg64
(lp6351
S'title'
p6352
asbag57
(g78
g59
NtRp6353
(dp6354
g62
(dp6355
g89
g90
ssg71
g6344
sg64
(lp6356
S':'
asbag57
(g78
g59
NtRp6357
(dp6358
g62
(dp6359
sg71
g6344
sg64
(lp6360
g57
(g58
g59
NtRp6361
(dp6362
g62
(dp6363
g70
I5
ssg71
g6357
sg64
(lp6364
S'IIIT-H Hostel Management Portal'
p6365
asbasbasbag57
(g73
g59
NtRp6366
(dp6367
g62
(dp6368
sg71
g4714
sg64
(lp6369
g57
(g78
g59
NtRp6370
(dp6371
g62
(dp6372
g82
g83
ssg71
g6366
sg64
(lp6373
S'vcomplaint'
p6374
asbag57
(g78
g59
NtRp6375
(dp6376
g62
(dp6377
g89
g90
ssg71
g6366
sg64
(lp6378
S':'
asbag57
(g78
g59
NtRp6379
(dp6380
g62
(dp6381
sg71
g6366
sg64
(lp6382
g57
(g58
g59
NtRp6383
(dp6384
g62
(dp6385
g70
I5
ssg71
g6379
sg64
(lp6386
g57
(g66
g59
NtRp6387
(dp6388
g62
(dp6389
g70
I4
ssg71
Nsg64
(lp6390
g57
(g73
g59
NtRp6391
(dp6392
g62
(dp6393
sg71
g6387
sg64
(lp6394
g57
(g78
g59
NtRp6395
(dp6396
g62
(dp6397
sg71
g6391
sg64
(lp6398
g57
(g58
g59
NtRp6399
(dp6400
g62
(dp6401
g70
I4
ssg71
g6395
sg64
(lp6402
g57
(g66
g59
NtRp6403
(dp6404
g62
(dp6405
g70
I3
ssg71
Nsg64
(lp6406
g57
(g73
g59
NtRp6407
(dp6408
g62
(dp6409
sg71
g6403
sg64
(lp6410
g57
(g78
g59
NtRp6411
(dp6412
g62
(dp6413
sg71
g6407
sg64
(lp6414
g57
(g58
g59
NtRp6415
(dp6416
g62
(dp6417
g70
I3
ssg71
g6411
sg64
(lp6418
g4792
(S's\x0f\x00\x00\x00View Complaints'
tRp6419
asbasbasbag57
(g73
g59
NtRp6420
(dp6421
g62
(dp6422
sg71
g6403
sg64
(lp6423
g57
(g78
g59
NtRp6424
(dp6425
g62
(dp6426
sg71
g6420
sg64
(lp6427
g57
(g58
g59
NtRp6428
(dp6429
g62
(dp6430
g70
I3
ssg71
g6424
sg64
(lp6431
g100
asbasbasbag57
(g73
g59
NtRp6432
(dp6433
g62
(dp6434
sg71
g6403
sg64
(lp6435
g57
(g78
g59
NtRp6436
(dp6437
g62
(dp6438
sg71
g6432
sg64
(lp6439
g57
(g58
g59
NtRp6440
(dp6441
g62
(dp6442
g70
I3
ssg71
g6436
sg64
(lp6443
S'/sss/default/vcomplaint'
p6444
asbasbasbag57
(g73
g59
NtRp6445
(dp6446
g62
(dp6447
sg71
g6403
sg64
(lp6448
g57
(g78
g59
NtRp6449
(dp6450
g62
(dp6451
sg71
g6445
sg64
(lp6452
g57
(g58
g59
NtRp6453
(dp6454
g62
(dp6455
g70
I3
ssg71
g6449
sg64
(lp6456
g57
(g66
g59
NtRp6457
(dp6458
g62
(dp6459
g70
I2
ssg71
Nsg64
(lp6460
sbasbasbasbasbasbasbasbasbasbasbasbag57
(g73
g59
NtRp6461
(dp6462
g62
(dp6463
sg71
g4714
sg64
(lp6464
g57
(g78
g59
NtRp6465
(dp6466
g62
(dp6467
g82
g83
ssg71
g6461
sg64
(lp6468
S'view'
p6469
asbag57
(g78
g59
NtRp6470
(dp6471
g62
(dp6472
g89
g90
ssg71
g6461
sg64
(lp6473
S':'
asbag57
(g78
g59
NtRp6474
(dp6475
g62
(dp6476
sg71
g6461
sg64
(lp6477
g57
(g58
g59
NtRp6478
(dp6479
g62
(dp6480
g70
I5
ssg71
g6474
sg64
(lp6481
S'default/login.html'
p6482
asbasbasbasbasbsS'locals'
p6483
(dp6484
S'i'
S'0'
sS'self'
p6485
S'<Rows (0)>'
p6486
sssS'traceback'
p6487
S'Traceback (most recent call last):\n  File "/home/bhanu/web2py/gluon/restricted.py", line 212, in restricted\n    exec ccode in environment\n  File "/home/bhanu/web2py/applications/sss/controllers/default.py", line 410, in <module>\n  File "/home/bhanu/web2py/gluon/globals.py", line 188, in <lambda>\n    self._caller = lambda f: f()\n  File "/home/bhanu/web2py/applications/sss/controllers/default.py", line 23, in login\n    session.name=name[0].name\n  File "/home/bhanu/web2py/gluon/dal.py", line 9051, in __getitem__\n    row = self.records[i]\nIndexError: list index out of range\n'
p6488
s.