(dp1
S'output'
p2
S"<type 'exceptions.TypeError'> __call__() takes at least 2 arguments (1 given)"
p3
sS'layer'
p4
S'C:\\Users\\bhanu\\Downloads\\Compressed\\web2py\\applications\\hostel\\controllers/default.py'
p5
sS'code'
p6
S'# -*- coding: utf-8 -*-\n### required - do no delete\n\ndef user(): return dict(form=auth())\ndef download(): return response.download(request,db)\ndef call(): return service()\n### end requires\n@auth.requires_login()\n\ndef poll():\n    return dict()\n\ndef sr():\n    l=len(request.args())\n    \n    return dict(l=l,q=request.args(1))\ndef index():\n    session.flash=response.flash\n    a=db(auth.user_id==db.auth_membership.user_id).select(db.auth_membership.ALL)\n    if a[0].group_id==5:\n        redirect(URL(r=request,f=\'student\'))\n    if a[0].group_id==6:\n        redirect(URL(r=request,f=\'staff\'))\n    if a[0].group_id==7:\n        redirect(URL(r=request,f=\'puser\'))\n    if a[0].group_id==8:\n        redirect(URL(r=request,f=\'admin\'))    \n  \ndef add_news_feed():\n    form=SQLFORM(db.news_feed);\n    if form.accepts(request.vars,session):\n        session.flash="Newsfeed Added"\n        redirect(URL(r=request,f=\'index\'))\n    return dict(form=form)\n      \n\ndef student():\n    newsfeed=db().select(db.news_feed.ALL,orderby=~db.news_feed.id)\n    return dict(newsfeed=newsfeed)\n\n   \ndef staff():\n    return dict()\n \ndef one(): \n    return dict()\n\ndef puser():  \n    newsfeed=db().select(db.news_feed.ALL,orderby=~db.news_feed.id)\n    polls=db().select(db.poll.ALL,orderby=~db.poll.id)\n    return dict(newsfeed=newsfeed,polls=polls)\n\ndef admin():\n    return dict()   \n         \ndef error():\n    return dict()\n    \nimport datetime\nimport time\ndef enter_laptop_details():\n    form=SQLFORM(db.laptop)\n    if form.accepts(request.vars,session):\n        session.flash = T(\'laptop details entered\')\n        redirect(URL(r=request,f=\'index\'))\n\n    return dict(form=form)\ndef laptop_out_details():\n    form=SQLFORM(db.laptop_out)\n    if form.accepts(request.vars,session):\n        session.flash="Laptop Details Entered"\n        redirect(URL(r=request,f=\'show_laptop_details\',args=form.vars.roll_no))\n    return dict(form=form)\ndef student_out_details():\n    form=SQLFORM(db.student_out)\n    if form.accepts(request.vars,session):\n        session.flash="student Details Entered"\n        if form.vars.laptop_presence=="present":\n            db.laptop_out.insert(roll_no=form.vars.roll_no,reason="outside campus")\n            redirect(URL(r=request,f=\'show_laptop_details\',args=form.vars.roll_no))\n        else:\n            redirect(URL(r=request,f=\'index\'))\n    return dict(form=form)\ndef show_laptop_details():\n    i=request.args\n    \n    laptop=db(db.laptop.roll_no==i[0]).select(db.laptop.ALL)\n    if not laptop:\n        session.flash="No Record Found Enter Details"\n        redirect(URL(r=request,f= enter_laptop_details))\n    name=db(db.students.roll_no==i[0]).select(db.students.name)\n    return dict(form=laptop)\n    \ndef regcomplaint():\n    now = time.localtime(time.time())\n    year, month, day, hour, minute, second, weekday, yearday, daylight = now\n    \n    db.complaint.User.default=auth.user.username\n    db.complaint.Date.default=datetime.datetime.today()\n    db.complaint.Time.default="%02d:%02d:%02d" % (hour, minute, second)\n    db.complaint.Flag.default=1\n    form = SQLFORM(db.complaint)\n    if form.process().accepted:\n        response.flash = \'your complaint is registered\'\n        redirect(URL(r=request,f=\'index\'))\n    return dict(form=form)\n@auth.requires_login()\ndef complaint():\n    return dict()\ndef showcomplaint():\n    return dict()\ndef viewprivate():\n    query=(db.complaint.User==auth.user.username) & (db.complaint.Flag==1)\n    set=db(query)\n    complaints=set.select()\n    return dict(complaints=complaints)\ndef delcomplaint():\n    remove = db(db.complaint.id==request.args(0)).delete()\n    if remove:\n        response.flash=\'complaint deleted succesfully\'\n        redirect(URL(\'viewprivate\'))\n    else:\n        response.flash=\'image deletion failed\'\ndef viewpublic():\n    query=(db.complaint.access!="Private") & (db.complaint.Flag!=0)\n    set=db(query)\n    complaints=set.select()\n    return dict(complaints=complaints)\ndef metcomplaint():\n    db(db.complaint.id==request.args(0)).update(Flag=0)\n    response.flash=\'Removed the complaint succesfully\'\n    redirect(URL(\'viewprivate\'))\ndef search():\n    return dict()\ndef byname():\n    return dict()\ndef byroll():\n    return dict()\ndef byroom():\n    return dict()\ndef searchbyroll():\n    roll=request.vars.roll\n    query=(db.students.roll_no==roll)\n    set=db(query)\n    result=set.select()\n    return dict(result=result)\n\ndef searchbyroom():\n    room=request.vars.room\n    query=(db.students.room_no==room)\n    set=db(query)\n    result=set.select()\n    return dict(result=result)\n\ndef searchbyname():\n    name=request.vars.name.lower()\n    query=db.students.name.lower().startswith(name)\n    set=db(query)\n    result=set.select()\n    return dict(result=result)\n\ndef viewprofile():\n    query=(db.students.roll_no==request.args(0))\n    set=db(query)\n    prof=set.select()\n    return dict(prof=prof)\n\nresponse._vars=response._caller(sr)\n'
p7
sS'snapshot'
p8
(dp9
S'exception'
p10
(dp11
S'__hash__'
p12
S"<method-wrapper '__hash__' of exceptions.TypeError object at 0x066C6EE0>"
p13
sS'__setattr__'
p14
S"<method-wrapper '__setattr__' of exceptions.TypeError object at 0x066C6EE0>"
p15
sS'__reduce_ex__'
p16
S'<built-in method __reduce_ex__ of exceptions.TypeError object at 0x066C6EE0>'
p17
sS'__getslice__'
p18
S"<method-wrapper '__getslice__' of exceptions.TypeError object at 0x066C6EE0>"
p19
sS'__getitem__'
p20
S"<method-wrapper '__getitem__' of exceptions.TypeError object at 0x066C6EE0>"
p21
sS'__setstate__'
p22
S'<built-in method __setstate__ of exceptions.TypeError object at 0x066C6EE0>'
p23
sS'__reduce__'
p24
S'<built-in method __reduce__ of exceptions.TypeError object at 0x066C6EE0>'
p25
sS'__str__'
p26
S"<method-wrapper '__str__' of exceptions.TypeError object at 0x066C6EE0>"
p27
sS'args'
p28
S"('__call__() takes at least 2 arguments (1 given)',)"
p29
sS'__getattribute__'
p30
S"<method-wrapper '__getattribute__' of exceptions.TypeError object at 0x066C6EE0>"
p31
sS'__class__'
p32
S"<type 'exceptions.TypeError'>"
p33
sS'__delattr__'
p34
S"<method-wrapper '__delattr__' of exceptions.TypeError object at 0x066C6EE0>"
p35
sS'__repr__'
p36
S"<method-wrapper '__repr__' of exceptions.TypeError object at 0x066C6EE0>"
p37
sS'__dict__'
p38
S'{}'
p39
sS'__doc__'
p40
S"'Inappropriate argument type.'"
p41
sS'__init__'
p42
S"<method-wrapper '__init__' of exceptions.TypeError object at 0x066C6EE0>"
p43
sS'__new__'
p44
S'<built-in method __new__ of type object at 0x1E1CCD78>'
p45
ssS'evalue'
p46
S'__call__() takes at least 2 arguments (1 given)'
p47
sS'request'
p48
ccopy_reg
_reconstructor
p49
(cgluon.html
BEAUTIFY
p50
c__builtin__
object
p51
NtRp52
(dp53
S'attributes'
p54
(dp55
sS'components'
p56
(lp57
g49
(cgluon.html
TABLE
p58
g51
NtRp59
(dp60
g54
(dp61
S'level'
p62
I5
ssS'parent'
p63
Nsg56
(lp64
g49
(cgluon.html
TR
p65
g51
NtRp66
(dp67
g54
(dp68
sg63
g59
sg56
(lp69
g49
(cgluon.html
TD
p70
g51
NtRp71
(dp72
g54
(dp73
S'_style'
p74
S'font-weight:bold;vertical-align:top'
p75
ssg63
g66
sg56
(lp76
S'ajax'
p77
asbag49
(g70
g51
NtRp78
(dp79
g54
(dp80
S'_valign'
p81
S'top'
p82
ssg63
g66
sg56
(lp83
S':'
asbag49
(g70
g51
NtRp84
(dp85
g54
(dp86
sg63
g66
sg56
(lp87
g49
(g50
g51
NtRp88
(dp89
g54
(dp90
g62
I5
ssg63
g84
sg56
(lp91
S'False'
p92
asbasbasbag49
(g65
g51
NtRp93
(dp94
g54
(dp95
sg63
g59
sg56
(lp96
g49
(g70
g51
NtRp97
(dp98
g54
(dp99
g74
g75
ssg63
g93
sg56
(lp100
S'application'
p101
asbag49
(g70
g51
NtRp102
(dp103
g54
(dp104
g81
g82
ssg63
g93
sg56
(lp105
S':'
asbag49
(g70
g51
NtRp106
(dp107
g54
(dp108
sg63
g93
sg56
(lp109
g49
(g50
g51
NtRp110
(dp111
g54
(dp112
g62
I5
ssg63
g106
sg56
(lp113
S'hostel'
p114
asbasbasbag49
(g65
g51
NtRp115
(dp116
g54
(dp117
sg63
g59
sg56
(lp118
g49
(g70
g51
NtRp119
(dp120
g54
(dp121
g74
g75
ssg63
g115
sg56
(lp122
g28
asbag49
(g70
g51
NtRp123
(dp124
g54
(dp125
g81
g82
ssg63
g115
sg56
(lp126
S':'
asbag49
(g70
g51
NtRp127
(dp128
g54
(dp129
sg63
g115
sg56
(lp130
g49
(g50
g51
NtRp131
(dp132
g54
(dp133
g62
I5
ssg63
g127
sg56
(lp134
g49
(g58
g51
NtRp135
(dp136
g54
(dp137
g62
I4
ssg63
Nsg56
(lp138
g49
(g65
g51
NtRp139
(dp140
g54
(dp141
sg63
g135
sg56
(lp142
g49
(g70
g51
NtRp143
(dp144
g54
(dp145
sg63
g139
sg56
(lp146
g49
(g50
g51
NtRp147
(dp148
g54
(dp149
g62
I4
ssg63
g143
sg56
(lp150
S'lllllllll'
p151
asbasbasbasbasbasbasbag49
(g65
g51
NtRp152
(dp153
g54
(dp154
sg63
g59
sg56
(lp155
g49
(g70
g51
NtRp156
(dp157
g54
(dp158
g74
g75
ssg63
g152
sg56
(lp159
S'body'
p160
asbag49
(g70
g51
NtRp161
(dp162
g54
(dp163
g81
g82
ssg63
g152
sg56
(lp164
S':'
asbag49
(g70
g51
NtRp165
(dp166
g54
(dp167
sg63
g152
sg56
(lp168
g49
(g50
g51
NtRp169
(dp170
g54
(dp171
g62
I5
ssg63
g165
sg56
(lp172
S'<cStringIO.StringO object at 0x07679AE0>'
p173
asbasbasbag49
(g65
g51
NtRp174
(dp175
g54
(dp176
sg63
g59
sg56
(lp177
g49
(g70
g51
NtRp178
(dp179
g54
(dp180
g74
g75
ssg63
g174
sg56
(lp181
S'client'
p182
asbag49
(g70
g51
NtRp183
(dp184
g54
(dp185
g81
g82
ssg63
g174
sg56
(lp186
S':'
asbag49
(g70
g51
NtRp187
(dp188
g54
(dp189
sg63
g174
sg56
(lp190
g49
(g50
g51
NtRp191
(dp192
g54
(dp193
g62
I5
ssg63
g187
sg56
(lp194
S'127.0.0.1'
p195
asbasbasbag49
(g65
g51
NtRp196
(dp197
g54
(dp198
sg63
g59
sg56
(lp199
g49
(g70
g51
NtRp200
(dp201
g54
(dp202
g74
g75
ssg63
g196
sg56
(lp203
S'controller'
p204
asbag49
(g70
g51
NtRp205
(dp206
g54
(dp207
g81
g82
ssg63
g196
sg56
(lp208
S':'
asbag49
(g70
g51
NtRp209
(dp210
g54
(dp211
sg63
g196
sg56
(lp212
g49
(g50
g51
NtRp213
(dp214
g54
(dp215
g62
I5
ssg63
g209
sg56
(lp216
S'default'
p217
asbasbasbag49
(g65
g51
NtRp218
(dp219
g54
(dp220
sg63
g59
sg56
(lp221
g49
(g70
g51
NtRp222
(dp223
g54
(dp224
g74
g75
ssg63
g218
sg56
(lp225
S'cookies'
p226
asbag49
(g70
g51
NtRp227
(dp228
g54
(dp229
g81
g82
ssg63
g218
sg56
(lp230
S':'
asbag49
(g70
g51
NtRp231
(dp232
g54
(dp233
sg63
g218
sg56
(lp234
g49
(g50
g51
NtRp235
(dp236
g54
(dp237
g62
I5
ssg63
g231
sg56
(lp238
g49
(g58
g51
NtRp239
(dp240
g54
(dp241
g62
I4
ssg63
Nsg56
(lp242
g49
(g65
g51
NtRp243
(dp244
g54
(dp245
sg63
g239
sg56
(lp246
g49
(g70
g51
NtRp247
(dp248
g54
(dp249
g74
g75
ssg63
g243
sg56
(lp250
S'session_id_admin'
p251
asbag49
(g70
g51
NtRp252
(dp253
g54
(dp254
g81
g82
ssg63
g243
sg56
(lp255
S':'
asbag49
(g70
g51
NtRp256
(dp257
g54
(dp258
sg63
g243
sg56
(lp259
g49
(g50
g51
NtRp260
(dp261
g54
(dp262
g62
I4
ssg63
g256
sg56
(lp263
g49
(g58
g51
NtRp264
(dp265
g54
(dp266
g62
I3
ssg63
Nsg56
(lp267
g49
(g65
g51
NtRp268
(dp269
g54
(dp270
sg63
g264
sg56
(lp271
g49
(g70
g51
NtRp272
(dp273
g54
(dp274
g74
g75
ssg63
g268
sg56
(lp275
S'comment'
p276
asbag49
(g70
g51
NtRp277
(dp278
g54
(dp279
g81
g82
ssg63
g268
sg56
(lp280
S':'
asbag49
(g70
g51
NtRp281
(dp282
g54
(dp283
sg63
g268
sg56
(lp284
g49
(g50
g51
NtRp285
(dp286
g54
(dp287
g62
I3
ssg63
g281
sg56
(lp288
S''
asbasbasbag49
(g65
g51
NtRp289
(dp290
g54
(dp291
sg63
g264
sg56
(lp292
g49
(g70
g51
NtRp293
(dp294
g54
(dp295
g74
g75
ssg63
g289
sg56
(lp296
S'domain'
p297
asbag49
(g70
g51
NtRp298
(dp299
g54
(dp300
g81
g82
ssg63
g289
sg56
(lp301
S':'
asbag49
(g70
g51
NtRp302
(dp303
g54
(dp304
sg63
g289
sg56
(lp305
g49
(g50
g51
NtRp306
(dp307
g54
(dp308
g62
I3
ssg63
g302
sg56
(lp309
S''
asbasbasbag49
(g65
g51
NtRp310
(dp311
g54
(dp312
sg63
g264
sg56
(lp313
g49
(g70
g51
NtRp314
(dp315
g54
(dp316
g74
g75
ssg63
g310
sg56
(lp317
S'expires'
p318
asbag49
(g70
g51
NtRp319
(dp320
g54
(dp321
g81
g82
ssg63
g310
sg56
(lp322
S':'
asbag49
(g70
g51
NtRp323
(dp324
g54
(dp325
sg63
g310
sg56
(lp326
g49
(g50
g51
NtRp327
(dp328
g54
(dp329
g62
I3
ssg63
g323
sg56
(lp330
S''
asbasbasbag49
(g65
g51
NtRp331
(dp332
g54
(dp333
sg63
g264
sg56
(lp334
g49
(g70
g51
NtRp335
(dp336
g54
(dp337
g74
g75
ssg63
g331
sg56
(lp338
S'max-age'
p339
asbag49
(g70
g51
NtRp340
(dp341
g54
(dp342
g81
g82
ssg63
g331
sg56
(lp343
S':'
asbag49
(g70
g51
NtRp344
(dp345
g54
(dp346
sg63
g331
sg56
(lp347
g49
(g50
g51
NtRp348
(dp349
g54
(dp350
g62
I3
ssg63
g344
sg56
(lp351
S''
asbasbasbag49
(g65
g51
NtRp352
(dp353
g54
(dp354
sg63
g264
sg56
(lp355
g49
(g70
g51
NtRp356
(dp357
g54
(dp358
g74
g75
ssg63
g352
sg56
(lp359
S'path'
p360
asbag49
(g70
g51
NtRp361
(dp362
g54
(dp363
g81
g82
ssg63
g352
sg56
(lp364
S':'
asbag49
(g70
g51
NtRp365
(dp366
g54
(dp367
sg63
g352
sg56
(lp368
g49
(g50
g51
NtRp369
(dp370
g54
(dp371
g62
I3
ssg63
g365
sg56
(lp372
S''
asbasbasbag49
(g65
g51
NtRp373
(dp374
g54
(dp375
sg63
g264
sg56
(lp376
g49
(g70
g51
NtRp377
(dp378
g54
(dp379
g74
g75
ssg63
g373
sg56
(lp380
S'secure'
p381
asbag49
(g70
g51
NtRp382
(dp383
g54
(dp384
g81
g82
ssg63
g373
sg56
(lp385
S':'
asbag49
(g70
g51
NtRp386
(dp387
g54
(dp388
sg63
g373
sg56
(lp389
g49
(g50
g51
NtRp390
(dp391
g54
(dp392
g62
I3
ssg63
g386
sg56
(lp393
S''
asbasbasbag49
(g65
g51
NtRp394
(dp395
g54
(dp396
sg63
g264
sg56
(lp397
g49
(g70
g51
NtRp398
(dp399
g54
(dp400
g74
g75
ssg63
g394
sg56
(lp401
S'version'
p402
asbag49
(g70
g51
NtRp403
(dp404
g54
(dp405
g81
g82
ssg63
g394
sg56
(lp406
S':'
asbag49
(g70
g51
NtRp407
(dp408
g54
(dp409
sg63
g394
sg56
(lp410
g49
(g50
g51
NtRp411
(dp412
g54
(dp413
g62
I3
ssg63
g407
sg56
(lp414
S''
asbasbasbasbasbasbasbag49
(g65
g51
NtRp415
(dp416
g54
(dp417
sg63
g239
sg56
(lp418
g49
(g70
g51
NtRp419
(dp420
g54
(dp421
g74
g75
ssg63
g415
sg56
(lp422
S'session_id_hostel'
p423
asbag49
(g70
g51
NtRp424
(dp425
g54
(dp426
g81
g82
ssg63
g415
sg56
(lp427
S':'
asbag49
(g70
g51
NtRp428
(dp429
g54
(dp430
sg63
g415
sg56
(lp431
g49
(g50
g51
NtRp432
(dp433
g54
(dp434
g62
I4
ssg63
g428
sg56
(lp435
g49
(g58
g51
NtRp436
(dp437
g54
(dp438
g62
I3
ssg63
Nsg56
(lp439
g49
(g65
g51
NtRp440
(dp441
g54
(dp442
sg63
g436
sg56
(lp443
g49
(g70
g51
NtRp444
(dp445
g54
(dp446
g74
g75
ssg63
g440
sg56
(lp447
g276
asbag49
(g70
g51
NtRp448
(dp449
g54
(dp450
g81
g82
ssg63
g440
sg56
(lp451
S':'
asbag49
(g70
g51
NtRp452
(dp453
g54
(dp454
sg63
g440
sg56
(lp455
g49
(g50
g51
NtRp456
(dp457
g54
(dp458
g62
I3
ssg63
g452
sg56
(lp459
S''
asbasbasbag49
(g65
g51
NtRp460
(dp461
g54
(dp462
sg63
g436
sg56
(lp463
g49
(g70
g51
NtRp464
(dp465
g54
(dp466
g74
g75
ssg63
g460
sg56
(lp467
g297
asbag49
(g70
g51
NtRp468
(dp469
g54
(dp470
g81
g82
ssg63
g460
sg56
(lp471
S':'
asbag49
(g70
g51
NtRp472
(dp473
g54
(dp474
sg63
g460
sg56
(lp475
g49
(g50
g51
NtRp476
(dp477
g54
(dp478
g62
I3
ssg63
g472
sg56
(lp479
S''
asbasbasbag49
(g65
g51
NtRp480
(dp481
g54
(dp482
sg63
g436
sg56
(lp483
g49
(g70
g51
NtRp484
(dp485
g54
(dp486
g74
g75
ssg63
g480
sg56
(lp487
g318
asbag49
(g70
g51
NtRp488
(dp489
g54
(dp490
g81
g82
ssg63
g480
sg56
(lp491
S':'
asbag49
(g70
g51
NtRp492
(dp493
g54
(dp494
sg63
g480
sg56
(lp495
g49
(g50
g51
NtRp496
(dp497
g54
(dp498
g62
I3
ssg63
g492
sg56
(lp499
S''
asbasbasbag49
(g65
g51
NtRp500
(dp501
g54
(dp502
sg63
g436
sg56
(lp503
g49
(g70
g51
NtRp504
(dp505
g54
(dp506
g74
g75
ssg63
g500
sg56
(lp507
g339
asbag49
(g70
g51
NtRp508
(dp509
g54
(dp510
g81
g82
ssg63
g500
sg56
(lp511
S':'
asbag49
(g70
g51
NtRp512
(dp513
g54
(dp514
sg63
g500
sg56
(lp515
g49
(g50
g51
NtRp516
(dp517
g54
(dp518
g62
I3
ssg63
g512
sg56
(lp519
S''
asbasbasbag49
(g65
g51
NtRp520
(dp521
g54
(dp522
sg63
g436
sg56
(lp523
g49
(g70
g51
NtRp524
(dp525
g54
(dp526
g74
g75
ssg63
g520
sg56
(lp527
g360
asbag49
(g70
g51
NtRp528
(dp529
g54
(dp530
g81
g82
ssg63
g520
sg56
(lp531
S':'
asbag49
(g70
g51
NtRp532
(dp533
g54
(dp534
sg63
g520
sg56
(lp535
g49
(g50
g51
NtRp536
(dp537
g54
(dp538
g62
I3
ssg63
g532
sg56
(lp539
S''
asbasbasbag49
(g65
g51
NtRp540
(dp541
g54
(dp542
sg63
g436
sg56
(lp543
g49
(g70
g51
NtRp544
(dp545
g54
(dp546
g74
g75
ssg63
g540
sg56
(lp547
g381
asbag49
(g70
g51
NtRp548
(dp549
g54
(dp550
g81
g82
ssg63
g540
sg56
(lp551
S':'
asbag49
(g70
g51
NtRp552
(dp553
g54
(dp554
sg63
g540
sg56
(lp555
g49
(g50
g51
NtRp556
(dp557
g54
(dp558
g62
I3
ssg63
g552
sg56
(lp559
S''
asbasbasbag49
(g65
g51
NtRp560
(dp561
g54
(dp562
sg63
g436
sg56
(lp563
g49
(g70
g51
NtRp564
(dp565
g54
(dp566
g74
g75
ssg63
g560
sg56
(lp567
g402
asbag49
(g70
g51
NtRp568
(dp569
g54
(dp570
g81
g82
ssg63
g560
sg56
(lp571
S':'
asbag49
(g70
g51
NtRp572
(dp573
g54
(dp574
sg63
g560
sg56
(lp575
g49
(g50
g51
NtRp576
(dp577
g54
(dp578
g62
I3
ssg63
g572
sg56
(lp579
S''
asbasbasbasbasbasbasbag49
(g65
g51
NtRp580
(dp581
g54
(dp582
sg63
g239
sg56
(lp583
g49
(g70
g51
NtRp584
(dp585
g54
(dp586
g74
g75
ssg63
g580
sg56
(lp587
S'session_id_welcome'
p588
asbag49
(g70
g51
NtRp589
(dp590
g54
(dp591
g81
g82
ssg63
g580
sg56
(lp592
S':'
asbag49
(g70
g51
NtRp593
(dp594
g54
(dp595
sg63
g580
sg56
(lp596
g49
(g50
g51
NtRp597
(dp598
g54
(dp599
g62
I4
ssg63
g593
sg56
(lp600
g49
(g58
g51
NtRp601
(dp602
g54
(dp603
g62
I3
ssg63
Nsg56
(lp604
g49
(g65
g51
NtRp605
(dp606
g54
(dp607
sg63
g601
sg56
(lp608
g49
(g70
g51
NtRp609
(dp610
g54
(dp611
g74
g75
ssg63
g605
sg56
(lp612
g276
asbag49
(g70
g51
NtRp613
(dp614
g54
(dp615
g81
g82
ssg63
g605
sg56
(lp616
S':'
asbag49
(g70
g51
NtRp617
(dp618
g54
(dp619
sg63
g605
sg56
(lp620
g49
(g50
g51
NtRp621
(dp622
g54
(dp623
g62
I3
ssg63
g617
sg56
(lp624
S''
asbasbasbag49
(g65
g51
NtRp625
(dp626
g54
(dp627
sg63
g601
sg56
(lp628
g49
(g70
g51
NtRp629
(dp630
g54
(dp631
g74
g75
ssg63
g625
sg56
(lp632
g297
asbag49
(g70
g51
NtRp633
(dp634
g54
(dp635
g81
g82
ssg63
g625
sg56
(lp636
S':'
asbag49
(g70
g51
NtRp637
(dp638
g54
(dp639
sg63
g625
sg56
(lp640
g49
(g50
g51
NtRp641
(dp642
g54
(dp643
g62
I3
ssg63
g637
sg56
(lp644
S''
asbasbasbag49
(g65
g51
NtRp645
(dp646
g54
(dp647
sg63
g601
sg56
(lp648
g49
(g70
g51
NtRp649
(dp650
g54
(dp651
g74
g75
ssg63
g645
sg56
(lp652
g318
asbag49
(g70
g51
NtRp653
(dp654
g54
(dp655
g81
g82
ssg63
g645
sg56
(lp656
S':'
asbag49
(g70
g51
NtRp657
(dp658
g54
(dp659
sg63
g645
sg56
(lp660
g49
(g50
g51
NtRp661
(dp662
g54
(dp663
g62
I3
ssg63
g657
sg56
(lp664
S''
asbasbasbag49
(g65
g51
NtRp665
(dp666
g54
(dp667
sg63
g601
sg56
(lp668
g49
(g70
g51
NtRp669
(dp670
g54
(dp671
g74
g75
ssg63
g665
sg56
(lp672
g339
asbag49
(g70
g51
NtRp673
(dp674
g54
(dp675
g81
g82
ssg63
g665
sg56
(lp676
S':'
asbag49
(g70
g51
NtRp677
(dp678
g54
(dp679
sg63
g665
sg56
(lp680
g49
(g50
g51
NtRp681
(dp682
g54
(dp683
g62
I3
ssg63
g677
sg56
(lp684
S''
asbasbasbag49
(g65
g51
NtRp685
(dp686
g54
(dp687
sg63
g601
sg56
(lp688
g49
(g70
g51
NtRp689
(dp690
g54
(dp691
g74
g75
ssg63
g685
sg56
(lp692
g360
asbag49
(g70
g51
NtRp693
(dp694
g54
(dp695
g81
g82
ssg63
g685
sg56
(lp696
S':'
asbag49
(g70
g51
NtRp697
(dp698
g54
(dp699
sg63
g685
sg56
(lp700
g49
(g50
g51
NtRp701
(dp702
g54
(dp703
g62
I3
ssg63
g697
sg56
(lp704
S''
asbasbasbag49
(g65
g51
NtRp705
(dp706
g54
(dp707
sg63
g601
sg56
(lp708
g49
(g70
g51
NtRp709
(dp710
g54
(dp711
g74
g75
ssg63
g705
sg56
(lp712
g381
asbag49
(g70
g51
NtRp713
(dp714
g54
(dp715
g81
g82
ssg63
g705
sg56
(lp716
S':'
asbag49
(g70
g51
NtRp717
(dp718
g54
(dp719
sg63
g705
sg56
(lp720
g49
(g50
g51
NtRp721
(dp722
g54
(dp723
g62
I3
ssg63
g717
sg56
(lp724
S''
asbasbasbag49
(g65
g51
NtRp725
(dp726
g54
(dp727
sg63
g601
sg56
(lp728
g49
(g70
g51
NtRp729
(dp730
g54
(dp731
g74
g75
ssg63
g725
sg56
(lp732
g402
asbag49
(g70
g51
NtRp733
(dp734
g54
(dp735
g81
g82
ssg63
g725
sg56
(lp736
S':'
asbag49
(g70
g51
NtRp737
(dp738
g54
(dp739
sg63
g725
sg56
(lp740
g49
(g50
g51
NtRp741
(dp742
g54
(dp743
g62
I3
ssg63
g737
sg56
(lp744
S''
asbasbasbasbasbasbasbasbasbasbasbag49
(g65
g51
NtRp745
(dp746
g54
(dp747
sg63
g59
sg56
(lp748
g49
(g70
g51
NtRp749
(dp750
g54
(dp751
g74
g75
ssg63
g745
sg56
(lp752
S'env'
p753
asbag49
(g70
g51
NtRp754
(dp755
g54
(dp756
g81
g82
ssg63
g745
sg56
(lp757
S':'
asbag49
(g70
g51
NtRp758
(dp759
g54
(dp760
sg63
g745
sg56
(lp761
g49
(g50
g51
NtRp762
(dp763
g54
(dp764
g62
I5
ssg63
g758
sg56
(lp765
g49
(g58
g51
NtRp766
(dp767
g54
(dp768
g62
I4
ssg63
Nsg56
(lp769
g49
(g65
g51
NtRp770
(dp771
g54
(dp772
sg63
g766
sg56
(lp773
g49
(g70
g51
NtRp774
(dp775
g54
(dp776
g74
g75
ssg63
g770
sg56
(lp777
S'app_folders'
p778
asbag49
(g70
g51
NtRp779
(dp780
g54
(dp781
g81
g82
ssg63
g770
sg56
(lp782
S':'
asbag49
(g70
g51
NtRp783
(dp784
g54
(dp785
sg63
g770
sg56
(lp786
g49
(g50
g51
NtRp787
(dp788
g54
(dp789
g62
I4
ssg63
g783
sg56
(lp790
S"set(['C:\\\\Users\\\\bhanu\\\\Downloads\\\\Compressed\\\\web2py\\\\applications\\\\examples\\\\', 'C:\\\\Users\\\\bhanu\\\\Downloads\\\\Compressed\\\\web2py\\\\applications\\\\hostel\\\\', 'C:\\\\Users\\\\bhanu\\\\Downloads\\\\Compressed\\\\web2py\\\\applications\\\\admin\\\\', 'C:\\\\Users\\\\bhanu\\\\Downloads\\\\Compressed\\\\web2py\\\\applications\\\\welcome\\\\'])"
p791
asbasbasbag49
(g65
g51
NtRp792
(dp793
g54
(dp794
sg63
g766
sg56
(lp795
g49
(g70
g51
NtRp796
(dp797
g54
(dp798
g74
g75
ssg63
g792
sg56
(lp799
S'applications_parent'
p800
asbag49
(g70
g51
NtRp801
(dp802
g54
(dp803
g81
g82
ssg63
g792
sg56
(lp804
S':'
asbag49
(g70
g51
NtRp805
(dp806
g54
(dp807
sg63
g792
sg56
(lp808
g49
(g50
g51
NtRp809
(dp810
g54
(dp811
g62
I4
ssg63
g805
sg56
(lp812
S'C:\\Users\\bhanu\\Downloads\\Compressed\\web2py'
p813
asbasbasbag49
(g65
g51
NtRp814
(dp815
g54
(dp816
sg63
g766
sg56
(lp817
g49
(g70
g51
NtRp818
(dp819
g54
(dp820
g74
g75
ssg63
g814
sg56
(lp821
S'cmd_args'
p822
asbag49
(g70
g51
NtRp823
(dp824
g54
(dp825
g81
g82
ssg63
g814
sg56
(lp826
S':'
asbag49
(g70
g51
NtRp827
(dp828
g54
(dp829
sg63
g814
sg56
(lp830
g49
(g50
g51
NtRp831
(dp832
g54
(dp833
g62
I4
ssg63
g827
sg56
(lp834
g49
(g58
g51
NtRp835
(dp836
g54
(dp837
g62
I3
ssg63
Nsg56
(lp838
sbasbasbasbag49
(g65
g51
NtRp839
(dp840
g54
(dp841
sg63
g766
sg56
(lp842
g49
(g70
g51
NtRp843
(dp844
g54
(dp845
g74
g75
ssg63
g839
sg56
(lp846
S'cmd_options'
p847
asbag49
(g70
g51
NtRp848
(dp849
g54
(dp850
g81
g82
ssg63
g839
sg56
(lp851
S':'
asbag49
(g70
g51
NtRp852
(dp853
g54
(dp854
sg63
g839
sg56
(lp855
g49
(g50
g51
NtRp856
(dp857
g54
(dp858
g62
I4
ssg63
g852
sg56
(lp859
S"<Values at 0x2ec1f58: {'verbose': False, 'ip': '127.0.0.1', 'shutdown_timeout': 5, 'taskbar': False, 'nocron': False, 'pid_filename': 'httpserver.pid', 'maxthreads': None, 'softcron': False, 'server_name': 'bhanu-PC', 'bpython': False, 'nogui': False, 'port': 8000, 'extcron': False, 'debuglevel': 30, 'test': None, 'folder': 'C:\\\\Users\\\\bhanu\\\\Downloads\\\\Compressed\\\\web2py', 'config': '', 'import_models': False, 'winservice': '', 'shell': None, 'run': '', 'log_filename': 'httpserver.log', 'args': [''], 'socket_timeout': 5, 'ssl_ca_certificate': None, 'scheduler': None, 'profiler_filename': None, 'ssl_private_key': '', 'password': '<ask>', 'request_queue_size': 5, 'ssl_certificate': '', 'cronjob': False, 'numthreads': None, 'quiet': False, 'interfaces': None, 'minthreads': None, 'timeout': 10, 'plain': False, 'nobanner': False}>"
p860
asbasbasbag49
(g65
g51
NtRp861
(dp862
g54
(dp863
sg63
g766
sg56
(lp864
g49
(g70
g51
NtRp865
(dp866
g54
(dp867
g74
g75
ssg63
g861
sg56
(lp868
S'db_sessions'
p869
asbag49
(g70
g51
NtRp870
(dp871
g54
(dp872
g81
g82
ssg63
g861
sg56
(lp873
S':'
asbag49
(g70
g51
NtRp874
(dp875
g54
(dp876
sg63
g861
sg56
(lp877
g49
(g50
g51
NtRp878
(dp879
g54
(dp880
g62
I4
ssg63
g874
sg56
(lp881
S'set([])'
p882
asbasbasbag49
(g65
g51
NtRp883
(dp884
g54
(dp885
sg63
g766
sg56
(lp886
g49
(g70
g51
NtRp887
(dp888
g54
(dp889
g74
g75
ssg63
g883
sg56
(lp890
S'debugging'
p891
asbag49
(g70
g51
NtRp892
(dp893
g54
(dp894
g81
g82
ssg63
g883
sg56
(lp895
S':'
asbag49
(g70
g51
NtRp896
(dp897
g54
(dp898
sg63
g883
sg56
(lp899
g49
(g50
g51
NtRp900
(dp901
g54
(dp902
g62
I4
ssg63
g896
sg56
(lp903
g92
asbasbasbag49
(g65
g51
NtRp904
(dp905
g54
(dp906
sg63
g766
sg56
(lp907
g49
(g70
g51
NtRp908
(dp909
g54
(dp910
g74
g75
ssg63
g904
sg56
(lp911
S'gluon_parent'
p912
asbag49
(g70
g51
NtRp913
(dp914
g54
(dp915
g81
g82
ssg63
g904
sg56
(lp916
S':'
asbag49
(g70
g51
NtRp917
(dp918
g54
(dp919
sg63
g904
sg56
(lp920
g49
(g50
g51
NtRp921
(dp922
g54
(dp923
g62
I4
ssg63
g917
sg56
(lp924
S'C:\\Users\\bhanu\\Downloads\\Compressed\\web2py'
p925
asbasbasbag49
(g65
g51
NtRp926
(dp927
g54
(dp928
sg63
g766
sg56
(lp929
g49
(g70
g51
NtRp930
(dp931
g54
(dp932
g74
g75
ssg63
g926
sg56
(lp933
S'http_accept'
p934
asbag49
(g70
g51
NtRp935
(dp936
g54
(dp937
g81
g82
ssg63
g926
sg56
(lp938
S':'
asbag49
(g70
g51
NtRp939
(dp940
g54
(dp941
sg63
g926
sg56
(lp942
g49
(g50
g51
NtRp943
(dp944
g54
(dp945
g62
I4
ssg63
g939
sg56
(lp946
S'text/html,application/xhtml+xml,application/xml;q=0.9,*/*;q=0.8'
p947
asbasbasbag49
(g65
g51
NtRp948
(dp949
g54
(dp950
sg63
g766
sg56
(lp951
g49
(g70
g51
NtRp952
(dp953
g54
(dp954
g74
g75
ssg63
g948
sg56
(lp955
S'http_accept_charset'
p956
asbag49
(g70
g51
NtRp957
(dp958
g54
(dp959
g81
g82
ssg63
g948
sg56
(lp960
S':'
asbag49
(g70
g51
NtRp961
(dp962
g54
(dp963
sg63
g948
sg56
(lp964
g49
(g50
g51
NtRp965
(dp966
g54
(dp967
g62
I4
ssg63
g961
sg56
(lp968
S'ISO-8859-1,utf-8;q=0.7,*;q=0.3'
p969
asbasbasbag49
(g65
g51
NtRp970
(dp971
g54
(dp972
sg63
g766
sg56
(lp973
g49
(g70
g51
NtRp974
(dp975
g54
(dp976
g74
g75
ssg63
g970
sg56
(lp977
S'http_accept_encoding'
p978
asbag49
(g70
g51
NtRp979
(dp980
g54
(dp981
g81
g82
ssg63
g970
sg56
(lp982
S':'
asbag49
(g70
g51
NtRp983
(dp984
g54
(dp985
sg63
g970
sg56
(lp986
g49
(g50
g51
NtRp987
(dp988
g54
(dp989
g62
I4
ssg63
g983
sg56
(lp990
S'gzip,deflate,sdch'
p991
asbasbasbag49
(g65
g51
NtRp992
(dp993
g54
(dp994
sg63
g766
sg56
(lp995
g49
(g70
g51
NtRp996
(dp997
g54
(dp998
g74
g75
ssg63
g992
sg56
(lp999
S'http_accept_language'
p1000
asbag49
(g70
g51
NtRp1001
(dp1002
g54
(dp1003
g81
g82
ssg63
g992
sg56
(lp1004
S':'
asbag49
(g70
g51
NtRp1005
(dp1006
g54
(dp1007
sg63
g992
sg56
(lp1008
g49
(g50
g51
NtRp1009
(dp1010
g54
(dp1011
g62
I4
ssg63
g1005
sg56
(lp1012
S'en-US,en;q=0.8'
p1013
asbasbasbag49
(g65
g51
NtRp1014
(dp1015
g54
(dp1016
sg63
g766
sg56
(lp1017
g49
(g70
g51
NtRp1018
(dp1019
g54
(dp1020
g74
g75
ssg63
g1014
sg56
(lp1021
S'http_cache_control'
p1022
asbag49
(g70
g51
NtRp1023
(dp1024
g54
(dp1025
g81
g82
ssg63
g1014
sg56
(lp1026
S':'
asbag49
(g70
g51
NtRp1027
(dp1028
g54
(dp1029
sg63
g1014
sg56
(lp1030
g49
(g50
g51
NtRp1031
(dp1032
g54
(dp1033
g62
I4
ssg63
g1027
sg56
(lp1034
S'max-age=0'
p1035
asbasbasbag49
(g65
g51
NtRp1036
(dp1037
g54
(dp1038
sg63
g766
sg56
(lp1039
g49
(g70
g51
NtRp1040
(dp1041
g54
(dp1042
g74
g75
ssg63
g1036
sg56
(lp1043
S'http_connection'
p1044
asbag49
(g70
g51
NtRp1045
(dp1046
g54
(dp1047
g81
g82
ssg63
g1036
sg56
(lp1048
S':'
asbag49
(g70
g51
NtRp1049
(dp1050
g54
(dp1051
sg63
g1036
sg56
(lp1052
g49
(g50
g51
NtRp1053
(dp1054
g54
(dp1055
g62
I4
ssg63
g1049
sg56
(lp1056
S'keep-alive'
p1057
asbasbasbag49
(g65
g51
NtRp1058
(dp1059
g54
(dp1060
sg63
g766
sg56
(lp1061
g49
(g70
g51
NtRp1062
(dp1063
g54
(dp1064
g74
g75
ssg63
g1058
sg56
(lp1065
S'http_cookie'
p1066
asbag49
(g70
g51
NtRp1067
(dp1068
g54
(dp1069
g81
g82
ssg63
g1058
sg56
(lp1070
S':'
asbag49
(g70
g51
NtRp1071
(dp1072
g54
(dp1073
sg63
g1058
sg56
(lp1074
g49
(g50
g51
NtRp1075
(dp1076
g54
(dp1077
g62
I4
ssg63
g1071
sg56
(lp1078
S'session_id_welcome=127.0.0.1-f92cd5c7-764d-4573-81a8-585479389d6c; session_id_hostel=127.0.0.1-73957939-93e4-44ab-b325-d5931caf3397; session_id_admin=127.0.0.1-52f95970-399d-4519-9f6a-0d20ff5578a8'
p1079
asbasbasbag49
(g65
g51
NtRp1080
(dp1081
g54
(dp1082
sg63
g766
sg56
(lp1083
g49
(g70
g51
NtRp1084
(dp1085
g54
(dp1086
g74
g75
ssg63
g1080
sg56
(lp1087
S'http_host'
p1088
asbag49
(g70
g51
NtRp1089
(dp1090
g54
(dp1091
g81
g82
ssg63
g1080
sg56
(lp1092
S':'
asbag49
(g70
g51
NtRp1093
(dp1094
g54
(dp1095
sg63
g1080
sg56
(lp1096
g49
(g50
g51
NtRp1097
(dp1098
g54
(dp1099
g62
I4
ssg63
g1093
sg56
(lp1100
S'127.0.0.1:8000'
p1101
asbasbasbag49
(g65
g51
NtRp1102
(dp1103
g54
(dp1104
sg63
g766
sg56
(lp1105
g49
(g70
g51
NtRp1106
(dp1107
g54
(dp1108
g74
g75
ssg63
g1102
sg56
(lp1109
S'http_referer'
p1110
asbag49
(g70
g51
NtRp1111
(dp1112
g54
(dp1113
g81
g82
ssg63
g1102
sg56
(lp1114
S':'
asbag49
(g70
g51
NtRp1115
(dp1116
g54
(dp1117
sg63
g1102
sg56
(lp1118
g49
(g50
g51
NtRp1119
(dp1120
g54
(dp1121
g62
I4
ssg63
g1115
sg56
(lp1122
S'http://127.0.0.1:8000/hostel/default/poll'
p1123
asbasbasbag49
(g65
g51
NtRp1124
(dp1125
g54
(dp1126
sg63
g766
sg56
(lp1127
g49
(g70
g51
NtRp1128
(dp1129
g54
(dp1130
g74
g75
ssg63
g1124
sg56
(lp1131
S'http_user_agent'
p1132
asbag49
(g70
g51
NtRp1133
(dp1134
g54
(dp1135
g81
g82
ssg63
g1124
sg56
(lp1136
S':'
asbag49
(g70
g51
NtRp1137
(dp1138
g54
(dp1139
sg63
g1124
sg56
(lp1140
g49
(g50
g51
NtRp1141
(dp1142
g54
(dp1143
g62
I4
ssg63
g1137
sg56
(lp1144
S'Mozilla/5.0 (Windows NT 6.1; WOW64) AppleWebKit/537.4 (KHTML, like Gecko) Chrome/22.0.1229.94 Safari/537.4'
p1145
asbasbasbag49
(g65
g51
NtRp1146
(dp1147
g54
(dp1148
sg63
g766
sg56
(lp1149
g49
(g70
g51
NtRp1150
(dp1151
g54
(dp1152
g74
g75
ssg63
g1146
sg56
(lp1153
S'is_jython'
p1154
asbag49
(g70
g51
NtRp1155
(dp1156
g54
(dp1157
g81
g82
ssg63
g1146
sg56
(lp1158
S':'
asbag49
(g70
g51
NtRp1159
(dp1160
g54
(dp1161
sg63
g1146
sg56
(lp1162
g49
(g50
g51
NtRp1163
(dp1164
g54
(dp1165
g62
I4
ssg63
g1159
sg56
(lp1166
g92
asbasbasbag49
(g65
g51
NtRp1167
(dp1168
g54
(dp1169
sg63
g766
sg56
(lp1170
g49
(g70
g51
NtRp1171
(dp1172
g54
(dp1173
g74
g75
ssg63
g1167
sg56
(lp1174
S'is_pypy'
p1175
asbag49
(g70
g51
NtRp1176
(dp1177
g54
(dp1178
g81
g82
ssg63
g1167
sg56
(lp1179
S':'
asbag49
(g70
g51
NtRp1180
(dp1181
g54
(dp1182
sg63
g1167
sg56
(lp1183
g49
(g50
g51
NtRp1184
(dp1185
g54
(dp1186
g62
I4
ssg63
g1180
sg56
(lp1187
g92
asbasbasbag49
(g65
g51
NtRp1188
(dp1189
g54
(dp1190
sg63
g766
sg56
(lp1191
g49
(g70
g51
NtRp1192
(dp1193
g54
(dp1194
g74
g75
ssg63
g1188
sg56
(lp1195
S'path_info'
p1196
asbag49
(g70
g51
NtRp1197
(dp1198
g54
(dp1199
g81
g82
ssg63
g1188
sg56
(lp1200
S':'
asbag49
(g70
g51
NtRp1201
(dp1202
g54
(dp1203
sg63
g1188
sg56
(lp1204
g49
(g50
g51
NtRp1205
(dp1206
g54
(dp1207
g62
I4
ssg63
g1201
sg56
(lp1208
S'/hostel/default/sr/lllllllll/'
p1209
asbasbasbag49
(g65
g51
NtRp1210
(dp1211
g54
(dp1212
sg63
g766
sg56
(lp1213
g49
(g70
g51
NtRp1214
(dp1215
g54
(dp1216
g74
g75
ssg63
g1210
sg56
(lp1217
S'query_string'
p1218
asbag49
(g70
g51
NtRp1219
(dp1220
g54
(dp1221
g81
g82
ssg63
g1210
sg56
(lp1222
S':'
asbag49
(g70
g51
NtRp1223
(dp1224
g54
(dp1225
sg63
g1210
sg56
(lp1226
g49
(g50
g51
NtRp1227
(dp1228
g54
(dp1229
g62
I4
ssg63
g1223
sg56
(lp1230
S''
asbasbasbag49
(g65
g51
NtRp1231
(dp1232
g54
(dp1233
sg63
g766
sg56
(lp1234
g49
(g70
g51
NtRp1235
(dp1236
g54
(dp1237
g74
g75
ssg63
g1231
sg56
(lp1238
S'remote_addr'
p1239
asbag49
(g70
g51
NtRp1240
(dp1241
g54
(dp1242
g81
g82
ssg63
g1231
sg56
(lp1243
S':'
asbag49
(g70
g51
NtRp1244
(dp1245
g54
(dp1246
sg63
g1231
sg56
(lp1247
g49
(g50
g51
NtRp1248
(dp1249
g54
(dp1250
g62
I4
ssg63
g1244
sg56
(lp1251
g195
asbasbasbag49
(g65
g51
NtRp1252
(dp1253
g54
(dp1254
sg63
g766
sg56
(lp1255
g49
(g70
g51
NtRp1256
(dp1257
g54
(dp1258
g74
g75
ssg63
g1252
sg56
(lp1259
S'remote_port'
p1260
asbag49
(g70
g51
NtRp1261
(dp1262
g54
(dp1263
g81
g82
ssg63
g1252
sg56
(lp1264
S':'
asbag49
(g70
g51
NtRp1265
(dp1266
g54
(dp1267
sg63
g1252
sg56
(lp1268
g49
(g50
g51
NtRp1269
(dp1270
g54
(dp1271
g62
I4
ssg63
g1265
sg56
(lp1272
S'57875'
p1273
asbasbasbag49
(g65
g51
NtRp1274
(dp1275
g54
(dp1276
sg63
g766
sg56
(lp1277
g49
(g70
g51
NtRp1278
(dp1279
g54
(dp1280
g74
g75
ssg63
g1274
sg56
(lp1281
S'request_method'
p1282
asbag49
(g70
g51
NtRp1283
(dp1284
g54
(dp1285
g81
g82
ssg63
g1274
sg56
(lp1286
S':'
asbag49
(g70
g51
NtRp1287
(dp1288
g54
(dp1289
sg63
g1274
sg56
(lp1290
g49
(g50
g51
NtRp1291
(dp1292
g54
(dp1293
g62
I4
ssg63
g1287
sg56
(lp1294
S'GET'
p1295
asbasbasbag49
(g65
g51
NtRp1296
(dp1297
g54
(dp1298
sg63
g766
sg56
(lp1299
g49
(g70
g51
NtRp1300
(dp1301
g54
(dp1302
g74
g75
ssg63
g1296
sg56
(lp1303
S'script_name'
p1304
asbag49
(g70
g51
NtRp1305
(dp1306
g54
(dp1307
g81
g82
ssg63
g1296
sg56
(lp1308
S':'
asbag49
(g70
g51
NtRp1309
(dp1310
g54
(dp1311
sg63
g1296
sg56
(lp1312
g49
(g50
g51
NtRp1313
(dp1314
g54
(dp1315
g62
I4
ssg63
g1309
sg56
(lp1316
S''
asbasbasbag49
(g65
g51
NtRp1317
(dp1318
g54
(dp1319
sg63
g766
sg56
(lp1320
g49
(g70
g51
NtRp1321
(dp1322
g54
(dp1323
g74
g75
ssg63
g1317
sg56
(lp1324
S'server_name'
p1325
asbag49
(g70
g51
NtRp1326
(dp1327
g54
(dp1328
g81
g82
ssg63
g1317
sg56
(lp1329
S':'
asbag49
(g70
g51
NtRp1330
(dp1331
g54
(dp1332
sg63
g1317
sg56
(lp1333
g49
(g50
g51
NtRp1334
(dp1335
g54
(dp1336
g62
I4
ssg63
g1330
sg56
(lp1337
S'bhanu-PC'
p1338
asbasbasbag49
(g65
g51
NtRp1339
(dp1340
g54
(dp1341
sg63
g766
sg56
(lp1342
g49
(g70
g51
NtRp1343
(dp1344
g54
(dp1345
g74
g75
ssg63
g1339
sg56
(lp1346
S'server_port'
p1347
asbag49
(g70
g51
NtRp1348
(dp1349
g54
(dp1350
g81
g82
ssg63
g1339
sg56
(lp1351
S':'
asbag49
(g70
g51
NtRp1352
(dp1353
g54
(dp1354
sg63
g1339
sg56
(lp1355
g49
(g50
g51
NtRp1356
(dp1357
g54
(dp1358
g62
I4
ssg63
g1352
sg56
(lp1359
S'8000'
p1360
asbasbasbag49
(g65
g51
NtRp1361
(dp1362
g54
(dp1363
sg63
g766
sg56
(lp1364
g49
(g70
g51
NtRp1365
(dp1366
g54
(dp1367
g74
g75
ssg63
g1361
sg56
(lp1368
S'server_protocol'
p1369
asbag49
(g70
g51
NtRp1370
(dp1371
g54
(dp1372
g81
g82
ssg63
g1361
sg56
(lp1373
S':'
asbag49
(g70
g51
NtRp1374
(dp1375
g54
(dp1376
sg63
g1361
sg56
(lp1377
g49
(g50
g51
NtRp1378
(dp1379
g54
(dp1380
g62
I4
ssg63
g1374
sg56
(lp1381
S'HTTP/1.1'
p1382
asbasbasbag49
(g65
g51
NtRp1383
(dp1384
g54
(dp1385
sg63
g766
sg56
(lp1386
g49
(g70
g51
NtRp1387
(dp1388
g54
(dp1389
g74
g75
ssg63
g1383
sg56
(lp1390
S'server_software'
p1391
asbag49
(g70
g51
NtRp1392
(dp1393
g54
(dp1394
g81
g82
ssg63
g1383
sg56
(lp1395
S':'
asbag49
(g70
g51
NtRp1396
(dp1397
g54
(dp1398
sg63
g1383
sg56
(lp1399
g49
(g50
g51
NtRp1400
(dp1401
g54
(dp1402
g62
I4
ssg63
g1396
sg56
(lp1403
S'Rocket 1.2.4'
p1404
asbasbasbag49
(g65
g51
NtRp1405
(dp1406
g54
(dp1407
sg63
g766
sg56
(lp1408
g49
(g70
g51
NtRp1409
(dp1410
g54
(dp1411
g74
g75
ssg63
g1405
sg56
(lp1412
S'web2py_crontype'
p1413
asbag49
(g70
g51
NtRp1414
(dp1415
g54
(dp1416
g81
g82
ssg63
g1405
sg56
(lp1417
S':'
asbag49
(g70
g51
NtRp1418
(dp1419
g54
(dp1420
sg63
g1405
sg56
(lp1421
g49
(g50
g51
NtRp1422
(dp1423
g54
(dp1424
g62
I4
ssg63
g1418
sg56
(lp1425
S'hard'
p1426
asbasbasbag49
(g65
g51
NtRp1427
(dp1428
g54
(dp1429
sg63
g766
sg56
(lp1430
g49
(g70
g51
NtRp1431
(dp1432
g54
(dp1433
g74
g75
ssg63
g1427
sg56
(lp1434
S'web2py_path'
p1435
asbag49
(g70
g51
NtRp1436
(dp1437
g54
(dp1438
g81
g82
ssg63
g1427
sg56
(lp1439
S':'
asbag49
(g70
g51
NtRp1440
(dp1441
g54
(dp1442
sg63
g1427
sg56
(lp1443
g49
(g50
g51
NtRp1444
(dp1445
g54
(dp1446
g62
I4
ssg63
g1440
sg56
(lp1447
g813
asbasbasbag49
(g65
g51
NtRp1448
(dp1449
g54
(dp1450
sg63
g766
sg56
(lp1451
g49
(g70
g51
NtRp1452
(dp1453
g54
(dp1454
g74
g75
ssg63
g1448
sg56
(lp1455
S'web2py_version'
p1456
asbag49
(g70
g51
NtRp1457
(dp1458
g54
(dp1459
g81
g82
ssg63
g1448
sg56
(lp1460
S':'
asbag49
(g70
g51
NtRp1461
(dp1462
g54
(dp1463
sg63
g1448
sg56
(lp1464
g49
(g50
g51
NtRp1465
(dp1466
g54
(dp1467
g62
I4
ssg63
g1461
sg56
(lp1468
g49
(g58
g51
NtRp1469
(dp1470
g54
(dp1471
g62
I3
ssg63
Nsg56
(lp1472
g49
(g65
g51
NtRp1473
(dp1474
g54
(dp1475
sg63
g1469
sg56
(lp1476
g49
(g70
g51
NtRp1477
(dp1478
g54
(dp1479
sg63
g1473
sg56
(lp1480
g49
(g50
g51
NtRp1481
(dp1482
g54
(dp1483
g62
I3
ssg63
g1477
sg56
(lp1484
S'1'
asbasbasbag49
(g65
g51
NtRp1485
(dp1486
g54
(dp1487
sg63
g1469
sg56
(lp1488
g49
(g70
g51
NtRp1489
(dp1490
g54
(dp1491
sg63
g1485
sg56
(lp1492
g49
(g50
g51
NtRp1493
(dp1494
g54
(dp1495
g62
I3
ssg63
g1489
sg56
(lp1496
S'99'
p1497
asbasbasbag49
(g65
g51
NtRp1498
(dp1499
g54
(dp1500
sg63
g1469
sg56
(lp1501
g49
(g70
g51
NtRp1502
(dp1503
g54
(dp1504
sg63
g1498
sg56
(lp1505
g49
(g50
g51
NtRp1506
(dp1507
g54
(dp1508
g62
I3
ssg63
g1502
sg56
(lp1509
S'7'
asbasbasbag49
(g65
g51
NtRp1510
(dp1511
g54
(dp1512
sg63
g1469
sg56
(lp1513
g49
(g70
g51
NtRp1514
(dp1515
g54
(dp1516
sg63
g1510
sg56
(lp1517
g49
(g50
g51
NtRp1518
(dp1519
g54
(dp1520
g62
I3
ssg63
g1514
sg56
(lp1521
S'datetime.datetime(2012, 3, 4, 22, 12, 8)'
p1522
asbasbasbag49
(g65
g51
NtRp1523
(dp1524
g54
(dp1525
sg63
g1469
sg56
(lp1526
g49
(g70
g51
NtRp1527
(dp1528
g54
(dp1529
sg63
g1523
sg56
(lp1530
g49
(g50
g51
NtRp1531
(dp1532
g54
(dp1533
g62
I3
ssg63
g1527
sg56
(lp1534
S'stable'
p1535
asbasbasbasbasbasbasbag49
(g65
g51
NtRp1536
(dp1537
g54
(dp1538
sg63
g766
sg56
(lp1539
g49
(g70
g51
NtRp1540
(dp1541
g54
(dp1542
g74
g75
ssg63
g1536
sg56
(lp1543
S'wsgi_errors'
p1544
asbag49
(g70
g51
NtRp1545
(dp1546
g54
(dp1547
g81
g82
ssg63
g1536
sg56
(lp1548
S':'
asbag49
(g70
g51
NtRp1549
(dp1550
g54
(dp1551
sg63
g1536
sg56
(lp1552
g49
(g50
g51
NtRp1553
(dp1554
g54
(dp1555
g62
I4
ssg63
g1549
sg56
(lp1556
S"<open file '<stderr>', mode 'w' at 0x01CE00B0>"
p1557
asbasbasbag49
(g65
g51
NtRp1558
(dp1559
g54
(dp1560
sg63
g766
sg56
(lp1561
g49
(g70
g51
NtRp1562
(dp1563
g54
(dp1564
g74
g75
ssg63
g1558
sg56
(lp1565
S'wsgi_file_wrapper'
p1566
asbag49
(g70
g51
NtRp1567
(dp1568
g54
(dp1569
g81
g82
ssg63
g1558
sg56
(lp1570
S':'
asbag49
(g70
g51
NtRp1571
(dp1572
g54
(dp1573
sg63
g1558
sg56
(lp1574
g49
(g50
g51
NtRp1575
(dp1576
g54
(dp1577
g62
I4
ssg63
g1571
sg56
(lp1578
S'<class wsgiref.util.FileWrapper at 0x02C66450>'
p1579
asbasbasbag49
(g65
g51
NtRp1580
(dp1581
g54
(dp1582
sg63
g766
sg56
(lp1583
g49
(g70
g51
NtRp1584
(dp1585
g54
(dp1586
g74
g75
ssg63
g1580
sg56
(lp1587
S'wsgi_input'
p1588
asbag49
(g70
g51
NtRp1589
(dp1590
g54
(dp1591
g81
g82
ssg63
g1580
sg56
(lp1592
S':'
asbag49
(g70
g51
NtRp1593
(dp1594
g54
(dp1595
sg63
g1580
sg56
(lp1596
g49
(g50
g51
NtRp1597
(dp1598
g54
(dp1599
g62
I4
ssg63
g1593
sg56
(lp1600
S'<socket._fileobject object at 0x030975B0>'
p1601
asbasbasbag49
(g65
g51
NtRp1602
(dp1603
g54
(dp1604
sg63
g766
sg56
(lp1605
g49
(g70
g51
NtRp1606
(dp1607
g54
(dp1608
g74
g75
ssg63
g1602
sg56
(lp1609
S'wsgi_multiprocess'
p1610
asbag49
(g70
g51
NtRp1611
(dp1612
g54
(dp1613
g81
g82
ssg63
g1602
sg56
(lp1614
S':'
asbag49
(g70
g51
NtRp1615
(dp1616
g54
(dp1617
sg63
g1602
sg56
(lp1618
g49
(g50
g51
NtRp1619
(dp1620
g54
(dp1621
g62
I4
ssg63
g1615
sg56
(lp1622
g92
asbasbasbag49
(g65
g51
NtRp1623
(dp1624
g54
(dp1625
sg63
g766
sg56
(lp1626
g49
(g70
g51
NtRp1627
(dp1628
g54
(dp1629
g74
g75
ssg63
g1623
sg56
(lp1630
S'wsgi_multithread'
p1631
asbag49
(g70
g51
NtRp1632
(dp1633
g54
(dp1634
g81
g82
ssg63
g1623
sg56
(lp1635
S':'
asbag49
(g70
g51
NtRp1636
(dp1637
g54
(dp1638
sg63
g1623
sg56
(lp1639
g49
(g50
g51
NtRp1640
(dp1641
g54
(dp1642
g62
I4
ssg63
g1636
sg56
(lp1643
S'True'
p1644
asbasbasbag49
(g65
g51
NtRp1645
(dp1646
g54
(dp1647
sg63
g766
sg56
(lp1648
g49
(g70
g51
NtRp1649
(dp1650
g54
(dp1651
g74
g75
ssg63
g1645
sg56
(lp1652
S'wsgi_run_once'
p1653
asbag49
(g70
g51
NtRp1654
(dp1655
g54
(dp1656
g81
g82
ssg63
g1645
sg56
(lp1657
S':'
asbag49
(g70
g51
NtRp1658
(dp1659
g54
(dp1660
sg63
g1645
sg56
(lp1661
g49
(g50
g51
NtRp1662
(dp1663
g54
(dp1664
g62
I4
ssg63
g1658
sg56
(lp1665
g92
asbasbasbag49
(g65
g51
NtRp1666
(dp1667
g54
(dp1668
sg63
g766
sg56
(lp1669
g49
(g70
g51
NtRp1670
(dp1671
g54
(dp1672
g74
g75
ssg63
g1666
sg56
(lp1673
S'wsgi_url_scheme'
p1674
asbag49
(g70
g51
NtRp1675
(dp1676
g54
(dp1677
g81
g82
ssg63
g1666
sg56
(lp1678
S':'
asbag49
(g70
g51
NtRp1679
(dp1680
g54
(dp1681
sg63
g1666
sg56
(lp1682
g49
(g50
g51
NtRp1683
(dp1684
g54
(dp1685
g62
I4
ssg63
g1679
sg56
(lp1686
S'http'
p1687
asbasbasbag49
(g65
g51
NtRp1688
(dp1689
g54
(dp1690
sg63
g766
sg56
(lp1691
g49
(g70
g51
NtRp1692
(dp1693
g54
(dp1694
g74
g75
ssg63
g1688
sg56
(lp1695
S'wsgi_version'
p1696
asbag49
(g70
g51
NtRp1697
(dp1698
g54
(dp1699
g81
g82
ssg63
g1688
sg56
(lp1700
S':'
asbag49
(g70
g51
NtRp1701
(dp1702
g54
(dp1703
sg63
g1688
sg56
(lp1704
g49
(g50
g51
NtRp1705
(dp1706
g54
(dp1707
g62
I4
ssg63
g1701
sg56
(lp1708
g49
(g58
g51
NtRp1709
(dp1710
g54
(dp1711
g62
I3
ssg63
Nsg56
(lp1712
g49
(g65
g51
NtRp1713
(dp1714
g54
(dp1715
sg63
g1709
sg56
(lp1716
g49
(g70
g51
NtRp1717
(dp1718
g54
(dp1719
sg63
g1713
sg56
(lp1720
g49
(g50
g51
NtRp1721
(dp1722
g54
(dp1723
g62
I3
ssg63
g1717
sg56
(lp1724
S'1'
asbasbasbag49
(g65
g51
NtRp1725
(dp1726
g54
(dp1727
sg63
g1709
sg56
(lp1728
g49
(g70
g51
NtRp1729
(dp1730
g54
(dp1731
sg63
g1725
sg56
(lp1732
g49
(g50
g51
NtRp1733
(dp1734
g54
(dp1735
g62
I3
ssg63
g1729
sg56
(lp1736
S'0'
asbasbasbasbasbasbasbasbasbasbasbag49
(g65
g51
NtRp1737
(dp1738
g54
(dp1739
sg63
g59
sg56
(lp1740
g49
(g70
g51
NtRp1741
(dp1742
g54
(dp1743
g74
g75
ssg63
g1737
sg56
(lp1744
S'extension'
p1745
asbag49
(g70
g51
NtRp1746
(dp1747
g54
(dp1748
g81
g82
ssg63
g1737
sg56
(lp1749
S':'
asbag49
(g70
g51
NtRp1750
(dp1751
g54
(dp1752
sg63
g1737
sg56
(lp1753
g49
(g50
g51
NtRp1754
(dp1755
g54
(dp1756
g62
I5
ssg63
g1750
sg56
(lp1757
S'html'
p1758
asbasbasbag49
(g65
g51
NtRp1759
(dp1760
g54
(dp1761
sg63
g59
sg56
(lp1762
g49
(g70
g51
NtRp1763
(dp1764
g54
(dp1765
g74
g75
ssg63
g1759
sg56
(lp1766
S'folder'
p1767
asbag49
(g70
g51
NtRp1768
(dp1769
g54
(dp1770
g81
g82
ssg63
g1759
sg56
(lp1771
S':'
asbag49
(g70
g51
NtRp1772
(dp1773
g54
(dp1774
sg63
g1759
sg56
(lp1775
g49
(g50
g51
NtRp1776
(dp1777
g54
(dp1778
g62
I5
ssg63
g1772
sg56
(lp1779
S'C:\\Users\\bhanu\\Downloads\\Compressed\\web2py\\applications\\hostel\\'
p1780
asbasbasbag49
(g65
g51
NtRp1781
(dp1782
g54
(dp1783
sg63
g59
sg56
(lp1784
g49
(g70
g51
NtRp1785
(dp1786
g54
(dp1787
g74
g75
ssg63
g1781
sg56
(lp1788
S'function'
p1789
asbag49
(g70
g51
NtRp1790
(dp1791
g54
(dp1792
g81
g82
ssg63
g1781
sg56
(lp1793
S':'
asbag49
(g70
g51
NtRp1794
(dp1795
g54
(dp1796
sg63
g1781
sg56
(lp1797
g49
(g50
g51
NtRp1798
(dp1799
g54
(dp1800
g62
I5
ssg63
g1794
sg56
(lp1801
S'sr'
p1802
asbasbasbag49
(g65
g51
NtRp1803
(dp1804
g54
(dp1805
sg63
g59
sg56
(lp1806
g49
(g70
g51
NtRp1807
(dp1808
g54
(dp1809
g74
g75
ssg63
g1803
sg56
(lp1810
S'get_vars'
p1811
asbag49
(g70
g51
NtRp1812
(dp1813
g54
(dp1814
g81
g82
ssg63
g1803
sg56
(lp1815
S':'
asbag49
(g70
g51
NtRp1816
(dp1817
g54
(dp1818
sg63
g1803
sg56
(lp1819
g49
(g50
g51
NtRp1820
(dp1821
g54
(dp1822
g62
I5
ssg63
g1816
sg56
(lp1823
g49
(g58
g51
NtRp1824
(dp1825
g54
(dp1826
g62
I4
ssg63
Nsg56
(lp1827
sbasbasbasbag49
(g65
g51
NtRp1828
(dp1829
g54
(dp1830
sg63
g59
sg56
(lp1831
g49
(g70
g51
NtRp1832
(dp1833
g54
(dp1834
g74
g75
ssg63
g1828
sg56
(lp1835
S'global_settings'
p1836
asbag49
(g70
g51
NtRp1837
(dp1838
g54
(dp1839
g81
g82
ssg63
g1828
sg56
(lp1840
S':'
asbag49
(g70
g51
NtRp1841
(dp1842
g54
(dp1843
sg63
g1828
sg56
(lp1844
g49
(g50
g51
NtRp1845
(dp1846
g54
(dp1847
g62
I5
ssg63
g1841
sg56
(lp1848
g49
(g58
g51
NtRp1849
(dp1850
g54
(dp1851
g62
I4
ssg63
Nsg56
(lp1852
g49
(g65
g51
NtRp1853
(dp1854
g54
(dp1855
sg63
g1849
sg56
(lp1856
g49
(g70
g51
NtRp1857
(dp1858
g54
(dp1859
g74
g75
ssg63
g1853
sg56
(lp1860
g778
asbag49
(g70
g51
NtRp1861
(dp1862
g54
(dp1863
g81
g82
ssg63
g1853
sg56
(lp1864
S':'
asbag49
(g70
g51
NtRp1865
(dp1866
g54
(dp1867
sg63
g1853
sg56
(lp1868
g49
(g50
g51
NtRp1869
(dp1870
g54
(dp1871
g62
I4
ssg63
g1865
sg56
(lp1872
S"set(['C:\\\\Users\\\\bhanu\\\\Downloads\\\\Compressed\\\\web2py\\\\applications\\\\examples\\\\', 'C:\\\\Users\\\\bhanu\\\\Downloads\\\\Compressed\\\\web2py\\\\applications\\\\hostel\\\\', 'C:\\\\Users\\\\bhanu\\\\Downloads\\\\Compressed\\\\web2py\\\\applications\\\\admin\\\\', 'C:\\\\Users\\\\bhanu\\\\Downloads\\\\Compressed\\\\web2py\\\\applications\\\\welcome\\\\'])"
p1873
asbasbasbag49
(g65
g51
NtRp1874
(dp1875
g54
(dp1876
sg63
g1849
sg56
(lp1877
g49
(g70
g51
NtRp1878
(dp1879
g54
(dp1880
g74
g75
ssg63
g1874
sg56
(lp1881
g800
asbag49
(g70
g51
NtRp1882
(dp1883
g54
(dp1884
g81
g82
ssg63
g1874
sg56
(lp1885
S':'
asbag49
(g70
g51
NtRp1886
(dp1887
g54
(dp1888
sg63
g1874
sg56
(lp1889
g49
(g50
g51
NtRp1890
(dp1891
g54
(dp1892
g62
I4
ssg63
g1886
sg56
(lp1893
g813
asbasbasbag49
(g65
g51
NtRp1894
(dp1895
g54
(dp1896
sg63
g1849
sg56
(lp1897
g49
(g70
g51
NtRp1898
(dp1899
g54
(dp1900
g74
g75
ssg63
g1894
sg56
(lp1901
g822
asbag49
(g70
g51
NtRp1902
(dp1903
g54
(dp1904
g81
g82
ssg63
g1894
sg56
(lp1905
S':'
asbag49
(g70
g51
NtRp1906
(dp1907
g54
(dp1908
sg63
g1894
sg56
(lp1909
g49
(g50
g51
NtRp1910
(dp1911
g54
(dp1912
g62
I4
ssg63
g1906
sg56
(lp1913
g49
(g58
g51
NtRp1914
(dp1915
g54
(dp1916
g62
I3
ssg63
Nsg56
(lp1917
sbasbasbasbag49
(g65
g51
NtRp1918
(dp1919
g54
(dp1920
sg63
g1849
sg56
(lp1921
g49
(g70
g51
NtRp1922
(dp1923
g54
(dp1924
g74
g75
ssg63
g1918
sg56
(lp1925
g847
asbag49
(g70
g51
NtRp1926
(dp1927
g54
(dp1928
g81
g82
ssg63
g1918
sg56
(lp1929
S':'
asbag49
(g70
g51
NtRp1930
(dp1931
g54
(dp1932
sg63
g1918
sg56
(lp1933
g49
(g50
g51
NtRp1934
(dp1935
g54
(dp1936
g62
I4
ssg63
g1930
sg56
(lp1937
S"<Values at 0x2ec1f58: {'verbose': False, 'ip': '127.0.0.1', 'shutdown_timeout': 5, 'taskbar': False, 'nocron': False, 'pid_filename': 'httpserver.pid', 'maxthreads': None, 'softcron': False, 'server_name': 'bhanu-PC', 'bpython': False, 'nogui': False, 'port': 8000, 'extcron': False, 'debuglevel': 30, 'test': None, 'folder': 'C:\\\\Users\\\\bhanu\\\\Downloads\\\\Compressed\\\\web2py', 'config': '', 'import_models': False, 'winservice': '', 'shell': None, 'run': '', 'log_filename': 'httpserver.log', 'args': [''], 'socket_timeout': 5, 'ssl_ca_certificate': None, 'scheduler': None, 'profiler_filename': None, 'ssl_private_key': '', 'password': '<ask>', 'request_queue_size': 5, 'ssl_certificate': '', 'cronjob': False, 'numthreads': None, 'quiet': False, 'interfaces': None, 'minthreads': None, 'timeout': 10, 'plain': False, 'nobanner': False}>"
p1938
asbasbasbag49
(g65
g51
NtRp1939
(dp1940
g54
(dp1941
sg63
g1849
sg56
(lp1942
g49
(g70
g51
NtRp1943
(dp1944
g54
(dp1945
g74
g75
ssg63
g1939
sg56
(lp1946
g869
asbag49
(g70
g51
NtRp1947
(dp1948
g54
(dp1949
g81
g82
ssg63
g1939
sg56
(lp1950
S':'
asbag49
(g70
g51
NtRp1951
(dp1952
g54
(dp1953
sg63
g1939
sg56
(lp1954
g49
(g50
g51
NtRp1955
(dp1956
g54
(dp1957
g62
I4
ssg63
g1951
sg56
(lp1958
S'set([])'
p1959
asbasbasbag49
(g65
g51
NtRp1960
(dp1961
g54
(dp1962
sg63
g1849
sg56
(lp1963
g49
(g70
g51
NtRp1964
(dp1965
g54
(dp1966
g74
g75
ssg63
g1960
sg56
(lp1967
g891
asbag49
(g70
g51
NtRp1968
(dp1969
g54
(dp1970
g81
g82
ssg63
g1960
sg56
(lp1971
S':'
asbag49
(g70
g51
NtRp1972
(dp1973
g54
(dp1974
sg63
g1960
sg56
(lp1975
g49
(g50
g51
NtRp1976
(dp1977
g54
(dp1978
g62
I4
ssg63
g1972
sg56
(lp1979
g92
asbasbasbag49
(g65
g51
NtRp1980
(dp1981
g54
(dp1982
sg63
g1849
sg56
(lp1983
g49
(g70
g51
NtRp1984
(dp1985
g54
(dp1986
g74
g75
ssg63
g1980
sg56
(lp1987
g912
asbag49
(g70
g51
NtRp1988
(dp1989
g54
(dp1990
g81
g82
ssg63
g1980
sg56
(lp1991
S':'
asbag49
(g70
g51
NtRp1992
(dp1993
g54
(dp1994
sg63
g1980
sg56
(lp1995
g49
(g50
g51
NtRp1996
(dp1997
g54
(dp1998
g62
I4
ssg63
g1992
sg56
(lp1999
g925
asbasbasbag49
(g65
g51
NtRp2000
(dp2001
g54
(dp2002
sg63
g1849
sg56
(lp2003
g49
(g70
g51
NtRp2004
(dp2005
g54
(dp2006
g74
g75
ssg63
g2000
sg56
(lp2007
g1154
asbag49
(g70
g51
NtRp2008
(dp2009
g54
(dp2010
g81
g82
ssg63
g2000
sg56
(lp2011
S':'
asbag49
(g70
g51
NtRp2012
(dp2013
g54
(dp2014
sg63
g2000
sg56
(lp2015
g49
(g50
g51
NtRp2016
(dp2017
g54
(dp2018
g62
I4
ssg63
g2012
sg56
(lp2019
g92
asbasbasbag49
(g65
g51
NtRp2020
(dp2021
g54
(dp2022
sg63
g1849
sg56
(lp2023
g49
(g70
g51
NtRp2024
(dp2025
g54
(dp2026
g74
g75
ssg63
g2020
sg56
(lp2027
g1175
asbag49
(g70
g51
NtRp2028
(dp2029
g54
(dp2030
g81
g82
ssg63
g2020
sg56
(lp2031
S':'
asbag49
(g70
g51
NtRp2032
(dp2033
g54
(dp2034
sg63
g2020
sg56
(lp2035
g49
(g50
g51
NtRp2036
(dp2037
g54
(dp2038
g62
I4
ssg63
g2032
sg56
(lp2039
g92
asbasbasbag49
(g65
g51
NtRp2040
(dp2041
g54
(dp2042
sg63
g1849
sg56
(lp2043
g49
(g70
g51
NtRp2044
(dp2045
g54
(dp2046
g74
g75
ssg63
g2040
sg56
(lp2047
g1413
asbag49
(g70
g51
NtRp2048
(dp2049
g54
(dp2050
g81
g82
ssg63
g2040
sg56
(lp2051
S':'
asbag49
(g70
g51
NtRp2052
(dp2053
g54
(dp2054
sg63
g2040
sg56
(lp2055
g49
(g50
g51
NtRp2056
(dp2057
g54
(dp2058
g62
I4
ssg63
g2052
sg56
(lp2059
g1426
asbasbasbag49
(g65
g51
NtRp2060
(dp2061
g54
(dp2062
sg63
g1849
sg56
(lp2063
g49
(g70
g51
NtRp2064
(dp2065
g54
(dp2066
g74
g75
ssg63
g2060
sg56
(lp2067
g1456
asbag49
(g70
g51
NtRp2068
(dp2069
g54
(dp2070
g81
g82
ssg63
g2060
sg56
(lp2071
S':'
asbag49
(g70
g51
NtRp2072
(dp2073
g54
(dp2074
sg63
g2060
sg56
(lp2075
g49
(g50
g51
NtRp2076
(dp2077
g54
(dp2078
g62
I4
ssg63
g2072
sg56
(lp2079
g49
(g58
g51
NtRp2080
(dp2081
g54
(dp2082
g62
I3
ssg63
Nsg56
(lp2083
g49
(g65
g51
NtRp2084
(dp2085
g54
(dp2086
sg63
g2080
sg56
(lp2087
g49
(g70
g51
NtRp2088
(dp2089
g54
(dp2090
sg63
g2084
sg56
(lp2091
g49
(g50
g51
NtRp2092
(dp2093
g54
(dp2094
g62
I3
ssg63
g2088
sg56
(lp2095
S'1'
asbasbasbag49
(g65
g51
NtRp2096
(dp2097
g54
(dp2098
sg63
g2080
sg56
(lp2099
g49
(g70
g51
NtRp2100
(dp2101
g54
(dp2102
sg63
g2096
sg56
(lp2103
g49
(g50
g51
NtRp2104
(dp2105
g54
(dp2106
g62
I3
ssg63
g2100
sg56
(lp2107
S'99'
p2108
asbasbasbag49
(g65
g51
NtRp2109
(dp2110
g54
(dp2111
sg63
g2080
sg56
(lp2112
g49
(g70
g51
NtRp2113
(dp2114
g54
(dp2115
sg63
g2109
sg56
(lp2116
g49
(g50
g51
NtRp2117
(dp2118
g54
(dp2119
g62
I3
ssg63
g2113
sg56
(lp2120
S'7'
asbasbasbag49
(g65
g51
NtRp2121
(dp2122
g54
(dp2123
sg63
g2080
sg56
(lp2124
g49
(g70
g51
NtRp2125
(dp2126
g54
(dp2127
sg63
g2121
sg56
(lp2128
g49
(g50
g51
NtRp2129
(dp2130
g54
(dp2131
g62
I3
ssg63
g2125
sg56
(lp2132
S'datetime.datetime(2012, 3, 4, 22, 12, 8)'
p2133
asbasbasbag49
(g65
g51
NtRp2134
(dp2135
g54
(dp2136
sg63
g2080
sg56
(lp2137
g49
(g70
g51
NtRp2138
(dp2139
g54
(dp2140
sg63
g2134
sg56
(lp2141
g49
(g50
g51
NtRp2142
(dp2143
g54
(dp2144
g62
I3
ssg63
g2138
sg56
(lp2145
g1535
asbasbasbasbasbasbasbasbasbasbasbag49
(g65
g51
NtRp2146
(dp2147
g54
(dp2148
sg63
g59
sg56
(lp2149
g49
(g70
g51
NtRp2150
(dp2151
g54
(dp2152
g74
g75
ssg63
g2146
sg56
(lp2153
S'is_https'
p2154
asbag49
(g70
g51
NtRp2155
(dp2156
g54
(dp2157
g81
g82
ssg63
g2146
sg56
(lp2158
S':'
asbag49
(g70
g51
NtRp2159
(dp2160
g54
(dp2161
sg63
g2146
sg56
(lp2162
g49
(g50
g51
NtRp2163
(dp2164
g54
(dp2165
g62
I5
ssg63
g2159
sg56
(lp2166
g92
asbasbasbag49
(g65
g51
NtRp2167
(dp2168
g54
(dp2169
sg63
g59
sg56
(lp2170
g49
(g70
g51
NtRp2171
(dp2172
g54
(dp2173
g74
g75
ssg63
g2167
sg56
(lp2174
S'is_local'
p2175
asbag49
(g70
g51
NtRp2176
(dp2177
g54
(dp2178
g81
g82
ssg63
g2167
sg56
(lp2179
S':'
asbag49
(g70
g51
NtRp2180
(dp2181
g54
(dp2182
sg63
g2167
sg56
(lp2183
g49
(g50
g51
NtRp2184
(dp2185
g54
(dp2186
g62
I5
ssg63
g2180
sg56
(lp2187
g1644
asbasbasbag49
(g65
g51
NtRp2188
(dp2189
g54
(dp2190
sg63
g59
sg56
(lp2191
g49
(g70
g51
NtRp2192
(dp2193
g54
(dp2194
g74
g75
ssg63
g2188
sg56
(lp2195
S'is_restful'
p2196
asbag49
(g70
g51
NtRp2197
(dp2198
g54
(dp2199
g81
g82
ssg63
g2188
sg56
(lp2200
S':'
asbag49
(g70
g51
NtRp2201
(dp2202
g54
(dp2203
sg63
g2188
sg56
(lp2204
g49
(g50
g51
NtRp2205
(dp2206
g54
(dp2207
g62
I5
ssg63
g2201
sg56
(lp2208
g92
asbasbasbag49
(g65
g51
NtRp2209
(dp2210
g54
(dp2211
sg63
g59
sg56
(lp2212
g49
(g70
g51
NtRp2213
(dp2214
g54
(dp2215
g74
g75
ssg63
g2209
sg56
(lp2216
S'now'
p2217
asbag49
(g70
g51
NtRp2218
(dp2219
g54
(dp2220
g81
g82
ssg63
g2209
sg56
(lp2221
S':'
asbag49
(g70
g51
NtRp2222
(dp2223
g54
(dp2224
sg63
g2209
sg56
(lp2225
g49
(g50
g51
NtRp2226
(dp2227
g54
(dp2228
g62
I5
ssg63
g2222
sg56
(lp2229
S'datetime.datetime(2012, 10, 16, 3, 13, 13, 598000)'
p2230
asbasbasbag49
(g65
g51
NtRp2231
(dp2232
g54
(dp2233
sg63
g59
sg56
(lp2234
g49
(g70
g51
NtRp2235
(dp2236
g54
(dp2237
g74
g75
ssg63
g2231
sg56
(lp2238
S'post_vars'
p2239
asbag49
(g70
g51
NtRp2240
(dp2241
g54
(dp2242
g81
g82
ssg63
g2231
sg56
(lp2243
S':'
asbag49
(g70
g51
NtRp2244
(dp2245
g54
(dp2246
sg63
g2231
sg56
(lp2247
g49
(g50
g51
NtRp2248
(dp2249
g54
(dp2250
g62
I5
ssg63
g2244
sg56
(lp2251
g49
(g58
g51
NtRp2252
(dp2253
g54
(dp2254
g62
I4
ssg63
Nsg56
(lp2255
sbasbasbasbag49
(g65
g51
NtRp2256
(dp2257
g54
(dp2258
sg63
g59
sg56
(lp2259
g49
(g70
g51
NtRp2260
(dp2261
g54
(dp2262
g74
g75
ssg63
g2256
sg56
(lp2263
S'raw_args'
p2264
asbag49
(g70
g51
NtRp2265
(dp2266
g54
(dp2267
g81
g82
ssg63
g2256
sg56
(lp2268
S':'
asbag49
(g70
g51
NtRp2269
(dp2270
g54
(dp2271
sg63
g2256
sg56
(lp2272
g49
(g50
g51
NtRp2273
(dp2274
g54
(dp2275
g62
I5
ssg63
g2269
sg56
(lp2276
S'lllllllll/'
p2277
asbasbasbag49
(g65
g51
NtRp2278
(dp2279
g54
(dp2280
sg63
g59
sg56
(lp2281
g49
(g70
g51
NtRp2282
(dp2283
g54
(dp2284
g74
g75
ssg63
g2278
sg56
(lp2285
S'url'
p2286
asbag49
(g70
g51
NtRp2287
(dp2288
g54
(dp2289
g81
g82
ssg63
g2278
sg56
(lp2290
S':'
asbag49
(g70
g51
NtRp2291
(dp2292
g54
(dp2293
sg63
g2278
sg56
(lp2294
g49
(g50
g51
NtRp2295
(dp2296
g54
(dp2297
g62
I5
ssg63
g2291
sg56
(lp2298
S'/hostel/default/sr/lllllllll'
p2299
asbasbasbag49
(g65
g51
NtRp2300
(dp2301
g54
(dp2302
sg63
g59
sg56
(lp2303
g49
(g70
g51
NtRp2304
(dp2305
g54
(dp2306
g74
g75
ssg63
g2300
sg56
(lp2307
S'utcnow'
p2308
asbag49
(g70
g51
NtRp2309
(dp2310
g54
(dp2311
g81
g82
ssg63
g2300
sg56
(lp2312
S':'
asbag49
(g70
g51
NtRp2313
(dp2314
g54
(dp2315
sg63
g2300
sg56
(lp2316
g49
(g50
g51
NtRp2317
(dp2318
g54
(dp2319
g62
I5
ssg63
g2313
sg56
(lp2320
S'datetime.datetime(2012, 10, 15, 21, 43, 13, 598000)'
p2321
asbasbasbag49
(g65
g51
NtRp2322
(dp2323
g54
(dp2324
sg63
g59
sg56
(lp2325
g49
(g70
g51
NtRp2326
(dp2327
g54
(dp2328
g74
g75
ssg63
g2322
sg56
(lp2329
S'uuid'
p2330
asbag49
(g70
g51
NtRp2331
(dp2332
g54
(dp2333
g81
g82
ssg63
g2322
sg56
(lp2334
S':'
asbag49
(g70
g51
NtRp2335
(dp2336
g54
(dp2337
sg63
g2322
sg56
(lp2338
g49
(g50
g51
NtRp2339
(dp2340
g54
(dp2341
g62
I5
ssg63
g2335
sg56
(lp2342
S'hostel/127.0.0.1.2012-10-16.03-13-13.23e20d6f-c89d-4bff-bff5-80e64be4f157'
p2343
asbasbasbag49
(g65
g51
NtRp2344
(dp2345
g54
(dp2346
sg63
g59
sg56
(lp2347
g49
(g70
g51
NtRp2348
(dp2349
g54
(dp2350
g74
g75
ssg63
g2344
sg56
(lp2351
S'vars'
p2352
asbag49
(g70
g51
NtRp2353
(dp2354
g54
(dp2355
g81
g82
ssg63
g2344
sg56
(lp2356
S':'
asbag49
(g70
g51
NtRp2357
(dp2358
g54
(dp2359
sg63
g2344
sg56
(lp2360
g49
(g50
g51
NtRp2361
(dp2362
g54
(dp2363
g62
I5
ssg63
g2357
sg56
(lp2364
g49
(g58
g51
NtRp2365
(dp2366
g54
(dp2367
g62
I4
ssg63
Nsg56
(lp2368
sbasbasbasbag49
(g65
g51
NtRp2369
(dp2370
g54
(dp2371
sg63
g59
sg56
(lp2372
g49
(g70
g51
NtRp2373
(dp2374
g54
(dp2375
g74
g75
ssg63
g2369
sg56
(lp2376
S'wsgi'
p2377
asbag49
(g70
g51
NtRp2378
(dp2379
g54
(dp2380
g81
g82
ssg63
g2369
sg56
(lp2381
S':'
asbag49
(g70
g51
NtRp2382
(dp2383
g54
(dp2384
sg63
g2369
sg56
(lp2385
g49
(g50
g51
NtRp2386
(dp2387
g54
(dp2388
g62
I5
ssg63
g2382
sg56
(lp2389
g49
(g58
g51
NtRp2390
(dp2391
g54
(dp2392
g62
I4
ssg63
Nsg56
(lp2393
g49
(g65
g51
NtRp2394
(dp2395
g54
(dp2396
sg63
g2390
sg56
(lp2397
g49
(g70
g51
NtRp2398
(dp2399
g54
(dp2400
g74
g75
ssg63
g2394
sg56
(lp2401
S'environ'
p2402
asbag49
(g70
g51
NtRp2403
(dp2404
g54
(dp2405
g81
g82
ssg63
g2394
sg56
(lp2406
S':'
asbag49
(g70
g51
NtRp2407
(dp2408
g54
(dp2409
sg63
g2394
sg56
(lp2410
g49
(g50
g51
NtRp2411
(dp2412
g54
(dp2413
g62
I4
ssg63
g2407
sg56
(lp2414
g49
(g58
g51
NtRp2415
(dp2416
g54
(dp2417
g62
I3
ssg63
Nsg56
(lp2418
g49
(g65
g51
NtRp2419
(dp2420
g54
(dp2421
sg63
g2415
sg56
(lp2422
g49
(g70
g51
NtRp2423
(dp2424
g54
(dp2425
g74
g75
ssg63
g2419
sg56
(lp2426
S'HTTP_ACCEPT'
p2427
asbag49
(g70
g51
NtRp2428
(dp2429
g54
(dp2430
g81
g82
ssg63
g2419
sg56
(lp2431
S':'
asbag49
(g70
g51
NtRp2432
(dp2433
g54
(dp2434
sg63
g2419
sg56
(lp2435
g49
(g50
g51
NtRp2436
(dp2437
g54
(dp2438
g62
I3
ssg63
g2432
sg56
(lp2439
g947
asbasbasbag49
(g65
g51
NtRp2440
(dp2441
g54
(dp2442
sg63
g2415
sg56
(lp2443
g49
(g70
g51
NtRp2444
(dp2445
g54
(dp2446
g74
g75
ssg63
g2440
sg56
(lp2447
S'HTTP_ACCEPT_CHARSET'
p2448
asbag49
(g70
g51
NtRp2449
(dp2450
g54
(dp2451
g81
g82
ssg63
g2440
sg56
(lp2452
S':'
asbag49
(g70
g51
NtRp2453
(dp2454
g54
(dp2455
sg63
g2440
sg56
(lp2456
g49
(g50
g51
NtRp2457
(dp2458
g54
(dp2459
g62
I3
ssg63
g2453
sg56
(lp2460
g969
asbasbasbag49
(g65
g51
NtRp2461
(dp2462
g54
(dp2463
sg63
g2415
sg56
(lp2464
g49
(g70
g51
NtRp2465
(dp2466
g54
(dp2467
g74
g75
ssg63
g2461
sg56
(lp2468
S'HTTP_ACCEPT_ENCODING'
p2469
asbag49
(g70
g51
NtRp2470
(dp2471
g54
(dp2472
g81
g82
ssg63
g2461
sg56
(lp2473
S':'
asbag49
(g70
g51
NtRp2474
(dp2475
g54
(dp2476
sg63
g2461
sg56
(lp2477
g49
(g50
g51
NtRp2478
(dp2479
g54
(dp2480
g62
I3
ssg63
g2474
sg56
(lp2481
g991
asbasbasbag49
(g65
g51
NtRp2482
(dp2483
g54
(dp2484
sg63
g2415
sg56
(lp2485
g49
(g70
g51
NtRp2486
(dp2487
g54
(dp2488
g74
g75
ssg63
g2482
sg56
(lp2489
S'HTTP_ACCEPT_LANGUAGE'
p2490
asbag49
(g70
g51
NtRp2491
(dp2492
g54
(dp2493
g81
g82
ssg63
g2482
sg56
(lp2494
S':'
asbag49
(g70
g51
NtRp2495
(dp2496
g54
(dp2497
sg63
g2482
sg56
(lp2498
g49
(g50
g51
NtRp2499
(dp2500
g54
(dp2501
g62
I3
ssg63
g2495
sg56
(lp2502
g1013
asbasbasbag49
(g65
g51
NtRp2503
(dp2504
g54
(dp2505
sg63
g2415
sg56
(lp2506
g49
(g70
g51
NtRp2507
(dp2508
g54
(dp2509
g74
g75
ssg63
g2503
sg56
(lp2510
S'HTTP_CACHE_CONTROL'
p2511
asbag49
(g70
g51
NtRp2512
(dp2513
g54
(dp2514
g81
g82
ssg63
g2503
sg56
(lp2515
S':'
asbag49
(g70
g51
NtRp2516
(dp2517
g54
(dp2518
sg63
g2503
sg56
(lp2519
g49
(g50
g51
NtRp2520
(dp2521
g54
(dp2522
g62
I3
ssg63
g2516
sg56
(lp2523
g1035
asbasbasbag49
(g65
g51
NtRp2524
(dp2525
g54
(dp2526
sg63
g2415
sg56
(lp2527
g49
(g70
g51
NtRp2528
(dp2529
g54
(dp2530
g74
g75
ssg63
g2524
sg56
(lp2531
S'HTTP_CONNECTION'
p2532
asbag49
(g70
g51
NtRp2533
(dp2534
g54
(dp2535
g81
g82
ssg63
g2524
sg56
(lp2536
S':'
asbag49
(g70
g51
NtRp2537
(dp2538
g54
(dp2539
sg63
g2524
sg56
(lp2540
g49
(g50
g51
NtRp2541
(dp2542
g54
(dp2543
g62
I3
ssg63
g2537
sg56
(lp2544
g1057
asbasbasbag49
(g65
g51
NtRp2545
(dp2546
g54
(dp2547
sg63
g2415
sg56
(lp2548
g49
(g70
g51
NtRp2549
(dp2550
g54
(dp2551
g74
g75
ssg63
g2545
sg56
(lp2552
S'HTTP_COOKIE'
p2553
asbag49
(g70
g51
NtRp2554
(dp2555
g54
(dp2556
g81
g82
ssg63
g2545
sg56
(lp2557
S':'
asbag49
(g70
g51
NtRp2558
(dp2559
g54
(dp2560
sg63
g2545
sg56
(lp2561
g49
(g50
g51
NtRp2562
(dp2563
g54
(dp2564
g62
I3
ssg63
g2558
sg56
(lp2565
g1079
asbasbasbag49
(g65
g51
NtRp2566
(dp2567
g54
(dp2568
sg63
g2415
sg56
(lp2569
g49
(g70
g51
NtRp2570
(dp2571
g54
(dp2572
g74
g75
ssg63
g2566
sg56
(lp2573
S'HTTP_HOST'
p2574
asbag49
(g70
g51
NtRp2575
(dp2576
g54
(dp2577
g81
g82
ssg63
g2566
sg56
(lp2578
S':'
asbag49
(g70
g51
NtRp2579
(dp2580
g54
(dp2581
sg63
g2566
sg56
(lp2582
g49
(g50
g51
NtRp2583
(dp2584
g54
(dp2585
g62
I3
ssg63
g2579
sg56
(lp2586
g1101
asbasbasbag49
(g65
g51
NtRp2587
(dp2588
g54
(dp2589
sg63
g2415
sg56
(lp2590
g49
(g70
g51
NtRp2591
(dp2592
g54
(dp2593
g74
g75
ssg63
g2587
sg56
(lp2594
S'HTTP_REFERER'
p2595
asbag49
(g70
g51
NtRp2596
(dp2597
g54
(dp2598
g81
g82
ssg63
g2587
sg56
(lp2599
S':'
asbag49
(g70
g51
NtRp2600
(dp2601
g54
(dp2602
sg63
g2587
sg56
(lp2603
g49
(g50
g51
NtRp2604
(dp2605
g54
(dp2606
g62
I3
ssg63
g2600
sg56
(lp2607
g1123
asbasbasbag49
(g65
g51
NtRp2608
(dp2609
g54
(dp2610
sg63
g2415
sg56
(lp2611
g49
(g70
g51
NtRp2612
(dp2613
g54
(dp2614
g74
g75
ssg63
g2608
sg56
(lp2615
S'HTTP_USER_AGENT'
p2616
asbag49
(g70
g51
NtRp2617
(dp2618
g54
(dp2619
g81
g82
ssg63
g2608
sg56
(lp2620
S':'
asbag49
(g70
g51
NtRp2621
(dp2622
g54
(dp2623
sg63
g2608
sg56
(lp2624
g49
(g50
g51
NtRp2625
(dp2626
g54
(dp2627
g62
I3
ssg63
g2621
sg56
(lp2628
g1145
asbasbasbag49
(g65
g51
NtRp2629
(dp2630
g54
(dp2631
sg63
g2415
sg56
(lp2632
g49
(g70
g51
NtRp2633
(dp2634
g54
(dp2635
g74
g75
ssg63
g2629
sg56
(lp2636
S'PATH_INFO'
p2637
asbag49
(g70
g51
NtRp2638
(dp2639
g54
(dp2640
g81
g82
ssg63
g2629
sg56
(lp2641
S':'
asbag49
(g70
g51
NtRp2642
(dp2643
g54
(dp2644
sg63
g2629
sg56
(lp2645
g49
(g50
g51
NtRp2646
(dp2647
g54
(dp2648
g62
I3
ssg63
g2642
sg56
(lp2649
g1209
asbasbasbag49
(g65
g51
NtRp2650
(dp2651
g54
(dp2652
sg63
g2415
sg56
(lp2653
g49
(g70
g51
NtRp2654
(dp2655
g54
(dp2656
g74
g75
ssg63
g2650
sg56
(lp2657
S'QUERY_STRING'
p2658
asbag49
(g70
g51
NtRp2659
(dp2660
g54
(dp2661
g81
g82
ssg63
g2650
sg56
(lp2662
S':'
asbag49
(g70
g51
NtRp2663
(dp2664
g54
(dp2665
sg63
g2650
sg56
(lp2666
g49
(g50
g51
NtRp2667
(dp2668
g54
(dp2669
g62
I3
ssg63
g2663
sg56
(lp2670
S''
asbasbasbag49
(g65
g51
NtRp2671
(dp2672
g54
(dp2673
sg63
g2415
sg56
(lp2674
g49
(g70
g51
NtRp2675
(dp2676
g54
(dp2677
g74
g75
ssg63
g2671
sg56
(lp2678
S'REMOTE_ADDR'
p2679
asbag49
(g70
g51
NtRp2680
(dp2681
g54
(dp2682
g81
g82
ssg63
g2671
sg56
(lp2683
S':'
asbag49
(g70
g51
NtRp2684
(dp2685
g54
(dp2686
sg63
g2671
sg56
(lp2687
g49
(g50
g51
NtRp2688
(dp2689
g54
(dp2690
g62
I3
ssg63
g2684
sg56
(lp2691
g195
asbasbasbag49
(g65
g51
NtRp2692
(dp2693
g54
(dp2694
sg63
g2415
sg56
(lp2695
g49
(g70
g51
NtRp2696
(dp2697
g54
(dp2698
g74
g75
ssg63
g2692
sg56
(lp2699
S'REMOTE_PORT'
p2700
asbag49
(g70
g51
NtRp2701
(dp2702
g54
(dp2703
g81
g82
ssg63
g2692
sg56
(lp2704
S':'
asbag49
(g70
g51
NtRp2705
(dp2706
g54
(dp2707
sg63
g2692
sg56
(lp2708
g49
(g50
g51
NtRp2709
(dp2710
g54
(dp2711
g62
I3
ssg63
g2705
sg56
(lp2712
g1273
asbasbasbag49
(g65
g51
NtRp2713
(dp2714
g54
(dp2715
sg63
g2415
sg56
(lp2716
g49
(g70
g51
NtRp2717
(dp2718
g54
(dp2719
g74
g75
ssg63
g2713
sg56
(lp2720
S'REQUEST_METHOD'
p2721
asbag49
(g70
g51
NtRp2722
(dp2723
g54
(dp2724
g81
g82
ssg63
g2713
sg56
(lp2725
S':'
asbag49
(g70
g51
NtRp2726
(dp2727
g54
(dp2728
sg63
g2713
sg56
(lp2729
g49
(g50
g51
NtRp2730
(dp2731
g54
(dp2732
g62
I3
ssg63
g2726
sg56
(lp2733
g1295
asbasbasbag49
(g65
g51
NtRp2734
(dp2735
g54
(dp2736
sg63
g2415
sg56
(lp2737
g49
(g70
g51
NtRp2738
(dp2739
g54
(dp2740
g74
g75
ssg63
g2734
sg56
(lp2741
S'SCRIPT_NAME'
p2742
asbag49
(g70
g51
NtRp2743
(dp2744
g54
(dp2745
g81
g82
ssg63
g2734
sg56
(lp2746
S':'
asbag49
(g70
g51
NtRp2747
(dp2748
g54
(dp2749
sg63
g2734
sg56
(lp2750
g49
(g50
g51
NtRp2751
(dp2752
g54
(dp2753
g62
I3
ssg63
g2747
sg56
(lp2754
S''
asbasbasbag49
(g65
g51
NtRp2755
(dp2756
g54
(dp2757
sg63
g2415
sg56
(lp2758
g49
(g70
g51
NtRp2759
(dp2760
g54
(dp2761
g74
g75
ssg63
g2755
sg56
(lp2762
S'SERVER_NAME'
p2763
asbag49
(g70
g51
NtRp2764
(dp2765
g54
(dp2766
g81
g82
ssg63
g2755
sg56
(lp2767
S':'
asbag49
(g70
g51
NtRp2768
(dp2769
g54
(dp2770
sg63
g2755
sg56
(lp2771
g49
(g50
g51
NtRp2772
(dp2773
g54
(dp2774
g62
I3
ssg63
g2768
sg56
(lp2775
g1338
asbasbasbag49
(g65
g51
NtRp2776
(dp2777
g54
(dp2778
sg63
g2415
sg56
(lp2779
g49
(g70
g51
NtRp2780
(dp2781
g54
(dp2782
g74
g75
ssg63
g2776
sg56
(lp2783
S'SERVER_PORT'
p2784
asbag49
(g70
g51
NtRp2785
(dp2786
g54
(dp2787
g81
g82
ssg63
g2776
sg56
(lp2788
S':'
asbag49
(g70
g51
NtRp2789
(dp2790
g54
(dp2791
sg63
g2776
sg56
(lp2792
g49
(g50
g51
NtRp2793
(dp2794
g54
(dp2795
g62
I3
ssg63
g2789
sg56
(lp2796
g1360
asbasbasbag49
(g65
g51
NtRp2797
(dp2798
g54
(dp2799
sg63
g2415
sg56
(lp2800
g49
(g70
g51
NtRp2801
(dp2802
g54
(dp2803
g74
g75
ssg63
g2797
sg56
(lp2804
S'SERVER_PROTOCOL'
p2805
asbag49
(g70
g51
NtRp2806
(dp2807
g54
(dp2808
g81
g82
ssg63
g2797
sg56
(lp2809
S':'
asbag49
(g70
g51
NtRp2810
(dp2811
g54
(dp2812
sg63
g2797
sg56
(lp2813
g49
(g50
g51
NtRp2814
(dp2815
g54
(dp2816
g62
I3
ssg63
g2810
sg56
(lp2817
g1382
asbasbasbag49
(g65
g51
NtRp2818
(dp2819
g54
(dp2820
sg63
g2415
sg56
(lp2821
g49
(g70
g51
NtRp2822
(dp2823
g54
(dp2824
g74
g75
ssg63
g2818
sg56
(lp2825
S'SERVER_SOFTWARE'
p2826
asbag49
(g70
g51
NtRp2827
(dp2828
g54
(dp2829
g81
g82
ssg63
g2818
sg56
(lp2830
S':'
asbag49
(g70
g51
NtRp2831
(dp2832
g54
(dp2833
sg63
g2818
sg56
(lp2834
g49
(g50
g51
NtRp2835
(dp2836
g54
(dp2837
g62
I3
ssg63
g2831
sg56
(lp2838
g1404
asbasbasbag49
(g65
g51
NtRp2839
(dp2840
g54
(dp2841
sg63
g2415
sg56
(lp2842
g49
(g70
g51
NtRp2843
(dp2844
g54
(dp2845
g74
g75
ssg63
g2839
sg56
(lp2846
S'wsgi.errors'
p2847
asbag49
(g70
g51
NtRp2848
(dp2849
g54
(dp2850
g81
g82
ssg63
g2839
sg56
(lp2851
S':'
asbag49
(g70
g51
NtRp2852
(dp2853
g54
(dp2854
sg63
g2839
sg56
(lp2855
g49
(g50
g51
NtRp2856
(dp2857
g54
(dp2858
g62
I3
ssg63
g2852
sg56
(lp2859
S"<open file '<stderr>', mode 'w' at 0x01CE00B0>"
p2860
asbasbasbag49
(g65
g51
NtRp2861
(dp2862
g54
(dp2863
sg63
g2415
sg56
(lp2864
g49
(g70
g51
NtRp2865
(dp2866
g54
(dp2867
g74
g75
ssg63
g2861
sg56
(lp2868
S'wsgi.file_wrapper'
p2869
asbag49
(g70
g51
NtRp2870
(dp2871
g54
(dp2872
g81
g82
ssg63
g2861
sg56
(lp2873
S':'
asbag49
(g70
g51
NtRp2874
(dp2875
g54
(dp2876
sg63
g2861
sg56
(lp2877
g49
(g50
g51
NtRp2878
(dp2879
g54
(dp2880
g62
I3
ssg63
g2874
sg56
(lp2881
S'<class wsgiref.util.FileWrapper at 0x02C66450>'
p2882
asbasbasbag49
(g65
g51
NtRp2883
(dp2884
g54
(dp2885
sg63
g2415
sg56
(lp2886
g49
(g70
g51
NtRp2887
(dp2888
g54
(dp2889
g74
g75
ssg63
g2883
sg56
(lp2890
S'wsgi.input'
p2891
asbag49
(g70
g51
NtRp2892
(dp2893
g54
(dp2894
g81
g82
ssg63
g2883
sg56
(lp2895
S':'
asbag49
(g70
g51
NtRp2896
(dp2897
g54
(dp2898
sg63
g2883
sg56
(lp2899
g49
(g50
g51
NtRp2900
(dp2901
g54
(dp2902
g62
I3
ssg63
g2896
sg56
(lp2903
S'<cStringIO.StringO object at 0x07679AE0>'
p2904
asbasbasbag49
(g65
g51
NtRp2905
(dp2906
g54
(dp2907
sg63
g2415
sg56
(lp2908
g49
(g70
g51
NtRp2909
(dp2910
g54
(dp2911
g74
g75
ssg63
g2905
sg56
(lp2912
S'wsgi.multiprocess'
p2913
asbag49
(g70
g51
NtRp2914
(dp2915
g54
(dp2916
g81
g82
ssg63
g2905
sg56
(lp2917
S':'
asbag49
(g70
g51
NtRp2918
(dp2919
g54
(dp2920
sg63
g2905
sg56
(lp2921
g49
(g50
g51
NtRp2922
(dp2923
g54
(dp2924
g62
I3
ssg63
g2918
sg56
(lp2925
g92
asbasbasbag49
(g65
g51
NtRp2926
(dp2927
g54
(dp2928
sg63
g2415
sg56
(lp2929
g49
(g70
g51
NtRp2930
(dp2931
g54
(dp2932
g74
g75
ssg63
g2926
sg56
(lp2933
S'wsgi.multithread'
p2934
asbag49
(g70
g51
NtRp2935
(dp2936
g54
(dp2937
g81
g82
ssg63
g2926
sg56
(lp2938
S':'
asbag49
(g70
g51
NtRp2939
(dp2940
g54
(dp2941
sg63
g2926
sg56
(lp2942
g49
(g50
g51
NtRp2943
(dp2944
g54
(dp2945
g62
I3
ssg63
g2939
sg56
(lp2946
g1644
asbasbasbag49
(g65
g51
NtRp2947
(dp2948
g54
(dp2949
sg63
g2415
sg56
(lp2950
g49
(g70
g51
NtRp2951
(dp2952
g54
(dp2953
g74
g75
ssg63
g2947
sg56
(lp2954
S'wsgi.run_once'
p2955
asbag49
(g70
g51
NtRp2956
(dp2957
g54
(dp2958
g81
g82
ssg63
g2947
sg56
(lp2959
S':'
asbag49
(g70
g51
NtRp2960
(dp2961
g54
(dp2962
sg63
g2947
sg56
(lp2963
g49
(g50
g51
NtRp2964
(dp2965
g54
(dp2966
g62
I3
ssg63
g2960
sg56
(lp2967
g92
asbasbasbag49
(g65
g51
NtRp2968
(dp2969
g54
(dp2970
sg63
g2415
sg56
(lp2971
g49
(g70
g51
NtRp2972
(dp2973
g54
(dp2974
g74
g75
ssg63
g2968
sg56
(lp2975
S'wsgi.url_scheme'
p2976
asbag49
(g70
g51
NtRp2977
(dp2978
g54
(dp2979
g81
g82
ssg63
g2968
sg56
(lp2980
S':'
asbag49
(g70
g51
NtRp2981
(dp2982
g54
(dp2983
sg63
g2968
sg56
(lp2984
g49
(g50
g51
NtRp2985
(dp2986
g54
(dp2987
g62
I3
ssg63
g2981
sg56
(lp2988
g1687
asbasbasbag49
(g65
g51
NtRp2989
(dp2990
g54
(dp2991
sg63
g2415
sg56
(lp2992
g49
(g70
g51
NtRp2993
(dp2994
g54
(dp2995
g74
g75
ssg63
g2989
sg56
(lp2996
S'wsgi.version'
p2997
asbag49
(g70
g51
NtRp2998
(dp2999
g54
(dp3000
g81
g82
ssg63
g2989
sg56
(lp3001
S':'
asbag49
(g70
g51
NtRp3002
(dp3003
g54
(dp3004
sg63
g2989
sg56
(lp3005
g49
(g50
g51
NtRp3006
(dp3007
g54
(dp3008
g62
I3
ssg63
g3002
sg56
(lp3009
S'1'
asbasbasbasbasbasbasbasbasbasbasbasbasbsS'frames'
p3010
(lp3011
(dp3012
S'file'
p3013
S'C:\\Users\\bhanu\\Downloads\\Compressed\\web2py\\gluon\\restricted.py'
p3014
sS'dump'
p3015
(dp3016
sS'lnum'
p3017
I205
sS'lines'
p3018
(dp3019
sS'call'
p3020
S"(code='# -*- coding: utf-8 -*-\\n### required - do no del...(prof=prof)\\n\\nresponse._vars=response._caller(sr)\\n', environment={'A': <class 'gluon.html.A'>, 'Auth': <class 'gluon.tools.Auth'>, 'B': <class 'gluon.html.B'>, 'BEAUTIFY': <class 'gluon.html.BEAUTIFY'>, 'BODY': <class 'gluon.html.BODY'>, 'BR': <class 'gluon.html.BR'>, 'BUTTON': <class 'gluon.html.BUTTON'>, 'CAT': <class 'gluon.html.CAT'>, 'CENTER': <class 'gluon.html.CENTER'>, 'CLEANUP': <class 'gluon.validators.CLEANUP'>, ...}, layer=r'C:\\Users\\bhanu\\Downloads\\Compressed\\web2py\\applications\\hostel\\controllers/default.py')"
p3021
sS'func'
p3022
S'restricted'
p3023
sa(dp3024
g3013
S'C:\\Users\\bhanu\\Downloads\\Compressed\\web2py\\applications\\hostel\\controllers\\default.py'
p3025
sg3015
(dp3026
sg3017
I168
sg3018
(dp3027
I160
S'    return dict(result=result)'
p3028
sI161
S''
sI162
S'def viewprofile():'
p3029
sI163
S'    query=(db.students.roll_no==request.args(0))'
p3030
sI164
S'    set=db(query)'
p3031
sI165
S'    prof=set.select()'
p3032
sI166
S'    return dict(prof=prof)'
p3033
sI157
S'    query=db.students.name.lower().startswith(name)'
p3034
sI158
S'    set=db(query)'
p3035
sI159
S'    result=set.select()'
p3036
ssg3020
S'()'
p3037
sg3022
S'<module>'
p3038
sa(dp3039
g3013
S'C:\\Users\\bhanu\\Downloads\\Compressed\\web2py\\gluon\\globals.py'
p3040
sg3015
(dp3041
sg3017
I173
sg3018
(dp3042
sg3020
S'(f=<function sr at 0x067E2AB0>)'
p3043
sg3022
S'<lambda>'
p3044
sa(dp3045
g3013
S'C:\\Users\\bhanu\\Downloads\\Compressed\\web2py\\applications\\hostel\\controllers\\default.py'
p3046
sg3015
(dp3047
sg3017
I14
sg3018
(dp3048
I9
S''
sI10
S'def poll():'
p3049
sI11
S'    return dict()'
p3050
sI12
S''
sI13
S'def sr():'
p3051
sI14
S'    l=len(request.args())'
p3052
sI15
S''
sI16
S'    return dict(l=l,q=request.args(1))'
p3053
sI17
S'def index():'
p3054
sI18
S'    session.flash=response.flash'
p3055
ssg3020
S'()'
p3056
sg3022
S'sr'
p3057
sasS'pyver'
p3058
S'Python 2.5.4: C:\\Users\\bhanu\\Downloads\\Compressed\\web2py\\web2py.exe'
p3059
sS'session'
p3060
g49
(g50
g51
NtRp3061
(dp3062
g54
(dp3063
sg56
(lp3064
g49
(g58
g51
NtRp3065
(dp3066
g54
(dp3067
g62
I5
ssg63
Nsg56
(lp3068
g49
(g65
g51
NtRp3069
(dp3070
g54
(dp3071
sg63
g3065
sg56
(lp3072
g49
(g70
g51
NtRp3073
(dp3074
g54
(dp3075
g74
g75
ssg63
g3069
sg56
(lp3076
S'auth'
p3077
asbag49
(g70
g51
NtRp3078
(dp3079
g54
(dp3080
g81
g82
ssg63
g3069
sg56
(lp3081
S':'
asbag49
(g70
g51
NtRp3082
(dp3083
g54
(dp3084
sg63
g3069
sg56
(lp3085
g49
(g50
g51
NtRp3086
(dp3087
g54
(dp3088
g62
I5
ssg63
g3082
sg56
(lp3089
g49
(g58
g51
NtRp3090
(dp3091
g54
(dp3092
g62
I4
ssg63
Nsg56
(lp3093
g49
(g65
g51
NtRp3094
(dp3095
g54
(dp3096
sg63
g3090
sg56
(lp3097
g49
(g70
g51
NtRp3098
(dp3099
g54
(dp3100
g74
g75
ssg63
g3094
sg56
(lp3101
S'expiration'
p3102
asbag49
(g70
g51
NtRp3103
(dp3104
g54
(dp3105
g81
g82
ssg63
g3094
sg56
(lp3106
S':'
asbag49
(g70
g51
NtRp3107
(dp3108
g54
(dp3109
sg63
g3094
sg56
(lp3110
g49
(g50
g51
NtRp3111
(dp3112
g54
(dp3113
g62
I4
ssg63
g3107
sg56
(lp3114
S'3600'
p3115
asbasbasbag49
(g65
g51
NtRp3116
(dp3117
g54
(dp3118
sg63
g3090
sg56
(lp3119
g49
(g70
g51
NtRp3120
(dp3121
g54
(dp3122
g74
g75
ssg63
g3116
sg56
(lp3123
S'hmac_key'
p3124
asbag49
(g70
g51
NtRp3125
(dp3126
g54
(dp3127
g81
g82
ssg63
g3116
sg56
(lp3128
S':'
asbag49
(g70
g51
NtRp3129
(dp3130
g54
(dp3131
sg63
g3116
sg56
(lp3132
g49
(g50
g51
NtRp3133
(dp3134
g54
(dp3135
g62
I4
ssg63
g3129
sg56
(lp3136
S'83b92499-8ca5-4cd5-97be-0550d241c1ba'
p3137
asbasbasbag49
(g65
g51
NtRp3138
(dp3139
g54
(dp3140
sg63
g3090
sg56
(lp3141
g49
(g70
g51
NtRp3142
(dp3143
g54
(dp3144
g74
g75
ssg63
g3138
sg56
(lp3145
S'last_visit'
p3146
asbag49
(g70
g51
NtRp3147
(dp3148
g54
(dp3149
g81
g82
ssg63
g3138
sg56
(lp3150
S':'
asbag49
(g70
g51
NtRp3151
(dp3152
g54
(dp3153
sg63
g3138
sg56
(lp3154
g49
(g50
g51
NtRp3155
(dp3156
g54
(dp3157
g62
I4
ssg63
g3151
sg56
(lp3158
S'datetime.datetime(2012, 10, 16, 3, 11, 30, 493000)'
p3159
asbasbasbag49
(g65
g51
NtRp3160
(dp3161
g54
(dp3162
sg63
g3090
sg56
(lp3163
g49
(g70
g51
NtRp3164
(dp3165
g54
(dp3166
g74
g75
ssg63
g3160
sg56
(lp3167
S'remember'
p3168
asbag49
(g70
g51
NtRp3169
(dp3170
g54
(dp3171
g81
g82
ssg63
g3160
sg56
(lp3172
S':'
asbag49
(g70
g51
NtRp3173
(dp3174
g54
(dp3175
sg63
g3160
sg56
(lp3176
g49
(g50
g51
NtRp3177
(dp3178
g54
(dp3179
g62
I4
ssg63
g3173
sg56
(lp3180
g92
asbasbasbag49
(g65
g51
NtRp3181
(dp3182
g54
(dp3183
sg63
g3090
sg56
(lp3184
g49
(g70
g51
NtRp3185
(dp3186
g54
(dp3187
g74
g75
ssg63
g3181
sg56
(lp3188
S'user'
p3189
asbag49
(g70
g51
NtRp3190
(dp3191
g54
(dp3192
g81
g82
ssg63
g3181
sg56
(lp3193
S':'
asbag49
(g70
g51
NtRp3194
(dp3195
g54
(dp3196
sg63
g3181
sg56
(lp3197
g49
(g50
g51
NtRp3198
(dp3199
g54
(dp3200
g62
I4
ssg63
g3194
sg56
(lp3201
g49
(g58
g51
NtRp3202
(dp3203
g54
(dp3204
g62
I3
ssg63
Nsg56
(lp3205
g49
(g65
g51
NtRp3206
(dp3207
g54
(dp3208
sg63
g3202
sg56
(lp3209
g49
(g70
g51
NtRp3210
(dp3211
g54
(dp3212
g74
g75
ssg63
g3206
sg56
(lp3213
S'created_on'
p3214
asbag49
(g70
g51
NtRp3215
(dp3216
g54
(dp3217
g81
g82
ssg63
g3206
sg56
(lp3218
S':'
asbag49
(g70
g51
NtRp3219
(dp3220
g54
(dp3221
sg63
g3206
sg56
(lp3222
g49
(g50
g51
NtRp3223
(dp3224
g54
(dp3225
g62
I3
ssg63
g3219
sg56
(lp3226
S'datetime.datetime(2012, 10, 14, 19, 25, 49)'
p3227
asbasbasbag49
(g65
g51
NtRp3228
(dp3229
g54
(dp3230
sg63
g3202
sg56
(lp3231
g49
(g70
g51
NtRp3232
(dp3233
g54
(dp3234
g74
g75
ssg63
g3228
sg56
(lp3235
S'email'
p3236
asbag49
(g70
g51
NtRp3237
(dp3238
g54
(dp3239
g81
g82
ssg63
g3228
sg56
(lp3240
S':'
asbag49
(g70
g51
NtRp3241
(dp3242
g54
(dp3243
sg63
g3228
sg56
(lp3244
g49
(g50
g51
NtRp3245
(dp3246
g54
(dp3247
g62
I3
ssg63
g3241
sg56
(lp3248
S'puser@s.com'
p3249
asbasbasbag49
(g65
g51
NtRp3250
(dp3251
g54
(dp3252
sg63
g3202
sg56
(lp3253
g49
(g70
g51
NtRp3254
(dp3255
g54
(dp3256
g74
g75
ssg63
g3250
sg56
(lp3257
S'first_name'
p3258
asbag49
(g70
g51
NtRp3259
(dp3260
g54
(dp3261
g81
g82
ssg63
g3250
sg56
(lp3262
S':'
asbag49
(g70
g51
NtRp3263
(dp3264
g54
(dp3265
sg63
g3250
sg56
(lp3266
g49
(g50
g51
NtRp3267
(dp3268
g54
(dp3269
g62
I3
ssg63
g3263
sg56
(lp3270
S'p'
asbasbasbag49
(g65
g51
NtRp3271
(dp3272
g54
(dp3273
sg63
g3202
sg56
(lp3274
g49
(g70
g51
NtRp3275
(dp3276
g54
(dp3277
g74
g75
ssg63
g3271
sg56
(lp3278
S'id'
p3279
asbag49
(g70
g51
NtRp3280
(dp3281
g54
(dp3282
g81
g82
ssg63
g3271
sg56
(lp3283
S':'
asbag49
(g70
g51
NtRp3284
(dp3285
g54
(dp3286
sg63
g3271
sg56
(lp3287
g49
(g50
g51
NtRp3288
(dp3289
g54
(dp3290
g62
I3
ssg63
g3284
sg56
(lp3291
S'16'
p3292
asbasbasbag49
(g65
g51
NtRp3293
(dp3294
g54
(dp3295
sg63
g3202
sg56
(lp3296
g49
(g70
g51
NtRp3297
(dp3298
g54
(dp3299
g74
g75
ssg63
g3293
sg56
(lp3300
S'last_name'
p3301
asbag49
(g70
g51
NtRp3302
(dp3303
g54
(dp3304
g81
g82
ssg63
g3293
sg56
(lp3305
S':'
asbag49
(g70
g51
NtRp3306
(dp3307
g54
(dp3308
sg63
g3293
sg56
(lp3309
g49
(g50
g51
NtRp3310
(dp3311
g54
(dp3312
g62
I3
ssg63
g3306
sg56
(lp3313
S'user'
p3314
asbasbasbag49
(g65
g51
NtRp3315
(dp3316
g54
(dp3317
sg63
g3202
sg56
(lp3318
g49
(g70
g51
NtRp3319
(dp3320
g54
(dp3321
g74
g75
ssg63
g3315
sg56
(lp3322
S'modified_on'
p3323
asbag49
(g70
g51
NtRp3324
(dp3325
g54
(dp3326
g81
g82
ssg63
g3315
sg56
(lp3327
S':'
asbag49
(g70
g51
NtRp3328
(dp3329
g54
(dp3330
sg63
g3315
sg56
(lp3331
g49
(g50
g51
NtRp3332
(dp3333
g54
(dp3334
g62
I3
ssg63
g3328
sg56
(lp3335
S'datetime.datetime(2012, 10, 14, 19, 25, 49)'
p3336
asbasbasbag49
(g65
g51
NtRp3337
(dp3338
g54
(dp3339
sg63
g3202
sg56
(lp3340
g49
(g70
g51
NtRp3341
(dp3342
g54
(dp3343
g74
g75
ssg63
g3337
sg56
(lp3344
S'password'
p3345
asbag49
(g70
g51
NtRp3346
(dp3347
g54
(dp3348
g81
g82
ssg63
g3337
sg56
(lp3349
S':'
asbag49
(g70
g51
NtRp3350
(dp3351
g54
(dp3352
sg63
g3337
sg56
(lp3353
g49
(g50
g51
NtRp3354
(dp3355
g54
(dp3356
g62
I3
ssg63
g3350
sg56
(lp3357
S'5f677a0dbfa92fe4954cb89c91fa39ce'
p3358
asbasbasbag49
(g65
g51
NtRp3359
(dp3360
g54
(dp3361
sg63
g3202
sg56
(lp3362
g49
(g70
g51
NtRp3363
(dp3364
g54
(dp3365
g74
g75
ssg63
g3359
sg56
(lp3366
S'registration_id'
p3367
asbag49
(g70
g51
NtRp3368
(dp3369
g54
(dp3370
g81
g82
ssg63
g3359
sg56
(lp3371
S':'
asbag49
(g70
g51
NtRp3372
(dp3373
g54
(dp3374
sg63
g3359
sg56
(lp3375
g49
(g50
g51
NtRp3376
(dp3377
g54
(dp3378
g62
I3
ssg63
g3372
sg56
(lp3379
S''
asbasbasbag49
(g65
g51
NtRp3380
(dp3381
g54
(dp3382
sg63
g3202
sg56
(lp3383
g49
(g70
g51
NtRp3384
(dp3385
g54
(dp3386
g74
g75
ssg63
g3380
sg56
(lp3387
S'registration_key'
p3388
asbag49
(g70
g51
NtRp3389
(dp3390
g54
(dp3391
g81
g82
ssg63
g3380
sg56
(lp3392
S':'
asbag49
(g70
g51
NtRp3393
(dp3394
g54
(dp3395
sg63
g3380
sg56
(lp3396
g49
(g50
g51
NtRp3397
(dp3398
g54
(dp3399
g62
I3
ssg63
g3393
sg56
(lp3400
S''
asbasbasbag49
(g65
g51
NtRp3401
(dp3402
g54
(dp3403
sg63
g3202
sg56
(lp3404
g49
(g70
g51
NtRp3405
(dp3406
g54
(dp3407
g74
g75
ssg63
g3401
sg56
(lp3408
S'reset_password_key'
p3409
asbag49
(g70
g51
NtRp3410
(dp3411
g54
(dp3412
g81
g82
ssg63
g3401
sg56
(lp3413
S':'
asbag49
(g70
g51
NtRp3414
(dp3415
g54
(dp3416
sg63
g3401
sg56
(lp3417
g49
(g50
g51
NtRp3418
(dp3419
g54
(dp3420
g62
I3
ssg63
g3414
sg56
(lp3421
S''
asbasbasbag49
(g65
g51
NtRp3422
(dp3423
g54
(dp3424
sg63
g3202
sg56
(lp3425
g49
(g70
g51
NtRp3426
(dp3427
g54
(dp3428
g74
g75
ssg63
g3422
sg56
(lp3429
S'username'
p3430
asbag49
(g70
g51
NtRp3431
(dp3432
g54
(dp3433
g81
g82
ssg63
g3422
sg56
(lp3434
S':'
asbag49
(g70
g51
NtRp3435
(dp3436
g54
(dp3437
sg63
g3422
sg56
(lp3438
g49
(g50
g51
NtRp3439
(dp3440
g54
(dp3441
g62
I3
ssg63
g3435
sg56
(lp3442
S'Puser'
p3443
asbasbasbasbasbasbasbag49
(g65
g51
NtRp3444
(dp3445
g54
(dp3446
sg63
g3090
sg56
(lp3447
g49
(g70
g51
NtRp3448
(dp3449
g54
(dp3450
g74
g75
ssg63
g3444
sg56
(lp3451
S'user_groups'
p3452
asbag49
(g70
g51
NtRp3453
(dp3454
g54
(dp3455
g81
g82
ssg63
g3444
sg56
(lp3456
S':'
asbag49
(g70
g51
NtRp3457
(dp3458
g54
(dp3459
sg63
g3444
sg56
(lp3460
g49
(g50
g51
NtRp3461
(dp3462
g54
(dp3463
g62
I4
ssg63
g3457
sg56
(lp3464
g49
(g58
g51
NtRp3465
(dp3466
g54
(dp3467
g62
I3
ssg63
Nsg56
(lp3468
g49
(g65
g51
NtRp3469
(dp3470
g54
(dp3471
sg63
g3465
sg56
(lp3472
g49
(g70
g51
NtRp3473
(dp3474
g54
(dp3475
g74
g75
ssg63
g3469
sg56
(lp3476
S'7'
asbag49
(g70
g51
NtRp3477
(dp3478
g54
(dp3479
g81
g82
ssg63
g3469
sg56
(lp3480
S':'
asbag49
(g70
g51
NtRp3481
(dp3482
g54
(dp3483
sg63
g3469
sg56
(lp3484
g49
(g50
g51
NtRp3485
(dp3486
g54
(dp3487
g62
I3
ssg63
g3481
sg56
(lp3488
S'Puser'
p3489
asbasbasbasbasbasbasbasbasbasbasbag49
(g65
g51
NtRp3490
(dp3491
g54
(dp3492
sg63
g3065
sg56
(lp3493
g49
(g70
g51
NtRp3494
(dp3495
g54
(dp3496
g74
g75
ssg63
g3490
sg56
(lp3497
S'flash'
p3498
asbag49
(g70
g51
NtRp3499
(dp3500
g54
(dp3501
g81
g82
ssg63
g3490
sg56
(lp3502
S':'
asbag49
(g70
g51
NtRp3503
(dp3504
g54
(dp3505
sg63
g3490
sg56
(lp3506
g49
(g50
g51
NtRp3507
(dp3508
g54
(dp3509
g62
I5
ssg63
g3503
sg56
(lp3510
S''
asbasbasbag49
(g65
g51
NtRp3511
(dp3512
g54
(dp3513
sg63
g3065
sg56
(lp3514
g49
(g70
g51
NtRp3515
(dp3516
g54
(dp3517
g74
g75
ssg63
g3511
sg56
(lp3518
S'last_query'
p3519
asbag49
(g70
g51
NtRp3520
(dp3521
g54
(dp3522
g81
g82
ssg63
g3511
sg56
(lp3523
S':'
asbag49
(g70
g51
NtRp3524
(dp3525
g54
(dp3526
sg63
g3511
sg56
(lp3527
g49
(g50
g51
NtRp3528
(dp3529
g54
(dp3530
g62
I5
ssg63
g3524
sg56
(lp3531
S'db.poll.id>0'
p3532
asbasbasbasbasbsS'etype'
p3533
S"<type 'exceptions.TypeError'>"
p3534
sS'date'
p3535
S'Tue Oct 16 03:13:13 2012'
p3536
sS'response'
p3537
g49
(g50
g51
NtRp3538
(dp3539
g54
(dp3540
sg56
(lp3541
g49
(g58
g51
NtRp3542
(dp3543
g54
(dp3544
g62
I5
ssg63
Nsg56
(lp3545
g49
(g65
g51
NtRp3546
(dp3547
g54
(dp3548
sg63
g3542
sg56
(lp3549
g49
(g70
g51
NtRp3550
(dp3551
g54
(dp3552
g74
g75
ssg63
g3546
sg56
(lp3553
g160
asbag49
(g70
g51
NtRp3554
(dp3555
g54
(dp3556
g81
g82
ssg63
g3546
sg56
(lp3557
S':'
asbag49
(g70
g51
NtRp3558
(dp3559
g54
(dp3560
sg63
g3546
sg56
(lp3561
g49
(g50
g51
NtRp3562
(dp3563
g54
(dp3564
g62
I5
ssg63
g3558
sg56
(lp3565
S'<cStringIO.StringO object at 0x076792E0>'
p3566
asbasbasbag49
(g65
g51
NtRp3567
(dp3568
g54
(dp3569
sg63
g3542
sg56
(lp3570
g49
(g70
g51
NtRp3571
(dp3572
g54
(dp3573
g74
g75
ssg63
g3567
sg56
(lp3574
S'complaint'
p3575
asbag49
(g70
g51
NtRp3576
(dp3577
g54
(dp3578
g81
g82
ssg63
g3567
sg56
(lp3579
S':'
asbag49
(g70
g51
NtRp3580
(dp3581
g54
(dp3582
sg63
g3567
sg56
(lp3583
g49
(g50
g51
NtRp3584
(dp3585
g54
(dp3586
g62
I5
ssg63
g3580
sg56
(lp3587
g49
(g58
g51
NtRp3588
(dp3589
g54
(dp3590
g62
I4
ssg63
Nsg56
(lp3591
g49
(g65
g51
NtRp3592
(dp3593
g54
(dp3594
sg63
g3588
sg56
(lp3595
g49
(g70
g51
NtRp3596
(dp3597
g54
(dp3598
sg63
g3592
sg56
(lp3599
g49
(g50
g51
NtRp3600
(dp3601
g54
(dp3602
g62
I4
ssg63
g3596
sg56
(lp3603
g49
(g58
g51
NtRp3604
(dp3605
g54
(dp3606
g62
I3
ssg63
Nsg56
(lp3607
g49
(g65
g51
NtRp3608
(dp3609
g54
(dp3610
sg63
g3604
sg56
(lp3611
g49
(g70
g51
NtRp3612
(dp3613
g54
(dp3614
sg63
g3608
sg56
(lp3615
g49
(g50
g51
NtRp3616
(dp3617
g54
(dp3618
g62
I3
ssg63
g3612
sg56
(lp3619
cgluon.languages
lazyT_unpickle
p3620
(S's\t\x00\x00\x00COMPLAINT'
tRp3621
asbasbasbag49
(g65
g51
NtRp3622
(dp3623
g54
(dp3624
sg63
g3604
sg56
(lp3625
g49
(g70
g51
NtRp3626
(dp3627
g54
(dp3628
sg63
g3622
sg56
(lp3629
g49
(g50
g51
NtRp3630
(dp3631
g54
(dp3632
g62
I3
ssg63
g3626
sg56
(lp3633
g92
asbasbasbag49
(g65
g51
NtRp3634
(dp3635
g54
(dp3636
sg63
g3604
sg56
(lp3637
g49
(g70
g51
NtRp3638
(dp3639
g54
(dp3640
sg63
g3634
sg56
(lp3641
g49
(g50
g51
NtRp3642
(dp3643
g54
(dp3644
g62
I3
ssg63
g3638
sg56
(lp3645
S'/hostel/default/complaint'
p3646
asbasbasbag49
(g65
g51
NtRp3647
(dp3648
g54
(dp3649
sg63
g3604
sg56
(lp3650
g49
(g70
g51
NtRp3651
(dp3652
g54
(dp3653
sg63
g3647
sg56
(lp3654
g49
(g50
g51
NtRp3655
(dp3656
g54
(dp3657
g62
I3
ssg63
g3651
sg56
(lp3658
g49
(g58
g51
NtRp3659
(dp3660
g54
(dp3661
g62
I2
ssg63
Nsg56
(lp3662
sbasbasbasbasbasbasbasbasbasbasbasbag49
(g65
g51
NtRp3663
(dp3664
g54
(dp3665
sg63
g3542
sg56
(lp3666
g49
(g70
g51
NtRp3667
(dp3668
g54
(dp3669
g74
g75
ssg63
g3663
sg56
(lp3670
g226
asbag49
(g70
g51
NtRp3671
(dp3672
g54
(dp3673
g81
g82
ssg63
g3663
sg56
(lp3674
S':'
asbag49
(g70
g51
NtRp3675
(dp3676
g54
(dp3677
sg63
g3663
sg56
(lp3678
g49
(g50
g51
NtRp3679
(dp3680
g54
(dp3681
g62
I5
ssg63
g3675
sg56
(lp3682
g49
(g58
g51
NtRp3683
(dp3684
g54
(dp3685
g62
I4
ssg63
Nsg56
(lp3686
g49
(g65
g51
NtRp3687
(dp3688
g54
(dp3689
sg63
g3683
sg56
(lp3690
g49
(g70
g51
NtRp3691
(dp3692
g54
(dp3693
g74
g75
ssg63
g3687
sg56
(lp3694
S'session_id_hostel'
p3695
asbag49
(g70
g51
NtRp3696
(dp3697
g54
(dp3698
g81
g82
ssg63
g3687
sg56
(lp3699
S':'
asbag49
(g70
g51
NtRp3700
(dp3701
g54
(dp3702
sg63
g3687
sg56
(lp3703
g49
(g50
g51
NtRp3704
(dp3705
g54
(dp3706
g62
I4
ssg63
g3700
sg56
(lp3707
g49
(g58
g51
NtRp3708
(dp3709
g54
(dp3710
g62
I3
ssg63
Nsg56
(lp3711
g49
(g65
g51
NtRp3712
(dp3713
g54
(dp3714
sg63
g3708
sg56
(lp3715
g49
(g70
g51
NtRp3716
(dp3717
g54
(dp3718
g74
g75
ssg63
g3712
sg56
(lp3719
g276
asbag49
(g70
g51
NtRp3720
(dp3721
g54
(dp3722
g81
g82
ssg63
g3712
sg56
(lp3723
S':'
asbag49
(g70
g51
NtRp3724
(dp3725
g54
(dp3726
sg63
g3712
sg56
(lp3727
g49
(g50
g51
NtRp3728
(dp3729
g54
(dp3730
g62
I3
ssg63
g3724
sg56
(lp3731
S''
asbasbasbag49
(g65
g51
NtRp3732
(dp3733
g54
(dp3734
sg63
g3708
sg56
(lp3735
g49
(g70
g51
NtRp3736
(dp3737
g54
(dp3738
g74
g75
ssg63
g3732
sg56
(lp3739
g297
asbag49
(g70
g51
NtRp3740
(dp3741
g54
(dp3742
g81
g82
ssg63
g3732
sg56
(lp3743
S':'
asbag49
(g70
g51
NtRp3744
(dp3745
g54
(dp3746
sg63
g3732
sg56
(lp3747
g49
(g50
g51
NtRp3748
(dp3749
g54
(dp3750
g62
I3
ssg63
g3744
sg56
(lp3751
S''
asbasbasbag49
(g65
g51
NtRp3752
(dp3753
g54
(dp3754
sg63
g3708
sg56
(lp3755
g49
(g70
g51
NtRp3756
(dp3757
g54
(dp3758
g74
g75
ssg63
g3752
sg56
(lp3759
g318
asbag49
(g70
g51
NtRp3760
(dp3761
g54
(dp3762
g81
g82
ssg63
g3752
sg56
(lp3763
S':'
asbag49
(g70
g51
NtRp3764
(dp3765
g54
(dp3766
sg63
g3752
sg56
(lp3767
g49
(g50
g51
NtRp3768
(dp3769
g54
(dp3770
g62
I3
ssg63
g3764
sg56
(lp3771
S''
asbasbasbag49
(g65
g51
NtRp3772
(dp3773
g54
(dp3774
sg63
g3708
sg56
(lp3775
g49
(g70
g51
NtRp3776
(dp3777
g54
(dp3778
g74
g75
ssg63
g3772
sg56
(lp3779
g339
asbag49
(g70
g51
NtRp3780
(dp3781
g54
(dp3782
g81
g82
ssg63
g3772
sg56
(lp3783
S':'
asbag49
(g70
g51
NtRp3784
(dp3785
g54
(dp3786
sg63
g3772
sg56
(lp3787
g49
(g50
g51
NtRp3788
(dp3789
g54
(dp3790
g62
I3
ssg63
g3784
sg56
(lp3791
S''
asbasbasbag49
(g65
g51
NtRp3792
(dp3793
g54
(dp3794
sg63
g3708
sg56
(lp3795
g49
(g70
g51
NtRp3796
(dp3797
g54
(dp3798
g74
g75
ssg63
g3792
sg56
(lp3799
g360
asbag49
(g70
g51
NtRp3800
(dp3801
g54
(dp3802
g81
g82
ssg63
g3792
sg56
(lp3803
S':'
asbag49
(g70
g51
NtRp3804
(dp3805
g54
(dp3806
sg63
g3792
sg56
(lp3807
g49
(g50
g51
NtRp3808
(dp3809
g54
(dp3810
g62
I3
ssg63
g3804
sg56
(lp3811
S'/'
asbasbasbag49
(g65
g51
NtRp3812
(dp3813
g54
(dp3814
sg63
g3708
sg56
(lp3815
g49
(g70
g51
NtRp3816
(dp3817
g54
(dp3818
g74
g75
ssg63
g3812
sg56
(lp3819
g381
asbag49
(g70
g51
NtRp3820
(dp3821
g54
(dp3822
g81
g82
ssg63
g3812
sg56
(lp3823
S':'
asbag49
(g70
g51
NtRp3824
(dp3825
g54
(dp3826
sg63
g3812
sg56
(lp3827
g49
(g50
g51
NtRp3828
(dp3829
g54
(dp3830
g62
I3
ssg63
g3824
sg56
(lp3831
S''
asbasbasbag49
(g65
g51
NtRp3832
(dp3833
g54
(dp3834
sg63
g3708
sg56
(lp3835
g49
(g70
g51
NtRp3836
(dp3837
g54
(dp3838
g74
g75
ssg63
g3832
sg56
(lp3839
g402
asbag49
(g70
g51
NtRp3840
(dp3841
g54
(dp3842
g81
g82
ssg63
g3832
sg56
(lp3843
S':'
asbag49
(g70
g51
NtRp3844
(dp3845
g54
(dp3846
sg63
g3832
sg56
(lp3847
g49
(g50
g51
NtRp3848
(dp3849
g54
(dp3850
g62
I3
ssg63
g3844
sg56
(lp3851
S''
asbasbasbasbasbasbasbasbasbasbasbag49
(g65
g51
NtRp3852
(dp3853
g54
(dp3854
sg63
g3542
sg56
(lp3855
g49
(g70
g51
NtRp3856
(dp3857
g54
(dp3858
g74
g75
ssg63
g3852
sg56
(lp3859
S'delimiters'
p3860
asbag49
(g70
g51
NtRp3861
(dp3862
g54
(dp3863
g81
g82
ssg63
g3852
sg56
(lp3864
S':'
asbag49
(g70
g51
NtRp3865
(dp3866
g54
(dp3867
sg63
g3852
sg56
(lp3868
g49
(g50
g51
NtRp3869
(dp3870
g54
(dp3871
g62
I5
ssg63
g3865
sg56
(lp3872
g49
(g58
g51
NtRp3873
(dp3874
g54
(dp3875
g62
I4
ssg63
Nsg56
(lp3876
g49
(g65
g51
NtRp3877
(dp3878
g54
(dp3879
sg63
g3873
sg56
(lp3880
g49
(g70
g51
NtRp3881
(dp3882
g54
(dp3883
sg63
g3877
sg56
(lp3884
g49
(g50
g51
NtRp3885
(dp3886
g54
(dp3887
g62
I4
ssg63
g3881
sg56
(lp3888
S'{{'
p3889
asbasbasbag49
(g65
g51
NtRp3890
(dp3891
g54
(dp3892
sg63
g3873
sg56
(lp3893
g49
(g70
g51
NtRp3894
(dp3895
g54
(dp3896
sg63
g3890
sg56
(lp3897
g49
(g50
g51
NtRp3898
(dp3899
g54
(dp3900
g62
I4
ssg63
g3894
sg56
(lp3901
S'}}'
p3902
asbasbasbasbasbasbasbag49
(g65
g51
NtRp3903
(dp3904
g54
(dp3905
sg63
g3542
sg56
(lp3906
g49
(g70
g51
NtRp3907
(dp3908
g54
(dp3909
g74
g75
ssg63
g3903
sg56
(lp3910
S'enter_laptop_details'
p3911
asbag49
(g70
g51
NtRp3912
(dp3913
g54
(dp3914
g81
g82
ssg63
g3903
sg56
(lp3915
S':'
asbag49
(g70
g51
NtRp3916
(dp3917
g54
(dp3918
sg63
g3903
sg56
(lp3919
g49
(g50
g51
NtRp3920
(dp3921
g54
(dp3922
g62
I5
ssg63
g3916
sg56
(lp3923
g49
(g58
g51
NtRp3924
(dp3925
g54
(dp3926
g62
I4
ssg63
Nsg56
(lp3927
g49
(g65
g51
NtRp3928
(dp3929
g54
(dp3930
sg63
g3924
sg56
(lp3931
g49
(g70
g51
NtRp3932
(dp3933
g54
(dp3934
sg63
g3928
sg56
(lp3935
g49
(g50
g51
NtRp3936
(dp3937
g54
(dp3938
g62
I4
ssg63
g3932
sg56
(lp3939
g49
(g58
g51
NtRp3940
(dp3941
g54
(dp3942
g62
I3
ssg63
Nsg56
(lp3943
g49
(g65
g51
NtRp3944
(dp3945
g54
(dp3946
sg63
g3940
sg56
(lp3947
g49
(g70
g51
NtRp3948
(dp3949
g54
(dp3950
sg63
g3944
sg56
(lp3951
g49
(g50
g51
NtRp3952
(dp3953
g54
(dp3954
g62
I3
ssg63
g3948
sg56
(lp3955
g3620
(S's\x14\x00\x00\x00Enter Laptop Details'
tRp3956
asbasbasbag49
(g65
g51
NtRp3957
(dp3958
g54
(dp3959
sg63
g3940
sg56
(lp3960
g49
(g70
g51
NtRp3961
(dp3962
g54
(dp3963
sg63
g3957
sg56
(lp3964
g49
(g50
g51
NtRp3965
(dp3966
g54
(dp3967
g62
I3
ssg63
g3961
sg56
(lp3968
g92
asbasbasbag49
(g65
g51
NtRp3969
(dp3970
g54
(dp3971
sg63
g3940
sg56
(lp3972
g49
(g70
g51
NtRp3973
(dp3974
g54
(dp3975
sg63
g3969
sg56
(lp3976
g49
(g50
g51
NtRp3977
(dp3978
g54
(dp3979
g62
I3
ssg63
g3973
sg56
(lp3980
S'/hostel/default/enter_laptop_details'
p3981
asbasbasbag49
(g65
g51
NtRp3982
(dp3983
g54
(dp3984
sg63
g3940
sg56
(lp3985
g49
(g70
g51
NtRp3986
(dp3987
g54
(dp3988
sg63
g3982
sg56
(lp3989
g49
(g50
g51
NtRp3990
(dp3991
g54
(dp3992
g62
I3
ssg63
g3986
sg56
(lp3993
g49
(g58
g51
NtRp3994
(dp3995
g54
(dp3996
g62
I2
ssg63
Nsg56
(lp3997
sbasbasbasbasbasbasbasbasbasbasbasbag49
(g65
g51
NtRp3998
(dp3999
g54
(dp4000
sg63
g3542
sg56
(lp4001
g49
(g70
g51
NtRp4002
(dp4003
g54
(dp4004
g74
g75
ssg63
g3998
sg56
(lp4005
S'files'
p4006
asbag49
(g70
g51
NtRp4007
(dp4008
g54
(dp4009
g81
g82
ssg63
g3998
sg56
(lp4010
S':'
asbag49
(g70
g51
NtRp4011
(dp4012
g54
(dp4013
sg63
g3998
sg56
(lp4014
g49
(g50
g51
NtRp4015
(dp4016
g54
(dp4017
g62
I5
ssg63
g4011
sg56
(lp4018
g49
(g58
g51
NtRp4019
(dp4020
g54
(dp4021
g62
I4
ssg63
Nsg56
(lp4022
sbasbasbasbag49
(g65
g51
NtRp4023
(dp4024
g54
(dp4025
sg63
g3542
sg56
(lp4026
g49
(g70
g51
NtRp4027
(dp4028
g54
(dp4029
g74
g75
ssg63
g4023
sg56
(lp4030
S'flash'
p4031
asbag49
(g70
g51
NtRp4032
(dp4033
g54
(dp4034
g81
g82
ssg63
g4023
sg56
(lp4035
S':'
asbag49
(g70
g51
NtRp4036
(dp4037
g54
(dp4038
sg63
g4023
sg56
(lp4039
g49
(g50
g51
NtRp4040
(dp4041
g54
(dp4042
g62
I5
ssg63
g4036
sg56
(lp4043
S''
asbasbasbag49
(g65
g51
NtRp4044
(dp4045
g54
(dp4046
sg63
g3542
sg56
(lp4047
g49
(g70
g51
NtRp4048
(dp4049
g54
(dp4050
g74
g75
ssg63
g4044
sg56
(lp4051
S'generic_patterns'
p4052
asbag49
(g70
g51
NtRp4053
(dp4054
g54
(dp4055
g81
g82
ssg63
g4044
sg56
(lp4056
S':'
asbag49
(g70
g51
NtRp4057
(dp4058
g54
(dp4059
sg63
g4044
sg56
(lp4060
g49
(g50
g51
NtRp4061
(dp4062
g54
(dp4063
g62
I5
ssg63
g4057
sg56
(lp4064
g49
(g58
g51
NtRp4065
(dp4066
g54
(dp4067
g62
I4
ssg63
Nsg56
(lp4068
g49
(g65
g51
NtRp4069
(dp4070
g54
(dp4071
sg63
g4065
sg56
(lp4072
g49
(g70
g51
NtRp4073
(dp4074
g54
(dp4075
sg63
g4069
sg56
(lp4076
g49
(g50
g51
NtRp4077
(dp4078
g54
(dp4079
g62
I4
ssg63
g4073
sg56
(lp4080
S'*'
asbasbasbasbasbasbasbag49
(g65
g51
NtRp4081
(dp4082
g54
(dp4083
sg63
g3542
sg56
(lp4084
g49
(g70
g51
NtRp4085
(dp4086
g54
(dp4087
g74
g75
ssg63
g4081
sg56
(lp4088
S'headers'
p4089
asbag49
(g70
g51
NtRp4090
(dp4091
g54
(dp4092
g81
g82
ssg63
g4081
sg56
(lp4093
S':'
asbag49
(g70
g51
NtRp4094
(dp4095
g54
(dp4096
sg63
g4081
sg56
(lp4097
g49
(g50
g51
NtRp4098
(dp4099
g54
(dp4100
g62
I5
ssg63
g4094
sg56
(lp4101
g49
(g58
g51
NtRp4102
(dp4103
g54
(dp4104
g62
I4
ssg63
Nsg56
(lp4105
g49
(g65
g51
NtRp4106
(dp4107
g54
(dp4108
sg63
g4102
sg56
(lp4109
g49
(g70
g51
NtRp4110
(dp4111
g54
(dp4112
g74
g75
ssg63
g4106
sg56
(lp4113
S'Cache-Control'
p4114
asbag49
(g70
g51
NtRp4115
(dp4116
g54
(dp4117
g81
g82
ssg63
g4106
sg56
(lp4118
S':'
asbag49
(g70
g51
NtRp4119
(dp4120
g54
(dp4121
sg63
g4106
sg56
(lp4122
g49
(g50
g51
NtRp4123
(dp4124
g54
(dp4125
g62
I4
ssg63
g4119
sg56
(lp4126
S'no-store, no-cache, must-revalidate, post-check=0, pre-check=0'
p4127
asbasbasbag49
(g65
g51
NtRp4128
(dp4129
g54
(dp4130
sg63
g4102
sg56
(lp4131
g49
(g70
g51
NtRp4132
(dp4133
g54
(dp4134
g74
g75
ssg63
g4128
sg56
(lp4135
S'Content-Type'
p4136
asbag49
(g70
g51
NtRp4137
(dp4138
g54
(dp4139
g81
g82
ssg63
g4128
sg56
(lp4140
S':'
asbag49
(g70
g51
NtRp4141
(dp4142
g54
(dp4143
sg63
g4128
sg56
(lp4144
g49
(g50
g51
NtRp4145
(dp4146
g54
(dp4147
g62
I4
ssg63
g4141
sg56
(lp4148
S'text/html; charset=utf-8'
p4149
asbasbasbag49
(g65
g51
NtRp4150
(dp4151
g54
(dp4152
sg63
g4102
sg56
(lp4153
g49
(g70
g51
NtRp4154
(dp4155
g54
(dp4156
g74
g75
ssg63
g4150
sg56
(lp4157
S'Expires'
p4158
asbag49
(g70
g51
NtRp4159
(dp4160
g54
(dp4161
g81
g82
ssg63
g4150
sg56
(lp4162
S':'
asbag49
(g70
g51
NtRp4163
(dp4164
g54
(dp4165
sg63
g4150
sg56
(lp4166
g49
(g50
g51
NtRp4167
(dp4168
g54
(dp4169
g62
I4
ssg63
g4163
sg56
(lp4170
S'Mon, 15 Oct 2012 21:43:13 GMT'
p4171
asbasbasbag49
(g65
g51
NtRp4172
(dp4173
g54
(dp4174
sg63
g4102
sg56
(lp4175
g49
(g70
g51
NtRp4176
(dp4177
g54
(dp4178
g74
g75
ssg63
g4172
sg56
(lp4179
S'Pragma'
p4180
asbag49
(g70
g51
NtRp4181
(dp4182
g54
(dp4183
g81
g82
ssg63
g4172
sg56
(lp4184
S':'
asbag49
(g70
g51
NtRp4185
(dp4186
g54
(dp4187
sg63
g4172
sg56
(lp4188
g49
(g50
g51
NtRp4189
(dp4190
g54
(dp4191
g62
I4
ssg63
g4185
sg56
(lp4192
S'no-cache'
p4193
asbasbasbag49
(g65
g51
NtRp4194
(dp4195
g54
(dp4196
sg63
g4102
sg56
(lp4197
g49
(g70
g51
NtRp4198
(dp4199
g54
(dp4200
g74
g75
ssg63
g4194
sg56
(lp4201
S'X-Powered-By'
p4202
asbag49
(g70
g51
NtRp4203
(dp4204
g54
(dp4205
g81
g82
ssg63
g4194
sg56
(lp4206
S':'
asbag49
(g70
g51
NtRp4207
(dp4208
g54
(dp4209
sg63
g4194
sg56
(lp4210
g49
(g50
g51
NtRp4211
(dp4212
g54
(dp4213
g62
I4
ssg63
g4207
sg56
(lp4214
S'web2py'
p4215
asbasbasbasbasbasbasbag49
(g65
g51
NtRp4216
(dp4217
g54
(dp4218
sg63
g3542
sg56
(lp4219
g49
(g70
g51
NtRp4220
(dp4221
g54
(dp4222
g74
g75
ssg63
g4216
sg56
(lp4223
S'laptop_out_details'
p4224
asbag49
(g70
g51
NtRp4225
(dp4226
g54
(dp4227
g81
g82
ssg63
g4216
sg56
(lp4228
S':'
asbag49
(g70
g51
NtRp4229
(dp4230
g54
(dp4231
sg63
g4216
sg56
(lp4232
g49
(g50
g51
NtRp4233
(dp4234
g54
(dp4235
g62
I5
ssg63
g4229
sg56
(lp4236
g49
(g58
g51
NtRp4237
(dp4238
g54
(dp4239
g62
I4
ssg63
Nsg56
(lp4240
g49
(g65
g51
NtRp4241
(dp4242
g54
(dp4243
sg63
g4237
sg56
(lp4244
g49
(g70
g51
NtRp4245
(dp4246
g54
(dp4247
sg63
g4241
sg56
(lp4248
g49
(g50
g51
NtRp4249
(dp4250
g54
(dp4251
g62
I4
ssg63
g4245
sg56
(lp4252
g49
(g58
g51
NtRp4253
(dp4254
g54
(dp4255
g62
I3
ssg63
Nsg56
(lp4256
g49
(g65
g51
NtRp4257
(dp4258
g54
(dp4259
sg63
g4253
sg56
(lp4260
g49
(g70
g51
NtRp4261
(dp4262
g54
(dp4263
sg63
g4257
sg56
(lp4264
g49
(g50
g51
NtRp4265
(dp4266
g54
(dp4267
g62
I3
ssg63
g4261
sg56
(lp4268
g3620
(S's\x0f\x00\x00\x00Laptop Movement'
tRp4269
asbasbasbag49
(g65
g51
NtRp4270
(dp4271
g54
(dp4272
sg63
g4253
sg56
(lp4273
g49
(g70
g51
NtRp4274
(dp4275
g54
(dp4276
sg63
g4270
sg56
(lp4277
g49
(g50
g51
NtRp4278
(dp4279
g54
(dp4280
g62
I3
ssg63
g4274
sg56
(lp4281
g92
asbasbasbag49
(g65
g51
NtRp4282
(dp4283
g54
(dp4284
sg63
g4253
sg56
(lp4285
g49
(g70
g51
NtRp4286
(dp4287
g54
(dp4288
sg63
g4282
sg56
(lp4289
g49
(g50
g51
NtRp4290
(dp4291
g54
(dp4292
g62
I3
ssg63
g4286
sg56
(lp4293
S'/hostel/default/laptop_out_details'
p4294
asbasbasbag49
(g65
g51
NtRp4295
(dp4296
g54
(dp4297
sg63
g4253
sg56
(lp4298
g49
(g70
g51
NtRp4299
(dp4300
g54
(dp4301
sg63
g4295
sg56
(lp4302
g49
(g50
g51
NtRp4303
(dp4304
g54
(dp4305
g62
I3
ssg63
g4299
sg56
(lp4306
g49
(g58
g51
NtRp4307
(dp4308
g54
(dp4309
g62
I2
ssg63
Nsg56
(lp4310
sbasbasbasbasbasbasbasbasbasbasbasbag49
(g65
g51
NtRp4311
(dp4312
g54
(dp4313
sg63
g3542
sg56
(lp4314
g49
(g70
g51
NtRp4315
(dp4316
g54
(dp4317
g74
g75
ssg63
g4311
sg56
(lp4318
S'menu'
p4319
asbag49
(g70
g51
NtRp4320
(dp4321
g54
(dp4322
g81
g82
ssg63
g4311
sg56
(lp4323
S':'
asbag49
(g70
g51
NtRp4324
(dp4325
g54
(dp4326
sg63
g4311
sg56
(lp4327
g49
(g50
g51
NtRp4328
(dp4329
g54
(dp4330
g62
I5
ssg63
g4324
sg56
(lp4331
g49
(g58
g51
NtRp4332
(dp4333
g54
(dp4334
g62
I4
ssg63
Nsg56
(lp4335
g49
(g65
g51
NtRp4336
(dp4337
g54
(dp4338
sg63
g4332
sg56
(lp4339
g49
(g70
g51
NtRp4340
(dp4341
g54
(dp4342
sg63
g4336
sg56
(lp4343
g49
(g50
g51
NtRp4344
(dp4345
g54
(dp4346
g62
I4
ssg63
g4340
sg56
(lp4347
g49
(g58
g51
NtRp4348
(dp4349
g54
(dp4350
g62
I3
ssg63
Nsg56
(lp4351
g49
(g65
g51
NtRp4352
(dp4353
g54
(dp4354
sg63
g4348
sg56
(lp4355
g49
(g70
g51
NtRp4356
(dp4357
g54
(dp4358
sg63
g4352
sg56
(lp4359
g49
(g50
g51
NtRp4360
(dp4361
g54
(dp4362
g62
I3
ssg63
g4356
sg56
(lp4363
g3620
(S's\x04\x00\x00\x00HOME'
tRp4364
asbasbasbag49
(g65
g51
NtRp4365
(dp4366
g54
(dp4367
sg63
g4348
sg56
(lp4368
g49
(g70
g51
NtRp4369
(dp4370
g54
(dp4371
sg63
g4365
sg56
(lp4372
g49
(g50
g51
NtRp4373
(dp4374
g54
(dp4375
g62
I3
ssg63
g4369
sg56
(lp4376
g92
asbasbasbag49
(g65
g51
NtRp4377
(dp4378
g54
(dp4379
sg63
g4348
sg56
(lp4380
g49
(g70
g51
NtRp4381
(dp4382
g54
(dp4383
sg63
g4377
sg56
(lp4384
g49
(g50
g51
NtRp4385
(dp4386
g54
(dp4387
g62
I3
ssg63
g4381
sg56
(lp4388
S'/hostel/default/index'
p4389
asbasbasbag49
(g65
g51
NtRp4390
(dp4391
g54
(dp4392
sg63
g4348
sg56
(lp4393
g49
(g70
g51
NtRp4394
(dp4395
g54
(dp4396
sg63
g4390
sg56
(lp4397
g49
(g50
g51
NtRp4398
(dp4399
g54
(dp4400
g62
I3
ssg63
g4394
sg56
(lp4401
g49
(g58
g51
NtRp4402
(dp4403
g54
(dp4404
g62
I2
ssg63
Nsg56
(lp4405
sbasbasbasbasbasbasbasbasbasbasbasbag49
(g65
g51
NtRp4406
(dp4407
g54
(dp4408
sg63
g3542
sg56
(lp4409
g49
(g70
g51
NtRp4410
(dp4411
g54
(dp4412
g74
g75
ssg63
g4406
sg56
(lp4413
S'meta'
p4414
asbag49
(g70
g51
NtRp4415
(dp4416
g54
(dp4417
g81
g82
ssg63
g4406
sg56
(lp4418
S':'
asbag49
(g70
g51
NtRp4419
(dp4420
g54
(dp4421
sg63
g4406
sg56
(lp4422
g49
(g50
g51
NtRp4423
(dp4424
g54
(dp4425
g62
I5
ssg63
g4419
sg56
(lp4426
g49
(g58
g51
NtRp4427
(dp4428
g54
(dp4429
g62
I4
ssg63
Nsg56
(lp4430
g49
(g65
g51
NtRp4431
(dp4432
g54
(dp4433
sg63
g4427
sg56
(lp4434
g49
(g70
g51
NtRp4435
(dp4436
g54
(dp4437
g74
g75
ssg63
g4431
sg56
(lp4438
S'author'
p4439
asbag49
(g70
g51
NtRp4440
(dp4441
g54
(dp4442
g81
g82
ssg63
g4431
sg56
(lp4443
S':'
asbag49
(g70
g51
NtRp4444
(dp4445
g54
(dp4446
sg63
g4431
sg56
(lp4447
g49
(g50
g51
NtRp4448
(dp4449
g54
(dp4450
g62
I4
ssg63
g4444
sg56
(lp4451
S'you <you@example.com>'
p4452
asbasbasbag49
(g65
g51
NtRp4453
(dp4454
g54
(dp4455
sg63
g4427
sg56
(lp4456
g49
(g70
g51
NtRp4457
(dp4458
g54
(dp4459
g74
g75
ssg63
g4453
sg56
(lp4460
S'description'
p4461
asbag49
(g70
g51
NtRp4462
(dp4463
g54
(dp4464
g81
g82
ssg63
g4453
sg56
(lp4465
S':'
asbag49
(g70
g51
NtRp4466
(dp4467
g54
(dp4468
sg63
g4453
sg56
(lp4469
g49
(g50
g51
NtRp4470
(dp4471
g54
(dp4472
g62
I4
ssg63
g4466
sg56
(lp4473
S''
asbasbasbag49
(g65
g51
NtRp4474
(dp4475
g54
(dp4476
sg63
g4427
sg56
(lp4477
g49
(g70
g51
NtRp4478
(dp4479
g54
(dp4480
g74
g75
ssg63
g4474
sg56
(lp4481
S'keywords'
p4482
asbag49
(g70
g51
NtRp4483
(dp4484
g54
(dp4485
g81
g82
ssg63
g4474
sg56
(lp4486
S':'
asbag49
(g70
g51
NtRp4487
(dp4488
g54
(dp4489
sg63
g4474
sg56
(lp4490
g49
(g50
g51
NtRp4491
(dp4492
g54
(dp4493
g62
I4
ssg63
g4487
sg56
(lp4494
S''
asbasbasbasbasbasbasbag49
(g65
g51
NtRp4495
(dp4496
g54
(dp4497
sg63
g3542
sg56
(lp4498
g49
(g70
g51
NtRp4499
(dp4500
g54
(dp4501
g74
g75
ssg63
g4495
sg56
(lp4502
S'postprocessing'
p4503
asbag49
(g70
g51
NtRp4504
(dp4505
g54
(dp4506
g81
g82
ssg63
g4495
sg56
(lp4507
S':'
asbag49
(g70
g51
NtRp4508
(dp4509
g54
(dp4510
sg63
g4495
sg56
(lp4511
g49
(g50
g51
NtRp4512
(dp4513
g54
(dp4514
g62
I5
ssg63
g4508
sg56
(lp4515
g49
(g58
g51
NtRp4516
(dp4517
g54
(dp4518
g62
I4
ssg63
Nsg56
(lp4519
sbasbasbasbag49
(g65
g51
NtRp4520
(dp4521
g54
(dp4522
sg63
g3542
sg56
(lp4523
g49
(g70
g51
NtRp4524
(dp4525
g54
(dp4526
g74
g75
ssg63
g4520
sg56
(lp4527
S'search'
p4528
asbag49
(g70
g51
NtRp4529
(dp4530
g54
(dp4531
g81
g82
ssg63
g4520
sg56
(lp4532
S':'
asbag49
(g70
g51
NtRp4533
(dp4534
g54
(dp4535
sg63
g4520
sg56
(lp4536
g49
(g50
g51
NtRp4537
(dp4538
g54
(dp4539
g62
I5
ssg63
g4533
sg56
(lp4540
g49
(g58
g51
NtRp4541
(dp4542
g54
(dp4543
g62
I4
ssg63
Nsg56
(lp4544
g49
(g65
g51
NtRp4545
(dp4546
g54
(dp4547
sg63
g4541
sg56
(lp4548
g49
(g70
g51
NtRp4549
(dp4550
g54
(dp4551
sg63
g4545
sg56
(lp4552
g49
(g50
g51
NtRp4553
(dp4554
g54
(dp4555
g62
I4
ssg63
g4549
sg56
(lp4556
g49
(g58
g51
NtRp4557
(dp4558
g54
(dp4559
g62
I3
ssg63
Nsg56
(lp4560
g49
(g65
g51
NtRp4561
(dp4562
g54
(dp4563
sg63
g4557
sg56
(lp4564
g49
(g70
g51
NtRp4565
(dp4566
g54
(dp4567
sg63
g4561
sg56
(lp4568
g49
(g50
g51
NtRp4569
(dp4570
g54
(dp4571
g62
I3
ssg63
g4565
sg56
(lp4572
g3620
(S's\x06\x00\x00\x00SEARCH'
tRp4573
asbasbasbag49
(g65
g51
NtRp4574
(dp4575
g54
(dp4576
sg63
g4557
sg56
(lp4577
g49
(g70
g51
NtRp4578
(dp4579
g54
(dp4580
sg63
g4574
sg56
(lp4581
g49
(g50
g51
NtRp4582
(dp4583
g54
(dp4584
g62
I3
ssg63
g4578
sg56
(lp4585
g92
asbasbasbag49
(g65
g51
NtRp4586
(dp4587
g54
(dp4588
sg63
g4557
sg56
(lp4589
g49
(g70
g51
NtRp4590
(dp4591
g54
(dp4592
sg63
g4586
sg56
(lp4593
g49
(g50
g51
NtRp4594
(dp4595
g54
(dp4596
g62
I3
ssg63
g4590
sg56
(lp4597
S'/hostel/default/search'
p4598
asbasbasbag49
(g65
g51
NtRp4599
(dp4600
g54
(dp4601
sg63
g4557
sg56
(lp4602
g49
(g70
g51
NtRp4603
(dp4604
g54
(dp4605
sg63
g4599
sg56
(lp4606
g49
(g50
g51
NtRp4607
(dp4608
g54
(dp4609
g62
I3
ssg63
g4603
sg56
(lp4610
g49
(g58
g51
NtRp4611
(dp4612
g54
(dp4613
g62
I2
ssg63
Nsg56
(lp4614
sbasbasbasbasbasbasbasbasbasbasbasbag49
(g65
g51
NtRp4615
(dp4616
g54
(dp4617
sg63
g3542
sg56
(lp4618
g49
(g70
g51
NtRp4619
(dp4620
g54
(dp4621
g74
g75
ssg63
g4615
sg56
(lp4622
S'session_file'
p4623
asbag49
(g70
g51
NtRp4624
(dp4625
g54
(dp4626
g81
g82
ssg63
g4615
sg56
(lp4627
S':'
asbag49
(g70
g51
NtRp4628
(dp4629
g54
(dp4630
sg63
g4615
sg56
(lp4631
g49
(g50
g51
NtRp4632
(dp4633
g54
(dp4634
g62
I5
ssg63
g4628
sg56
(lp4635
S"<open file 'C:\\Users\\bhanu\\Downloads\\Compressed\\web2py\\applications\\hostel\\sessions\\127.0.0.1-73957939-93e4-44ab-b325-d5931caf3397', mode 'rb+' at 0x07020800>"
p4636
asbasbasbag49
(g65
g51
NtRp4637
(dp4638
g54
(dp4639
sg63
g3542
sg56
(lp4640
g49
(g70
g51
NtRp4641
(dp4642
g54
(dp4643
g74
g75
ssg63
g4637
sg56
(lp4644
S'session_filename'
p4645
asbag49
(g70
g51
NtRp4646
(dp4647
g54
(dp4648
g81
g82
ssg63
g4637
sg56
(lp4649
S':'
asbag49
(g70
g51
NtRp4650
(dp4651
g54
(dp4652
sg63
g4637
sg56
(lp4653
g49
(g50
g51
NtRp4654
(dp4655
g54
(dp4656
g62
I5
ssg63
g4650
sg56
(lp4657
S'C:\\Users\\bhanu\\Downloads\\Compressed\\web2py\\applications\\hostel\\sessions\\127.0.0.1-73957939-93e4-44ab-b325-d5931caf3397'
p4658
asbasbasbag49
(g65
g51
NtRp4659
(dp4660
g54
(dp4661
sg63
g3542
sg56
(lp4662
g49
(g70
g51
NtRp4663
(dp4664
g54
(dp4665
g74
g75
ssg63
g4659
sg56
(lp4666
S'session_id'
p4667
asbag49
(g70
g51
NtRp4668
(dp4669
g54
(dp4670
g81
g82
ssg63
g4659
sg56
(lp4671
S':'
asbag49
(g70
g51
NtRp4672
(dp4673
g54
(dp4674
sg63
g4659
sg56
(lp4675
g49
(g50
g51
NtRp4676
(dp4677
g54
(dp4678
g62
I5
ssg63
g4672
sg56
(lp4679
S'127.0.0.1-73957939-93e4-44ab-b325-d5931caf3397'
p4680
asbasbasbag49
(g65
g51
NtRp4681
(dp4682
g54
(dp4683
sg63
g3542
sg56
(lp4684
g49
(g70
g51
NtRp4685
(dp4686
g54
(dp4687
g74
g75
ssg63
g4681
sg56
(lp4688
S'session_id_name'
p4689
asbag49
(g70
g51
NtRp4690
(dp4691
g54
(dp4692
g81
g82
ssg63
g4681
sg56
(lp4693
S':'
asbag49
(g70
g51
NtRp4694
(dp4695
g54
(dp4696
sg63
g4681
sg56
(lp4697
g49
(g50
g51
NtRp4698
(dp4699
g54
(dp4700
g62
I5
ssg63
g4694
sg56
(lp4701
g3695
asbasbasbag49
(g65
g51
NtRp4702
(dp4703
g54
(dp4704
sg63
g3542
sg56
(lp4705
g49
(g70
g51
NtRp4706
(dp4707
g54
(dp4708
g74
g75
ssg63
g4702
sg56
(lp4709
S'session_locked'
p4710
asbag49
(g70
g51
NtRp4711
(dp4712
g54
(dp4713
g81
g82
ssg63
g4702
sg56
(lp4714
S':'
asbag49
(g70
g51
NtRp4715
(dp4716
g54
(dp4717
sg63
g4702
sg56
(lp4718
g49
(g50
g51
NtRp4719
(dp4720
g54
(dp4721
g62
I5
ssg63
g4715
sg56
(lp4722
g1644
asbasbasbag49
(g65
g51
NtRp4723
(dp4724
g54
(dp4725
sg63
g3542
sg56
(lp4726
g49
(g70
g51
NtRp4727
(dp4728
g54
(dp4729
g74
g75
ssg63
g4723
sg56
(lp4730
S'session_new'
p4731
asbag49
(g70
g51
NtRp4732
(dp4733
g54
(dp4734
g81
g82
ssg63
g4723
sg56
(lp4735
S':'
asbag49
(g70
g51
NtRp4736
(dp4737
g54
(dp4738
sg63
g4723
sg56
(lp4739
g49
(g50
g51
NtRp4740
(dp4741
g54
(dp4742
g62
I5
ssg63
g4736
sg56
(lp4743
g92
asbasbasbag49
(g65
g51
NtRp4744
(dp4745
g54
(dp4746
sg63
g3542
sg56
(lp4747
g49
(g70
g51
NtRp4748
(dp4749
g54
(dp4750
g74
g75
ssg63
g4744
sg56
(lp4751
S'status'
p4752
asbag49
(g70
g51
NtRp4753
(dp4754
g54
(dp4755
g81
g82
ssg63
g4744
sg56
(lp4756
S':'
asbag49
(g70
g51
NtRp4757
(dp4758
g54
(dp4759
sg63
g4744
sg56
(lp4760
g49
(g50
g51
NtRp4761
(dp4762
g54
(dp4763
g62
I5
ssg63
g4757
sg56
(lp4764
S'200'
p4765
asbasbasbag49
(g65
g51
NtRp4766
(dp4767
g54
(dp4768
sg63
g3542
sg56
(lp4769
g49
(g70
g51
NtRp4770
(dp4771
g54
(dp4772
g74
g75
ssg63
g4766
sg56
(lp4773
S'student_out_details'
p4774
asbag49
(g70
g51
NtRp4775
(dp4776
g54
(dp4777
g81
g82
ssg63
g4766
sg56
(lp4778
S':'
asbag49
(g70
g51
NtRp4779
(dp4780
g54
(dp4781
sg63
g4766
sg56
(lp4782
g49
(g50
g51
NtRp4783
(dp4784
g54
(dp4785
g62
I5
ssg63
g4779
sg56
(lp4786
g49
(g58
g51
NtRp4787
(dp4788
g54
(dp4789
g62
I4
ssg63
Nsg56
(lp4790
g49
(g65
g51
NtRp4791
(dp4792
g54
(dp4793
sg63
g4787
sg56
(lp4794
g49
(g70
g51
NtRp4795
(dp4796
g54
(dp4797
sg63
g4791
sg56
(lp4798
g49
(g50
g51
NtRp4799
(dp4800
g54
(dp4801
g62
I4
ssg63
g4795
sg56
(lp4802
g49
(g58
g51
NtRp4803
(dp4804
g54
(dp4805
g62
I3
ssg63
Nsg56
(lp4806
g49
(g65
g51
NtRp4807
(dp4808
g54
(dp4809
sg63
g4803
sg56
(lp4810
g49
(g70
g51
NtRp4811
(dp4812
g54
(dp4813
sg63
g4807
sg56
(lp4814
g49
(g50
g51
NtRp4815
(dp4816
g54
(dp4817
g62
I3
ssg63
g4811
sg56
(lp4818
g3620
(S's\x0e\x00\x00\x00Outing Details'
tRp4819
asbasbasbag49
(g65
g51
NtRp4820
(dp4821
g54
(dp4822
sg63
g4803
sg56
(lp4823
g49
(g70
g51
NtRp4824
(dp4825
g54
(dp4826
sg63
g4820
sg56
(lp4827
g49
(g50
g51
NtRp4828
(dp4829
g54
(dp4830
g62
I3
ssg63
g4824
sg56
(lp4831
g92
asbasbasbag49
(g65
g51
NtRp4832
(dp4833
g54
(dp4834
sg63
g4803
sg56
(lp4835
g49
(g70
g51
NtRp4836
(dp4837
g54
(dp4838
sg63
g4832
sg56
(lp4839
g49
(g50
g51
NtRp4840
(dp4841
g54
(dp4842
g62
I3
ssg63
g4836
sg56
(lp4843
S'/hostel/default/student_out_details'
p4844
asbasbasbag49
(g65
g51
NtRp4845
(dp4846
g54
(dp4847
sg63
g4803
sg56
(lp4848
g49
(g70
g51
NtRp4849
(dp4850
g54
(dp4851
sg63
g4845
sg56
(lp4852
g49
(g50
g51
NtRp4853
(dp4854
g54
(dp4855
g62
I3
ssg63
g4849
sg56
(lp4856
g49
(g58
g51
NtRp4857
(dp4858
g54
(dp4859
g62
I2
ssg63
Nsg56
(lp4860
sbasbasbasbasbasbasbasbasbasbasbasbag49
(g65
g51
NtRp4861
(dp4862
g54
(dp4863
sg63
g3542
sg56
(lp4864
g49
(g70
g51
NtRp4865
(dp4866
g54
(dp4867
g74
g75
ssg63
g4861
sg56
(lp4868
S'subtitle'
p4869
asbag49
(g70
g51
NtRp4870
(dp4871
g54
(dp4872
g81
g82
ssg63
g4861
sg56
(lp4873
S':'
asbag49
(g70
g51
NtRp4874
(dp4875
g54
(dp4876
sg63
g4861
sg56
(lp4877
g49
(g50
g51
NtRp4878
(dp4879
g54
(dp4880
g62
I5
ssg63
g4874
sg56
(lp4881
S'powered by web2py'
p4882
asbasbasbag49
(g65
g51
NtRp4883
(dp4884
g54
(dp4885
sg63
g3542
sg56
(lp4886
g49
(g70
g51
NtRp4887
(dp4888
g54
(dp4889
g74
g75
ssg63
g4883
sg56
(lp4890
S'title'
p4891
asbag49
(g70
g51
NtRp4892
(dp4893
g54
(dp4894
g81
g82
ssg63
g4883
sg56
(lp4895
S':'
asbag49
(g70
g51
NtRp4896
(dp4897
g54
(dp4898
sg63
g4883
sg56
(lp4899
g49
(g50
g51
NtRp4900
(dp4901
g54
(dp4902
g62
I5
ssg63
g4896
sg56
(lp4903
S'My New App'
p4904
asbasbasbag49
(g65
g51
NtRp4905
(dp4906
g54
(dp4907
sg63
g3542
sg56
(lp4908
g49
(g70
g51
NtRp4909
(dp4910
g54
(dp4911
g74
g75
ssg63
g4905
sg56
(lp4912
g2330
asbag49
(g70
g51
NtRp4913
(dp4914
g54
(dp4915
g81
g82
ssg63
g4905
sg56
(lp4916
S':'
asbag49
(g70
g51
NtRp4917
(dp4918
g54
(dp4919
sg63
g4905
sg56
(lp4920
g49
(g50
g51
NtRp4921
(dp4922
g54
(dp4923
g62
I5
ssg63
g4917
sg56
(lp4924
g2343
asbasbasbag49
(g65
g51
NtRp4925
(dp4926
g54
(dp4927
sg63
g3542
sg56
(lp4928
g49
(g70
g51
NtRp4929
(dp4930
g54
(dp4931
g74
g75
ssg63
g4925
sg56
(lp4932
S'view'
p4933
asbag49
(g70
g51
NtRp4934
(dp4935
g54
(dp4936
g81
g82
ssg63
g4925
sg56
(lp4937
S':'
asbag49
(g70
g51
NtRp4938
(dp4939
g54
(dp4940
sg63
g4925
sg56
(lp4941
g49
(g50
g51
NtRp4942
(dp4943
g54
(dp4944
g62
I5
ssg63
g4938
sg56
(lp4945
S'default/sr.html'
p4946
asbasbasbasbasbsS'locals'
p4947
(dp4948
ssS'traceback'
p4949
S'Traceback (most recent call last):\n  File "gluon/restricted.py", line 205, in restricted\n  File "C:\\Users\\bhanu\\Downloads\\Compressed\\web2py\\applications\\hostel\\controllers/default.py", line 168, in <module>\n  File "gluon/globals.py", line 173, in <lambda>\n  File "C:\\Users\\bhanu\\Downloads\\Compressed\\web2py\\applications\\hostel\\controllers/default.py", line 14, in sr\nTypeError: __call__() takes at least 2 arguments (1 given)\n'
p4950
s.