(dp1
S'output'
p2
S'missing "pass" in view'
p3
sS'layer'
p4
S'ParserContainer'
p5
sS'code'
p6
S'response.write(\'<!DOCTYPE html PUBLIC "-//W3C//DTD XHTML 1.0 Strict//EN" "http://www.w3.org/TR/xhtml1/DTD/xhtml1-strict.dtd">\\r\\n<!--\\r\\n<!DOCTYPE html>\\r\\nDesign by Free CSS Templates\\r\\nzzzhttp://www.freecsstemplates.org\\r\\nReleased for free under a Creative Commons Attribution 2.5 License\\r\\n\\r\\nTitle      : Embouteillage\\r\\nVersion    : 1.0\\r\\nReleased   : 200800204\\r\\nDescription: Three-column blog design with the third column allocated for ads. Features Web 2.0 design ideal for 1024x768 resolutions.\\r\\n\\r\\n-->\\r\\n\\r\\n<!DOCTYPE html>\\r\\n\\r\\n<html xmlns="http://www.w3.org/1999/xhtml">\\r\\n <head>\\r\\n  <title>\\r\\n   \', escape=False)\nresponse.write(response.title or request.application)\nresponse.write(\'\\r\\n  </title>\\r\\n  \', escape=False)\nresponse.files.append(URL(request.application,\'static\',\'plugin_layouts/layouts/Embouteillage/default.css\'))\nresponse.write(\'\\r\\n  \', escape=False)\nresponse.files.append(URL(\'static\',\'plugin_layouts/superfish.js\'))\nresponse.write(\'\\r\\n  \', escape=False)\nresponse.write(\'<script type="text/javascript"><!--\\n    // These variables are used by the web2py_ajax_init function in web2py_ajax.js (which is loaded below).\\n    var w2p_ajax_confirm_message = "\', escape=False)\nresponse.write(T(\'Are you sure you want to delete this object?\'))\nresponse.write(\'";\\n    var w2p_ajax_date_format = "\', escape=False)\nresponse.write(T(\'%Y-%m-%d\'))\nresponse.write(\'";\\n    var w2p_ajax_datetime_format = "\', escape=False)\nresponse.write(T(\'%Y-%m-%d %H:%M:%S\'))\nresponse.write(\'";\\n    //--></script>\\n\', escape=False)\nresponse.files.insert(0,URL(\'static\',\'js/jquery.js\'))\nresponse.files.insert(1,URL(\'static\',\'css/calendar.css\'))\nresponse.files.insert(2,URL(\'static\',\'js/calendar.js\'))\nresponse.files.insert(3,URL(\'static\',\'js/web2py.js\'))\nresponse.include_meta()\nresponse.include_files()\nresponse.write(\'\\n\', escape=False)\nresponse.write(\'\\r\\n  <style>\\r\\nul.web2py-menu-vertical { width: 150px; position: relative; top:1em; left:1em;  z-index:30; border:0; margin:0; padding: 0; list-style: none; texzt-decoration: none;}\\r\\nul.web2py-menu-vertical li { margin:0; padding:0; border:0; width: 150px; background: black; text-align:left;}\\r\\nul.web2py-menu-vertical li a { margin:0; padding: 1px 3px 1px 3px; border:0; width: 144px; color: white; font-size:12px;}\\r\\ndiv.flash { position: fixed; float: right; padding: 10px; top: 10px; right: 30px; opacity: 0.75; margin: 10px 10px 10px 10px; text-align: center; clear: both; color: #fff; font-size: 11pt; text-align: center; vertical-align: middle; cursor: pointer; background: black; border: 2px solid #fff; -moz-border-radius: 5px; -webkit-border-radius: 5px; z-index: 2; }\\r\\ndiv.error { background-color: red; color: white; padding: 3px; }\\r\\n.auth_navbar { text-align:right; z-index:20; position: absolute; top: 2px; right:30px; border:0; padding:0; color:white }\\r\\n  </style>\\r\\n </head>\\r\\n <body>\\r\\n  <!-- start header -->\\r\\n  \', escape=False)\ntry:\n    response.write(auth.navbar(action=URL(\'default\',\'user\')))\nexcept:pass\nresponse.write(\'\\r\\n\\r\\n  <!-- start header -->\\r\\n  <div id="wrapper">\\r\\n   <div id="header">\\r\\n    <div id="logo">\\r\\n     <h1>\\r\\n        Welcome To Hostel Portal\\r\\n     </h1>\\r\\n    </div>\\r\\n    <!--<div id="search">\\r\\n     <form id="searchform" method="get" action="">\\r\\n      <fieldset>\\r\\n       <input type="text" name="s" id="s" size="15" value="" />\\r\\n       <input type="submit" id="x" value="Search" />\\r\\n      </fieldset>\\r\\n     </form>\\r\\n    </div>-->\\r\\n   </div>\\r\\n   <!-- end header -->\\r\\n   <!-- star menu -->\\r\\n   <div id="menu">\\r\\n    \', escape=False)\nresponse.write(MENU(response.menu,_class=\'web2py-menu\'))\nresponse.write(\'\\r\\n    \', escape=False)\nresponse.write(MENU(response.complaint,_class=\'web2py-menu\'))\nresponse.write(\'\\r\\n    \', escape=False)\nresponse.write(MENU(response.search,_class=\'web2py-menu\'))\nresponse.write("\\r\\n   \\r\\n   \\r\\n    <script>\\r\\n      jQuery(document).ready(function(){jQuery(\'ul.web2py-menu\').superfish({delay:400});});\\r\\n    </script>\\r\\n   </div>\\r\\n <br />\\r\\n <h1>&nbsp;&nbsp;News Feed</h1>\\r\\n  <h2>&nbsp;&nbsp;&nbsp;&nbsp;&nbsp;&nbsp;&nbsp;&nbsp;&nbsp;&nbsp;&nbsp;&nbsp;&nbsp;&nbsp;&nbsp;&nbsp;&nbsp;&nbsp;&nbsp;&nbsp;&nbsp;&nbsp;&nbsp;&nbsp;&nbsp;&nbsp;&nbsp;&nbsp;&nbsp;&nbsp;&nbsp;&nbsp;&nbsp;&nbsp;&nbsp;&nbsp;&nbsp;&nbsp;&nbsp;&nbsp;&nbsp;&nbsp;&nbsp;&nbsp;&nbsp;&nbsp;&nbsp;&nbsp;&nbsp;&nbsp;&nbsp;&nbsp;&nbsp;&nbsp;&nbsp;&nbsp;&nbsp;&nbsp;&nbsp;&nbsp;&nbsp;&nbsp;&nbsp;&nbsp;&nbsp;&nbsp;&nbsp;&nbsp;&nbsp;&nbsp;&nbsp;&nbsp;&nbsp;&nbsp;&nbsp;&nbsp;&nbsp;&nbsp;&nbsp;&nbsp;&nbsp;&nbsp;&nbsp;&nbsp;&nbsp;&nbsp;&nbsp;&nbsp;&nbsp;&nbsp;&nbsp;&nbsp;&nbsp;&nbsp;&nbsp;&nbsp;&nbsp;&nbsp;&nbsp;&nbsp;&nbsp;&nbsp;&nbsp;&nbsp;&nbsp;&nbsp;&nbsp;&nbsp;&nbsp;&nbsp;&nbsp;&nbsp;&nbsp;&nbsp;&nbsp;&nbsp;&nbsp;&nbsp;&nbsp;&nbsp;&nbsp;&nbsp;&nbsp;&nbsp;&nbsp;&nbsp;&nbsp;&nbsp;&nbsp;&nbsp;&nbsp;&nbsp;&nbsp;&nbsp;&nbsp;&nbsp;&nbsp;&nbsp;&nbsp;&nbsp;&nbsp;&nbsp;&nbsp;&nbsp;&nbsp;&nbsp;&nbsp;&nbsp;&nbsp;&nbsp;&nbsp;&nbsp;&nbsp;&nbsp;&nbsp;&nbsp;&nbsp;&nbsp;&nbsp;&nbsp;&nbsp;&nbsp;&nbsp;&nbsp;&nbsp;&nbsp;&nbsp;&nbsp;&nbsp;&nbsp;&nbsp;&nbsp;&nbsp;&nbsp;&nbsp; ", escape=False)\nresponse.write(A(\'Add News Feed\',_href=URL(r=request,f=\'add_news_feed\')))\nresponse.write(\'</h2>\\r\\n  \\r\\n\\r\\n\', escape=False)\nfor n in newsfeed:\n    response.write(\'\\r\\n\', escape=False)\n    if n.image:\n        response.write(\'\\r\\n<img src="\', escape=False)\n        response.write(URL(f=\'download\',args=n.image))\n        response.write(\' ", height="200px", width="200px", align="left"  HSPACE=13 />\', escape=False)\n        pass\n    response.write(\'\\r\\n<h2 style="display:inline; margin-left:1em"> \', escape=False)\n    response.write(n.Title)\n    response.write(\'</h2>&nbsp;&nbsp;\\r\\n<h3 style="display:inline;"> by \', escape=False)\n    response.write(n.posted_by)\n    response.write(\' </h3>\\r\\n<b> <p style="margin-right:40em; margin-left:1em; "> \', escape=False)\n    response.write(n.description)\n    response.write(\'<</b> <br /><br />\', escape=False)\n    pass\nresponse.write(\'\\r\\n    \\r\\n<p>\\r\\n\', escape=False)\nfor p in polls:\n    response.write(\'\\r\\n<h2 style="display:inline;"> \', escape=False)\n    response.write(p.question)\n    response.write(\' </h2>\\r\\n&nbsp;&nbsp;\\r\\n <b>by \', escape=False)\n    response.write(p.posted_by)\n    response.write(\' </b>\\r\\n<form enctype="multipart/form-data" action="\', escape=False)\n    response.write(URL())\n    response.write(\'" method="post">\\r\\n    \', escape=False)\n    options=db(db.options.qid==p.id).select(db.options.ALL)\n    response.write(\'\\r\\n\', escape=False)\n    for o in options:\n        response.write(\'\\r\\n\\r\\n<input type="radio" name="\', escape=False)\n        response.write(o.option)\n        response.write(\'" value="\', escape=False)\n        response.write(o.option)\n        response.write(\'">\', escape=False)\n        response.write(o.option)\n        response.write(\'<br>\\r\\n\\r\\n\\r\\n\', escape=False)\n        pass\n    response.write(\'\\r\\n<input type="submit" value="Submit">\\r\\n\\r\\n</form>\', escape=False)\n    pass\nresponse.write(\'\\r\\n\\r\\n\\r\\n<div id="graphDiv1"></div>\\r\\n    <br />\\r\\n    <div id="graphDiv2"></div>\\r\\n    <!--[if IE]><script src="excanvas.js"></script><![endif]-->\\r\\n    <script >// Copyright 2011 William Malone (www.williammalone.com)\\r\\n//\\r\\n// Licensed under the Apache License, Version 2.0 (the "License");\\r\\n// you may not use this file except in compliance with the License.\\r\\n// You may obtain a copy of the License at\\r\\n//\\r\\n//   http://www.apache.org/licenses/LICENSE-2.0\\r\\n//\\r\\n// Unless required by applicable law or agreed to in writing, software\\r\\n// distributed under the License is distributed on an "AS IS" BASIS,\\r\\n// WITHOUT WARRANTIES OR CONDITIONS OF ANY KIND, either express or implied.\\r\\n// See the License for the specific language governing permissions and\\r\\n// limitations under the License.\\r\\n\\r\\nfunction BarGraph(ctx) {\\r\\n\\r\\n  // Private properties and methods\\r\\n    \\r\\n  var that = this;\\r\\n  var startArr;\\r\\n  var endArr;\\r\\n  var looping = false;\\r\\n        \\r\\n  // Loop method adjusts the height of bar and redraws if neccessary\\r\\n    var loop = function () {\\r\\n\\r\\n      var delta;\\r\\n      var animationComplete = true;\\r\\n\\r\\n      // Boolean to prevent update function from looping if already looping\\r\\n      looping = true;\\r\\n      \\r\\n      // For each bar\\r\\n      for (var i = 0; i < endArr.length; i += 1) {\\r\\n        // Change the current bar height toward its target height\\r\\n        delta = (endArr[i] - startArr[i]) / that.animationSteps;\\r\\n        that.curArr[i] += delta;\\r\\n        // If any change is made then flip a switch\\r\\n        if (delta) {\\r\\n          animationComplete = false;\\r\\n        }\\r\\n      }\\r\\n      // If no change was made to any bars then we are done\\r\\n      if (animationComplete) {\\r\\n        looping = false;\\r\\n      } else {\\r\\n        // Draw and call loop again\\r\\n        draw(that.curArr);\\r\\n        setTimeout(loop, that.animationInterval / that.animationSteps);\\r\\n      }\\r\\n    };\\r\\n        \\r\\n  // Draw method updates the canvas with the current display\\r\\n    var draw = function (arr) {\\r\\n                            \\r\\n      var numOfBars = arr.length;\\r\\n      var barWidth;\\r\\n      var barHeight;\\r\\n      var border = 2;\\r\\n      var ratio;\\r\\n      var maxBarHeight;\\r\\n      var gradient;\\r\\n      var largestValue;\\r\\n      var graphAreaX = 0;\\r\\n      var graphAreaY = 0;\\r\\n      var graphAreaWidth = that.width;\\r\\n      var graphAreaHeight = that.height;\\r\\n      var i;\\r\\n      \\r\\n        // Update the dimensions of the canvas only if they have changed\\r\\n      if (ctx.canvas.width !== that.width || ctx.canvas.height !== that.height) {\\r\\n        ctx.canvas.width = that.width;\\r\\n        ctx.canvas.height = that.height;\\r\\n      }\\r\\n                \\r\\n      // Draw the background color\\r\\n      ctx.fillStyle = that.backgroundColor;\\r\\n      ctx.fillRect(0, 0, that.width, that.height);\\r\\n                    \\r\\n      // If x axis labels exist then make room  \\r\\n      if (that.xAxisLabelArr.length) {\\r\\n        graphAreaHeight -= 40;\\r\\n      }\\r\\n                \\r\\n      // Calculate dimensions of the bar\\r\\n      barWidth = graphAreaWidth / numOfBars - that.margin * 2;\\r\\n      maxBarHeight = graphAreaHeight - 25;\\r\\n                \\r\\n      // Determine the largest value in the bar array\\r\\n      var largestValue = 0;\\r\\n      for (i = 0; i < arr.length; i += 1) {\\r\\n        if (arr[i] > largestValue) {\\r\\n          largestValue = arr[i];    \\r\\n        }\\r\\n      }\\r\\n      \\r\\n      // For each bar\\r\\n      for (i = 0; i < arr.length; i += 1) {\\r\\n        // Set the ratio of current bar compared to the maximum\\r\\n        if (that.maxValue) {\\r\\n          ratio = arr[i] / that.maxValue;\\r\\n        } else {\\r\\n          ratio = arr[i] / largestValue;\\r\\n        }\\r\\n        \\r\\n        barHeight = ratio * maxBarHeight;\\r\\n      \\r\\n        // Turn on shadow\\r\\n        ctx.shadowOffsetX = 2;\\r\\n        ctx.shadowOffsetY = 2;\\r\\n        ctx.shadowBlur = 2;\\r\\n        ctx.shadowColor = "#999";\\r\\n                        \\r\\n        // Draw bar background\\r\\n        ctx.fillStyle = "#333";         \\r\\n        ctx.fillRect(that.margin + i * that.width / numOfBars,\\r\\n          graphAreaHeight - barHeight,\\r\\n          barWidth,\\r\\n          barHeight);\\r\\n            \\r\\n        // Turn off shadow\\r\\n        ctx.shadowOffsetX = 0;\\r\\n        ctx.shadowOffsetY = 0;\\r\\n        ctx.shadowBlur = 0;\\r\\n\\r\\n        // Draw bar color if it is large enough to be visible\\r\\n        if (barHeight > border * 2) {\\r\\n            // Create gradient\\r\\n            gradient = ctx.createLinearGradient(0, 0, 0, graphAreaHeight);\\r\\n            gradient.addColorStop(1-ratio, that.colors[i % that.colors.length]);\\r\\n            gradient.addColorStop(1, "#ffffff");\\r\\n\\r\\n            ctx.fillStyle = gradient;\\r\\n            // Fill rectangle with gradient\\r\\n            ctx.fillRect(that.margin + i * that.width / numOfBars + border,\\r\\n              graphAreaHeight - barHeight + border,\\r\\n              barWidth - border * 2,\\r\\n              barHeight - border * 2);\\r\\n        }\\r\\n\\r\\n        // Write bar value\\r\\n        ctx.fillStyle = "#333";\\r\\n        ctx.font = "bold 12px sans-serif";\\r\\n        ctx.textAlign = "center";\\r\\n        // Use try / catch to stop IE 8 from going to error town\\r\\n        try {\\r\\n          ctx.fillText(parseInt(arr[i],10),\\r\\n            i * that.width / numOfBars + (that.width / numOfBars) / 2,\\r\\n            graphAreaHeight - barHeight - 10);\\r\\n        } catch (ex) {}\\r\\n        // Draw bar label if it exists\\r\\n        if (that.xAxisLabelArr[i]) {                    \\r\\n          // Use try / catch to stop IE 8 from going to error town              \\r\\n          ctx.fillStyle = "#333";\\r\\n          ctx.font = "bold 12px sans-serif";\\r\\n          ctx.textAlign = "center";\\r\\n          try{\\r\\n            ctx.fillText(that.xAxisLabelArr[i],\\r\\n              i * that.width / numOfBars + (that.width / numOfBars) / 2,\\r\\n              that.height - 10);\\r\\n            } catch (ex) {}\\r\\n          }\\r\\n        }\\r\\n      };\\r\\n\\r\\n  // Public properties and methods\\r\\n    \\r\\n  this.width = 300;\\r\\n  this.height = 150;    \\r\\n  this.maxValue;\\r\\n  this.margin = 5;\\r\\n  this.colors = ["purple", "red", "green", "yellow"];\\r\\n  this.curArr = [];\\r\\n  this.backgroundColor = "#fff";\\r\\n  this.xAxisLabelArr = [];\\r\\n  this.yAxisLabelArr = [];\\r\\n  this.animationInterval = 100;\\r\\n  this.animationSteps = 10;\\r\\n    \\r\\n  // Update method sets the end bar array and starts the animation\\r\\n    this.update = function (newArr) {\\r\\n\\r\\n      // If length of target and current array is different \\r\\n      if (that.curArr.length !== newArr.length) {\\r\\n        that.curArr = newArr;\\r\\n        draw(newArr);\\r\\n      } else {\\r\\n        // Set the starting array to the current array\\r\\n        startArr = that.curArr;\\r\\n        // Set the target array to the new array\\r\\n        endArr = newArr;\\r\\n        // Animate from the start array to the end array\\r\\n        if (!looping) { \\r\\n          loop();\\r\\n        }\\r\\n      }\\r\\n    }; \\r\\n}</script>\\r\\n    <script>(function () {\\r\\n    \\r\\n        function createCanvas(divName) {\\r\\n            \\r\\n            var div = document.getElementById(divName);\\r\\n            var canvas = document.createElement(\\\'canvas\\\');\\r\\n            div.appendChild(canvas);\\r\\n            if (typeof G_vmlCanvasManager != \\\'undefined\\\') {\\r\\n                canvas = G_vmlCanvasManager.initElement(canvas);\\r\\n            }   \\r\\n            var ctx = canvas.getContext("2d");\\r\\n            return ctx;\\r\\n        }\\r\\n       \\r\\n        var ctx = createCanvas("graphDiv1");\\r\\n        \\r\\n        var graph = new BarGraph(ctx);\\r\\n        graph.maxValue = 30;\\r\\n        graph.margin = 2;\\r\\n        \', escape=False)\np=polls[2]\nresponse.write(\'\\r\\n        \', escape=False)\noptions=db(db.options.qid==p.id).select(db.options.ALL)\nresponse.write(\'\\r\\n        \', escape=False)\nfor o in options:\n    response.write(\'\\r\\n        graph.colors.push("#49a0d8");\\r\\n        graph.xAxisLabelArr.push("south");\\r\\nvar update=new Array();\\r\\nupdate.push(2)\\r\\n\\r\\n\\r\\ngraph.update(update);\\r\\n        \\r\\n      }());</script>\\r\\n\\r\\n     \\r\\n        \\r\\n        \\r\\n\\r\\n   \\r\\n\\r\\n\\r\\n\\r\\n\\r\\n</p>\\r\\n   <!-- end menu -->\\r\\n   <!-- start page -->\\r\\n   <div id="page">\\r\\n    <!-- start ads -->\\r\\n    <div id="ads">\\r\\n     <a href="#">\\r\\n      <img src="images/ad160x600.gif" alt="" width="160" height="600" />\\r\\n     </a>\\r\\n    </div>\\r\\n    <!-- end ads -->\\r\\n    <!-- start content -->\\r\\n    <div id="content">\\r\\n     <div class="flash">\', escape=False)\n    response.write(response.flash or \'\')\n    response.write(\'</div>\\r\\n     \', escape=False)\n    response.write(\'\\r\\n    </div>\\r\\n    <!-- end content -->\\r\\n    <!-- start sidebar -->\\r\\n    \\r\\n   <!-- end page -->\\r\\n   <!-- start footer -->\\r\\n   <div id="footer">\\r\\n    <p class="legal">\\r\\n     \\xc2\\xa92007 Embouteillage. All Rights Reserved.\\r\\n          \\xe2\\x80\\xa2  \\r\\n        Design by\\r\\n     <a href="http://www.freecsstemplates.org/">\\r\\n      Free CSS Templates\\r\\n     </a>\\r\\n       \\xe2\\x80\\xa2  \\r\\n        Icons by\\r\\n     <a href="http://famfamfam.com/">\\r\\n      FAMFAMFAM\\r\\n     </a>\\r\\n     .\\r\\n    </p>\\r\\n    <p class="links">\\r\\n     <a href="http://validator.w3.org/check/referer" class="xhtml" title="This page validates as XHTML">\\r\\n      Valid\\r\\n      <abbr title="eXtensible HyperText Markup Language">\\r\\n       XHTML\\r\\n      </abbr>\\r\\n     </a>\\r\\n      \\xe2\\x80\\xa2 \\r\\n     <a href="http://jigsaw.w3.org/css-validator/check/referer" class="css" title="This page validates as CSS">\\r\\n      Valid\\r\\n      <abbr title="Cascading Style Sheets">\\r\\n       CSS\\r\\n      </abbr>\\r\\n     </a>\\r\\n    </p>\\r\\n   </div>\\r\\n  </div>\\r\\n  <!-- end footer -->\\r\\n </body>\\r\\n</html>\\r\\n\', escape=False)'
p7
sS'snapshot'
p8
(dp9
S'exception'
p10
(dp11
S'__hash__'
p12
S"<method-wrapper '__hash__' of SocketTimeout object at 0x05DE7CB0>"
p13
sS'__module__'
p14
S"'gluon.rocket'"
p15
sS'__reduce_ex__'
p16
S'<built-in method __reduce_ex__ of SocketTimeout object at 0x05DE7CB0>'
p17
sS'__getslice__'
p18
S"<method-wrapper '__getslice__' of SocketTimeout object at 0x05DE7CB0>"
p19
sS'__getitem__'
p20
S"<method-wrapper '__getitem__' of SocketTimeout object at 0x05DE7CB0>"
p21
sS'__setstate__'
p22
S'<built-in method __setstate__ of SocketTimeout object at 0x05DE7CB0>'
p23
sS'__reduce__'
p24
S'<built-in method __reduce__ of SocketTimeout object at 0x05DE7CB0>'
p25
sS'__str__'
p26
S"<method-wrapper '__str__' of SocketTimeout object at 0x05DE7CB0>"
p27
sS'args'
p28
S"('Socket timed out before request.',)"
p29
sS'__getattribute__'
p30
S"<method-wrapper '__getattribute__' of SocketTimeout object at 0x05DE7CB0>"
p31
sS'__class__'
p32
S"<class 'gluon.rocket.SocketTimeout'>"
p33
sS'__delattr__'
p34
S"<method-wrapper '__delattr__' of SocketTimeout object at 0x05DE7CB0>"
p35
sS'__repr__'
p36
S"<method-wrapper '__repr__' of SocketTimeout object at 0x05DE7CB0>"
p37
sS'__setattr__'
p38
S"<method-wrapper '__setattr__' of SocketTimeout object at 0x05DE7CB0>"
p39
sS'__dict__'
p40
S'{}'
p41
sS'__weakref__'
p42
S'None'
p43
sS'__doc__'
p44
S"'Exception for when a socket times out between requests.'"
p45
sS'__init__'
p46
S"<method-wrapper '__init__' of SocketTimeout object at 0x05DE7CB0>"
p47
sS'__new__'
p48
S'<built-in method __new__ of type object at 0x1E1CCBE8>'
p49
ssS'evalue'
p50
S'Socket timed out before request.'
p51
sS'frames'
p52
(lp53
(dp54
S'file'
p55
S'C:\\Users\\bhanu\\Downloads\\Compressed\\web2py\\gluon\\rocket.py'
p56
sS'dump'
p57
(dp58
sS'lnum'
p59
I1302
sS'lines'
p60
(dp61
sS'call'
p62
S'(self=<WSGIWorker(Thread-5, started daemon)>)'
p63
sS'func'
p64
S'run'
p65
sa(dp66
g55
S'C:\\Users\\bhanu\\Downloads\\Compressed\\web2py\\gluon\\rocket.py'
p67
sg57
(dp68
sg59
I1986
sg60
(dp69
sg62
S'(self=<WSGIWorker(Thread-5, started daemon)>, conn=<gluon.rocket.Connection object at 0x06C1C608>)'
p70
sg64
S'run_app'
p71
sa(dp72
g55
S'C:\\Users\\bhanu\\Downloads\\Compressed\\web2py\\gluon\\rocket.py'
p73
sg57
(dp74
sg59
I1807
sg60
(dp75
sg62
S'(self=<WSGIWorker(Thread-5, started daemon)>, sock_file=<socket._fileobject object at 0x07690030>, conn=<gluon.rocket.Connection object at 0x06C1C608>)'
p76
sg64
S'build_environ'
p77
sa(dp78
g55
S'C:\\Users\\bhanu\\Downloads\\Compressed\\web2py\\gluon\\rocket.py'
p79
sg57
(dp80
sg59
I1376
sg60
(dp81
sg62
S'(self=<WSGIWorker(Thread-5, started daemon)>, sock_file=<socket._fileobject object at 0x07690030>)'
p82
sg64
S'read_request_line'
p83
sasS'pyver'
p84
S'Python 2.5.4: C:\\Users\\bhanu\\Downloads\\Compressed\\web2py\\web2py.exe'
p85
sS'etype'
p86
S"<class 'gluon.rocket.SocketTimeout'>"
p87
sS'date'
p88
S'Mon Oct 15 22:32:54 2012'
p89
sS'locals'
p90
(dp91
S'sock_file'
p92
S'<socket._fileobject object at 0x07690030>'
p93
sS'self'
p94
S'<WSGIWorker(Thread-5, started daemon)>'
p95
sssS'traceback'
p96
S'Traceback (most recent call last):\n  File "gluon/rocket.py", line 1302, in run\n  File "gluon/rocket.py", line 1986, in run_app\n  File "gluon/rocket.py", line 1807, in build_environ\n  File "gluon/rocket.py", line 1376, in read_request_line\nSocketTimeout: Socket timed out before request.\n'
p97
s.