(dp1
S'output'
p2
S"<type 'exceptions.TypeError'> 'NoneType' object is not iterable"
p3
sS'layer'
p4
S'/home/monamagarwal/Downloads/web2py/applications/hostel/views/default/complaint.html'
p5
sS'code'
p6
S'response.write(\'<!DOCTYPE html PUBLIC "-//W3C//DTD XHTML 1.0 Strict//EN" "http://www.w3.org/TR/xhtml1/DTD/xhtml1-strict.dtd">\\n<!--\\n\\nDesign by Free CSS Templates\\nhttp://www.freecsstemplates.org\\nReleased for free under a Creative Commons Attribution 2.5 License\\n\\nTitle      : Embouteillage\\nVersion    : 1.0\\nReleased   : 200800204\\nDescription: Three-column blog design with the third column allocated for ads. Features Web 2.0 design ideal for 1024x768 resolutions.\\n\\n-->\\n<html xmlns="http://www.w3.org/1999/xhtml">\\n <head>\\n  <title>\\n   \', escape=False)\nresponse.write(response.title or request.application)\nresponse.write(\'\\n  </title>\\n  \', escape=False)\nresponse.files.append(URL(request.application,\'static\',\'plugin_layouts/layouts/Embouteillage/default.css\'))\nresponse.write(\'\\n  \', escape=False)\nresponse.files.append(URL(\'static\',\'plugin_layouts/superfish.js\'))\nresponse.write(\'\\n  \', escape=False)\nresponse.write(\'<script type="text/javascript"><!--\\n    // These variables are used by the web2py_ajax_init function in web2py_ajax.js (which is loaded below).\\n    var w2p_ajax_confirm_message = "\', escape=False)\nresponse.write(T(\'Are you sure you want to delete this object?\'))\nresponse.write(\'";\\n    var w2p_ajax_date_format = "\', escape=False)\nresponse.write(T(\'%Y-%m-%d\'))\nresponse.write(\'";\\n    var w2p_ajax_datetime_format = "\', escape=False)\nresponse.write(T(\'%Y-%m-%d %H:%M:%S\'))\nresponse.write(\'";\\n    //--></script>\\n\', escape=False)\nresponse.files.insert(0,URL(\'static\',\'js/jquery.js\'))\nresponse.files.insert(1,URL(\'static\',\'css/calendar.css\'))\nresponse.files.insert(2,URL(\'static\',\'js/calendar.js\'))\nresponse.files.insert(3,URL(\'static\',\'js/web2py.js\'))\nresponse.include_meta()\nresponse.include_files()\nresponse.write(\'\\n\', escape=False)\nresponse.write(\'\\n  <style>\\nul.web2py-menu-vertical { width: 150px; position: relative; top:1em; left:1em;  z-index:30; border:0; margin:0; padding: 0; list-style: none; text-decoration: none;}\\nul.web2py-menu-vertical li { margin:0; padding:0; border:0; width: 150px; background: black; text-align:left;}\\nul.web2py-menu-vertical li a { margin:0; padding: 1px 3px 1px 3px; border:0; width: 144px; color: white; font-size:12px;}\\ndiv.flash { position: fixed; float: right; padding: 10px; top: 10px; right: 30px; opacity: 0.75; margin: 10px 10px 10px 10px; text-align: center; clear: both; color: #fff; font-size: 11pt; text-align: center; vertical-align: middle; cursor: pointer; background: black; border: 2px solid #fff; -moz-border-radius: 5px; -webkit-border-radius: 5px; z-index: 2; }\\ndiv.error { background-color: red; color: white; padding: 3px; }\\n.auth_navbar { text-align:right; z-index:20; position: absolute; top: 2px; right:30px; border:0; padding:0; color:white }\\n  </style>\\n </head>\\n <body>\\n  <!-- start header -->\\n  \', escape=False)\ntry:\n    response.write(auth.navbar(action=URL(\'default\',\'user\')))\nexcept:pass\nresponse.write(\'\\n\\n  <!-- start header -->\\n  <div id="wrapper">\\n   <div id="header">\\n    <div id="logo">\\n     <h1>\\n        Welcome To Hostel Portal\\n     </h1>\\n    </div>\\n    <!--<div id="search">\\n     <form id="searchform" method="get" action="">\\n      <fieldset>\\n       <input type="text" name="s" id="s" size="15" value="" />\\n       <input type="submit" id="x" value="Search" />\\n      </fieldset>\\n     </form>\\n    </div>-->\\n   </div>\\n   <!-- end header -->\\n   <!-- star menu -->\\n   <div id="menu">\\n    \', escape=False)\nresponse.write(MENU(response.menu,_class=\'web2py-menu\'))\nresponse.write(\'\\n    \', escape=False)\nresponse.write(MENU(response.complaint,_class=\'web2py-menu\'))\nresponse.write(\'\\n    \', escape=False)\nresponse.write(MENU(response.search,_class=\'web2py-menu\'))\nresponse.write(\'\\n    <script>\\n      jQuery(document).ready(function(){jQuery(\\\'ul.web2py-menu\\\').superfish({delay:400});});\\n    </script>\\n   </div>\\n   <!-- end menu -->\\n   <!-- start page -->\\n   <div id="page">\\n    <!-- start ads -->\\n    <div id="ads">\\n     <a href="#">\\n      <img src="images/ad160x600.gif" alt="" width="160" height="600" />\\n     </a>\\n    </div>\\n    <!-- end ads -->\\n    <!-- start content -->\\n    <div id="content">\\n     <div class="flash">\', escape=False)\nresponse.write(response.flash or \'\')\nresponse.write(\'</div>\\n     \', escape=False)\nresponse.write(\'\\n\\n<h3>\', escape=False)\nresponse.write(A(\'Register Complaint\', _href=URL(\'regcomplaint\')))\nresponse.write(\'</h3>\\n<h3>\', escape=False)\nresponse.write(A(\'Show Complaints\', _href=URL(\'showcomplaint\')))\nresponse.write(\'</h3>\\n\', escape=False)\nresponse.write(\'\\n    </div>\\n    <!-- end content -->\\n    <!-- start sidebar -->\\n    \\n   <!-- end page -->\\n   <!-- start footer -->\\n   <div id="footer">\\n    <p class="legal">\\n     \\xc2\\xa92007 Embouteillage. All Rights Reserved.\\n          \\xe2\\x80\\xa2  \\n        Design by\\n     <a href="http://www.freecsstemplates.org/">\\n      Free CSS Templates\\n     </a>\\n       \\xe2\\x80\\xa2  \\n        Icons by\\n     <a href="http://famfamfam.com/">\\n      FAMFAMFAM\\n     </a>\\n     .\\n    </p>\\n    <p class="links">\\n     <a href="http://validator.w3.org/check/referer" class="xhtml" title="This page validates as XHTML">\\n      Valid\\n      <abbr title="eXtensible HyperText Markup Language">\\n       XHTML\\n      </abbr>\\n     </a>\\n      \\xe2\\x80\\xa2 \\n     <a href="http://jigsaw.w3.org/css-validator/check/referer" class="css" title="This page validates as CSS">\\n      Valid\\n      <abbr title="Cascading Style Sheets">\\n       CSS\\n      </abbr>\\n     </a>\\n    </p>\\n   </div>\\n  </div>\\n  <!-- end footer -->\\n </body>\\n</html>\\n\', escape=False)'
p7
sS'snapshot'
p8
(dp9
S'exception'
p10
(dp11
S'__hash__'
p12
S"<method-wrapper '__hash__' of exceptions.TypeError object>"
p13
sS'__setattr__'
p14
S"<method-wrapper '__setattr__' of exceptions.TypeError object>"
p15
sS'__reduce_ex__'
p16
S'<built-in method __reduce_ex__ of exceptions.TypeError object>'
p17
sS'__getslice__'
p18
S"<method-wrapper '__getslice__' of exceptions.TypeError object>"
p19
sS'__getitem__'
p20
S"<method-wrapper '__getitem__' of exceptions.TypeError object>"
p21
sS'__setstate__'
p22
S'<built-in method __setstate__ of exceptions.TypeError object>'
p23
sS'__reduce__'
p24
S'<built-in method __reduce__ of exceptions.TypeError object>'
p25
sS'__str__'
p26
S"<method-wrapper '__str__' of exceptions.TypeError object>"
p27
sS'__format__'
p28
S'<built-in method __format__ of exceptions.TypeError object>'
p29
sS'__getattribute__'
p30
S"<method-wrapper '__getattribute__' of exceptions.TypeError object>"
p31
sS'__class__'
p32
S"<type 'exceptions.TypeError'>"
p33
sS'__unicode__'
p34
S'<built-in method __unicode__ of exceptions.TypeError object>'
p35
sS'__delattr__'
p36
S"<method-wrapper '__delattr__' of exceptions.TypeError object>"
p37
sS'__subclasshook__'
p38
S'<built-in method __subclasshook__ of type object>'
p39
sS'__repr__'
p40
S"<method-wrapper '__repr__' of exceptions.TypeError object>"
p41
sS'args'
p42
S'("\'NoneType\' object is not iterable",)'
p43
sS'__dict__'
p44
S'{}'
p45
sS'__sizeof__'
p46
S'<built-in method __sizeof__ of exceptions.TypeError object>'
p47
sS'__doc__'
p48
S"'Inappropriate argument type.'"
p49
sS'__init__'
p50
S"<method-wrapper '__init__' of exceptions.TypeError object>"
p51
sS'__new__'
p52
S'<built-in method __new__ of type object>'
p53
ssS'evalue'
p54
S"'NoneType' object is not iterable"
p55
sS'request'
p56
ccopy_reg
_reconstructor
p57
(cgluon.html
BEAUTIFY
p58
c__builtin__
object
p59
NtRp60
(dp61
S'attributes'
p62
(dp63
sS'components'
p64
(lp65
g57
(cgluon.html
TABLE
p66
g59
NtRp67
(dp68
g62
(dp69
S'level'
p70
I5
ssS'parent'
p71
Nsg64
(lp72
g57
(cgluon.html
TR
p73
g59
NtRp74
(dp75
g62
(dp76
sg71
g67
sg64
(lp77
g57
(cgluon.html
TD
p78
g59
NtRp79
(dp80
g62
(dp81
S'_style'
p82
S'font-weight:bold;vertical-align:top'
p83
ssg71
g74
sg64
(lp84
S'ajax'
p85
asbag57
(g78
g59
NtRp86
(dp87
g62
(dp88
S'_valign'
p89
S'top'
p90
ssg71
g74
sg64
(lp91
S':'
asbag57
(g78
g59
NtRp92
(dp93
g62
(dp94
sg71
g74
sg64
(lp95
g57
(g58
g59
NtRp96
(dp97
g62
(dp98
g70
I5
ssg71
g92
sg64
(lp99
S'False'
p100
asbasbasbag57
(g73
g59
NtRp101
(dp102
g62
(dp103
sg71
g67
sg64
(lp104
g57
(g78
g59
NtRp105
(dp106
g62
(dp107
g82
g83
ssg71
g101
sg64
(lp108
S'application'
p109
asbag57
(g78
g59
NtRp110
(dp111
g62
(dp112
g89
g90
ssg71
g101
sg64
(lp113
S':'
asbag57
(g78
g59
NtRp114
(dp115
g62
(dp116
sg71
g101
sg64
(lp117
g57
(g58
g59
NtRp118
(dp119
g62
(dp120
g70
I5
ssg71
g114
sg64
(lp121
S'hostel'
p122
asbasbasbag57
(g73
g59
NtRp123
(dp124
g62
(dp125
sg71
g67
sg64
(lp126
g57
(g78
g59
NtRp127
(dp128
g62
(dp129
g82
g83
ssg71
g123
sg64
(lp130
g42
asbag57
(g78
g59
NtRp131
(dp132
g62
(dp133
g89
g90
ssg71
g123
sg64
(lp134
S':'
asbag57
(g78
g59
NtRp135
(dp136
g62
(dp137
sg71
g123
sg64
(lp138
g57
(g58
g59
NtRp139
(dp140
g62
(dp141
g70
I5
ssg71
g135
sg64
(lp142
g57
(g66
g59
NtRp143
(dp144
g62
(dp145
g70
I4
ssg71
Nsg64
(lp146
sbasbasbasbag57
(g73
g59
NtRp147
(dp148
g62
(dp149
sg71
g67
sg64
(lp150
g57
(g78
g59
NtRp151
(dp152
g62
(dp153
g82
g83
ssg71
g147
sg64
(lp154
S'body'
p155
asbag57
(g78
g59
NtRp156
(dp157
g62
(dp158
g89
g90
ssg71
g147
sg64
(lp159
S':'
asbag57
(g78
g59
NtRp160
(dp161
g62
(dp162
sg71
g147
sg64
(lp163
g57
(g58
g59
NtRp164
(dp165
g62
(dp166
g70
I5
ssg71
g160
sg64
(lp167
S'<cStringIO.StringO object at 0x98b8f20>'
p168
asbasbasbag57
(g73
g59
NtRp169
(dp170
g62
(dp171
sg71
g67
sg64
(lp172
g57
(g78
g59
NtRp173
(dp174
g62
(dp175
g82
g83
ssg71
g169
sg64
(lp176
S'client'
p177
asbag57
(g78
g59
NtRp178
(dp179
g62
(dp180
g89
g90
ssg71
g169
sg64
(lp181
S':'
asbag57
(g78
g59
NtRp182
(dp183
g62
(dp184
sg71
g169
sg64
(lp185
g57
(g58
g59
NtRp186
(dp187
g62
(dp188
g70
I5
ssg71
g182
sg64
(lp189
S'127.0.0.1'
p190
asbasbasbag57
(g73
g59
NtRp191
(dp192
g62
(dp193
sg71
g67
sg64
(lp194
g57
(g78
g59
NtRp195
(dp196
g62
(dp197
g82
g83
ssg71
g191
sg64
(lp198
S'controller'
p199
asbag57
(g78
g59
NtRp200
(dp201
g62
(dp202
g89
g90
ssg71
g191
sg64
(lp203
S':'
asbag57
(g78
g59
NtRp204
(dp205
g62
(dp206
sg71
g191
sg64
(lp207
g57
(g58
g59
NtRp208
(dp209
g62
(dp210
g70
I5
ssg71
g204
sg64
(lp211
S'default'
p212
asbasbasbag57
(g73
g59
NtRp213
(dp214
g62
(dp215
sg71
g67
sg64
(lp216
g57
(g78
g59
NtRp217
(dp218
g62
(dp219
g82
g83
ssg71
g213
sg64
(lp220
S'cookies'
p221
asbag57
(g78
g59
NtRp222
(dp223
g62
(dp224
g89
g90
ssg71
g213
sg64
(lp225
S':'
asbag57
(g78
g59
NtRp226
(dp227
g62
(dp228
sg71
g213
sg64
(lp229
g57
(g58
g59
NtRp230
(dp231
g62
(dp232
g70
I5
ssg71
g226
sg64
(lp233
g57
(g66
g59
NtRp234
(dp235
g62
(dp236
g70
I4
ssg71
Nsg64
(lp237
g57
(g73
g59
NtRp238
(dp239
g62
(dp240
sg71
g234
sg64
(lp241
g57
(g78
g59
NtRp242
(dp243
g62
(dp244
g82
g83
ssg71
g238
sg64
(lp245
S'session_id_admin'
p246
asbag57
(g78
g59
NtRp247
(dp248
g62
(dp249
g89
g90
ssg71
g238
sg64
(lp250
S':'
asbag57
(g78
g59
NtRp251
(dp252
g62
(dp253
sg71
g238
sg64
(lp254
g57
(g58
g59
NtRp255
(dp256
g62
(dp257
g70
I4
ssg71
g251
sg64
(lp258
g57
(g66
g59
NtRp259
(dp260
g62
(dp261
g70
I3
ssg71
Nsg64
(lp262
g57
(g73
g59
NtRp263
(dp264
g62
(dp265
sg71
g259
sg64
(lp266
g57
(g78
g59
NtRp267
(dp268
g62
(dp269
g82
g83
ssg71
g263
sg64
(lp270
S'comment'
p271
asbag57
(g78
g59
NtRp272
(dp273
g62
(dp274
g89
g90
ssg71
g263
sg64
(lp275
S':'
asbag57
(g78
g59
NtRp276
(dp277
g62
(dp278
sg71
g263
sg64
(lp279
g57
(g58
g59
NtRp280
(dp281
g62
(dp282
g70
I3
ssg71
g276
sg64
(lp283
S''
asbasbasbag57
(g73
g59
NtRp284
(dp285
g62
(dp286
sg71
g259
sg64
(lp287
g57
(g78
g59
NtRp288
(dp289
g62
(dp290
g82
g83
ssg71
g284
sg64
(lp291
S'domain'
p292
asbag57
(g78
g59
NtRp293
(dp294
g62
(dp295
g89
g90
ssg71
g284
sg64
(lp296
S':'
asbag57
(g78
g59
NtRp297
(dp298
g62
(dp299
sg71
g284
sg64
(lp300
g57
(g58
g59
NtRp301
(dp302
g62
(dp303
g70
I3
ssg71
g297
sg64
(lp304
S''
asbasbasbag57
(g73
g59
NtRp305
(dp306
g62
(dp307
sg71
g259
sg64
(lp308
g57
(g78
g59
NtRp309
(dp310
g62
(dp311
g82
g83
ssg71
g305
sg64
(lp312
S'expires'
p313
asbag57
(g78
g59
NtRp314
(dp315
g62
(dp316
g89
g90
ssg71
g305
sg64
(lp317
S':'
asbag57
(g78
g59
NtRp318
(dp319
g62
(dp320
sg71
g305
sg64
(lp321
g57
(g58
g59
NtRp322
(dp323
g62
(dp324
g70
I3
ssg71
g318
sg64
(lp325
S''
asbasbasbag57
(g73
g59
NtRp326
(dp327
g62
(dp328
sg71
g259
sg64
(lp329
g57
(g78
g59
NtRp330
(dp331
g62
(dp332
g82
g83
ssg71
g326
sg64
(lp333
S'httponly'
p334
asbag57
(g78
g59
NtRp335
(dp336
g62
(dp337
g89
g90
ssg71
g326
sg64
(lp338
S':'
asbag57
(g78
g59
NtRp339
(dp340
g62
(dp341
sg71
g326
sg64
(lp342
g57
(g58
g59
NtRp343
(dp344
g62
(dp345
g70
I3
ssg71
g339
sg64
(lp346
S''
asbasbasbag57
(g73
g59
NtRp347
(dp348
g62
(dp349
sg71
g259
sg64
(lp350
g57
(g78
g59
NtRp351
(dp352
g62
(dp353
g82
g83
ssg71
g347
sg64
(lp354
S'max-age'
p355
asbag57
(g78
g59
NtRp356
(dp357
g62
(dp358
g89
g90
ssg71
g347
sg64
(lp359
S':'
asbag57
(g78
g59
NtRp360
(dp361
g62
(dp362
sg71
g347
sg64
(lp363
g57
(g58
g59
NtRp364
(dp365
g62
(dp366
g70
I3
ssg71
g360
sg64
(lp367
S''
asbasbasbag57
(g73
g59
NtRp368
(dp369
g62
(dp370
sg71
g259
sg64
(lp371
g57
(g78
g59
NtRp372
(dp373
g62
(dp374
g82
g83
ssg71
g368
sg64
(lp375
S'path'
p376
asbag57
(g78
g59
NtRp377
(dp378
g62
(dp379
g89
g90
ssg71
g368
sg64
(lp380
S':'
asbag57
(g78
g59
NtRp381
(dp382
g62
(dp383
sg71
g368
sg64
(lp384
g57
(g58
g59
NtRp385
(dp386
g62
(dp387
g70
I3
ssg71
g381
sg64
(lp388
S''
asbasbasbag57
(g73
g59
NtRp389
(dp390
g62
(dp391
sg71
g259
sg64
(lp392
g57
(g78
g59
NtRp393
(dp394
g62
(dp395
g82
g83
ssg71
g389
sg64
(lp396
S'secure'
p397
asbag57
(g78
g59
NtRp398
(dp399
g62
(dp400
g89
g90
ssg71
g389
sg64
(lp401
S':'
asbag57
(g78
g59
NtRp402
(dp403
g62
(dp404
sg71
g389
sg64
(lp405
g57
(g58
g59
NtRp406
(dp407
g62
(dp408
g70
I3
ssg71
g402
sg64
(lp409
S''
asbasbasbag57
(g73
g59
NtRp410
(dp411
g62
(dp412
sg71
g259
sg64
(lp413
g57
(g78
g59
NtRp414
(dp415
g62
(dp416
g82
g83
ssg71
g410
sg64
(lp417
S'version'
p418
asbag57
(g78
g59
NtRp419
(dp420
g62
(dp421
g89
g90
ssg71
g410
sg64
(lp422
S':'
asbag57
(g78
g59
NtRp423
(dp424
g62
(dp425
sg71
g410
sg64
(lp426
g57
(g58
g59
NtRp427
(dp428
g62
(dp429
g70
I3
ssg71
g423
sg64
(lp430
S''
asbasbasbasbasbasbasbag57
(g73
g59
NtRp431
(dp432
g62
(dp433
sg71
g234
sg64
(lp434
g57
(g78
g59
NtRp435
(dp436
g62
(dp437
g82
g83
ssg71
g431
sg64
(lp438
S'session_id_hostel'
p439
asbag57
(g78
g59
NtRp440
(dp441
g62
(dp442
g89
g90
ssg71
g431
sg64
(lp443
S':'
asbag57
(g78
g59
NtRp444
(dp445
g62
(dp446
sg71
g431
sg64
(lp447
g57
(g58
g59
NtRp448
(dp449
g62
(dp450
g70
I4
ssg71
g444
sg64
(lp451
g57
(g66
g59
NtRp452
(dp453
g62
(dp454
g70
I3
ssg71
Nsg64
(lp455
g57
(g73
g59
NtRp456
(dp457
g62
(dp458
sg71
g452
sg64
(lp459
g57
(g78
g59
NtRp460
(dp461
g62
(dp462
g82
g83
ssg71
g456
sg64
(lp463
g271
asbag57
(g78
g59
NtRp464
(dp465
g62
(dp466
g89
g90
ssg71
g456
sg64
(lp467
S':'
asbag57
(g78
g59
NtRp468
(dp469
g62
(dp470
sg71
g456
sg64
(lp471
g57
(g58
g59
NtRp472
(dp473
g62
(dp474
g70
I3
ssg71
g468
sg64
(lp475
S''
asbasbasbag57
(g73
g59
NtRp476
(dp477
g62
(dp478
sg71
g452
sg64
(lp479
g57
(g78
g59
NtRp480
(dp481
g62
(dp482
g82
g83
ssg71
g476
sg64
(lp483
g292
asbag57
(g78
g59
NtRp484
(dp485
g62
(dp486
g89
g90
ssg71
g476
sg64
(lp487
S':'
asbag57
(g78
g59
NtRp488
(dp489
g62
(dp490
sg71
g476
sg64
(lp491
g57
(g58
g59
NtRp492
(dp493
g62
(dp494
g70
I3
ssg71
g488
sg64
(lp495
S''
asbasbasbag57
(g73
g59
NtRp496
(dp497
g62
(dp498
sg71
g452
sg64
(lp499
g57
(g78
g59
NtRp500
(dp501
g62
(dp502
g82
g83
ssg71
g496
sg64
(lp503
g313
asbag57
(g78
g59
NtRp504
(dp505
g62
(dp506
g89
g90
ssg71
g496
sg64
(lp507
S':'
asbag57
(g78
g59
NtRp508
(dp509
g62
(dp510
sg71
g496
sg64
(lp511
g57
(g58
g59
NtRp512
(dp513
g62
(dp514
g70
I3
ssg71
g508
sg64
(lp515
S''
asbasbasbag57
(g73
g59
NtRp516
(dp517
g62
(dp518
sg71
g452
sg64
(lp519
g57
(g78
g59
NtRp520
(dp521
g62
(dp522
g82
g83
ssg71
g516
sg64
(lp523
g334
asbag57
(g78
g59
NtRp524
(dp525
g62
(dp526
g89
g90
ssg71
g516
sg64
(lp527
S':'
asbag57
(g78
g59
NtRp528
(dp529
g62
(dp530
sg71
g516
sg64
(lp531
g57
(g58
g59
NtRp532
(dp533
g62
(dp534
g70
I3
ssg71
g528
sg64
(lp535
S''
asbasbasbag57
(g73
g59
NtRp536
(dp537
g62
(dp538
sg71
g452
sg64
(lp539
g57
(g78
g59
NtRp540
(dp541
g62
(dp542
g82
g83
ssg71
g536
sg64
(lp543
g355
asbag57
(g78
g59
NtRp544
(dp545
g62
(dp546
g89
g90
ssg71
g536
sg64
(lp547
S':'
asbag57
(g78
g59
NtRp548
(dp549
g62
(dp550
sg71
g536
sg64
(lp551
g57
(g58
g59
NtRp552
(dp553
g62
(dp554
g70
I3
ssg71
g548
sg64
(lp555
S''
asbasbasbag57
(g73
g59
NtRp556
(dp557
g62
(dp558
sg71
g452
sg64
(lp559
g57
(g78
g59
NtRp560
(dp561
g62
(dp562
g82
g83
ssg71
g556
sg64
(lp563
g376
asbag57
(g78
g59
NtRp564
(dp565
g62
(dp566
g89
g90
ssg71
g556
sg64
(lp567
S':'
asbag57
(g78
g59
NtRp568
(dp569
g62
(dp570
sg71
g556
sg64
(lp571
g57
(g58
g59
NtRp572
(dp573
g62
(dp574
g70
I3
ssg71
g568
sg64
(lp575
S''
asbasbasbag57
(g73
g59
NtRp576
(dp577
g62
(dp578
sg71
g452
sg64
(lp579
g57
(g78
g59
NtRp580
(dp581
g62
(dp582
g82
g83
ssg71
g576
sg64
(lp583
g397
asbag57
(g78
g59
NtRp584
(dp585
g62
(dp586
g89
g90
ssg71
g576
sg64
(lp587
S':'
asbag57
(g78
g59
NtRp588
(dp589
g62
(dp590
sg71
g576
sg64
(lp591
g57
(g58
g59
NtRp592
(dp593
g62
(dp594
g70
I3
ssg71
g588
sg64
(lp595
S''
asbasbasbag57
(g73
g59
NtRp596
(dp597
g62
(dp598
sg71
g452
sg64
(lp599
g57
(g78
g59
NtRp600
(dp601
g62
(dp602
g82
g83
ssg71
g596
sg64
(lp603
g418
asbag57
(g78
g59
NtRp604
(dp605
g62
(dp606
g89
g90
ssg71
g596
sg64
(lp607
S':'
asbag57
(g78
g59
NtRp608
(dp609
g62
(dp610
sg71
g596
sg64
(lp611
g57
(g58
g59
NtRp612
(dp613
g62
(dp614
g70
I3
ssg71
g608
sg64
(lp615
S''
asbasbasbasbasbasbasbag57
(g73
g59
NtRp616
(dp617
g62
(dp618
sg71
g234
sg64
(lp619
g57
(g78
g59
NtRp620
(dp621
g62
(dp622
g82
g83
ssg71
g616
sg64
(lp623
S'session_id_welcome'
p624
asbag57
(g78
g59
NtRp625
(dp626
g62
(dp627
g89
g90
ssg71
g616
sg64
(lp628
S':'
asbag57
(g78
g59
NtRp629
(dp630
g62
(dp631
sg71
g616
sg64
(lp632
g57
(g58
g59
NtRp633
(dp634
g62
(dp635
g70
I4
ssg71
g629
sg64
(lp636
g57
(g66
g59
NtRp637
(dp638
g62
(dp639
g70
I3
ssg71
Nsg64
(lp640
g57
(g73
g59
NtRp641
(dp642
g62
(dp643
sg71
g637
sg64
(lp644
g57
(g78
g59
NtRp645
(dp646
g62
(dp647
g82
g83
ssg71
g641
sg64
(lp648
g271
asbag57
(g78
g59
NtRp649
(dp650
g62
(dp651
g89
g90
ssg71
g641
sg64
(lp652
S':'
asbag57
(g78
g59
NtRp653
(dp654
g62
(dp655
sg71
g641
sg64
(lp656
g57
(g58
g59
NtRp657
(dp658
g62
(dp659
g70
I3
ssg71
g653
sg64
(lp660
S''
asbasbasbag57
(g73
g59
NtRp661
(dp662
g62
(dp663
sg71
g637
sg64
(lp664
g57
(g78
g59
NtRp665
(dp666
g62
(dp667
g82
g83
ssg71
g661
sg64
(lp668
g292
asbag57
(g78
g59
NtRp669
(dp670
g62
(dp671
g89
g90
ssg71
g661
sg64
(lp672
S':'
asbag57
(g78
g59
NtRp673
(dp674
g62
(dp675
sg71
g661
sg64
(lp676
g57
(g58
g59
NtRp677
(dp678
g62
(dp679
g70
I3
ssg71
g673
sg64
(lp680
S''
asbasbasbag57
(g73
g59
NtRp681
(dp682
g62
(dp683
sg71
g637
sg64
(lp684
g57
(g78
g59
NtRp685
(dp686
g62
(dp687
g82
g83
ssg71
g681
sg64
(lp688
g313
asbag57
(g78
g59
NtRp689
(dp690
g62
(dp691
g89
g90
ssg71
g681
sg64
(lp692
S':'
asbag57
(g78
g59
NtRp693
(dp694
g62
(dp695
sg71
g681
sg64
(lp696
g57
(g58
g59
NtRp697
(dp698
g62
(dp699
g70
I3
ssg71
g693
sg64
(lp700
S''
asbasbasbag57
(g73
g59
NtRp701
(dp702
g62
(dp703
sg71
g637
sg64
(lp704
g57
(g78
g59
NtRp705
(dp706
g62
(dp707
g82
g83
ssg71
g701
sg64
(lp708
g334
asbag57
(g78
g59
NtRp709
(dp710
g62
(dp711
g89
g90
ssg71
g701
sg64
(lp712
S':'
asbag57
(g78
g59
NtRp713
(dp714
g62
(dp715
sg71
g701
sg64
(lp716
g57
(g58
g59
NtRp717
(dp718
g62
(dp719
g70
I3
ssg71
g713
sg64
(lp720
S''
asbasbasbag57
(g73
g59
NtRp721
(dp722
g62
(dp723
sg71
g637
sg64
(lp724
g57
(g78
g59
NtRp725
(dp726
g62
(dp727
g82
g83
ssg71
g721
sg64
(lp728
g355
asbag57
(g78
g59
NtRp729
(dp730
g62
(dp731
g89
g90
ssg71
g721
sg64
(lp732
S':'
asbag57
(g78
g59
NtRp733
(dp734
g62
(dp735
sg71
g721
sg64
(lp736
g57
(g58
g59
NtRp737
(dp738
g62
(dp739
g70
I3
ssg71
g733
sg64
(lp740
S''
asbasbasbag57
(g73
g59
NtRp741
(dp742
g62
(dp743
sg71
g637
sg64
(lp744
g57
(g78
g59
NtRp745
(dp746
g62
(dp747
g82
g83
ssg71
g741
sg64
(lp748
g376
asbag57
(g78
g59
NtRp749
(dp750
g62
(dp751
g89
g90
ssg71
g741
sg64
(lp752
S':'
asbag57
(g78
g59
NtRp753
(dp754
g62
(dp755
sg71
g741
sg64
(lp756
g57
(g58
g59
NtRp757
(dp758
g62
(dp759
g70
I3
ssg71
g753
sg64
(lp760
S''
asbasbasbag57
(g73
g59
NtRp761
(dp762
g62
(dp763
sg71
g637
sg64
(lp764
g57
(g78
g59
NtRp765
(dp766
g62
(dp767
g82
g83
ssg71
g761
sg64
(lp768
g397
asbag57
(g78
g59
NtRp769
(dp770
g62
(dp771
g89
g90
ssg71
g761
sg64
(lp772
S':'
asbag57
(g78
g59
NtRp773
(dp774
g62
(dp775
sg71
g761
sg64
(lp776
g57
(g58
g59
NtRp777
(dp778
g62
(dp779
g70
I3
ssg71
g773
sg64
(lp780
S''
asbasbasbag57
(g73
g59
NtRp781
(dp782
g62
(dp783
sg71
g637
sg64
(lp784
g57
(g78
g59
NtRp785
(dp786
g62
(dp787
g82
g83
ssg71
g781
sg64
(lp788
g418
asbag57
(g78
g59
NtRp789
(dp790
g62
(dp791
g89
g90
ssg71
g781
sg64
(lp792
S':'
asbag57
(g78
g59
NtRp793
(dp794
g62
(dp795
sg71
g781
sg64
(lp796
g57
(g58
g59
NtRp797
(dp798
g62
(dp799
g70
I3
ssg71
g793
sg64
(lp800
S''
asbasbasbasbasbasbasbasbasbasbasbag57
(g73
g59
NtRp801
(dp802
g62
(dp803
sg71
g67
sg64
(lp804
g57
(g78
g59
NtRp805
(dp806
g62
(dp807
g82
g83
ssg71
g801
sg64
(lp808
S'env'
p809
asbag57
(g78
g59
NtRp810
(dp811
g62
(dp812
g89
g90
ssg71
g801
sg64
(lp813
S':'
asbag57
(g78
g59
NtRp814
(dp815
g62
(dp816
sg71
g801
sg64
(lp817
g57
(g58
g59
NtRp818
(dp819
g62
(dp820
g70
I5
ssg71
g814
sg64
(lp821
g57
(g66
g59
NtRp822
(dp823
g62
(dp824
g70
I4
ssg71
Nsg64
(lp825
g57
(g73
g59
NtRp826
(dp827
g62
(dp828
sg71
g822
sg64
(lp829
g57
(g78
g59
NtRp830
(dp831
g62
(dp832
g82
g83
ssg71
g826
sg64
(lp833
S'app_folders'
p834
asbag57
(g78
g59
NtRp835
(dp836
g62
(dp837
g89
g90
ssg71
g826
sg64
(lp838
S':'
asbag57
(g78
g59
NtRp839
(dp840
g62
(dp841
sg71
g826
sg64
(lp842
g57
(g58
g59
NtRp843
(dp844
g62
(dp845
g70
I4
ssg71
g839
sg64
(lp846
S"set(['/home/monamagarwal/Downloads/web2py/applications/hostel/', '/home/monamagarwal/Downloads/web2py/applications/admin/', '/home/monamagarwal/Downloads/web2py/applications/welcome/'])"
p847
asbasbasbag57
(g73
g59
NtRp848
(dp849
g62
(dp850
sg71
g822
sg64
(lp851
g57
(g78
g59
NtRp852
(dp853
g62
(dp854
g82
g83
ssg71
g848
sg64
(lp855
S'applications_parent'
p856
asbag57
(g78
g59
NtRp857
(dp858
g62
(dp859
g89
g90
ssg71
g848
sg64
(lp860
S':'
asbag57
(g78
g59
NtRp861
(dp862
g62
(dp863
sg71
g848
sg64
(lp864
g57
(g58
g59
NtRp865
(dp866
g62
(dp867
g70
I4
ssg71
g861
sg64
(lp868
S'/home/monamagarwal/Downloads/web2py'
p869
asbasbasbag57
(g73
g59
NtRp870
(dp871
g62
(dp872
sg71
g822
sg64
(lp873
g57
(g78
g59
NtRp874
(dp875
g62
(dp876
g82
g83
ssg71
g870
sg64
(lp877
S'cmd_args'
p878
asbag57
(g78
g59
NtRp879
(dp880
g62
(dp881
g89
g90
ssg71
g870
sg64
(lp882
S':'
asbag57
(g78
g59
NtRp883
(dp884
g62
(dp885
sg71
g870
sg64
(lp886
g57
(g58
g59
NtRp887
(dp888
g62
(dp889
g70
I4
ssg71
g883
sg64
(lp890
g57
(g66
g59
NtRp891
(dp892
g62
(dp893
g70
I3
ssg71
Nsg64
(lp894
sbasbasbasbag57
(g73
g59
NtRp895
(dp896
g62
(dp897
sg71
g822
sg64
(lp898
g57
(g78
g59
NtRp899
(dp900
g62
(dp901
g82
g83
ssg71
g895
sg64
(lp902
S'cmd_options'
p903
asbag57
(g78
g59
NtRp904
(dp905
g62
(dp906
g89
g90
ssg71
g895
sg64
(lp907
S':'
asbag57
(g78
g59
NtRp908
(dp909
g62
(dp910
sg71
g895
sg64
(lp911
g57
(g58
g59
NtRp912
(dp913
g62
(dp914
g70
I4
ssg71
g908
sg64
(lp915
S"<Values at 0x8cc3d6c: {'verbose': False, 'ip': '127.0.0.1', 'shutdown_timeout': 5, 'taskbar': False, 'nocron': False, 'pid_filename': 'httpserver.pid', 'maxthreads': None, 'softcron': False, 'server_name': 'timehacker', 'bpython': False, 'nogui': False, 'port': 8000, 'extcron': False, 'debuglevel': 30, 'test': None, 'folder': '/home/monamagarwal/Downloads/web2py', 'config': '', 'import_models': False, 'winservice': '', 'shell': None, 'run': '', 'log_filename': 'httpserver.log', 'args': [''], 'socket_timeout': 5, 'ssl_ca_certificate': None, 'scheduler': None, 'profiler_filename': None, 'ssl_private_key': '', 'password': 'abc', 'request_queue_size': 5, 'ssl_certificate': '', 'cronjob': False, 'numthreads': None, 'quiet': False, 'interfaces': None, 'minthreads': None, 'timeout': 10, 'plain': False, 'nobanner': False}>"
p916
asbasbasbag57
(g73
g59
NtRp917
(dp918
g62
(dp919
sg71
g822
sg64
(lp920
g57
(g78
g59
NtRp921
(dp922
g62
(dp923
g82
g83
ssg71
g917
sg64
(lp924
S'db_sessions'
p925
asbag57
(g78
g59
NtRp926
(dp927
g62
(dp928
g89
g90
ssg71
g917
sg64
(lp929
S':'
asbag57
(g78
g59
NtRp930
(dp931
g62
(dp932
sg71
g917
sg64
(lp933
g57
(g58
g59
NtRp934
(dp935
g62
(dp936
g70
I4
ssg71
g930
sg64
(lp937
S'set([])'
p938
asbasbasbag57
(g73
g59
NtRp939
(dp940
g62
(dp941
sg71
g822
sg64
(lp942
g57
(g78
g59
NtRp943
(dp944
g62
(dp945
g82
g83
ssg71
g939
sg64
(lp946
S'debugging'
p947
asbag57
(g78
g59
NtRp948
(dp949
g62
(dp950
g89
g90
ssg71
g939
sg64
(lp951
S':'
asbag57
(g78
g59
NtRp952
(dp953
g62
(dp954
sg71
g939
sg64
(lp955
g57
(g58
g59
NtRp956
(dp957
g62
(dp958
g70
I4
ssg71
g952
sg64
(lp959
g100
asbasbasbag57
(g73
g59
NtRp960
(dp961
g62
(dp962
sg71
g822
sg64
(lp963
g57
(g78
g59
NtRp964
(dp965
g62
(dp966
g82
g83
ssg71
g960
sg64
(lp967
S'gluon_parent'
p968
asbag57
(g78
g59
NtRp969
(dp970
g62
(dp971
g89
g90
ssg71
g960
sg64
(lp972
S':'
asbag57
(g78
g59
NtRp973
(dp974
g62
(dp975
sg71
g960
sg64
(lp976
g57
(g58
g59
NtRp977
(dp978
g62
(dp979
g70
I4
ssg71
g973
sg64
(lp980
S'/home/monamagarwal/Downloads/web2py'
p981
asbasbasbag57
(g73
g59
NtRp982
(dp983
g62
(dp984
sg71
g822
sg64
(lp985
g57
(g78
g59
NtRp986
(dp987
g62
(dp988
g82
g83
ssg71
g982
sg64
(lp989
S'http_accept'
p990
asbag57
(g78
g59
NtRp991
(dp992
g62
(dp993
g89
g90
ssg71
g982
sg64
(lp994
S':'
asbag57
(g78
g59
NtRp995
(dp996
g62
(dp997
sg71
g982
sg64
(lp998
g57
(g58
g59
NtRp999
(dp1000
g62
(dp1001
g70
I4
ssg71
g995
sg64
(lp1002
S'text/html,application/xhtml+xml,application/xml;q=0.9,*/*;q=0.8'
p1003
asbasbasbag57
(g73
g59
NtRp1004
(dp1005
g62
(dp1006
sg71
g822
sg64
(lp1007
g57
(g78
g59
NtRp1008
(dp1009
g62
(dp1010
g82
g83
ssg71
g1004
sg64
(lp1011
S'http_accept_encoding'
p1012
asbag57
(g78
g59
NtRp1013
(dp1014
g62
(dp1015
g89
g90
ssg71
g1004
sg64
(lp1016
S':'
asbag57
(g78
g59
NtRp1017
(dp1018
g62
(dp1019
sg71
g1004
sg64
(lp1020
g57
(g58
g59
NtRp1021
(dp1022
g62
(dp1023
g70
I4
ssg71
g1017
sg64
(lp1024
S'gzip, deflate'
p1025
asbasbasbag57
(g73
g59
NtRp1026
(dp1027
g62
(dp1028
sg71
g822
sg64
(lp1029
g57
(g78
g59
NtRp1030
(dp1031
g62
(dp1032
g82
g83
ssg71
g1026
sg64
(lp1033
S'http_accept_language'
p1034
asbag57
(g78
g59
NtRp1035
(dp1036
g62
(dp1037
g89
g90
ssg71
g1026
sg64
(lp1038
S':'
asbag57
(g78
g59
NtRp1039
(dp1040
g62
(dp1041
sg71
g1026
sg64
(lp1042
g57
(g58
g59
NtRp1043
(dp1044
g62
(dp1045
g70
I4
ssg71
g1039
sg64
(lp1046
S'en-us,en;q=0.5'
p1047
asbasbasbag57
(g73
g59
NtRp1048
(dp1049
g62
(dp1050
sg71
g822
sg64
(lp1051
g57
(g78
g59
NtRp1052
(dp1053
g62
(dp1054
g82
g83
ssg71
g1048
sg64
(lp1055
S'http_connection'
p1056
asbag57
(g78
g59
NtRp1057
(dp1058
g62
(dp1059
g89
g90
ssg71
g1048
sg64
(lp1060
S':'
asbag57
(g78
g59
NtRp1061
(dp1062
g62
(dp1063
sg71
g1048
sg64
(lp1064
g57
(g58
g59
NtRp1065
(dp1066
g62
(dp1067
g70
I4
ssg71
g1061
sg64
(lp1068
S'keep-alive'
p1069
asbasbasbag57
(g73
g59
NtRp1070
(dp1071
g62
(dp1072
sg71
g822
sg64
(lp1073
g57
(g78
g59
NtRp1074
(dp1075
g62
(dp1076
g82
g83
ssg71
g1070
sg64
(lp1077
S'http_cookie'
p1078
asbag57
(g78
g59
NtRp1079
(dp1080
g62
(dp1081
g89
g90
ssg71
g1070
sg64
(lp1082
S':'
asbag57
(g78
g59
NtRp1083
(dp1084
g62
(dp1085
sg71
g1070
sg64
(lp1086
g57
(g58
g59
NtRp1087
(dp1088
g62
(dp1089
g70
I4
ssg71
g1083
sg64
(lp1090
S'session_id_welcome=127.0.0.1-15c88d19-7806-406c-b0b8-509c00421d89; session_id_admin=127.0.0.1-b8c9b04a-b199-4ef9-bf28-f42913f31fba; session_id_hostel=127.0.0.1-2d0a97ae-d2e8-48d1-80db-916cc4428565'
p1091
asbasbasbag57
(g73
g59
NtRp1092
(dp1093
g62
(dp1094
sg71
g822
sg64
(lp1095
g57
(g78
g59
NtRp1096
(dp1097
g62
(dp1098
g82
g83
ssg71
g1092
sg64
(lp1099
S'http_host'
p1100
asbag57
(g78
g59
NtRp1101
(dp1102
g62
(dp1103
g89
g90
ssg71
g1092
sg64
(lp1104
S':'
asbag57
(g78
g59
NtRp1105
(dp1106
g62
(dp1107
sg71
g1092
sg64
(lp1108
g57
(g58
g59
NtRp1109
(dp1110
g62
(dp1111
g70
I4
ssg71
g1105
sg64
(lp1112
S'127.0.0.1:8000'
p1113
asbasbasbag57
(g73
g59
NtRp1114
(dp1115
g62
(dp1116
sg71
g822
sg64
(lp1117
g57
(g78
g59
NtRp1118
(dp1119
g62
(dp1120
g82
g83
ssg71
g1114
sg64
(lp1121
S'http_user_agent'
p1122
asbag57
(g78
g59
NtRp1123
(dp1124
g62
(dp1125
g89
g90
ssg71
g1114
sg64
(lp1126
S':'
asbag57
(g78
g59
NtRp1127
(dp1128
g62
(dp1129
sg71
g1114
sg64
(lp1130
g57
(g58
g59
NtRp1131
(dp1132
g62
(dp1133
g70
I4
ssg71
g1127
sg64
(lp1134
S'Mozilla/5.0 (X11; Ubuntu; Linux i686; rv:10.0) Gecko/20100101 Firefox/10.0'
p1135
asbasbasbag57
(g73
g59
NtRp1136
(dp1137
g62
(dp1138
sg71
g822
sg64
(lp1139
g57
(g78
g59
NtRp1140
(dp1141
g62
(dp1142
g82
g83
ssg71
g1136
sg64
(lp1143
S'is_jython'
p1144
asbag57
(g78
g59
NtRp1145
(dp1146
g62
(dp1147
g89
g90
ssg71
g1136
sg64
(lp1148
S':'
asbag57
(g78
g59
NtRp1149
(dp1150
g62
(dp1151
sg71
g1136
sg64
(lp1152
g57
(g58
g59
NtRp1153
(dp1154
g62
(dp1155
g70
I4
ssg71
g1149
sg64
(lp1156
g100
asbasbasbag57
(g73
g59
NtRp1157
(dp1158
g62
(dp1159
sg71
g822
sg64
(lp1160
g57
(g78
g59
NtRp1161
(dp1162
g62
(dp1163
g82
g83
ssg71
g1157
sg64
(lp1164
S'is_pypy'
p1165
asbag57
(g78
g59
NtRp1166
(dp1167
g62
(dp1168
g89
g90
ssg71
g1157
sg64
(lp1169
S':'
asbag57
(g78
g59
NtRp1170
(dp1171
g62
(dp1172
sg71
g1157
sg64
(lp1173
g57
(g58
g59
NtRp1174
(dp1175
g62
(dp1176
g70
I4
ssg71
g1170
sg64
(lp1177
g100
asbasbasbag57
(g73
g59
NtRp1178
(dp1179
g62
(dp1180
sg71
g822
sg64
(lp1181
g57
(g78
g59
NtRp1182
(dp1183
g62
(dp1184
g82
g83
ssg71
g1178
sg64
(lp1185
S'path_info'
p1186
asbag57
(g78
g59
NtRp1187
(dp1188
g62
(dp1189
g89
g90
ssg71
g1178
sg64
(lp1190
S':'
asbag57
(g78
g59
NtRp1191
(dp1192
g62
(dp1193
sg71
g1178
sg64
(lp1194
g57
(g58
g59
NtRp1195
(dp1196
g62
(dp1197
g70
I4
ssg71
g1191
sg64
(lp1198
S'/hostel/default/complaint'
p1199
asbasbasbag57
(g73
g59
NtRp1200
(dp1201
g62
(dp1202
sg71
g822
sg64
(lp1203
g57
(g78
g59
NtRp1204
(dp1205
g62
(dp1206
g82
g83
ssg71
g1200
sg64
(lp1207
S'query_string'
p1208
asbag57
(g78
g59
NtRp1209
(dp1210
g62
(dp1211
g89
g90
ssg71
g1200
sg64
(lp1212
S':'
asbag57
(g78
g59
NtRp1213
(dp1214
g62
(dp1215
sg71
g1200
sg64
(lp1216
g57
(g58
g59
NtRp1217
(dp1218
g62
(dp1219
g70
I4
ssg71
g1213
sg64
(lp1220
S''
asbasbasbag57
(g73
g59
NtRp1221
(dp1222
g62
(dp1223
sg71
g822
sg64
(lp1224
g57
(g78
g59
NtRp1225
(dp1226
g62
(dp1227
g82
g83
ssg71
g1221
sg64
(lp1228
S'remote_addr'
p1229
asbag57
(g78
g59
NtRp1230
(dp1231
g62
(dp1232
g89
g90
ssg71
g1221
sg64
(lp1233
S':'
asbag57
(g78
g59
NtRp1234
(dp1235
g62
(dp1236
sg71
g1221
sg64
(lp1237
g57
(g58
g59
NtRp1238
(dp1239
g62
(dp1240
g70
I4
ssg71
g1234
sg64
(lp1241
g190
asbasbasbag57
(g73
g59
NtRp1242
(dp1243
g62
(dp1244
sg71
g822
sg64
(lp1245
g57
(g78
g59
NtRp1246
(dp1247
g62
(dp1248
g82
g83
ssg71
g1242
sg64
(lp1249
S'remote_port'
p1250
asbag57
(g78
g59
NtRp1251
(dp1252
g62
(dp1253
g89
g90
ssg71
g1242
sg64
(lp1254
S':'
asbag57
(g78
g59
NtRp1255
(dp1256
g62
(dp1257
sg71
g1242
sg64
(lp1258
g57
(g58
g59
NtRp1259
(dp1260
g62
(dp1261
g70
I4
ssg71
g1255
sg64
(lp1262
S'35127'
p1263
asbasbasbag57
(g73
g59
NtRp1264
(dp1265
g62
(dp1266
sg71
g822
sg64
(lp1267
g57
(g78
g59
NtRp1268
(dp1269
g62
(dp1270
g82
g83
ssg71
g1264
sg64
(lp1271
S'request_method'
p1272
asbag57
(g78
g59
NtRp1273
(dp1274
g62
(dp1275
g89
g90
ssg71
g1264
sg64
(lp1276
S':'
asbag57
(g78
g59
NtRp1277
(dp1278
g62
(dp1279
sg71
g1264
sg64
(lp1280
g57
(g58
g59
NtRp1281
(dp1282
g62
(dp1283
g70
I4
ssg71
g1277
sg64
(lp1284
S'GET'
p1285
asbasbasbag57
(g73
g59
NtRp1286
(dp1287
g62
(dp1288
sg71
g822
sg64
(lp1289
g57
(g78
g59
NtRp1290
(dp1291
g62
(dp1292
g82
g83
ssg71
g1286
sg64
(lp1293
S'script_name'
p1294
asbag57
(g78
g59
NtRp1295
(dp1296
g62
(dp1297
g89
g90
ssg71
g1286
sg64
(lp1298
S':'
asbag57
(g78
g59
NtRp1299
(dp1300
g62
(dp1301
sg71
g1286
sg64
(lp1302
g57
(g58
g59
NtRp1303
(dp1304
g62
(dp1305
g70
I4
ssg71
g1299
sg64
(lp1306
S''
asbasbasbag57
(g73
g59
NtRp1307
(dp1308
g62
(dp1309
sg71
g822
sg64
(lp1310
g57
(g78
g59
NtRp1311
(dp1312
g62
(dp1313
g82
g83
ssg71
g1307
sg64
(lp1314
S'server_name'
p1315
asbag57
(g78
g59
NtRp1316
(dp1317
g62
(dp1318
g89
g90
ssg71
g1307
sg64
(lp1319
S':'
asbag57
(g78
g59
NtRp1320
(dp1321
g62
(dp1322
sg71
g1307
sg64
(lp1323
g57
(g58
g59
NtRp1324
(dp1325
g62
(dp1326
g70
I4
ssg71
g1320
sg64
(lp1327
S'timehacker'
p1328
asbasbasbag57
(g73
g59
NtRp1329
(dp1330
g62
(dp1331
sg71
g822
sg64
(lp1332
g57
(g78
g59
NtRp1333
(dp1334
g62
(dp1335
g82
g83
ssg71
g1329
sg64
(lp1336
S'server_port'
p1337
asbag57
(g78
g59
NtRp1338
(dp1339
g62
(dp1340
g89
g90
ssg71
g1329
sg64
(lp1341
S':'
asbag57
(g78
g59
NtRp1342
(dp1343
g62
(dp1344
sg71
g1329
sg64
(lp1345
g57
(g58
g59
NtRp1346
(dp1347
g62
(dp1348
g70
I4
ssg71
g1342
sg64
(lp1349
S'8000'
p1350
asbasbasbag57
(g73
g59
NtRp1351
(dp1352
g62
(dp1353
sg71
g822
sg64
(lp1354
g57
(g78
g59
NtRp1355
(dp1356
g62
(dp1357
g82
g83
ssg71
g1351
sg64
(lp1358
S'server_protocol'
p1359
asbag57
(g78
g59
NtRp1360
(dp1361
g62
(dp1362
g89
g90
ssg71
g1351
sg64
(lp1363
S':'
asbag57
(g78
g59
NtRp1364
(dp1365
g62
(dp1366
sg71
g1351
sg64
(lp1367
g57
(g58
g59
NtRp1368
(dp1369
g62
(dp1370
g70
I4
ssg71
g1364
sg64
(lp1371
S'HTTP/1.1'
p1372
asbasbasbag57
(g73
g59
NtRp1373
(dp1374
g62
(dp1375
sg71
g822
sg64
(lp1376
g57
(g78
g59
NtRp1377
(dp1378
g62
(dp1379
g82
g83
ssg71
g1373
sg64
(lp1380
S'server_software'
p1381
asbag57
(g78
g59
NtRp1382
(dp1383
g62
(dp1384
g89
g90
ssg71
g1373
sg64
(lp1385
S':'
asbag57
(g78
g59
NtRp1386
(dp1387
g62
(dp1388
sg71
g1373
sg64
(lp1389
g57
(g58
g59
NtRp1390
(dp1391
g62
(dp1392
g70
I4
ssg71
g1386
sg64
(lp1393
S'Rocket 1.2.4'
p1394
asbasbasbag57
(g73
g59
NtRp1395
(dp1396
g62
(dp1397
sg71
g822
sg64
(lp1398
g57
(g78
g59
NtRp1399
(dp1400
g62
(dp1401
g82
g83
ssg71
g1395
sg64
(lp1402
S'web2py_crontype'
p1403
asbag57
(g78
g59
NtRp1404
(dp1405
g62
(dp1406
g89
g90
ssg71
g1395
sg64
(lp1407
S':'
asbag57
(g78
g59
NtRp1408
(dp1409
g62
(dp1410
sg71
g1395
sg64
(lp1411
g57
(g58
g59
NtRp1412
(dp1413
g62
(dp1414
g70
I4
ssg71
g1408
sg64
(lp1415
S'hard'
p1416
asbasbasbag57
(g73
g59
NtRp1417
(dp1418
g62
(dp1419
sg71
g822
sg64
(lp1420
g57
(g78
g59
NtRp1421
(dp1422
g62
(dp1423
g82
g83
ssg71
g1417
sg64
(lp1424
S'web2py_path'
p1425
asbag57
(g78
g59
NtRp1426
(dp1427
g62
(dp1428
g89
g90
ssg71
g1417
sg64
(lp1429
S':'
asbag57
(g78
g59
NtRp1430
(dp1431
g62
(dp1432
sg71
g1417
sg64
(lp1433
g57
(g58
g59
NtRp1434
(dp1435
g62
(dp1436
g70
I4
ssg71
g1430
sg64
(lp1437
g869
asbasbasbag57
(g73
g59
NtRp1438
(dp1439
g62
(dp1440
sg71
g822
sg64
(lp1441
g57
(g78
g59
NtRp1442
(dp1443
g62
(dp1444
g82
g83
ssg71
g1438
sg64
(lp1445
S'web2py_version'
p1446
asbag57
(g78
g59
NtRp1447
(dp1448
g62
(dp1449
g89
g90
ssg71
g1438
sg64
(lp1450
S':'
asbag57
(g78
g59
NtRp1451
(dp1452
g62
(dp1453
sg71
g1438
sg64
(lp1454
g57
(g58
g59
NtRp1455
(dp1456
g62
(dp1457
g70
I4
ssg71
g1451
sg64
(lp1458
g57
(g66
g59
NtRp1459
(dp1460
g62
(dp1461
g70
I3
ssg71
Nsg64
(lp1462
g57
(g73
g59
NtRp1463
(dp1464
g62
(dp1465
sg71
g1459
sg64
(lp1466
g57
(g78
g59
NtRp1467
(dp1468
g62
(dp1469
sg71
g1463
sg64
(lp1470
g57
(g58
g59
NtRp1471
(dp1472
g62
(dp1473
g70
I3
ssg71
g1467
sg64
(lp1474
S'1'
asbasbasbag57
(g73
g59
NtRp1475
(dp1476
g62
(dp1477
sg71
g1459
sg64
(lp1478
g57
(g78
g59
NtRp1479
(dp1480
g62
(dp1481
sg71
g1475
sg64
(lp1482
g57
(g58
g59
NtRp1483
(dp1484
g62
(dp1485
g70
I3
ssg71
g1479
sg64
(lp1486
S'99'
p1487
asbasbasbag57
(g73
g59
NtRp1488
(dp1489
g62
(dp1490
sg71
g1459
sg64
(lp1491
g57
(g78
g59
NtRp1492
(dp1493
g62
(dp1494
sg71
g1488
sg64
(lp1495
g57
(g58
g59
NtRp1496
(dp1497
g62
(dp1498
g70
I3
ssg71
g1492
sg64
(lp1499
S'7'
asbasbasbag57
(g73
g59
NtRp1500
(dp1501
g62
(dp1502
sg71
g1459
sg64
(lp1503
g57
(g78
g59
NtRp1504
(dp1505
g62
(dp1506
sg71
g1500
sg64
(lp1507
g57
(g58
g59
NtRp1508
(dp1509
g62
(dp1510
g70
I3
ssg71
g1504
sg64
(lp1511
S'datetime.datetime(2012, 3, 4, 22, 12, 8)'
p1512
asbasbasbag57
(g73
g59
NtRp1513
(dp1514
g62
(dp1515
sg71
g1459
sg64
(lp1516
g57
(g78
g59
NtRp1517
(dp1518
g62
(dp1519
sg71
g1513
sg64
(lp1520
g57
(g58
g59
NtRp1521
(dp1522
g62
(dp1523
g70
I3
ssg71
g1517
sg64
(lp1524
S'stable'
p1525
asbasbasbasbasbasbasbag57
(g73
g59
NtRp1526
(dp1527
g62
(dp1528
sg71
g822
sg64
(lp1529
g57
(g78
g59
NtRp1530
(dp1531
g62
(dp1532
g82
g83
ssg71
g1526
sg64
(lp1533
S'wsgi_errors'
p1534
asbag57
(g78
g59
NtRp1535
(dp1536
g62
(dp1537
g89
g90
ssg71
g1526
sg64
(lp1538
S':'
asbag57
(g78
g59
NtRp1539
(dp1540
g62
(dp1541
sg71
g1526
sg64
(lp1542
g57
(g58
g59
NtRp1543
(dp1544
g62
(dp1545
g70
I4
ssg71
g1539
sg64
(lp1546
S"<open file '<stderr>', mode 'w' at 0xb77cc0d0>"
p1547
asbasbasbag57
(g73
g59
NtRp1548
(dp1549
g62
(dp1550
sg71
g822
sg64
(lp1551
g57
(g78
g59
NtRp1552
(dp1553
g62
(dp1554
g82
g83
ssg71
g1548
sg64
(lp1555
S'wsgi_file_wrapper'
p1556
asbag57
(g78
g59
NtRp1557
(dp1558
g62
(dp1559
g89
g90
ssg71
g1548
sg64
(lp1560
S':'
asbag57
(g78
g59
NtRp1561
(dp1562
g62
(dp1563
sg71
g1548
sg64
(lp1564
g57
(g58
g59
NtRp1565
(dp1566
g62
(dp1567
g70
I4
ssg71
g1561
sg64
(lp1568
S'<class wsgiref.util.FileWrapper at 0x8caa11c>'
p1569
asbasbasbag57
(g73
g59
NtRp1570
(dp1571
g62
(dp1572
sg71
g822
sg64
(lp1573
g57
(g78
g59
NtRp1574
(dp1575
g62
(dp1576
g82
g83
ssg71
g1570
sg64
(lp1577
S'wsgi_input'
p1578
asbag57
(g78
g59
NtRp1579
(dp1580
g62
(dp1581
g89
g90
ssg71
g1570
sg64
(lp1582
S':'
asbag57
(g78
g59
NtRp1583
(dp1584
g62
(dp1585
sg71
g1570
sg64
(lp1586
g57
(g58
g59
NtRp1587
(dp1588
g62
(dp1589
g70
I4
ssg71
g1583
sg64
(lp1590
S'<socket._fileobject object at 0x8ebb9ec>'
p1591
asbasbasbag57
(g73
g59
NtRp1592
(dp1593
g62
(dp1594
sg71
g822
sg64
(lp1595
g57
(g78
g59
NtRp1596
(dp1597
g62
(dp1598
g82
g83
ssg71
g1592
sg64
(lp1599
S'wsgi_multiprocess'
p1600
asbag57
(g78
g59
NtRp1601
(dp1602
g62
(dp1603
g89
g90
ssg71
g1592
sg64
(lp1604
S':'
asbag57
(g78
g59
NtRp1605
(dp1606
g62
(dp1607
sg71
g1592
sg64
(lp1608
g57
(g58
g59
NtRp1609
(dp1610
g62
(dp1611
g70
I4
ssg71
g1605
sg64
(lp1612
g100
asbasbasbag57
(g73
g59
NtRp1613
(dp1614
g62
(dp1615
sg71
g822
sg64
(lp1616
g57
(g78
g59
NtRp1617
(dp1618
g62
(dp1619
g82
g83
ssg71
g1613
sg64
(lp1620
S'wsgi_multithread'
p1621
asbag57
(g78
g59
NtRp1622
(dp1623
g62
(dp1624
g89
g90
ssg71
g1613
sg64
(lp1625
S':'
asbag57
(g78
g59
NtRp1626
(dp1627
g62
(dp1628
sg71
g1613
sg64
(lp1629
g57
(g58
g59
NtRp1630
(dp1631
g62
(dp1632
g70
I4
ssg71
g1626
sg64
(lp1633
S'True'
p1634
asbasbasbag57
(g73
g59
NtRp1635
(dp1636
g62
(dp1637
sg71
g822
sg64
(lp1638
g57
(g78
g59
NtRp1639
(dp1640
g62
(dp1641
g82
g83
ssg71
g1635
sg64
(lp1642
S'wsgi_run_once'
p1643
asbag57
(g78
g59
NtRp1644
(dp1645
g62
(dp1646
g89
g90
ssg71
g1635
sg64
(lp1647
S':'
asbag57
(g78
g59
NtRp1648
(dp1649
g62
(dp1650
sg71
g1635
sg64
(lp1651
g57
(g58
g59
NtRp1652
(dp1653
g62
(dp1654
g70
I4
ssg71
g1648
sg64
(lp1655
g100
asbasbasbag57
(g73
g59
NtRp1656
(dp1657
g62
(dp1658
sg71
g822
sg64
(lp1659
g57
(g78
g59
NtRp1660
(dp1661
g62
(dp1662
g82
g83
ssg71
g1656
sg64
(lp1663
S'wsgi_url_scheme'
p1664
asbag57
(g78
g59
NtRp1665
(dp1666
g62
(dp1667
g89
g90
ssg71
g1656
sg64
(lp1668
S':'
asbag57
(g78
g59
NtRp1669
(dp1670
g62
(dp1671
sg71
g1656
sg64
(lp1672
g57
(g58
g59
NtRp1673
(dp1674
g62
(dp1675
g70
I4
ssg71
g1669
sg64
(lp1676
S'http'
p1677
asbasbasbag57
(g73
g59
NtRp1678
(dp1679
g62
(dp1680
sg71
g822
sg64
(lp1681
g57
(g78
g59
NtRp1682
(dp1683
g62
(dp1684
g82
g83
ssg71
g1678
sg64
(lp1685
S'wsgi_version'
p1686
asbag57
(g78
g59
NtRp1687
(dp1688
g62
(dp1689
g89
g90
ssg71
g1678
sg64
(lp1690
S':'
asbag57
(g78
g59
NtRp1691
(dp1692
g62
(dp1693
sg71
g1678
sg64
(lp1694
g57
(g58
g59
NtRp1695
(dp1696
g62
(dp1697
g70
I4
ssg71
g1691
sg64
(lp1698
g57
(g66
g59
NtRp1699
(dp1700
g62
(dp1701
g70
I3
ssg71
Nsg64
(lp1702
g57
(g73
g59
NtRp1703
(dp1704
g62
(dp1705
sg71
g1699
sg64
(lp1706
g57
(g78
g59
NtRp1707
(dp1708
g62
(dp1709
sg71
g1703
sg64
(lp1710
g57
(g58
g59
NtRp1711
(dp1712
g62
(dp1713
g70
I3
ssg71
g1707
sg64
(lp1714
S'1'
asbasbasbag57
(g73
g59
NtRp1715
(dp1716
g62
(dp1717
sg71
g1699
sg64
(lp1718
g57
(g78
g59
NtRp1719
(dp1720
g62
(dp1721
sg71
g1715
sg64
(lp1722
g57
(g58
g59
NtRp1723
(dp1724
g62
(dp1725
g70
I3
ssg71
g1719
sg64
(lp1726
S'0'
asbasbasbasbasbasbasbasbasbasbasbag57
(g73
g59
NtRp1727
(dp1728
g62
(dp1729
sg71
g67
sg64
(lp1730
g57
(g78
g59
NtRp1731
(dp1732
g62
(dp1733
g82
g83
ssg71
g1727
sg64
(lp1734
S'extension'
p1735
asbag57
(g78
g59
NtRp1736
(dp1737
g62
(dp1738
g89
g90
ssg71
g1727
sg64
(lp1739
S':'
asbag57
(g78
g59
NtRp1740
(dp1741
g62
(dp1742
sg71
g1727
sg64
(lp1743
g57
(g58
g59
NtRp1744
(dp1745
g62
(dp1746
g70
I5
ssg71
g1740
sg64
(lp1747
S'html'
p1748
asbasbasbag57
(g73
g59
NtRp1749
(dp1750
g62
(dp1751
sg71
g67
sg64
(lp1752
g57
(g78
g59
NtRp1753
(dp1754
g62
(dp1755
g82
g83
ssg71
g1749
sg64
(lp1756
S'folder'
p1757
asbag57
(g78
g59
NtRp1758
(dp1759
g62
(dp1760
g89
g90
ssg71
g1749
sg64
(lp1761
S':'
asbag57
(g78
g59
NtRp1762
(dp1763
g62
(dp1764
sg71
g1749
sg64
(lp1765
g57
(g58
g59
NtRp1766
(dp1767
g62
(dp1768
g70
I5
ssg71
g1762
sg64
(lp1769
S'/home/monamagarwal/Downloads/web2py/applications/hostel/'
p1770
asbasbasbag57
(g73
g59
NtRp1771
(dp1772
g62
(dp1773
sg71
g67
sg64
(lp1774
g57
(g78
g59
NtRp1775
(dp1776
g62
(dp1777
g82
g83
ssg71
g1771
sg64
(lp1778
S'function'
p1779
asbag57
(g78
g59
NtRp1780
(dp1781
g62
(dp1782
g89
g90
ssg71
g1771
sg64
(lp1783
S':'
asbag57
(g78
g59
NtRp1784
(dp1785
g62
(dp1786
sg71
g1771
sg64
(lp1787
g57
(g58
g59
NtRp1788
(dp1789
g62
(dp1790
g70
I5
ssg71
g1784
sg64
(lp1791
S'complaint'
p1792
asbasbasbag57
(g73
g59
NtRp1793
(dp1794
g62
(dp1795
sg71
g67
sg64
(lp1796
g57
(g78
g59
NtRp1797
(dp1798
g62
(dp1799
g82
g83
ssg71
g1793
sg64
(lp1800
S'get_vars'
p1801
asbag57
(g78
g59
NtRp1802
(dp1803
g62
(dp1804
g89
g90
ssg71
g1793
sg64
(lp1805
S':'
asbag57
(g78
g59
NtRp1806
(dp1807
g62
(dp1808
sg71
g1793
sg64
(lp1809
g57
(g58
g59
NtRp1810
(dp1811
g62
(dp1812
g70
I5
ssg71
g1806
sg64
(lp1813
g57
(g66
g59
NtRp1814
(dp1815
g62
(dp1816
g70
I4
ssg71
Nsg64
(lp1817
sbasbasbasbag57
(g73
g59
NtRp1818
(dp1819
g62
(dp1820
sg71
g67
sg64
(lp1821
g57
(g78
g59
NtRp1822
(dp1823
g62
(dp1824
g82
g83
ssg71
g1818
sg64
(lp1825
S'global_settings'
p1826
asbag57
(g78
g59
NtRp1827
(dp1828
g62
(dp1829
g89
g90
ssg71
g1818
sg64
(lp1830
S':'
asbag57
(g78
g59
NtRp1831
(dp1832
g62
(dp1833
sg71
g1818
sg64
(lp1834
g57
(g58
g59
NtRp1835
(dp1836
g62
(dp1837
g70
I5
ssg71
g1831
sg64
(lp1838
g57
(g66
g59
NtRp1839
(dp1840
g62
(dp1841
g70
I4
ssg71
Nsg64
(lp1842
g57
(g73
g59
NtRp1843
(dp1844
g62
(dp1845
sg71
g1839
sg64
(lp1846
g57
(g78
g59
NtRp1847
(dp1848
g62
(dp1849
g82
g83
ssg71
g1843
sg64
(lp1850
g834
asbag57
(g78
g59
NtRp1851
(dp1852
g62
(dp1853
g89
g90
ssg71
g1843
sg64
(lp1854
S':'
asbag57
(g78
g59
NtRp1855
(dp1856
g62
(dp1857
sg71
g1843
sg64
(lp1858
g57
(g58
g59
NtRp1859
(dp1860
g62
(dp1861
g70
I4
ssg71
g1855
sg64
(lp1862
S"set(['/home/monamagarwal/Downloads/web2py/applications/hostel/', '/home/monamagarwal/Downloads/web2py/applications/admin/', '/home/monamagarwal/Downloads/web2py/applications/welcome/'])"
p1863
asbasbasbag57
(g73
g59
NtRp1864
(dp1865
g62
(dp1866
sg71
g1839
sg64
(lp1867
g57
(g78
g59
NtRp1868
(dp1869
g62
(dp1870
g82
g83
ssg71
g1864
sg64
(lp1871
g856
asbag57
(g78
g59
NtRp1872
(dp1873
g62
(dp1874
g89
g90
ssg71
g1864
sg64
(lp1875
S':'
asbag57
(g78
g59
NtRp1876
(dp1877
g62
(dp1878
sg71
g1864
sg64
(lp1879
g57
(g58
g59
NtRp1880
(dp1881
g62
(dp1882
g70
I4
ssg71
g1876
sg64
(lp1883
g869
asbasbasbag57
(g73
g59
NtRp1884
(dp1885
g62
(dp1886
sg71
g1839
sg64
(lp1887
g57
(g78
g59
NtRp1888
(dp1889
g62
(dp1890
g82
g83
ssg71
g1884
sg64
(lp1891
g878
asbag57
(g78
g59
NtRp1892
(dp1893
g62
(dp1894
g89
g90
ssg71
g1884
sg64
(lp1895
S':'
asbag57
(g78
g59
NtRp1896
(dp1897
g62
(dp1898
sg71
g1884
sg64
(lp1899
g57
(g58
g59
NtRp1900
(dp1901
g62
(dp1902
g70
I4
ssg71
g1896
sg64
(lp1903
g57
(g66
g59
NtRp1904
(dp1905
g62
(dp1906
g70
I3
ssg71
Nsg64
(lp1907
sbasbasbasbag57
(g73
g59
NtRp1908
(dp1909
g62
(dp1910
sg71
g1839
sg64
(lp1911
g57
(g78
g59
NtRp1912
(dp1913
g62
(dp1914
g82
g83
ssg71
g1908
sg64
(lp1915
g903
asbag57
(g78
g59
NtRp1916
(dp1917
g62
(dp1918
g89
g90
ssg71
g1908
sg64
(lp1919
S':'
asbag57
(g78
g59
NtRp1920
(dp1921
g62
(dp1922
sg71
g1908
sg64
(lp1923
g57
(g58
g59
NtRp1924
(dp1925
g62
(dp1926
g70
I4
ssg71
g1920
sg64
(lp1927
S"<Values at 0x8cc3d6c: {'verbose': False, 'ip': '127.0.0.1', 'shutdown_timeout': 5, 'taskbar': False, 'nocron': False, 'pid_filename': 'httpserver.pid', 'maxthreads': None, 'softcron': False, 'server_name': 'timehacker', 'bpython': False, 'nogui': False, 'port': 8000, 'extcron': False, 'debuglevel': 30, 'test': None, 'folder': '/home/monamagarwal/Downloads/web2py', 'config': '', 'import_models': False, 'winservice': '', 'shell': None, 'run': '', 'log_filename': 'httpserver.log', 'args': [''], 'socket_timeout': 5, 'ssl_ca_certificate': None, 'scheduler': None, 'profiler_filename': None, 'ssl_private_key': '', 'password': 'abc', 'request_queue_size': 5, 'ssl_certificate': '', 'cronjob': False, 'numthreads': None, 'quiet': False, 'interfaces': None, 'minthreads': None, 'timeout': 10, 'plain': False, 'nobanner': False}>"
p1928
asbasbasbag57
(g73
g59
NtRp1929
(dp1930
g62
(dp1931
sg71
g1839
sg64
(lp1932
g57
(g78
g59
NtRp1933
(dp1934
g62
(dp1935
g82
g83
ssg71
g1929
sg64
(lp1936
g925
asbag57
(g78
g59
NtRp1937
(dp1938
g62
(dp1939
g89
g90
ssg71
g1929
sg64
(lp1940
S':'
asbag57
(g78
g59
NtRp1941
(dp1942
g62
(dp1943
sg71
g1929
sg64
(lp1944
g57
(g58
g59
NtRp1945
(dp1946
g62
(dp1947
g70
I4
ssg71
g1941
sg64
(lp1948
S'set([])'
p1949
asbasbasbag57
(g73
g59
NtRp1950
(dp1951
g62
(dp1952
sg71
g1839
sg64
(lp1953
g57
(g78
g59
NtRp1954
(dp1955
g62
(dp1956
g82
g83
ssg71
g1950
sg64
(lp1957
g947
asbag57
(g78
g59
NtRp1958
(dp1959
g62
(dp1960
g89
g90
ssg71
g1950
sg64
(lp1961
S':'
asbag57
(g78
g59
NtRp1962
(dp1963
g62
(dp1964
sg71
g1950
sg64
(lp1965
g57
(g58
g59
NtRp1966
(dp1967
g62
(dp1968
g70
I4
ssg71
g1962
sg64
(lp1969
g100
asbasbasbag57
(g73
g59
NtRp1970
(dp1971
g62
(dp1972
sg71
g1839
sg64
(lp1973
g57
(g78
g59
NtRp1974
(dp1975
g62
(dp1976
g82
g83
ssg71
g1970
sg64
(lp1977
g968
asbag57
(g78
g59
NtRp1978
(dp1979
g62
(dp1980
g89
g90
ssg71
g1970
sg64
(lp1981
S':'
asbag57
(g78
g59
NtRp1982
(dp1983
g62
(dp1984
sg71
g1970
sg64
(lp1985
g57
(g58
g59
NtRp1986
(dp1987
g62
(dp1988
g70
I4
ssg71
g1982
sg64
(lp1989
g981
asbasbasbag57
(g73
g59
NtRp1990
(dp1991
g62
(dp1992
sg71
g1839
sg64
(lp1993
g57
(g78
g59
NtRp1994
(dp1995
g62
(dp1996
g82
g83
ssg71
g1990
sg64
(lp1997
g1144
asbag57
(g78
g59
NtRp1998
(dp1999
g62
(dp2000
g89
g90
ssg71
g1990
sg64
(lp2001
S':'
asbag57
(g78
g59
NtRp2002
(dp2003
g62
(dp2004
sg71
g1990
sg64
(lp2005
g57
(g58
g59
NtRp2006
(dp2007
g62
(dp2008
g70
I4
ssg71
g2002
sg64
(lp2009
g100
asbasbasbag57
(g73
g59
NtRp2010
(dp2011
g62
(dp2012
sg71
g1839
sg64
(lp2013
g57
(g78
g59
NtRp2014
(dp2015
g62
(dp2016
g82
g83
ssg71
g2010
sg64
(lp2017
g1165
asbag57
(g78
g59
NtRp2018
(dp2019
g62
(dp2020
g89
g90
ssg71
g2010
sg64
(lp2021
S':'
asbag57
(g78
g59
NtRp2022
(dp2023
g62
(dp2024
sg71
g2010
sg64
(lp2025
g57
(g58
g59
NtRp2026
(dp2027
g62
(dp2028
g70
I4
ssg71
g2022
sg64
(lp2029
g100
asbasbasbag57
(g73
g59
NtRp2030
(dp2031
g62
(dp2032
sg71
g1839
sg64
(lp2033
g57
(g78
g59
NtRp2034
(dp2035
g62
(dp2036
g82
g83
ssg71
g2030
sg64
(lp2037
g1403
asbag57
(g78
g59
NtRp2038
(dp2039
g62
(dp2040
g89
g90
ssg71
g2030
sg64
(lp2041
S':'
asbag57
(g78
g59
NtRp2042
(dp2043
g62
(dp2044
sg71
g2030
sg64
(lp2045
g57
(g58
g59
NtRp2046
(dp2047
g62
(dp2048
g70
I4
ssg71
g2042
sg64
(lp2049
g1416
asbasbasbag57
(g73
g59
NtRp2050
(dp2051
g62
(dp2052
sg71
g1839
sg64
(lp2053
g57
(g78
g59
NtRp2054
(dp2055
g62
(dp2056
g82
g83
ssg71
g2050
sg64
(lp2057
g1446
asbag57
(g78
g59
NtRp2058
(dp2059
g62
(dp2060
g89
g90
ssg71
g2050
sg64
(lp2061
S':'
asbag57
(g78
g59
NtRp2062
(dp2063
g62
(dp2064
sg71
g2050
sg64
(lp2065
g57
(g58
g59
NtRp2066
(dp2067
g62
(dp2068
g70
I4
ssg71
g2062
sg64
(lp2069
g57
(g66
g59
NtRp2070
(dp2071
g62
(dp2072
g70
I3
ssg71
Nsg64
(lp2073
g57
(g73
g59
NtRp2074
(dp2075
g62
(dp2076
sg71
g2070
sg64
(lp2077
g57
(g78
g59
NtRp2078
(dp2079
g62
(dp2080
sg71
g2074
sg64
(lp2081
g57
(g58
g59
NtRp2082
(dp2083
g62
(dp2084
g70
I3
ssg71
g2078
sg64
(lp2085
S'1'
asbasbasbag57
(g73
g59
NtRp2086
(dp2087
g62
(dp2088
sg71
g2070
sg64
(lp2089
g57
(g78
g59
NtRp2090
(dp2091
g62
(dp2092
sg71
g2086
sg64
(lp2093
g57
(g58
g59
NtRp2094
(dp2095
g62
(dp2096
g70
I3
ssg71
g2090
sg64
(lp2097
S'99'
p2098
asbasbasbag57
(g73
g59
NtRp2099
(dp2100
g62
(dp2101
sg71
g2070
sg64
(lp2102
g57
(g78
g59
NtRp2103
(dp2104
g62
(dp2105
sg71
g2099
sg64
(lp2106
g57
(g58
g59
NtRp2107
(dp2108
g62
(dp2109
g70
I3
ssg71
g2103
sg64
(lp2110
S'7'
asbasbasbag57
(g73
g59
NtRp2111
(dp2112
g62
(dp2113
sg71
g2070
sg64
(lp2114
g57
(g78
g59
NtRp2115
(dp2116
g62
(dp2117
sg71
g2111
sg64
(lp2118
g57
(g58
g59
NtRp2119
(dp2120
g62
(dp2121
g70
I3
ssg71
g2115
sg64
(lp2122
S'datetime.datetime(2012, 3, 4, 22, 12, 8)'
p2123
asbasbasbag57
(g73
g59
NtRp2124
(dp2125
g62
(dp2126
sg71
g2070
sg64
(lp2127
g57
(g78
g59
NtRp2128
(dp2129
g62
(dp2130
sg71
g2124
sg64
(lp2131
g57
(g58
g59
NtRp2132
(dp2133
g62
(dp2134
g70
I3
ssg71
g2128
sg64
(lp2135
g1525
asbasbasbasbasbasbasbasbasbasbasbag57
(g73
g59
NtRp2136
(dp2137
g62
(dp2138
sg71
g67
sg64
(lp2139
g57
(g78
g59
NtRp2140
(dp2141
g62
(dp2142
g82
g83
ssg71
g2136
sg64
(lp2143
S'is_https'
p2144
asbag57
(g78
g59
NtRp2145
(dp2146
g62
(dp2147
g89
g90
ssg71
g2136
sg64
(lp2148
S':'
asbag57
(g78
g59
NtRp2149
(dp2150
g62
(dp2151
sg71
g2136
sg64
(lp2152
g57
(g58
g59
NtRp2153
(dp2154
g62
(dp2155
g70
I5
ssg71
g2149
sg64
(lp2156
g100
asbasbasbag57
(g73
g59
NtRp2157
(dp2158
g62
(dp2159
sg71
g67
sg64
(lp2160
g57
(g78
g59
NtRp2161
(dp2162
g62
(dp2163
g82
g83
ssg71
g2157
sg64
(lp2164
S'is_local'
p2165
asbag57
(g78
g59
NtRp2166
(dp2167
g62
(dp2168
g89
g90
ssg71
g2157
sg64
(lp2169
S':'
asbag57
(g78
g59
NtRp2170
(dp2171
g62
(dp2172
sg71
g2157
sg64
(lp2173
g57
(g58
g59
NtRp2174
(dp2175
g62
(dp2176
g70
I5
ssg71
g2170
sg64
(lp2177
g1634
asbasbasbag57
(g73
g59
NtRp2178
(dp2179
g62
(dp2180
sg71
g67
sg64
(lp2181
g57
(g78
g59
NtRp2182
(dp2183
g62
(dp2184
g82
g83
ssg71
g2178
sg64
(lp2185
S'is_restful'
p2186
asbag57
(g78
g59
NtRp2187
(dp2188
g62
(dp2189
g89
g90
ssg71
g2178
sg64
(lp2190
S':'
asbag57
(g78
g59
NtRp2191
(dp2192
g62
(dp2193
sg71
g2178
sg64
(lp2194
g57
(g58
g59
NtRp2195
(dp2196
g62
(dp2197
g70
I5
ssg71
g2191
sg64
(lp2198
g100
asbasbasbag57
(g73
g59
NtRp2199
(dp2200
g62
(dp2201
sg71
g67
sg64
(lp2202
g57
(g78
g59
NtRp2203
(dp2204
g62
(dp2205
g82
g83
ssg71
g2199
sg64
(lp2206
S'now'
p2207
asbag57
(g78
g59
NtRp2208
(dp2209
g62
(dp2210
g89
g90
ssg71
g2199
sg64
(lp2211
S':'
asbag57
(g78
g59
NtRp2212
(dp2213
g62
(dp2214
sg71
g2199
sg64
(lp2215
g57
(g58
g59
NtRp2216
(dp2217
g62
(dp2218
g70
I5
ssg71
g2212
sg64
(lp2219
S'datetime.datetime(2012, 10, 13, 19, 0, 2, 314345)'
p2220
asbasbasbag57
(g73
g59
NtRp2221
(dp2222
g62
(dp2223
sg71
g67
sg64
(lp2224
g57
(g78
g59
NtRp2225
(dp2226
g62
(dp2227
g82
g83
ssg71
g2221
sg64
(lp2228
S'post_vars'
p2229
asbag57
(g78
g59
NtRp2230
(dp2231
g62
(dp2232
g89
g90
ssg71
g2221
sg64
(lp2233
S':'
asbag57
(g78
g59
NtRp2234
(dp2235
g62
(dp2236
sg71
g2221
sg64
(lp2237
g57
(g58
g59
NtRp2238
(dp2239
g62
(dp2240
g70
I5
ssg71
g2234
sg64
(lp2241
g57
(g66
g59
NtRp2242
(dp2243
g62
(dp2244
g70
I4
ssg71
Nsg64
(lp2245
sbasbasbasbag57
(g73
g59
NtRp2246
(dp2247
g62
(dp2248
sg71
g67
sg64
(lp2249
g57
(g78
g59
NtRp2250
(dp2251
g62
(dp2252
g82
g83
ssg71
g2246
sg64
(lp2253
S'url'
p2254
asbag57
(g78
g59
NtRp2255
(dp2256
g62
(dp2257
g89
g90
ssg71
g2246
sg64
(lp2258
S':'
asbag57
(g78
g59
NtRp2259
(dp2260
g62
(dp2261
sg71
g2246
sg64
(lp2262
g57
(g58
g59
NtRp2263
(dp2264
g62
(dp2265
g70
I5
ssg71
g2259
sg64
(lp2266
S'/hostel/default/complaint'
p2267
asbasbasbag57
(g73
g59
NtRp2268
(dp2269
g62
(dp2270
sg71
g67
sg64
(lp2271
g57
(g78
g59
NtRp2272
(dp2273
g62
(dp2274
g82
g83
ssg71
g2268
sg64
(lp2275
S'utcnow'
p2276
asbag57
(g78
g59
NtRp2277
(dp2278
g62
(dp2279
g89
g90
ssg71
g2268
sg64
(lp2280
S':'
asbag57
(g78
g59
NtRp2281
(dp2282
g62
(dp2283
sg71
g2268
sg64
(lp2284
g57
(g58
g59
NtRp2285
(dp2286
g62
(dp2287
g70
I5
ssg71
g2281
sg64
(lp2288
S'datetime.datetime(2012, 10, 13, 13, 30, 2, 314382)'
p2289
asbasbasbag57
(g73
g59
NtRp2290
(dp2291
g62
(dp2292
sg71
g67
sg64
(lp2293
g57
(g78
g59
NtRp2294
(dp2295
g62
(dp2296
g82
g83
ssg71
g2290
sg64
(lp2297
S'uuid'
p2298
asbag57
(g78
g59
NtRp2299
(dp2300
g62
(dp2301
g89
g90
ssg71
g2290
sg64
(lp2302
S':'
asbag57
(g78
g59
NtRp2303
(dp2304
g62
(dp2305
sg71
g2290
sg64
(lp2306
g57
(g58
g59
NtRp2307
(dp2308
g62
(dp2309
g70
I5
ssg71
g2303
sg64
(lp2310
S'hostel/127.0.0.1.2012-10-13.19-00-02.a1407560-4992-4108-a084-5675772eae81'
p2311
asbasbasbag57
(g73
g59
NtRp2312
(dp2313
g62
(dp2314
sg71
g67
sg64
(lp2315
g57
(g78
g59
NtRp2316
(dp2317
g62
(dp2318
g82
g83
ssg71
g2312
sg64
(lp2319
S'vars'
p2320
asbag57
(g78
g59
NtRp2321
(dp2322
g62
(dp2323
g89
g90
ssg71
g2312
sg64
(lp2324
S':'
asbag57
(g78
g59
NtRp2325
(dp2326
g62
(dp2327
sg71
g2312
sg64
(lp2328
g57
(g58
g59
NtRp2329
(dp2330
g62
(dp2331
g70
I5
ssg71
g2325
sg64
(lp2332
g57
(g66
g59
NtRp2333
(dp2334
g62
(dp2335
g70
I4
ssg71
Nsg64
(lp2336
sbasbasbasbag57
(g73
g59
NtRp2337
(dp2338
g62
(dp2339
sg71
g67
sg64
(lp2340
g57
(g78
g59
NtRp2341
(dp2342
g62
(dp2343
g82
g83
ssg71
g2337
sg64
(lp2344
S'wsgi'
p2345
asbag57
(g78
g59
NtRp2346
(dp2347
g62
(dp2348
g89
g90
ssg71
g2337
sg64
(lp2349
S':'
asbag57
(g78
g59
NtRp2350
(dp2351
g62
(dp2352
sg71
g2337
sg64
(lp2353
g57
(g58
g59
NtRp2354
(dp2355
g62
(dp2356
g70
I5
ssg71
g2350
sg64
(lp2357
g57
(g66
g59
NtRp2358
(dp2359
g62
(dp2360
g70
I4
ssg71
Nsg64
(lp2361
g57
(g73
g59
NtRp2362
(dp2363
g62
(dp2364
sg71
g2358
sg64
(lp2365
g57
(g78
g59
NtRp2366
(dp2367
g62
(dp2368
g82
g83
ssg71
g2362
sg64
(lp2369
S'environ'
p2370
asbag57
(g78
g59
NtRp2371
(dp2372
g62
(dp2373
g89
g90
ssg71
g2362
sg64
(lp2374
S':'
asbag57
(g78
g59
NtRp2375
(dp2376
g62
(dp2377
sg71
g2362
sg64
(lp2378
g57
(g58
g59
NtRp2379
(dp2380
g62
(dp2381
g70
I4
ssg71
g2375
sg64
(lp2382
g57
(g66
g59
NtRp2383
(dp2384
g62
(dp2385
g70
I3
ssg71
Nsg64
(lp2386
g57
(g73
g59
NtRp2387
(dp2388
g62
(dp2389
sg71
g2383
sg64
(lp2390
g57
(g78
g59
NtRp2391
(dp2392
g62
(dp2393
g82
g83
ssg71
g2387
sg64
(lp2394
S'HTTP_ACCEPT'
p2395
asbag57
(g78
g59
NtRp2396
(dp2397
g62
(dp2398
g89
g90
ssg71
g2387
sg64
(lp2399
S':'
asbag57
(g78
g59
NtRp2400
(dp2401
g62
(dp2402
sg71
g2387
sg64
(lp2403
g57
(g58
g59
NtRp2404
(dp2405
g62
(dp2406
g70
I3
ssg71
g2400
sg64
(lp2407
g1003
asbasbasbag57
(g73
g59
NtRp2408
(dp2409
g62
(dp2410
sg71
g2383
sg64
(lp2411
g57
(g78
g59
NtRp2412
(dp2413
g62
(dp2414
g82
g83
ssg71
g2408
sg64
(lp2415
S'HTTP_ACCEPT_ENCODING'
p2416
asbag57
(g78
g59
NtRp2417
(dp2418
g62
(dp2419
g89
g90
ssg71
g2408
sg64
(lp2420
S':'
asbag57
(g78
g59
NtRp2421
(dp2422
g62
(dp2423
sg71
g2408
sg64
(lp2424
g57
(g58
g59
NtRp2425
(dp2426
g62
(dp2427
g70
I3
ssg71
g2421
sg64
(lp2428
g1025
asbasbasbag57
(g73
g59
NtRp2429
(dp2430
g62
(dp2431
sg71
g2383
sg64
(lp2432
g57
(g78
g59
NtRp2433
(dp2434
g62
(dp2435
g82
g83
ssg71
g2429
sg64
(lp2436
S'HTTP_ACCEPT_LANGUAGE'
p2437
asbag57
(g78
g59
NtRp2438
(dp2439
g62
(dp2440
g89
g90
ssg71
g2429
sg64
(lp2441
S':'
asbag57
(g78
g59
NtRp2442
(dp2443
g62
(dp2444
sg71
g2429
sg64
(lp2445
g57
(g58
g59
NtRp2446
(dp2447
g62
(dp2448
g70
I3
ssg71
g2442
sg64
(lp2449
g1047
asbasbasbag57
(g73
g59
NtRp2450
(dp2451
g62
(dp2452
sg71
g2383
sg64
(lp2453
g57
(g78
g59
NtRp2454
(dp2455
g62
(dp2456
g82
g83
ssg71
g2450
sg64
(lp2457
S'HTTP_CONNECTION'
p2458
asbag57
(g78
g59
NtRp2459
(dp2460
g62
(dp2461
g89
g90
ssg71
g2450
sg64
(lp2462
S':'
asbag57
(g78
g59
NtRp2463
(dp2464
g62
(dp2465
sg71
g2450
sg64
(lp2466
g57
(g58
g59
NtRp2467
(dp2468
g62
(dp2469
g70
I3
ssg71
g2463
sg64
(lp2470
g1069
asbasbasbag57
(g73
g59
NtRp2471
(dp2472
g62
(dp2473
sg71
g2383
sg64
(lp2474
g57
(g78
g59
NtRp2475
(dp2476
g62
(dp2477
g82
g83
ssg71
g2471
sg64
(lp2478
S'HTTP_COOKIE'
p2479
asbag57
(g78
g59
NtRp2480
(dp2481
g62
(dp2482
g89
g90
ssg71
g2471
sg64
(lp2483
S':'
asbag57
(g78
g59
NtRp2484
(dp2485
g62
(dp2486
sg71
g2471
sg64
(lp2487
g57
(g58
g59
NtRp2488
(dp2489
g62
(dp2490
g70
I3
ssg71
g2484
sg64
(lp2491
g1091
asbasbasbag57
(g73
g59
NtRp2492
(dp2493
g62
(dp2494
sg71
g2383
sg64
(lp2495
g57
(g78
g59
NtRp2496
(dp2497
g62
(dp2498
g82
g83
ssg71
g2492
sg64
(lp2499
S'HTTP_HOST'
p2500
asbag57
(g78
g59
NtRp2501
(dp2502
g62
(dp2503
g89
g90
ssg71
g2492
sg64
(lp2504
S':'
asbag57
(g78
g59
NtRp2505
(dp2506
g62
(dp2507
sg71
g2492
sg64
(lp2508
g57
(g58
g59
NtRp2509
(dp2510
g62
(dp2511
g70
I3
ssg71
g2505
sg64
(lp2512
g1113
asbasbasbag57
(g73
g59
NtRp2513
(dp2514
g62
(dp2515
sg71
g2383
sg64
(lp2516
g57
(g78
g59
NtRp2517
(dp2518
g62
(dp2519
g82
g83
ssg71
g2513
sg64
(lp2520
S'HTTP_USER_AGENT'
p2521
asbag57
(g78
g59
NtRp2522
(dp2523
g62
(dp2524
g89
g90
ssg71
g2513
sg64
(lp2525
S':'
asbag57
(g78
g59
NtRp2526
(dp2527
g62
(dp2528
sg71
g2513
sg64
(lp2529
g57
(g58
g59
NtRp2530
(dp2531
g62
(dp2532
g70
I3
ssg71
g2526
sg64
(lp2533
g1135
asbasbasbag57
(g73
g59
NtRp2534
(dp2535
g62
(dp2536
sg71
g2383
sg64
(lp2537
g57
(g78
g59
NtRp2538
(dp2539
g62
(dp2540
g82
g83
ssg71
g2534
sg64
(lp2541
S'PATH_INFO'
p2542
asbag57
(g78
g59
NtRp2543
(dp2544
g62
(dp2545
g89
g90
ssg71
g2534
sg64
(lp2546
S':'
asbag57
(g78
g59
NtRp2547
(dp2548
g62
(dp2549
sg71
g2534
sg64
(lp2550
g57
(g58
g59
NtRp2551
(dp2552
g62
(dp2553
g70
I3
ssg71
g2547
sg64
(lp2554
g1199
asbasbasbag57
(g73
g59
NtRp2555
(dp2556
g62
(dp2557
sg71
g2383
sg64
(lp2558
g57
(g78
g59
NtRp2559
(dp2560
g62
(dp2561
g82
g83
ssg71
g2555
sg64
(lp2562
S'QUERY_STRING'
p2563
asbag57
(g78
g59
NtRp2564
(dp2565
g62
(dp2566
g89
g90
ssg71
g2555
sg64
(lp2567
S':'
asbag57
(g78
g59
NtRp2568
(dp2569
g62
(dp2570
sg71
g2555
sg64
(lp2571
g57
(g58
g59
NtRp2572
(dp2573
g62
(dp2574
g70
I3
ssg71
g2568
sg64
(lp2575
S''
asbasbasbag57
(g73
g59
NtRp2576
(dp2577
g62
(dp2578
sg71
g2383
sg64
(lp2579
g57
(g78
g59
NtRp2580
(dp2581
g62
(dp2582
g82
g83
ssg71
g2576
sg64
(lp2583
S'REMOTE_ADDR'
p2584
asbag57
(g78
g59
NtRp2585
(dp2586
g62
(dp2587
g89
g90
ssg71
g2576
sg64
(lp2588
S':'
asbag57
(g78
g59
NtRp2589
(dp2590
g62
(dp2591
sg71
g2576
sg64
(lp2592
g57
(g58
g59
NtRp2593
(dp2594
g62
(dp2595
g70
I3
ssg71
g2589
sg64
(lp2596
g190
asbasbasbag57
(g73
g59
NtRp2597
(dp2598
g62
(dp2599
sg71
g2383
sg64
(lp2600
g57
(g78
g59
NtRp2601
(dp2602
g62
(dp2603
g82
g83
ssg71
g2597
sg64
(lp2604
S'REMOTE_PORT'
p2605
asbag57
(g78
g59
NtRp2606
(dp2607
g62
(dp2608
g89
g90
ssg71
g2597
sg64
(lp2609
S':'
asbag57
(g78
g59
NtRp2610
(dp2611
g62
(dp2612
sg71
g2597
sg64
(lp2613
g57
(g58
g59
NtRp2614
(dp2615
g62
(dp2616
g70
I3
ssg71
g2610
sg64
(lp2617
g1263
asbasbasbag57
(g73
g59
NtRp2618
(dp2619
g62
(dp2620
sg71
g2383
sg64
(lp2621
g57
(g78
g59
NtRp2622
(dp2623
g62
(dp2624
g82
g83
ssg71
g2618
sg64
(lp2625
S'REQUEST_METHOD'
p2626
asbag57
(g78
g59
NtRp2627
(dp2628
g62
(dp2629
g89
g90
ssg71
g2618
sg64
(lp2630
S':'
asbag57
(g78
g59
NtRp2631
(dp2632
g62
(dp2633
sg71
g2618
sg64
(lp2634
g57
(g58
g59
NtRp2635
(dp2636
g62
(dp2637
g70
I3
ssg71
g2631
sg64
(lp2638
g1285
asbasbasbag57
(g73
g59
NtRp2639
(dp2640
g62
(dp2641
sg71
g2383
sg64
(lp2642
g57
(g78
g59
NtRp2643
(dp2644
g62
(dp2645
g82
g83
ssg71
g2639
sg64
(lp2646
S'SCRIPT_NAME'
p2647
asbag57
(g78
g59
NtRp2648
(dp2649
g62
(dp2650
g89
g90
ssg71
g2639
sg64
(lp2651
S':'
asbag57
(g78
g59
NtRp2652
(dp2653
g62
(dp2654
sg71
g2639
sg64
(lp2655
g57
(g58
g59
NtRp2656
(dp2657
g62
(dp2658
g70
I3
ssg71
g2652
sg64
(lp2659
S''
asbasbasbag57
(g73
g59
NtRp2660
(dp2661
g62
(dp2662
sg71
g2383
sg64
(lp2663
g57
(g78
g59
NtRp2664
(dp2665
g62
(dp2666
g82
g83
ssg71
g2660
sg64
(lp2667
S'SERVER_NAME'
p2668
asbag57
(g78
g59
NtRp2669
(dp2670
g62
(dp2671
g89
g90
ssg71
g2660
sg64
(lp2672
S':'
asbag57
(g78
g59
NtRp2673
(dp2674
g62
(dp2675
sg71
g2660
sg64
(lp2676
g57
(g58
g59
NtRp2677
(dp2678
g62
(dp2679
g70
I3
ssg71
g2673
sg64
(lp2680
g1328
asbasbasbag57
(g73
g59
NtRp2681
(dp2682
g62
(dp2683
sg71
g2383
sg64
(lp2684
g57
(g78
g59
NtRp2685
(dp2686
g62
(dp2687
g82
g83
ssg71
g2681
sg64
(lp2688
S'SERVER_PORT'
p2689
asbag57
(g78
g59
NtRp2690
(dp2691
g62
(dp2692
g89
g90
ssg71
g2681
sg64
(lp2693
S':'
asbag57
(g78
g59
NtRp2694
(dp2695
g62
(dp2696
sg71
g2681
sg64
(lp2697
g57
(g58
g59
NtRp2698
(dp2699
g62
(dp2700
g70
I3
ssg71
g2694
sg64
(lp2701
g1350
asbasbasbag57
(g73
g59
NtRp2702
(dp2703
g62
(dp2704
sg71
g2383
sg64
(lp2705
g57
(g78
g59
NtRp2706
(dp2707
g62
(dp2708
g82
g83
ssg71
g2702
sg64
(lp2709
S'SERVER_PROTOCOL'
p2710
asbag57
(g78
g59
NtRp2711
(dp2712
g62
(dp2713
g89
g90
ssg71
g2702
sg64
(lp2714
S':'
asbag57
(g78
g59
NtRp2715
(dp2716
g62
(dp2717
sg71
g2702
sg64
(lp2718
g57
(g58
g59
NtRp2719
(dp2720
g62
(dp2721
g70
I3
ssg71
g2715
sg64
(lp2722
g1372
asbasbasbag57
(g73
g59
NtRp2723
(dp2724
g62
(dp2725
sg71
g2383
sg64
(lp2726
g57
(g78
g59
NtRp2727
(dp2728
g62
(dp2729
g82
g83
ssg71
g2723
sg64
(lp2730
S'SERVER_SOFTWARE'
p2731
asbag57
(g78
g59
NtRp2732
(dp2733
g62
(dp2734
g89
g90
ssg71
g2723
sg64
(lp2735
S':'
asbag57
(g78
g59
NtRp2736
(dp2737
g62
(dp2738
sg71
g2723
sg64
(lp2739
g57
(g58
g59
NtRp2740
(dp2741
g62
(dp2742
g70
I3
ssg71
g2736
sg64
(lp2743
g1394
asbasbasbag57
(g73
g59
NtRp2744
(dp2745
g62
(dp2746
sg71
g2383
sg64
(lp2747
g57
(g78
g59
NtRp2748
(dp2749
g62
(dp2750
g82
g83
ssg71
g2744
sg64
(lp2751
S'wsgi.errors'
p2752
asbag57
(g78
g59
NtRp2753
(dp2754
g62
(dp2755
g89
g90
ssg71
g2744
sg64
(lp2756
S':'
asbag57
(g78
g59
NtRp2757
(dp2758
g62
(dp2759
sg71
g2744
sg64
(lp2760
g57
(g58
g59
NtRp2761
(dp2762
g62
(dp2763
g70
I3
ssg71
g2757
sg64
(lp2764
S"<open file '<stderr>', mode 'w' at 0xb77cc0d0>"
p2765
asbasbasbag57
(g73
g59
NtRp2766
(dp2767
g62
(dp2768
sg71
g2383
sg64
(lp2769
g57
(g78
g59
NtRp2770
(dp2771
g62
(dp2772
g82
g83
ssg71
g2766
sg64
(lp2773
S'wsgi.file_wrapper'
p2774
asbag57
(g78
g59
NtRp2775
(dp2776
g62
(dp2777
g89
g90
ssg71
g2766
sg64
(lp2778
S':'
asbag57
(g78
g59
NtRp2779
(dp2780
g62
(dp2781
sg71
g2766
sg64
(lp2782
g57
(g58
g59
NtRp2783
(dp2784
g62
(dp2785
g70
I3
ssg71
g2779
sg64
(lp2786
S'<class wsgiref.util.FileWrapper at 0x8caa11c>'
p2787
asbasbasbag57
(g73
g59
NtRp2788
(dp2789
g62
(dp2790
sg71
g2383
sg64
(lp2791
g57
(g78
g59
NtRp2792
(dp2793
g62
(dp2794
g82
g83
ssg71
g2788
sg64
(lp2795
S'wsgi.input'
p2796
asbag57
(g78
g59
NtRp2797
(dp2798
g62
(dp2799
g89
g90
ssg71
g2788
sg64
(lp2800
S':'
asbag57
(g78
g59
NtRp2801
(dp2802
g62
(dp2803
sg71
g2788
sg64
(lp2804
g57
(g58
g59
NtRp2805
(dp2806
g62
(dp2807
g70
I3
ssg71
g2801
sg64
(lp2808
S'<cStringIO.StringO object at 0x98b8f20>'
p2809
asbasbasbag57
(g73
g59
NtRp2810
(dp2811
g62
(dp2812
sg71
g2383
sg64
(lp2813
g57
(g78
g59
NtRp2814
(dp2815
g62
(dp2816
g82
g83
ssg71
g2810
sg64
(lp2817
S'wsgi.multiprocess'
p2818
asbag57
(g78
g59
NtRp2819
(dp2820
g62
(dp2821
g89
g90
ssg71
g2810
sg64
(lp2822
S':'
asbag57
(g78
g59
NtRp2823
(dp2824
g62
(dp2825
sg71
g2810
sg64
(lp2826
g57
(g58
g59
NtRp2827
(dp2828
g62
(dp2829
g70
I3
ssg71
g2823
sg64
(lp2830
g100
asbasbasbag57
(g73
g59
NtRp2831
(dp2832
g62
(dp2833
sg71
g2383
sg64
(lp2834
g57
(g78
g59
NtRp2835
(dp2836
g62
(dp2837
g82
g83
ssg71
g2831
sg64
(lp2838
S'wsgi.multithread'
p2839
asbag57
(g78
g59
NtRp2840
(dp2841
g62
(dp2842
g89
g90
ssg71
g2831
sg64
(lp2843
S':'
asbag57
(g78
g59
NtRp2844
(dp2845
g62
(dp2846
sg71
g2831
sg64
(lp2847
g57
(g58
g59
NtRp2848
(dp2849
g62
(dp2850
g70
I3
ssg71
g2844
sg64
(lp2851
g1634
asbasbasbag57
(g73
g59
NtRp2852
(dp2853
g62
(dp2854
sg71
g2383
sg64
(lp2855
g57
(g78
g59
NtRp2856
(dp2857
g62
(dp2858
g82
g83
ssg71
g2852
sg64
(lp2859
S'wsgi.run_once'
p2860
asbag57
(g78
g59
NtRp2861
(dp2862
g62
(dp2863
g89
g90
ssg71
g2852
sg64
(lp2864
S':'
asbag57
(g78
g59
NtRp2865
(dp2866
g62
(dp2867
sg71
g2852
sg64
(lp2868
g57
(g58
g59
NtRp2869
(dp2870
g62
(dp2871
g70
I3
ssg71
g2865
sg64
(lp2872
g100
asbasbasbag57
(g73
g59
NtRp2873
(dp2874
g62
(dp2875
sg71
g2383
sg64
(lp2876
g57
(g78
g59
NtRp2877
(dp2878
g62
(dp2879
g82
g83
ssg71
g2873
sg64
(lp2880
S'wsgi.url_scheme'
p2881
asbag57
(g78
g59
NtRp2882
(dp2883
g62
(dp2884
g89
g90
ssg71
g2873
sg64
(lp2885
S':'
asbag57
(g78
g59
NtRp2886
(dp2887
g62
(dp2888
sg71
g2873
sg64
(lp2889
g57
(g58
g59
NtRp2890
(dp2891
g62
(dp2892
g70
I3
ssg71
g2886
sg64
(lp2893
g1677
asbasbasbag57
(g73
g59
NtRp2894
(dp2895
g62
(dp2896
sg71
g2383
sg64
(lp2897
g57
(g78
g59
NtRp2898
(dp2899
g62
(dp2900
g82
g83
ssg71
g2894
sg64
(lp2901
S'wsgi.version'
p2902
asbag57
(g78
g59
NtRp2903
(dp2904
g62
(dp2905
g89
g90
ssg71
g2894
sg64
(lp2906
S':'
asbag57
(g78
g59
NtRp2907
(dp2908
g62
(dp2909
sg71
g2894
sg64
(lp2910
g57
(g58
g59
NtRp2911
(dp2912
g62
(dp2913
g70
I3
ssg71
g2907
sg64
(lp2914
S'1'
asbasbasbasbasbasbasbasbasbasbasbasbasbsS'frames'
p2915
(lp2916
(dp2917
S'file'
p2918
S'/home/monamagarwal/Downloads/web2py/gluon/restricted.py'
p2919
sS'dump'
p2920
(dp2921
S'environment'
p2922
S"{'A': <class 'gluon.html.A'>, 'Auth': <class 'gluon.tools.Auth'>, 'B': <class 'gluon.html.B'>, 'BEAUTIFY': <class 'gluon.html.BEAUTIFY'>, 'BODY': <class 'gluon.html.BODY'>, 'BR': <class 'gluon.html.BR'>, 'BUTTON': <class 'gluon.html.BUTTON'>, 'CAT': <class 'gluon.html.CAT'>, 'CENTER': <class 'gluon.html.CENTER'>, 'CLEANUP': <class 'gluon.validators.CLEANUP'>, ...}"
p2923
sS'ccode'
p2924
S'<code object <module> at 0x97ccde8, file "/home/...ons/hostel/views/default/complaint.html", line 1>'
p2925
ssS'lnum'
p2926
I205
sS'lines'
p2927
(dp2928
I200
S'    try:'
p2929
sI201
S'        if type(code) == types.CodeType:'
p2930
sI202
S'            ccode = code'
p2931
sI203
S'        else:'
p2932
sI204
S'            ccode = compile2(code,layer)'
p2933
sI205
S'        exec ccode in environment'
p2934
sI206
S'    except HTTP:'
p2935
sI207
S'        raise'
p2936
sI208
S'    except RestrictedError:'
p2937
sI209
S'        # do not encapsulate (obfuscate) the original RestrictedError'
p2938
ssS'call'
p2939
S'(code=\'response.write(\\\'<!DOCTYPE html PUBLIC "-//W3C//D...d footer -->\\\\n </body>\\\\n</html>\\\\n\\\', escape=False)\', environment={\'A\': <class \'gluon.html.A\'>, \'Auth\': <class \'gluon.tools.Auth\'>, \'B\': <class \'gluon.html.B\'>, \'BEAUTIFY\': <class \'gluon.html.BEAUTIFY\'>, \'BODY\': <class \'gluon.html.BODY\'>, \'BR\': <class \'gluon.html.BR\'>, \'BUTTON\': <class \'gluon.html.BUTTON\'>, \'CAT\': <class \'gluon.html.CAT\'>, \'CENTER\': <class \'gluon.html.CENTER\'>, \'CLEANUP\': <class \'gluon.validators.CLEANUP\'>, ...}, layer=\'/home/monamagarwal/Downloads/web2py/applications/hostel/views/default/complaint.html\')'
p2940
sS'func'
p2941
S'restricted'
p2942
sa(dp2943
g2918
S'/home/monamagarwal/Downloads/web2py/applications/hostel/views/default/complaint.html'
p2944
sg2920
(dp2945
sg2926
I31
sg2927
(dp2946
I32
S'response.write(\'\\n    <script>\\n      jQuery(document).ready(function(){jQuery(\\\'ul.web2py-menu\\\').superfish({delay:400});});\\n    </script>\\n   </div>\\n   <!-- end menu -->\\n   <!-- start page -->\\n   <div id="page">\\n    <!-- start ads -->\\n    <div id="ads">\\n     <a href="#">\\n      <img src="images/ad160x600.gif" alt="" width="160" height="600" />\\n     </a>\\n    </div>\\n    <!-- end ads -->\\n    <!-- start content -->\\n    <div id="content">\\n     <div class="flash">\', escape=False)'
p2947
sI33
S"response.write(response.flash or '')"
p2948
sI34
S"response.write('</div>\\n     ', escape=False)"
p2949
sI35
S"response.write('\\n\\n<h3>', escape=False)"
p2950
sI36
S"response.write(A('Register Complaint', _href=URL('regcomplaint')))"
p2951
sI37
S"response.write('</h3>\\n<h3>', escape=False)"
p2952
sI38
S"response.write(A('Show Complaints', _href=URL('showcomplaint')))"
p2953
sI39
S"response.write('</h3>\\n', escape=False)"
p2954
sI40
S'response.write(\'\\n    </div>\\n    <!-- end content -->\\n    <!-- start sidebar -->\\n    \\n   <!-- end page -->\\n   <!-- start footer -->\\n   <div id="footer">\\n    <p class="legal">\\n     \\xc2\\xa92007 Embouteillage. All Rights Reserved.\\n          \\xe2\\x80\\xa2  \\n        Design by\\n     <a href="http://www.freecsstemplates.org/">\\n      Free CSS Templates\\n     </a>\\n       \\xe2\\x80\\xa2  \\n        Icons by\\n     <a href="http://famfamfam.com/">\\n      FAMFAMFAM\\n     </a>\\n     .\\n    </p>\\n    <p class="links">\\n     <a href="http://validator.w3.org/check/referer" class="xhtml" title="This page validates as XHTML">\\n      Valid\\n      <abbr title="eXtensible HyperText Markup Language">\\n       XHTML\\n      </abbr>\\n     </a>\\n      \\xe2\\x80\\xa2 \\n     <a href="http://jigsaw.w3.org/css-validator/check/referer" class="css" title="This page validates as CSS">\\n      Valid\\n      <abbr title="Cascading Style Sheets">\\n       CSS\\n      </abbr>\\n     </a>\\n    </p>\\n   </div>\\n  </div>\\n  <!-- end footer -->\\n </body>\\n</html>\\n\', escape=False)'
p2955
sI22
S"response.write('\\n  <style>\\nul.web2py-menu-vertical { width: 150px; position: relative; top:1em; left:1em;  z-index:30; border:0; margin:0; padding: 0; list-style: none; text-decoration: none;}\\nul.web2py-menu-vertical li { margin:0; padding:0; border:0; width: 150px; background: black; text-align:left;}\\nul.web2py-menu-vertical li a { margin:0; padding: 1px 3px 1px 3px; border:0; width: 144px; color: white; font-size:12px;}\\ndiv.flash { position: fixed; float: right; padding: 10px; top: 10px; right: 30px; opacity: 0.75; margin: 10px 10px 10px 10px; text-align: center; clear: both; color: #fff; font-size: 11pt; text-align: center; vertical-align: middle; cursor: pointer; background: black; border: 2px solid #fff; -moz-border-radius: 5px; -webkit-border-radius: 5px; z-index: 2; }\\ndiv.error { background-color: red; color: white; padding: 3px; }\\n.auth_navbar { text-align:right; z-index:20; position: absolute; top: 2px; right:30px; border:0; padding:0; color:white }\\n  </style>\\n </head>\\n <body>\\n  <!-- start header -->\\n  ', escape=False)"
p2956
sI23
S'try:'
p2957
sI24
S"    response.write(auth.navbar(action=URL('default','user')))"
p2958
sI25
S'except:pass'
p2959
sI26
S'response.write(\'\\n\\n  <!-- start header -->\\n  <div id="wrapper">\\n   <div id="header">\\n    <div id="logo">\\n     <h1>\\n        Welcome To Hostel Portal\\n     </h1>\\n    </div>\\n    <!--<div id="search">\\n     <form id="searchform" method="get" action="">\\n      <fieldset>\\n       <input type="text" name="s" id="s" size="15" value="" />\\n       <input type="submit" id="x" value="Search" />\\n      </fieldset>\\n     </form>\\n    </div>-->\\n   </div>\\n   <!-- end header -->\\n   <!-- star menu -->\\n   <div id="menu">\\n    \', escape=False)'
p2960
sI27
S"response.write(MENU(response.menu,_class='web2py-menu'))"
p2961
sI28
S"response.write('\\n    ', escape=False)"
p2962
sI29
S"response.write(MENU(response.complaint,_class='web2py-menu'))"
p2963
sI30
S"response.write('\\n    ', escape=False)"
p2964
sI31
S"response.write(MENU(response.search,_class='web2py-menu'))"
p2965
ssg2939
S'()'
p2966
sg2941
S'<module>'
p2967
sa(dp2968
g2918
S'/home/monamagarwal/Downloads/web2py/gluon/globals.py'
p2969
sg2920
(dp2970
S'self.body.write'
p2971
S'<built-in method write of cStringIO.StringO object>'
p2972
sS'self.body'
p2973
S'<cStringIO.StringO object>'
p2974
sS'self'
p2975
S"<Storage {'body': <cStringIO.StringO object at 0...at 0x97e81b4>, 'view': 'default/complaint.html'}>"
p2976
sS'global xmlescape'
p2977
S'<function xmlescape>'
p2978
sS'data'
p2979
S'<gluon.html.MENU object>'
p2980
ssg2926
I182
sg2927
(dp2981
I177
S''
sI178
S'    def write(self, data, escape=True):'
p2982
sI179
S'        if not escape:'
p2983
sI180
S'            self.body.write(str(data))'
p2984
sI181
S'        else:'
p2985
sI182
S'            self.body.write(xmlescape(data))'
p2986
sI183
S''
sI184
S'    def render(self, *a, **b):'
p2987
sI185
S'        from compileapp import run_view_in'
p2988
sI186
S'        if len(a) > 2:'
p2989
ssg2939
S"(self=<Storage {'body': <cStringIO.StringO object at 0...at 0x97e81b4>, 'view': 'default/complaint.html'}>, data=<gluon.html.MENU object>, escape=True)"
p2990
sg2941
S'write'
p2991
sa(dp2992
g2918
S'/home/monamagarwal/Downloads/web2py/gluon/html.py'
p2993
sg2920
(dp2994
S'data'
p2995
S'<gluon.html.MENU object>'
p2996
sS'data.xml'
p2997
S'<bound method MENU.xml of <gluon.html.MENU object>>'
p2998
ssg2926
I114
sg2927
(dp2999
I109
S'    :param quote: optional (default False)'
p3000
sI110
S'    """'
p3001
sI111
S''
sI112
S'    # first try the xml function'
p3002
sI113
S"    if hasattr(data,'xml') and callable(data.xml):"
p3003
sI114
S'        return data.xml()'
p3004
sI115
S''
sI116
S'    # otherwise, make it a string'
p3005
sI117
S'    if not isinstance(data, (str, unicode)):'
p3006
sI118
S'        data = str(data)'
p3007
ssg2939
S'(data=<gluon.html.MENU object>, quote=True)'
p3008
sg2941
S'xmlescape'
p3009
sa(dp3010
g2918
S'/home/monamagarwal/Downloads/web2py/gluon/html.py'
p3011
sg2920
(dp3012
S'self.serialize'
p3013
S'<bound method MENU.serialize of <gluon.html.MENU object>>'
p3014
sS').xml'
p3015
S'undefined'
p3016
sS'self'
p3017
S'<gluon.html.MENU object>'
p3018
sS'self.data'
p3019
S'None'
p3020
ssg2926
I2146
sg2927
(dp3021
I2144
S'            return self.serialize_mobile(self.data, 0).xml()'
p3022
sI2145
S'        else:'
p3023
sI2146
S'            return self.serialize(self.data, 0).xml()'
p3024
sI2147
S''
sI2148
S''
sI2149
S'def embed64('
p3025
sI2150
S'    filename = None,'
p3026
sI2141
S''
sI2142
S'    def xml(self):'
p3027
sI2143
S"        if self['mobile']:"
p3028
ssg2939
S'(self=<gluon.html.MENU object>)'
p3029
sg2941
S'xml'
p3030
sa(dp3031
g2918
S'/home/monamagarwal/Downloads/web2py/gluon/html.py'
p3032
sg2920
(dp3033
S'item'
p3034
g3016
sS'data'
p3035
S'None'
p3036
ssg2926
I2108
sg2927
(dp3037
I2112
S"            elif 'no_link_url' in self.attributes and self['no_link_url']==link:"
p3038
sI2103
S'    def serialize(self, data, level=0):'
p3039
sI2104
S'        if level == 0:'
p3040
sI2105
S'            ul = UL(**self.attributes)'
p3041
sI2106
S'        else:'
p3042
sI2107
S"            ul = UL(_class=self['ul_class'])"
p3043
sI2108
S'        for item in data:'
p3044
sI2109
S'            (name, active, link) = item[:3]'
p3045
sI2110
S'            if isinstance(link,DIV):'
p3046
sI2111
S'                li = LI(link)'
p3047
ssg2939
S'(self=<gluon.html.MENU object>, data=None, level=0)'
p3048
sg2941
S'serialize'
p3049
sasS'pyver'
p3050
S'Python 2.6.6: /usr/bin/python'
p3051
sS'session'
p3052
g57
(g58
g59
NtRp3053
(dp3054
g62
(dp3055
sg64
(lp3056
g57
(g66
g59
NtRp3057
(dp3058
g62
(dp3059
g70
I5
ssg71
Nsg64
(lp3060
g57
(g73
g59
NtRp3061
(dp3062
g62
(dp3063
sg71
g3057
sg64
(lp3064
g57
(g78
g59
NtRp3065
(dp3066
g62
(dp3067
g82
g83
ssg71
g3061
sg64
(lp3068
S'auth'
p3069
asbag57
(g78
g59
NtRp3070
(dp3071
g62
(dp3072
g89
g90
ssg71
g3061
sg64
(lp3073
S':'
asbag57
(g78
g59
NtRp3074
(dp3075
g62
(dp3076
sg71
g3061
sg64
(lp3077
g57
(g58
g59
NtRp3078
(dp3079
g62
(dp3080
g70
I5
ssg71
g3074
sg64
(lp3081
g57
(g66
g59
NtRp3082
(dp3083
g62
(dp3084
g70
I4
ssg71
Nsg64
(lp3085
g57
(g73
g59
NtRp3086
(dp3087
g62
(dp3088
sg71
g3082
sg64
(lp3089
g57
(g78
g59
NtRp3090
(dp3091
g62
(dp3092
g82
g83
ssg71
g3086
sg64
(lp3093
S'expiration'
p3094
asbag57
(g78
g59
NtRp3095
(dp3096
g62
(dp3097
g89
g90
ssg71
g3086
sg64
(lp3098
S':'
asbag57
(g78
g59
NtRp3099
(dp3100
g62
(dp3101
sg71
g3086
sg64
(lp3102
g57
(g58
g59
NtRp3103
(dp3104
g62
(dp3105
g70
I4
ssg71
g3099
sg64
(lp3106
S'3600'
p3107
asbasbasbag57
(g73
g59
NtRp3108
(dp3109
g62
(dp3110
sg71
g3082
sg64
(lp3111
g57
(g78
g59
NtRp3112
(dp3113
g62
(dp3114
g82
g83
ssg71
g3108
sg64
(lp3115
S'hmac_key'
p3116
asbag57
(g78
g59
NtRp3117
(dp3118
g62
(dp3119
g89
g90
ssg71
g3108
sg64
(lp3120
S':'
asbag57
(g78
g59
NtRp3121
(dp3122
g62
(dp3123
sg71
g3108
sg64
(lp3124
g57
(g58
g59
NtRp3125
(dp3126
g62
(dp3127
g70
I4
ssg71
g3121
sg64
(lp3128
S'52609b61-a102-426b-b87e-eda3d8c70ffe'
p3129
asbasbasbag57
(g73
g59
NtRp3130
(dp3131
g62
(dp3132
sg71
g3082
sg64
(lp3133
g57
(g78
g59
NtRp3134
(dp3135
g62
(dp3136
g82
g83
ssg71
g3130
sg64
(lp3137
S'last_visit'
p3138
asbag57
(g78
g59
NtRp3139
(dp3140
g62
(dp3141
g89
g90
ssg71
g3130
sg64
(lp3142
S':'
asbag57
(g78
g59
NtRp3143
(dp3144
g62
(dp3145
sg71
g3130
sg64
(lp3146
g57
(g58
g59
NtRp3147
(dp3148
g62
(dp3149
g70
I4
ssg71
g3143
sg64
(lp3150
S'datetime.datetime(2012, 10, 13, 18, 59, 4, 474416)'
p3151
asbasbasbag57
(g73
g59
NtRp3152
(dp3153
g62
(dp3154
sg71
g3082
sg64
(lp3155
g57
(g78
g59
NtRp3156
(dp3157
g62
(dp3158
g82
g83
ssg71
g3152
sg64
(lp3159
S'remember'
p3160
asbag57
(g78
g59
NtRp3161
(dp3162
g62
(dp3163
g89
g90
ssg71
g3152
sg64
(lp3164
S':'
asbag57
(g78
g59
NtRp3165
(dp3166
g62
(dp3167
sg71
g3152
sg64
(lp3168
g57
(g58
g59
NtRp3169
(dp3170
g62
(dp3171
g70
I4
ssg71
g3165
sg64
(lp3172
g100
asbasbasbag57
(g73
g59
NtRp3173
(dp3174
g62
(dp3175
sg71
g3082
sg64
(lp3176
g57
(g78
g59
NtRp3177
(dp3178
g62
(dp3179
g82
g83
ssg71
g3173
sg64
(lp3180
S'user'
p3181
asbag57
(g78
g59
NtRp3182
(dp3183
g62
(dp3184
g89
g90
ssg71
g3173
sg64
(lp3185
S':'
asbag57
(g78
g59
NtRp3186
(dp3187
g62
(dp3188
sg71
g3173
sg64
(lp3189
g57
(g58
g59
NtRp3190
(dp3191
g62
(dp3192
g70
I4
ssg71
g3186
sg64
(lp3193
g57
(g66
g59
NtRp3194
(dp3195
g62
(dp3196
g70
I3
ssg71
Nsg64
(lp3197
g57
(g73
g59
NtRp3198
(dp3199
g62
(dp3200
sg71
g3194
sg64
(lp3201
g57
(g78
g59
NtRp3202
(dp3203
g62
(dp3204
g82
g83
ssg71
g3198
sg64
(lp3205
S'created_on'
p3206
asbag57
(g78
g59
NtRp3207
(dp3208
g62
(dp3209
g89
g90
ssg71
g3198
sg64
(lp3210
S':'
asbag57
(g78
g59
NtRp3211
(dp3212
g62
(dp3213
sg71
g3198
sg64
(lp3214
g57
(g58
g59
NtRp3215
(dp3216
g62
(dp3217
g70
I3
ssg71
g3211
sg64
(lp3218
S'datetime.datetime(2012, 10, 12, 2, 19, 54)'
p3219
asbasbasbag57
(g73
g59
NtRp3220
(dp3221
g62
(dp3222
sg71
g3194
sg64
(lp3223
g57
(g78
g59
NtRp3224
(dp3225
g62
(dp3226
g82
g83
ssg71
g3220
sg64
(lp3227
S'email'
p3228
asbag57
(g78
g59
NtRp3229
(dp3230
g62
(dp3231
g89
g90
ssg71
g3220
sg64
(lp3232
S':'
asbag57
(g78
g59
NtRp3233
(dp3234
g62
(dp3235
sg71
g3220
sg64
(lp3236
g57
(g58
g59
NtRp3237
(dp3238
g62
(dp3239
g70
I3
ssg71
g3233
sg64
(lp3240
S'monam.agarwal@students.iiit.ac.in'
p3241
asbasbasbag57
(g73
g59
NtRp3242
(dp3243
g62
(dp3244
sg71
g3194
sg64
(lp3245
g57
(g78
g59
NtRp3246
(dp3247
g62
(dp3248
g82
g83
ssg71
g3242
sg64
(lp3249
S'first_name'
p3250
asbag57
(g78
g59
NtRp3251
(dp3252
g62
(dp3253
g89
g90
ssg71
g3242
sg64
(lp3254
S':'
asbag57
(g78
g59
NtRp3255
(dp3256
g62
(dp3257
sg71
g3242
sg64
(lp3258
g57
(g58
g59
NtRp3259
(dp3260
g62
(dp3261
g70
I3
ssg71
g3255
sg64
(lp3262
S'monam'
p3263
asbasbasbag57
(g73
g59
NtRp3264
(dp3265
g62
(dp3266
sg71
g3194
sg64
(lp3267
g57
(g78
g59
NtRp3268
(dp3269
g62
(dp3270
g82
g83
ssg71
g3264
sg64
(lp3271
S'id'
p3272
asbag57
(g78
g59
NtRp3273
(dp3274
g62
(dp3275
g89
g90
ssg71
g3264
sg64
(lp3276
S':'
asbag57
(g78
g59
NtRp3277
(dp3278
g62
(dp3279
sg71
g3264
sg64
(lp3280
g57
(g58
g59
NtRp3281
(dp3282
g62
(dp3283
g70
I3
ssg71
g3277
sg64
(lp3284
S'12'
p3285
asbasbasbag57
(g73
g59
NtRp3286
(dp3287
g62
(dp3288
sg71
g3194
sg64
(lp3289
g57
(g78
g59
NtRp3290
(dp3291
g62
(dp3292
g82
g83
ssg71
g3286
sg64
(lp3293
S'last_name'
p3294
asbag57
(g78
g59
NtRp3295
(dp3296
g62
(dp3297
g89
g90
ssg71
g3286
sg64
(lp3298
S':'
asbag57
(g78
g59
NtRp3299
(dp3300
g62
(dp3301
sg71
g3286
sg64
(lp3302
g57
(g58
g59
NtRp3303
(dp3304
g62
(dp3305
g70
I3
ssg71
g3299
sg64
(lp3306
S'agarwal'
p3307
asbasbasbag57
(g73
g59
NtRp3308
(dp3309
g62
(dp3310
sg71
g3194
sg64
(lp3311
g57
(g78
g59
NtRp3312
(dp3313
g62
(dp3314
g82
g83
ssg71
g3308
sg64
(lp3315
S'modified_on'
p3316
asbag57
(g78
g59
NtRp3317
(dp3318
g62
(dp3319
g89
g90
ssg71
g3308
sg64
(lp3320
S':'
asbag57
(g78
g59
NtRp3321
(dp3322
g62
(dp3323
sg71
g3308
sg64
(lp3324
g57
(g58
g59
NtRp3325
(dp3326
g62
(dp3327
g70
I3
ssg71
g3321
sg64
(lp3328
S'datetime.datetime(2012, 10, 12, 2, 19, 54)'
p3329
asbasbasbag57
(g73
g59
NtRp3330
(dp3331
g62
(dp3332
sg71
g3194
sg64
(lp3333
g57
(g78
g59
NtRp3334
(dp3335
g62
(dp3336
g82
g83
ssg71
g3330
sg64
(lp3337
S'password'
p3338
asbag57
(g78
g59
NtRp3339
(dp3340
g62
(dp3341
g89
g90
ssg71
g3330
sg64
(lp3342
S':'
asbag57
(g78
g59
NtRp3343
(dp3344
g62
(dp3345
sg71
g3330
sg64
(lp3346
g57
(g58
g59
NtRp3347
(dp3348
g62
(dp3349
g70
I3
ssg71
g3343
sg64
(lp3350
S'9c6ebf6b9c51b7eea8b97cc5d05dd025'
p3351
asbasbasbag57
(g73
g59
NtRp3352
(dp3353
g62
(dp3354
sg71
g3194
sg64
(lp3355
g57
(g78
g59
NtRp3356
(dp3357
g62
(dp3358
g82
g83
ssg71
g3352
sg64
(lp3359
S'registration_id'
p3360
asbag57
(g78
g59
NtRp3361
(dp3362
g62
(dp3363
g89
g90
ssg71
g3352
sg64
(lp3364
S':'
asbag57
(g78
g59
NtRp3365
(dp3366
g62
(dp3367
sg71
g3352
sg64
(lp3368
g57
(g58
g59
NtRp3369
(dp3370
g62
(dp3371
g70
I3
ssg71
g3365
sg64
(lp3372
S''
asbasbasbag57
(g73
g59
NtRp3373
(dp3374
g62
(dp3375
sg71
g3194
sg64
(lp3376
g57
(g78
g59
NtRp3377
(dp3378
g62
(dp3379
g82
g83
ssg71
g3373
sg64
(lp3380
S'registration_key'
p3381
asbag57
(g78
g59
NtRp3382
(dp3383
g62
(dp3384
g89
g90
ssg71
g3373
sg64
(lp3385
S':'
asbag57
(g78
g59
NtRp3386
(dp3387
g62
(dp3388
sg71
g3373
sg64
(lp3389
g57
(g58
g59
NtRp3390
(dp3391
g62
(dp3392
g70
I3
ssg71
g3386
sg64
(lp3393
S''
asbasbasbag57
(g73
g59
NtRp3394
(dp3395
g62
(dp3396
sg71
g3194
sg64
(lp3397
g57
(g78
g59
NtRp3398
(dp3399
g62
(dp3400
g82
g83
ssg71
g3394
sg64
(lp3401
S'reset_password_key'
p3402
asbag57
(g78
g59
NtRp3403
(dp3404
g62
(dp3405
g89
g90
ssg71
g3394
sg64
(lp3406
S':'
asbag57
(g78
g59
NtRp3407
(dp3408
g62
(dp3409
sg71
g3394
sg64
(lp3410
g57
(g58
g59
NtRp3411
(dp3412
g62
(dp3413
g70
I3
ssg71
g3407
sg64
(lp3414
S''
asbasbasbag57
(g73
g59
NtRp3415
(dp3416
g62
(dp3417
sg71
g3194
sg64
(lp3418
g57
(g78
g59
NtRp3419
(dp3420
g62
(dp3421
g82
g83
ssg71
g3415
sg64
(lp3422
S'username'
p3423
asbag57
(g78
g59
NtRp3424
(dp3425
g62
(dp3426
g89
g90
ssg71
g3415
sg64
(lp3427
S':'
asbag57
(g78
g59
NtRp3428
(dp3429
g62
(dp3430
sg71
g3415
sg64
(lp3431
g57
(g58
g59
NtRp3432
(dp3433
g62
(dp3434
g70
I3
ssg71
g3428
sg64
(lp3435
S'monam.agarwal'
p3436
asbasbasbasbasbasbasbag57
(g73
g59
NtRp3437
(dp3438
g62
(dp3439
sg71
g3082
sg64
(lp3440
g57
(g78
g59
NtRp3441
(dp3442
g62
(dp3443
g82
g83
ssg71
g3437
sg64
(lp3444
S'user_groups'
p3445
asbag57
(g78
g59
NtRp3446
(dp3447
g62
(dp3448
g89
g90
ssg71
g3437
sg64
(lp3449
S':'
asbag57
(g78
g59
NtRp3450
(dp3451
g62
(dp3452
sg71
g3437
sg64
(lp3453
g57
(g58
g59
NtRp3454
(dp3455
g62
(dp3456
g70
I4
ssg71
g3450
sg64
(lp3457
g57
(g66
g59
NtRp3458
(dp3459
g62
(dp3460
g70
I3
ssg71
Nsg64
(lp3461
g57
(g73
g59
NtRp3462
(dp3463
g62
(dp3464
sg71
g3458
sg64
(lp3465
g57
(g78
g59
NtRp3466
(dp3467
g62
(dp3468
g82
g83
ssg71
g3462
sg64
(lp3469
S'2'
asbag57
(g78
g59
NtRp3470
(dp3471
g62
(dp3472
g89
g90
ssg71
g3462
sg64
(lp3473
S':'
asbag57
(g78
g59
NtRp3474
(dp3475
g62
(dp3476
sg71
g3462
sg64
(lp3477
g57
(g58
g59
NtRp3478
(dp3479
g62
(dp3480
g70
I3
ssg71
g3474
sg64
(lp3481
S'user_12'
p3482
asbasbasbasbasbasbasbasbasbasbasbasbasbsS'etype'
p3483
S"<type 'exceptions.TypeError'>"
p3484
sS'date'
p3485
S'Sat Oct 13 19:00:02 2012'
p3486
sS'response'
p3487
g57
(g58
g59
NtRp3488
(dp3489
g62
(dp3490
sg64
(lp3491
g57
(g66
g59
NtRp3492
(dp3493
g62
(dp3494
g70
I5
ssg71
Nsg64
(lp3495
g57
(g73
g59
NtRp3496
(dp3497
g62
(dp3498
sg71
g3492
sg64
(lp3499
g57
(g78
g59
NtRp3500
(dp3501
g62
(dp3502
g82
g83
ssg71
g3496
sg64
(lp3503
g155
asbag57
(g78
g59
NtRp3504
(dp3505
g62
(dp3506
g89
g90
ssg71
g3496
sg64
(lp3507
S':'
asbag57
(g78
g59
NtRp3508
(dp3509
g62
(dp3510
sg71
g3496
sg64
(lp3511
g57
(g58
g59
NtRp3512
(dp3513
g62
(dp3514
g70
I5
ssg71
g3508
sg64
(lp3515
S'<cStringIO.StringO object at 0x98b8760>'
p3516
asbasbasbag57
(g73
g59
NtRp3517
(dp3518
g62
(dp3519
sg71
g3492
sg64
(lp3520
g57
(g78
g59
NtRp3521
(dp3522
g62
(dp3523
g82
g83
ssg71
g3517
sg64
(lp3524
S'complaint'
p3525
asbag57
(g78
g59
NtRp3526
(dp3527
g62
(dp3528
g89
g90
ssg71
g3517
sg64
(lp3529
S':'
asbag57
(g78
g59
NtRp3530
(dp3531
g62
(dp3532
sg71
g3517
sg64
(lp3533
g57
(g58
g59
NtRp3534
(dp3535
g62
(dp3536
g70
I5
ssg71
g3530
sg64
(lp3537
g57
(g66
g59
NtRp3538
(dp3539
g62
(dp3540
g70
I4
ssg71
Nsg64
(lp3541
g57
(g73
g59
NtRp3542
(dp3543
g62
(dp3544
sg71
g3538
sg64
(lp3545
g57
(g78
g59
NtRp3546
(dp3547
g62
(dp3548
sg71
g3542
sg64
(lp3549
g57
(g58
g59
NtRp3550
(dp3551
g62
(dp3552
g70
I4
ssg71
g3546
sg64
(lp3553
g57
(g66
g59
NtRp3554
(dp3555
g62
(dp3556
g70
I3
ssg71
Nsg64
(lp3557
g57
(g73
g59
NtRp3558
(dp3559
g62
(dp3560
sg71
g3554
sg64
(lp3561
g57
(g78
g59
NtRp3562
(dp3563
g62
(dp3564
sg71
g3558
sg64
(lp3565
g57
(g58
g59
NtRp3566
(dp3567
g62
(dp3568
g70
I3
ssg71
g3562
sg64
(lp3569
cgluon.languages
lazyT_unpickle
p3570
(S's\t\x00\x00\x00COMPLAINT'
tRp3571
asbasbasbag57
(g73
g59
NtRp3572
(dp3573
g62
(dp3574
sg71
g3554
sg64
(lp3575
g57
(g78
g59
NtRp3576
(dp3577
g62
(dp3578
sg71
g3572
sg64
(lp3579
g57
(g58
g59
NtRp3580
(dp3581
g62
(dp3582
g70
I3
ssg71
g3576
sg64
(lp3583
g100
asbasbasbag57
(g73
g59
NtRp3584
(dp3585
g62
(dp3586
sg71
g3554
sg64
(lp3587
g57
(g78
g59
NtRp3588
(dp3589
g62
(dp3590
sg71
g3584
sg64
(lp3591
g57
(g58
g59
NtRp3592
(dp3593
g62
(dp3594
g70
I3
ssg71
g3588
sg64
(lp3595
S'/hostel/default/complaint'
p3596
asbasbasbag57
(g73
g59
NtRp3597
(dp3598
g62
(dp3599
sg71
g3554
sg64
(lp3600
g57
(g78
g59
NtRp3601
(dp3602
g62
(dp3603
sg71
g3597
sg64
(lp3604
g57
(g58
g59
NtRp3605
(dp3606
g62
(dp3607
g70
I3
ssg71
g3601
sg64
(lp3608
g57
(g66
g59
NtRp3609
(dp3610
g62
(dp3611
g70
I2
ssg71
Nsg64
(lp3612
sbasbasbasbasbasbasbasbasbasbasbasbag57
(g73
g59
NtRp3613
(dp3614
g62
(dp3615
sg71
g3492
sg64
(lp3616
g57
(g78
g59
NtRp3617
(dp3618
g62
(dp3619
g82
g83
ssg71
g3613
sg64
(lp3620
g221
asbag57
(g78
g59
NtRp3621
(dp3622
g62
(dp3623
g89
g90
ssg71
g3613
sg64
(lp3624
S':'
asbag57
(g78
g59
NtRp3625
(dp3626
g62
(dp3627
sg71
g3613
sg64
(lp3628
g57
(g58
g59
NtRp3629
(dp3630
g62
(dp3631
g70
I5
ssg71
g3625
sg64
(lp3632
g57
(g66
g59
NtRp3633
(dp3634
g62
(dp3635
g70
I4
ssg71
Nsg64
(lp3636
g57
(g73
g59
NtRp3637
(dp3638
g62
(dp3639
sg71
g3633
sg64
(lp3640
g57
(g78
g59
NtRp3641
(dp3642
g62
(dp3643
g82
g83
ssg71
g3637
sg64
(lp3644
S'session_id_hostel'
p3645
asbag57
(g78
g59
NtRp3646
(dp3647
g62
(dp3648
g89
g90
ssg71
g3637
sg64
(lp3649
S':'
asbag57
(g78
g59
NtRp3650
(dp3651
g62
(dp3652
sg71
g3637
sg64
(lp3653
g57
(g58
g59
NtRp3654
(dp3655
g62
(dp3656
g70
I4
ssg71
g3650
sg64
(lp3657
g57
(g66
g59
NtRp3658
(dp3659
g62
(dp3660
g70
I3
ssg71
Nsg64
(lp3661
g57
(g73
g59
NtRp3662
(dp3663
g62
(dp3664
sg71
g3658
sg64
(lp3665
g57
(g78
g59
NtRp3666
(dp3667
g62
(dp3668
g82
g83
ssg71
g3662
sg64
(lp3669
g271
asbag57
(g78
g59
NtRp3670
(dp3671
g62
(dp3672
g89
g90
ssg71
g3662
sg64
(lp3673
S':'
asbag57
(g78
g59
NtRp3674
(dp3675
g62
(dp3676
sg71
g3662
sg64
(lp3677
g57
(g58
g59
NtRp3678
(dp3679
g62
(dp3680
g70
I3
ssg71
g3674
sg64
(lp3681
S''
asbasbasbag57
(g73
g59
NtRp3682
(dp3683
g62
(dp3684
sg71
g3658
sg64
(lp3685
g57
(g78
g59
NtRp3686
(dp3687
g62
(dp3688
g82
g83
ssg71
g3682
sg64
(lp3689
g292
asbag57
(g78
g59
NtRp3690
(dp3691
g62
(dp3692
g89
g90
ssg71
g3682
sg64
(lp3693
S':'
asbag57
(g78
g59
NtRp3694
(dp3695
g62
(dp3696
sg71
g3682
sg64
(lp3697
g57
(g58
g59
NtRp3698
(dp3699
g62
(dp3700
g70
I3
ssg71
g3694
sg64
(lp3701
S''
asbasbasbag57
(g73
g59
NtRp3702
(dp3703
g62
(dp3704
sg71
g3658
sg64
(lp3705
g57
(g78
g59
NtRp3706
(dp3707
g62
(dp3708
g82
g83
ssg71
g3702
sg64
(lp3709
g313
asbag57
(g78
g59
NtRp3710
(dp3711
g62
(dp3712
g89
g90
ssg71
g3702
sg64
(lp3713
S':'
asbag57
(g78
g59
NtRp3714
(dp3715
g62
(dp3716
sg71
g3702
sg64
(lp3717
g57
(g58
g59
NtRp3718
(dp3719
g62
(dp3720
g70
I3
ssg71
g3714
sg64
(lp3721
S''
asbasbasbag57
(g73
g59
NtRp3722
(dp3723
g62
(dp3724
sg71
g3658
sg64
(lp3725
g57
(g78
g59
NtRp3726
(dp3727
g62
(dp3728
g82
g83
ssg71
g3722
sg64
(lp3729
g334
asbag57
(g78
g59
NtRp3730
(dp3731
g62
(dp3732
g89
g90
ssg71
g3722
sg64
(lp3733
S':'
asbag57
(g78
g59
NtRp3734
(dp3735
g62
(dp3736
sg71
g3722
sg64
(lp3737
g57
(g58
g59
NtRp3738
(dp3739
g62
(dp3740
g70
I3
ssg71
g3734
sg64
(lp3741
S''
asbasbasbag57
(g73
g59
NtRp3742
(dp3743
g62
(dp3744
sg71
g3658
sg64
(lp3745
g57
(g78
g59
NtRp3746
(dp3747
g62
(dp3748
g82
g83
ssg71
g3742
sg64
(lp3749
g355
asbag57
(g78
g59
NtRp3750
(dp3751
g62
(dp3752
g89
g90
ssg71
g3742
sg64
(lp3753
S':'
asbag57
(g78
g59
NtRp3754
(dp3755
g62
(dp3756
sg71
g3742
sg64
(lp3757
g57
(g58
g59
NtRp3758
(dp3759
g62
(dp3760
g70
I3
ssg71
g3754
sg64
(lp3761
S''
asbasbasbag57
(g73
g59
NtRp3762
(dp3763
g62
(dp3764
sg71
g3658
sg64
(lp3765
g57
(g78
g59
NtRp3766
(dp3767
g62
(dp3768
g82
g83
ssg71
g3762
sg64
(lp3769
g376
asbag57
(g78
g59
NtRp3770
(dp3771
g62
(dp3772
g89
g90
ssg71
g3762
sg64
(lp3773
S':'
asbag57
(g78
g59
NtRp3774
(dp3775
g62
(dp3776
sg71
g3762
sg64
(lp3777
g57
(g58
g59
NtRp3778
(dp3779
g62
(dp3780
g70
I3
ssg71
g3774
sg64
(lp3781
S'/'
asbasbasbag57
(g73
g59
NtRp3782
(dp3783
g62
(dp3784
sg71
g3658
sg64
(lp3785
g57
(g78
g59
NtRp3786
(dp3787
g62
(dp3788
g82
g83
ssg71
g3782
sg64
(lp3789
g397
asbag57
(g78
g59
NtRp3790
(dp3791
g62
(dp3792
g89
g90
ssg71
g3782
sg64
(lp3793
S':'
asbag57
(g78
g59
NtRp3794
(dp3795
g62
(dp3796
sg71
g3782
sg64
(lp3797
g57
(g58
g59
NtRp3798
(dp3799
g62
(dp3800
g70
I3
ssg71
g3794
sg64
(lp3801
S''
asbasbasbag57
(g73
g59
NtRp3802
(dp3803
g62
(dp3804
sg71
g3658
sg64
(lp3805
g57
(g78
g59
NtRp3806
(dp3807
g62
(dp3808
g82
g83
ssg71
g3802
sg64
(lp3809
g418
asbag57
(g78
g59
NtRp3810
(dp3811
g62
(dp3812
g89
g90
ssg71
g3802
sg64
(lp3813
S':'
asbag57
(g78
g59
NtRp3814
(dp3815
g62
(dp3816
sg71
g3802
sg64
(lp3817
g57
(g58
g59
NtRp3818
(dp3819
g62
(dp3820
g70
I3
ssg71
g3814
sg64
(lp3821
S''
asbasbasbasbasbasbasbasbasbasbasbag57
(g73
g59
NtRp3822
(dp3823
g62
(dp3824
sg71
g3492
sg64
(lp3825
g57
(g78
g59
NtRp3826
(dp3827
g62
(dp3828
g82
g83
ssg71
g3822
sg64
(lp3829
S'delimiters'
p3830
asbag57
(g78
g59
NtRp3831
(dp3832
g62
(dp3833
g89
g90
ssg71
g3822
sg64
(lp3834
S':'
asbag57
(g78
g59
NtRp3835
(dp3836
g62
(dp3837
sg71
g3822
sg64
(lp3838
g57
(g58
g59
NtRp3839
(dp3840
g62
(dp3841
g70
I5
ssg71
g3835
sg64
(lp3842
g57
(g66
g59
NtRp3843
(dp3844
g62
(dp3845
g70
I4
ssg71
Nsg64
(lp3846
g57
(g73
g59
NtRp3847
(dp3848
g62
(dp3849
sg71
g3843
sg64
(lp3850
g57
(g78
g59
NtRp3851
(dp3852
g62
(dp3853
sg71
g3847
sg64
(lp3854
g57
(g58
g59
NtRp3855
(dp3856
g62
(dp3857
g70
I4
ssg71
g3851
sg64
(lp3858
S'{{'
p3859
asbasbasbag57
(g73
g59
NtRp3860
(dp3861
g62
(dp3862
sg71
g3843
sg64
(lp3863
g57
(g78
g59
NtRp3864
(dp3865
g62
(dp3866
sg71
g3860
sg64
(lp3867
g57
(g58
g59
NtRp3868
(dp3869
g62
(dp3870
g70
I4
ssg71
g3864
sg64
(lp3871
S'}}'
p3872
asbasbasbasbasbasbasbag57
(g73
g59
NtRp3873
(dp3874
g62
(dp3875
sg71
g3492
sg64
(lp3876
g57
(g78
g59
NtRp3877
(dp3878
g62
(dp3879
g82
g83
ssg71
g3873
sg64
(lp3880
S'files'
p3881
asbag57
(g78
g59
NtRp3882
(dp3883
g62
(dp3884
g89
g90
ssg71
g3873
sg64
(lp3885
S':'
asbag57
(g78
g59
NtRp3886
(dp3887
g62
(dp3888
sg71
g3873
sg64
(lp3889
g57
(g58
g59
NtRp3890
(dp3891
g62
(dp3892
g70
I5
ssg71
g3886
sg64
(lp3893
g57
(g66
g59
NtRp3894
(dp3895
g62
(dp3896
g70
I4
ssg71
Nsg64
(lp3897
g57
(g73
g59
NtRp3898
(dp3899
g62
(dp3900
sg71
g3894
sg64
(lp3901
g57
(g78
g59
NtRp3902
(dp3903
g62
(dp3904
sg71
g3898
sg64
(lp3905
g57
(g58
g59
NtRp3906
(dp3907
g62
(dp3908
g70
I4
ssg71
g3902
sg64
(lp3909
S'/hostel/static/js/jquery.js'
p3910
asbasbasbag57
(g73
g59
NtRp3911
(dp3912
g62
(dp3913
sg71
g3894
sg64
(lp3914
g57
(g78
g59
NtRp3915
(dp3916
g62
(dp3917
sg71
g3911
sg64
(lp3918
g57
(g58
g59
NtRp3919
(dp3920
g62
(dp3921
g70
I4
ssg71
g3915
sg64
(lp3922
S'/hostel/static/css/calendar.css'
p3923
asbasbasbag57
(g73
g59
NtRp3924
(dp3925
g62
(dp3926
sg71
g3894
sg64
(lp3927
g57
(g78
g59
NtRp3928
(dp3929
g62
(dp3930
sg71
g3924
sg64
(lp3931
g57
(g58
g59
NtRp3932
(dp3933
g62
(dp3934
g70
I4
ssg71
g3928
sg64
(lp3935
S'/hostel/static/js/calendar.js'
p3936
asbasbasbag57
(g73
g59
NtRp3937
(dp3938
g62
(dp3939
sg71
g3894
sg64
(lp3940
g57
(g78
g59
NtRp3941
(dp3942
g62
(dp3943
sg71
g3937
sg64
(lp3944
g57
(g58
g59
NtRp3945
(dp3946
g62
(dp3947
g70
I4
ssg71
g3941
sg64
(lp3948
S'/hostel/static/js/web2py.js'
p3949
asbasbasbag57
(g73
g59
NtRp3950
(dp3951
g62
(dp3952
sg71
g3894
sg64
(lp3953
g57
(g78
g59
NtRp3954
(dp3955
g62
(dp3956
sg71
g3950
sg64
(lp3957
g57
(g58
g59
NtRp3958
(dp3959
g62
(dp3960
g70
I4
ssg71
g3954
sg64
(lp3961
S'/hostel/static/plugin_layouts/layouts/Embouteillage/default.css'
p3962
asbasbasbag57
(g73
g59
NtRp3963
(dp3964
g62
(dp3965
sg71
g3894
sg64
(lp3966
g57
(g78
g59
NtRp3967
(dp3968
g62
(dp3969
sg71
g3963
sg64
(lp3970
g57
(g58
g59
NtRp3971
(dp3972
g62
(dp3973
g70
I4
ssg71
g3967
sg64
(lp3974
S'/hostel/static/plugin_layouts/superfish.js'
p3975
asbasbasbasbasbasbasbag57
(g73
g59
NtRp3976
(dp3977
g62
(dp3978
sg71
g3492
sg64
(lp3979
g57
(g78
g59
NtRp3980
(dp3981
g62
(dp3982
g82
g83
ssg71
g3976
sg64
(lp3983
S'flash'
p3984
asbag57
(g78
g59
NtRp3985
(dp3986
g62
(dp3987
g89
g90
ssg71
g3976
sg64
(lp3988
S':'
asbag57
(g78
g59
NtRp3989
(dp3990
g62
(dp3991
sg71
g3976
sg64
(lp3992
g57
(g58
g59
NtRp3993
(dp3994
g62
(dp3995
g70
I5
ssg71
g3989
sg64
(lp3996
S''
asbasbasbag57
(g73
g59
NtRp3997
(dp3998
g62
(dp3999
sg71
g3492
sg64
(lp4000
g57
(g78
g59
NtRp4001
(dp4002
g62
(dp4003
g82
g83
ssg71
g3997
sg64
(lp4004
S'generic_patterns'
p4005
asbag57
(g78
g59
NtRp4006
(dp4007
g62
(dp4008
g89
g90
ssg71
g3997
sg64
(lp4009
S':'
asbag57
(g78
g59
NtRp4010
(dp4011
g62
(dp4012
sg71
g3997
sg64
(lp4013
g57
(g58
g59
NtRp4014
(dp4015
g62
(dp4016
g70
I5
ssg71
g4010
sg64
(lp4017
g57
(g66
g59
NtRp4018
(dp4019
g62
(dp4020
g70
I4
ssg71
Nsg64
(lp4021
g57
(g73
g59
NtRp4022
(dp4023
g62
(dp4024
sg71
g4018
sg64
(lp4025
g57
(g78
g59
NtRp4026
(dp4027
g62
(dp4028
sg71
g4022
sg64
(lp4029
g57
(g58
g59
NtRp4030
(dp4031
g62
(dp4032
g70
I4
ssg71
g4026
sg64
(lp4033
S'*'
asbasbasbasbasbasbasbag57
(g73
g59
NtRp4034
(dp4035
g62
(dp4036
sg71
g3492
sg64
(lp4037
g57
(g78
g59
NtRp4038
(dp4039
g62
(dp4040
g82
g83
ssg71
g4034
sg64
(lp4041
S'headers'
p4042
asbag57
(g78
g59
NtRp4043
(dp4044
g62
(dp4045
g89
g90
ssg71
g4034
sg64
(lp4046
S':'
asbag57
(g78
g59
NtRp4047
(dp4048
g62
(dp4049
sg71
g4034
sg64
(lp4050
g57
(g58
g59
NtRp4051
(dp4052
g62
(dp4053
g70
I5
ssg71
g4047
sg64
(lp4054
g57
(g66
g59
NtRp4055
(dp4056
g62
(dp4057
g70
I4
ssg71
Nsg64
(lp4058
g57
(g73
g59
NtRp4059
(dp4060
g62
(dp4061
sg71
g4055
sg64
(lp4062
g57
(g78
g59
NtRp4063
(dp4064
g62
(dp4065
g82
g83
ssg71
g4059
sg64
(lp4066
S'Cache-Control'
p4067
asbag57
(g78
g59
NtRp4068
(dp4069
g62
(dp4070
g89
g90
ssg71
g4059
sg64
(lp4071
S':'
asbag57
(g78
g59
NtRp4072
(dp4073
g62
(dp4074
sg71
g4059
sg64
(lp4075
g57
(g58
g59
NtRp4076
(dp4077
g62
(dp4078
g70
I4
ssg71
g4072
sg64
(lp4079
S'no-store, no-cache, must-revalidate, post-check=0, pre-check=0'
p4080
asbasbasbag57
(g73
g59
NtRp4081
(dp4082
g62
(dp4083
sg71
g4055
sg64
(lp4084
g57
(g78
g59
NtRp4085
(dp4086
g62
(dp4087
g82
g83
ssg71
g4081
sg64
(lp4088
S'Content-Type'
p4089
asbag57
(g78
g59
NtRp4090
(dp4091
g62
(dp4092
g89
g90
ssg71
g4081
sg64
(lp4093
S':'
asbag57
(g78
g59
NtRp4094
(dp4095
g62
(dp4096
sg71
g4081
sg64
(lp4097
g57
(g58
g59
NtRp4098
(dp4099
g62
(dp4100
g70
I4
ssg71
g4094
sg64
(lp4101
S'text/html; charset=utf-8'
p4102
asbasbasbag57
(g73
g59
NtRp4103
(dp4104
g62
(dp4105
sg71
g4055
sg64
(lp4106
g57
(g78
g59
NtRp4107
(dp4108
g62
(dp4109
g82
g83
ssg71
g4103
sg64
(lp4110
S'Expires'
p4111
asbag57
(g78
g59
NtRp4112
(dp4113
g62
(dp4114
g89
g90
ssg71
g4103
sg64
(lp4115
S':'
asbag57
(g78
g59
NtRp4116
(dp4117
g62
(dp4118
sg71
g4103
sg64
(lp4119
g57
(g58
g59
NtRp4120
(dp4121
g62
(dp4122
g70
I4
ssg71
g4116
sg64
(lp4123
S'Sat, 13 Oct 2012 13:30:02 GMT'
p4124
asbasbasbag57
(g73
g59
NtRp4125
(dp4126
g62
(dp4127
sg71
g4055
sg64
(lp4128
g57
(g78
g59
NtRp4129
(dp4130
g62
(dp4131
g82
g83
ssg71
g4125
sg64
(lp4132
S'Pragma'
p4133
asbag57
(g78
g59
NtRp4134
(dp4135
g62
(dp4136
g89
g90
ssg71
g4125
sg64
(lp4137
S':'
asbag57
(g78
g59
NtRp4138
(dp4139
g62
(dp4140
sg71
g4125
sg64
(lp4141
g57
(g58
g59
NtRp4142
(dp4143
g62
(dp4144
g70
I4
ssg71
g4138
sg64
(lp4145
S'no-cache'
p4146
asbasbasbag57
(g73
g59
NtRp4147
(dp4148
g62
(dp4149
sg71
g4055
sg64
(lp4150
g57
(g78
g59
NtRp4151
(dp4152
g62
(dp4153
g82
g83
ssg71
g4147
sg64
(lp4154
S'X-Powered-By'
p4155
asbag57
(g78
g59
NtRp4156
(dp4157
g62
(dp4158
g89
g90
ssg71
g4147
sg64
(lp4159
S':'
asbag57
(g78
g59
NtRp4160
(dp4161
g62
(dp4162
sg71
g4147
sg64
(lp4163
g57
(g58
g59
NtRp4164
(dp4165
g62
(dp4166
g70
I4
ssg71
g4160
sg64
(lp4167
S'web2py'
p4168
asbasbasbasbasbasbasbag57
(g73
g59
NtRp4169
(dp4170
g62
(dp4171
sg71
g3492
sg64
(lp4172
g57
(g78
g59
NtRp4173
(dp4174
g62
(dp4175
g82
g83
ssg71
g4169
sg64
(lp4176
S'menu'
p4177
asbag57
(g78
g59
NtRp4178
(dp4179
g62
(dp4180
g89
g90
ssg71
g4169
sg64
(lp4181
S':'
asbag57
(g78
g59
NtRp4182
(dp4183
g62
(dp4184
sg71
g4169
sg64
(lp4185
g57
(g58
g59
NtRp4186
(dp4187
g62
(dp4188
g70
I5
ssg71
g4182
sg64
(lp4189
g57
(g66
g59
NtRp4190
(dp4191
g62
(dp4192
g70
I4
ssg71
Nsg64
(lp4193
g57
(g73
g59
NtRp4194
(dp4195
g62
(dp4196
sg71
g4190
sg64
(lp4197
g57
(g78
g59
NtRp4198
(dp4199
g62
(dp4200
sg71
g4194
sg64
(lp4201
g57
(g58
g59
NtRp4202
(dp4203
g62
(dp4204
g70
I4
ssg71
g4198
sg64
(lp4205
g57
(g66
g59
NtRp4206
(dp4207
g62
(dp4208
g70
I3
ssg71
Nsg64
(lp4209
g57
(g73
g59
NtRp4210
(dp4211
g62
(dp4212
sg71
g4206
sg64
(lp4213
g57
(g78
g59
NtRp4214
(dp4215
g62
(dp4216
sg71
g4210
sg64
(lp4217
g57
(g58
g59
NtRp4218
(dp4219
g62
(dp4220
g70
I3
ssg71
g4214
sg64
(lp4221
g3570
(S's\x04\x00\x00\x00HOME'
tRp4222
asbasbasbag57
(g73
g59
NtRp4223
(dp4224
g62
(dp4225
sg71
g4206
sg64
(lp4226
g57
(g78
g59
NtRp4227
(dp4228
g62
(dp4229
sg71
g4223
sg64
(lp4230
g57
(g58
g59
NtRp4231
(dp4232
g62
(dp4233
g70
I3
ssg71
g4227
sg64
(lp4234
g100
asbasbasbag57
(g73
g59
NtRp4235
(dp4236
g62
(dp4237
sg71
g4206
sg64
(lp4238
g57
(g78
g59
NtRp4239
(dp4240
g62
(dp4241
sg71
g4235
sg64
(lp4242
g57
(g58
g59
NtRp4243
(dp4244
g62
(dp4245
g70
I3
ssg71
g4239
sg64
(lp4246
S'/hostel/default/index'
p4247
asbasbasbag57
(g73
g59
NtRp4248
(dp4249
g62
(dp4250
sg71
g4206
sg64
(lp4251
g57
(g78
g59
NtRp4252
(dp4253
g62
(dp4254
sg71
g4248
sg64
(lp4255
g57
(g58
g59
NtRp4256
(dp4257
g62
(dp4258
g70
I3
ssg71
g4252
sg64
(lp4259
g57
(g66
g59
NtRp4260
(dp4261
g62
(dp4262
g70
I2
ssg71
Nsg64
(lp4263
sbasbasbasbasbasbasbasbasbasbasbasbag57
(g73
g59
NtRp4264
(dp4265
g62
(dp4266
sg71
g3492
sg64
(lp4267
g57
(g78
g59
NtRp4268
(dp4269
g62
(dp4270
g82
g83
ssg71
g4264
sg64
(lp4271
S'meta'
p4272
asbag57
(g78
g59
NtRp4273
(dp4274
g62
(dp4275
g89
g90
ssg71
g4264
sg64
(lp4276
S':'
asbag57
(g78
g59
NtRp4277
(dp4278
g62
(dp4279
sg71
g4264
sg64
(lp4280
g57
(g58
g59
NtRp4281
(dp4282
g62
(dp4283
g70
I5
ssg71
g4277
sg64
(lp4284
g57
(g66
g59
NtRp4285
(dp4286
g62
(dp4287
g70
I4
ssg71
Nsg64
(lp4288
g57
(g73
g59
NtRp4289
(dp4290
g62
(dp4291
sg71
g4285
sg64
(lp4292
g57
(g78
g59
NtRp4293
(dp4294
g62
(dp4295
g82
g83
ssg71
g4289
sg64
(lp4296
S'author'
p4297
asbag57
(g78
g59
NtRp4298
(dp4299
g62
(dp4300
g89
g90
ssg71
g4289
sg64
(lp4301
S':'
asbag57
(g78
g59
NtRp4302
(dp4303
g62
(dp4304
sg71
g4289
sg64
(lp4305
g57
(g58
g59
NtRp4306
(dp4307
g62
(dp4308
g70
I4
ssg71
g4302
sg64
(lp4309
S'you <you@example.com>'
p4310
asbasbasbag57
(g73
g59
NtRp4311
(dp4312
g62
(dp4313
sg71
g4285
sg64
(lp4314
g57
(g78
g59
NtRp4315
(dp4316
g62
(dp4317
g82
g83
ssg71
g4311
sg64
(lp4318
S'description'
p4319
asbag57
(g78
g59
NtRp4320
(dp4321
g62
(dp4322
g89
g90
ssg71
g4311
sg64
(lp4323
S':'
asbag57
(g78
g59
NtRp4324
(dp4325
g62
(dp4326
sg71
g4311
sg64
(lp4327
g57
(g58
g59
NtRp4328
(dp4329
g62
(dp4330
g70
I4
ssg71
g4324
sg64
(lp4331
S''
asbasbasbag57
(g73
g59
NtRp4332
(dp4333
g62
(dp4334
sg71
g4285
sg64
(lp4335
g57
(g78
g59
NtRp4336
(dp4337
g62
(dp4338
g82
g83
ssg71
g4332
sg64
(lp4339
S'keywords'
p4340
asbag57
(g78
g59
NtRp4341
(dp4342
g62
(dp4343
g89
g90
ssg71
g4332
sg64
(lp4344
S':'
asbag57
(g78
g59
NtRp4345
(dp4346
g62
(dp4347
sg71
g4332
sg64
(lp4348
g57
(g58
g59
NtRp4349
(dp4350
g62
(dp4351
g70
I4
ssg71
g4345
sg64
(lp4352
S''
asbasbasbasbasbasbasbag57
(g73
g59
NtRp4353
(dp4354
g62
(dp4355
sg71
g3492
sg64
(lp4356
g57
(g78
g59
NtRp4357
(dp4358
g62
(dp4359
g82
g83
ssg71
g4353
sg64
(lp4360
S'postprocessing'
p4361
asbag57
(g78
g59
NtRp4362
(dp4363
g62
(dp4364
g89
g90
ssg71
g4353
sg64
(lp4365
S':'
asbag57
(g78
g59
NtRp4366
(dp4367
g62
(dp4368
sg71
g4353
sg64
(lp4369
g57
(g58
g59
NtRp4370
(dp4371
g62
(dp4372
g70
I5
ssg71
g4366
sg64
(lp4373
g57
(g66
g59
NtRp4374
(dp4375
g62
(dp4376
g70
I4
ssg71
Nsg64
(lp4377
sbasbasbasbag57
(g73
g59
NtRp4378
(dp4379
g62
(dp4380
sg71
g3492
sg64
(lp4381
g57
(g78
g59
NtRp4382
(dp4383
g62
(dp4384
g82
g83
ssg71
g4378
sg64
(lp4385
S'session_file'
p4386
asbag57
(g78
g59
NtRp4387
(dp4388
g62
(dp4389
g89
g90
ssg71
g4378
sg64
(lp4390
S':'
asbag57
(g78
g59
NtRp4391
(dp4392
g62
(dp4393
sg71
g4378
sg64
(lp4394
g57
(g58
g59
NtRp4395
(dp4396
g62
(dp4397
g70
I5
ssg71
g4391
sg64
(lp4398
S"<open file '/home/monamagarwal/Downloads/web2py/applications/hostel/sessions/127.0.0.1-2d0a97ae-d2e8-48d1-80db-916cc4428565', mode 'rb+' at 0x97dde38>"
p4399
asbasbasbag57
(g73
g59
NtRp4400
(dp4401
g62
(dp4402
sg71
g3492
sg64
(lp4403
g57
(g78
g59
NtRp4404
(dp4405
g62
(dp4406
g82
g83
ssg71
g4400
sg64
(lp4407
S'session_filename'
p4408
asbag57
(g78
g59
NtRp4409
(dp4410
g62
(dp4411
g89
g90
ssg71
g4400
sg64
(lp4412
S':'
asbag57
(g78
g59
NtRp4413
(dp4414
g62
(dp4415
sg71
g4400
sg64
(lp4416
g57
(g58
g59
NtRp4417
(dp4418
g62
(dp4419
g70
I5
ssg71
g4413
sg64
(lp4420
S'/home/monamagarwal/Downloads/web2py/applications/hostel/sessions/127.0.0.1-2d0a97ae-d2e8-48d1-80db-916cc4428565'
p4421
asbasbasbag57
(g73
g59
NtRp4422
(dp4423
g62
(dp4424
sg71
g3492
sg64
(lp4425
g57
(g78
g59
NtRp4426
(dp4427
g62
(dp4428
g82
g83
ssg71
g4422
sg64
(lp4429
S'session_id'
p4430
asbag57
(g78
g59
NtRp4431
(dp4432
g62
(dp4433
g89
g90
ssg71
g4422
sg64
(lp4434
S':'
asbag57
(g78
g59
NtRp4435
(dp4436
g62
(dp4437
sg71
g4422
sg64
(lp4438
g57
(g58
g59
NtRp4439
(dp4440
g62
(dp4441
g70
I5
ssg71
g4435
sg64
(lp4442
S'127.0.0.1-2d0a97ae-d2e8-48d1-80db-916cc4428565'
p4443
asbasbasbag57
(g73
g59
NtRp4444
(dp4445
g62
(dp4446
sg71
g3492
sg64
(lp4447
g57
(g78
g59
NtRp4448
(dp4449
g62
(dp4450
g82
g83
ssg71
g4444
sg64
(lp4451
S'session_id_name'
p4452
asbag57
(g78
g59
NtRp4453
(dp4454
g62
(dp4455
g89
g90
ssg71
g4444
sg64
(lp4456
S':'
asbag57
(g78
g59
NtRp4457
(dp4458
g62
(dp4459
sg71
g4444
sg64
(lp4460
g57
(g58
g59
NtRp4461
(dp4462
g62
(dp4463
g70
I5
ssg71
g4457
sg64
(lp4464
g3645
asbasbasbag57
(g73
g59
NtRp4465
(dp4466
g62
(dp4467
sg71
g3492
sg64
(lp4468
g57
(g78
g59
NtRp4469
(dp4470
g62
(dp4471
g82
g83
ssg71
g4465
sg64
(lp4472
S'session_locked'
p4473
asbag57
(g78
g59
NtRp4474
(dp4475
g62
(dp4476
g89
g90
ssg71
g4465
sg64
(lp4477
S':'
asbag57
(g78
g59
NtRp4478
(dp4479
g62
(dp4480
sg71
g4465
sg64
(lp4481
g57
(g58
g59
NtRp4482
(dp4483
g62
(dp4484
g70
I5
ssg71
g4478
sg64
(lp4485
g1634
asbasbasbag57
(g73
g59
NtRp4486
(dp4487
g62
(dp4488
sg71
g3492
sg64
(lp4489
g57
(g78
g59
NtRp4490
(dp4491
g62
(dp4492
g82
g83
ssg71
g4486
sg64
(lp4493
S'session_new'
p4494
asbag57
(g78
g59
NtRp4495
(dp4496
g62
(dp4497
g89
g90
ssg71
g4486
sg64
(lp4498
S':'
asbag57
(g78
g59
NtRp4499
(dp4500
g62
(dp4501
sg71
g4486
sg64
(lp4502
g57
(g58
g59
NtRp4503
(dp4504
g62
(dp4505
g70
I5
ssg71
g4499
sg64
(lp4506
g100
asbasbasbag57
(g73
g59
NtRp4507
(dp4508
g62
(dp4509
sg71
g3492
sg64
(lp4510
g57
(g78
g59
NtRp4511
(dp4512
g62
(dp4513
g82
g83
ssg71
g4507
sg64
(lp4514
S'status'
p4515
asbag57
(g78
g59
NtRp4516
(dp4517
g62
(dp4518
g89
g90
ssg71
g4507
sg64
(lp4519
S':'
asbag57
(g78
g59
NtRp4520
(dp4521
g62
(dp4522
sg71
g4507
sg64
(lp4523
g57
(g58
g59
NtRp4524
(dp4525
g62
(dp4526
g70
I5
ssg71
g4520
sg64
(lp4527
S'200'
p4528
asbasbasbag57
(g73
g59
NtRp4529
(dp4530
g62
(dp4531
sg71
g3492
sg64
(lp4532
g57
(g78
g59
NtRp4533
(dp4534
g62
(dp4535
g82
g83
ssg71
g4529
sg64
(lp4536
S'subtitle'
p4537
asbag57
(g78
g59
NtRp4538
(dp4539
g62
(dp4540
g89
g90
ssg71
g4529
sg64
(lp4541
S':'
asbag57
(g78
g59
NtRp4542
(dp4543
g62
(dp4544
sg71
g4529
sg64
(lp4545
g57
(g58
g59
NtRp4546
(dp4547
g62
(dp4548
g70
I5
ssg71
g4542
sg64
(lp4549
S'powered by web2py'
p4550
asbasbasbag57
(g73
g59
NtRp4551
(dp4552
g62
(dp4553
sg71
g3492
sg64
(lp4554
g57
(g78
g59
NtRp4555
(dp4556
g62
(dp4557
g82
g83
ssg71
g4551
sg64
(lp4558
S'title'
p4559
asbag57
(g78
g59
NtRp4560
(dp4561
g62
(dp4562
g89
g90
ssg71
g4551
sg64
(lp4563
S':'
asbag57
(g78
g59
NtRp4564
(dp4565
g62
(dp4566
sg71
g4551
sg64
(lp4567
g57
(g58
g59
NtRp4568
(dp4569
g62
(dp4570
g70
I5
ssg71
g4564
sg64
(lp4571
S'My New App'
p4572
asbasbasbag57
(g73
g59
NtRp4573
(dp4574
g62
(dp4575
sg71
g3492
sg64
(lp4576
g57
(g78
g59
NtRp4577
(dp4578
g62
(dp4579
g82
g83
ssg71
g4573
sg64
(lp4580
g2298
asbag57
(g78
g59
NtRp4581
(dp4582
g62
(dp4583
g89
g90
ssg71
g4573
sg64
(lp4584
S':'
asbag57
(g78
g59
NtRp4585
(dp4586
g62
(dp4587
sg71
g4573
sg64
(lp4588
g57
(g58
g59
NtRp4589
(dp4590
g62
(dp4591
g70
I5
ssg71
g4585
sg64
(lp4592
g2311
asbasbasbag57
(g73
g59
NtRp4593
(dp4594
g62
(dp4595
sg71
g3492
sg64
(lp4596
g57
(g78
g59
NtRp4597
(dp4598
g62
(dp4599
g82
g83
ssg71
g4593
sg64
(lp4600
S'view'
p4601
asbag57
(g78
g59
NtRp4602
(dp4603
g62
(dp4604
g89
g90
ssg71
g4593
sg64
(lp4605
S':'
asbag57
(g78
g59
NtRp4606
(dp4607
g62
(dp4608
sg71
g4593
sg64
(lp4609
g57
(g58
g59
NtRp4610
(dp4611
g62
(dp4612
g70
I5
ssg71
g4606
sg64
(lp4613
S'default/complaint.html'
p4614
asbasbasbasbasbsS'locals'
p4615
(dp4616
S'ul'
p4617
S'<gluon.html.UL object>'
p4618
sS'self'
p4619
S'<gluon.html.MENU object>'
p4620
sS'data'
p4621
S'None'
p4622
sg70
S'0'
sssS'traceback'
p4623
S'Traceback (most recent call last):\n  File "/home/monamagarwal/Downloads/web2py/gluon/restricted.py", line 205, in restricted\n    exec ccode in environment\n  File "/home/monamagarwal/Downloads/web2py/applications/hostel/views/default/complaint.html", line 31, in <module>\n  File "/home/monamagarwal/Downloads/web2py/gluon/globals.py", line 182, in write\n    self.body.write(xmlescape(data))\n  File "/home/monamagarwal/Downloads/web2py/gluon/html.py", line 114, in xmlescape\n    return data.xml()\n  File "/home/monamagarwal/Downloads/web2py/gluon/html.py", line 2146, in xml\n    return self.serialize(self.data, 0).xml()\n  File "/home/monamagarwal/Downloads/web2py/gluon/html.py", line 2108, in serialize\n    for item in data:\nTypeError: \'NoneType\' object is not iterable\n'
p4624
s.