(dp1
S'output'
p2
S"<type 'exceptions.IndexError'> list index out of range"
p3
sS'layer'
p4
S'C:\\Users\\bhanu\\Downloads\\Compressed\\web2py\\applications\\hostel\\controllers/default.py'
p5
sS'code'
p6
S'# -*- coding: utf-8 -*-\n### required - do no delete\n\ndef user(): return dict(form=auth())\ndef download(): return response.download(request,db)\ndef call(): return service()\n### end requires\n@auth.requires_login()\n\ndef poll():\n    return dict()\n\ndef sr():\n    l=len(request.args)\n    db.poll.insert(question=request.args(0),options_no=l-1)\n    q=db(db.poll.question==request.args[0]).select(db.poll.ALL)\n    pid=q[0].id\n    for i in range(1,l):    \n        db.options.insert(option=request.args(i),qid=pid)\n    session.flash="New Poll Created"\n    redirect(URL(r=request,f=\'index\'))\n    return dict()\ndef index():\n    session.flash=response.flash\n    a=db(auth.user_id==db.auth_membership.user_id).select(db.auth_membership.ALL)\n    if a[0].group_id==5:\n        redirect(URL(r=request,f=\'student\'))\n    if a[0].group_id==6:\n        redirect(URL(r=request,f=\'staff\'))\n    if a[0].group_id==7:\n        redirect(URL(r=request,f=\'puser\'))\n    if a[0].group_id==8:\n        redirect(URL(r=request,f=\'admin\'))    \n  \ndef add_news_feed():\n    form=SQLFORM(db.news_feed);\n    if form.accepts(request.vars,session):\n        session.flash="Newsfeed Added"\n        redirect(URL(r=request,f=\'index\'))\n    return dict(form=form)\n      \n\ndef student():\n    newsfeed=db().select(db.news_feed.ALL,orderby=~db.news_feed.id)\n    return dict(newsfeed=newsfeed)\n\n   \ndef staff():\n    return dict()\n \ndef one(): \n    return dict()\n\ndef puser():  \n    newsfeed=db().select(db.news_feed.ALL,orderby=~db.news_feed.id)\n    polls=db().select(db.poll.ALL,orderby=~db.poll.id)\n    return dict(newsfeed=newsfeed,polls=polls)\n\ndef admin():\n    return dict()   \n         \ndef error():\n    return dict()\n    \nimport datetime\nimport time\ndef enter_laptop_details():\n    form=SQLFORM(db.laptop)\n    if form.accepts(request.vars,session):\n        session.flash = T(\'laptop details entered\')\n        redirect(URL(r=request,f=\'index\'))\n\n    return dict(form=form)\ndef laptop_out_details():\n    form=SQLFORM(db.laptop_out)\n    if form.accepts(request.vars,session):\n        session.flash="Laptop Details Entered"\n        redirect(URL(r=request,f=\'show_laptop_details\',args=form.vars.roll_no))\n    return dict(form=form)\ndef student_out_details():\n    form=SQLFORM(db.student_out)\n    if form.accepts(request.vars,session):\n        session.flash="student Details Entered"\n        if form.vars.laptop_presence=="present":\n            db.laptop_out.insert(roll_no=form.vars.roll_no,reason="outside campus")\n            redirect(URL(r=request,f=\'show_laptop_details\',args=form.vars.roll_no))\n        else:\n            redirect(URL(r=request,f=\'index\'))\n    return dict(form=form)\ndef show_laptop_details():\n    i=request.args\n    \n    laptop=db(db.laptop.roll_no==i[0]).select(db.laptop.ALL)\n    if not laptop:\n        session.flash="No Record Found Enter Details"\n        redirect(URL(r=request,f= enter_laptop_details))\n    name=db(db.students.roll_no==i[0]).select(db.students.name)\n    return dict(form=laptop)\n    \ndef regcomplaint():\n    now = time.localtime(time.time())\n    year, month, day, hour, minute, second, weekday, yearday, daylight = now\n    \n    db.complaint.User.default=auth.user.username\n    db.complaint.Date.default=datetime.datetime.today()\n    db.complaint.Time.default="%02d:%02d:%02d" % (hour, minute, second)\n    db.complaint.Flag.default=1\n    form = SQLFORM(db.complaint)\n    if form.process().accepted:\n        response.flash = \'your complaint is registered\'\n        redirect(URL(r=request,f=\'index\'))\n    return dict(form=form)\n@auth.requires_login()\ndef complaint():\n    return dict()\ndef showcomplaint():\n    return dict()\ndef viewprivate():\n    query=(db.complaint.User==auth.user.username) & (db.complaint.Flag==1)\n    set=db(query)\n    complaints=set.select()\n    return dict(complaints=complaints)\ndef delcomplaint():\n    remove = db(db.complaint.id==request.args(0)).delete()\n    if remove:\n        response.flash=\'complaint deleted succesfully\'\n        redirect(URL(\'viewprivate\'))\n    else:\n        response.flash=\'image deletion failed\'\ndef viewpublic():\n    query=(db.complaint.access!="Private") & (db.complaint.Flag!=0)\n    set=db(query)\n    complaints=set.select()\n    return dict(complaints=complaints)\ndef metcomplaint():\n    db(db.complaint.id==request.args(0)).update(Flag=0)\n    response.flash=\'Removed the complaint succesfully\'\n    redirect(URL(\'viewprivate\'))\ndef search():\n    return dict()\ndef byname():\n    return dict()\ndef byroll():\n    return dict()\ndef byroom():\n    return dict()\ndef searchbyroll():\n    roll=request.vars.roll\n    query=(db.students.roll_no==roll)\n    set=db(query)\n    result=set.select()\n    return dict(result=result)\n\ndef searchbyroom():\n    room=request.vars.room\n    query=(db.students.room_no==room)\n    set=db(query)\n    result=set.select()\n    return dict(result=result)\n\ndef searchbyname():\n    name=request.vars.name.lower()\n    query=db.students.name.lower().startswith(name)\n    set=db(query)\n    result=set.select()\n    return dict(result=result)\n\ndef viewprofile():\n    query=(db.students.roll_no==request.args(0))\n    set=db(query)\n    prof=set.select()\n    return dict(prof=prof)\n\nresponse._vars=response._caller(index)\n'
p7
sS'snapshot'
p8
(dp9
S'exception'
p10
(dp11
S'__hash__'
p12
S"<method-wrapper '__hash__' of exceptions.IndexError object at 0x06BBADA0>"
p13
sS'__setattr__'
p14
S"<method-wrapper '__setattr__' of exceptions.IndexError object at 0x06BBADA0>"
p15
sS'__reduce_ex__'
p16
S'<built-in method __reduce_ex__ of exceptions.IndexError object at 0x06BBADA0>'
p17
sS'__getslice__'
p18
S"<method-wrapper '__getslice__' of exceptions.IndexError object at 0x06BBADA0>"
p19
sS'__getitem__'
p20
S"<method-wrapper '__getitem__' of exceptions.IndexError object at 0x06BBADA0>"
p21
sS'__setstate__'
p22
S'<built-in method __setstate__ of exceptions.IndexError object at 0x06BBADA0>'
p23
sS'__reduce__'
p24
S'<built-in method __reduce__ of exceptions.IndexError object at 0x06BBADA0>'
p25
sS'__str__'
p26
S"<method-wrapper '__str__' of exceptions.IndexError object at 0x06BBADA0>"
p27
sS'args'
p28
S"('list index out of range',)"
p29
sS'__getattribute__'
p30
S"<method-wrapper '__getattribute__' of exceptions.IndexError object at 0x06BBADA0>"
p31
sS'__class__'
p32
S"<type 'exceptions.IndexError'>"
p33
sS'__delattr__'
p34
S"<method-wrapper '__delattr__' of exceptions.IndexError object at 0x06BBADA0>"
p35
sS'__repr__'
p36
S"<method-wrapper '__repr__' of exceptions.IndexError object at 0x06BBADA0>"
p37
sS'__dict__'
p38
S'{}'
p39
sS'__doc__'
p40
S"'Sequence index out of range.'"
p41
sS'__init__'
p42
S"<method-wrapper '__init__' of exceptions.IndexError object at 0x06BBADA0>"
p43
sS'__new__'
p44
S'<built-in method __new__ of type object at 0x1E1CDEF0>'
p45
ssS'evalue'
p46
S'list index out of range'
p47
sS'request'
p48
ccopy_reg
_reconstructor
p49
(cgluon.html
BEAUTIFY
p50
c__builtin__
object
p51
NtRp52
(dp53
S'attributes'
p54
(dp55
sS'components'
p56
(lp57
g49
(cgluon.html
TABLE
p58
g51
NtRp59
(dp60
g54
(dp61
S'level'
p62
I5
ssS'parent'
p63
Nsg56
(lp64
g49
(cgluon.html
TR
p65
g51
NtRp66
(dp67
g54
(dp68
sg63
g59
sg56
(lp69
g49
(cgluon.html
TD
p70
g51
NtRp71
(dp72
g54
(dp73
S'_style'
p74
S'font-weight:bold;vertical-align:top'
p75
ssg63
g66
sg56
(lp76
S'ajax'
p77
asbag49
(g70
g51
NtRp78
(dp79
g54
(dp80
S'_valign'
p81
S'top'
p82
ssg63
g66
sg56
(lp83
S':'
asbag49
(g70
g51
NtRp84
(dp85
g54
(dp86
sg63
g66
sg56
(lp87
g49
(g50
g51
NtRp88
(dp89
g54
(dp90
g62
I5
ssg63
g84
sg56
(lp91
S'False'
p92
asbasbasbag49
(g65
g51
NtRp93
(dp94
g54
(dp95
sg63
g59
sg56
(lp96
g49
(g70
g51
NtRp97
(dp98
g54
(dp99
g74
g75
ssg63
g93
sg56
(lp100
S'application'
p101
asbag49
(g70
g51
NtRp102
(dp103
g54
(dp104
g81
g82
ssg63
g93
sg56
(lp105
S':'
asbag49
(g70
g51
NtRp106
(dp107
g54
(dp108
sg63
g93
sg56
(lp109
g49
(g50
g51
NtRp110
(dp111
g54
(dp112
g62
I5
ssg63
g106
sg56
(lp113
S'hostel'
p114
asbasbasbag49
(g65
g51
NtRp115
(dp116
g54
(dp117
sg63
g59
sg56
(lp118
g49
(g70
g51
NtRp119
(dp120
g54
(dp121
g74
g75
ssg63
g115
sg56
(lp122
g28
asbag49
(g70
g51
NtRp123
(dp124
g54
(dp125
g81
g82
ssg63
g115
sg56
(lp126
S':'
asbag49
(g70
g51
NtRp127
(dp128
g54
(dp129
sg63
g115
sg56
(lp130
g49
(g50
g51
NtRp131
(dp132
g54
(dp133
g62
I5
ssg63
g127
sg56
(lp134
g49
(g58
g51
NtRp135
(dp136
g54
(dp137
g62
I4
ssg63
Nsg56
(lp138
sbasbasbasbag49
(g65
g51
NtRp139
(dp140
g54
(dp141
sg63
g59
sg56
(lp142
g49
(g70
g51
NtRp143
(dp144
g54
(dp145
g74
g75
ssg63
g139
sg56
(lp146
S'body'
p147
asbag49
(g70
g51
NtRp148
(dp149
g54
(dp150
g81
g82
ssg63
g139
sg56
(lp151
S':'
asbag49
(g70
g51
NtRp152
(dp153
g54
(dp154
sg63
g139
sg56
(lp155
g49
(g50
g51
NtRp156
(dp157
g54
(dp158
g62
I5
ssg63
g152
sg56
(lp159
S'<cStringIO.StringO object at 0x032E5520>'
p160
asbasbasbag49
(g65
g51
NtRp161
(dp162
g54
(dp163
sg63
g59
sg56
(lp164
g49
(g70
g51
NtRp165
(dp166
g54
(dp167
g74
g75
ssg63
g161
sg56
(lp168
S'client'
p169
asbag49
(g70
g51
NtRp170
(dp171
g54
(dp172
g81
g82
ssg63
g161
sg56
(lp173
S':'
asbag49
(g70
g51
NtRp174
(dp175
g54
(dp176
sg63
g161
sg56
(lp177
g49
(g50
g51
NtRp178
(dp179
g54
(dp180
g62
I5
ssg63
g174
sg56
(lp181
S'127.0.0.1'
p182
asbasbasbag49
(g65
g51
NtRp183
(dp184
g54
(dp185
sg63
g59
sg56
(lp186
g49
(g70
g51
NtRp187
(dp188
g54
(dp189
g74
g75
ssg63
g183
sg56
(lp190
S'controller'
p191
asbag49
(g70
g51
NtRp192
(dp193
g54
(dp194
g81
g82
ssg63
g183
sg56
(lp195
S':'
asbag49
(g70
g51
NtRp196
(dp197
g54
(dp198
sg63
g183
sg56
(lp199
g49
(g50
g51
NtRp200
(dp201
g54
(dp202
g62
I5
ssg63
g196
sg56
(lp203
S'default'
p204
asbasbasbag49
(g65
g51
NtRp205
(dp206
g54
(dp207
sg63
g59
sg56
(lp208
g49
(g70
g51
NtRp209
(dp210
g54
(dp211
g74
g75
ssg63
g205
sg56
(lp212
S'cookies'
p213
asbag49
(g70
g51
NtRp214
(dp215
g54
(dp216
g81
g82
ssg63
g205
sg56
(lp217
S':'
asbag49
(g70
g51
NtRp218
(dp219
g54
(dp220
sg63
g205
sg56
(lp221
g49
(g50
g51
NtRp222
(dp223
g54
(dp224
g62
I5
ssg63
g218
sg56
(lp225
g49
(g58
g51
NtRp226
(dp227
g54
(dp228
g62
I4
ssg63
Nsg56
(lp229
g49
(g65
g51
NtRp230
(dp231
g54
(dp232
sg63
g226
sg56
(lp233
g49
(g70
g51
NtRp234
(dp235
g54
(dp236
g74
g75
ssg63
g230
sg56
(lp237
S'session_id_welcome'
p238
asbag49
(g70
g51
NtRp239
(dp240
g54
(dp241
g81
g82
ssg63
g230
sg56
(lp242
S':'
asbag49
(g70
g51
NtRp243
(dp244
g54
(dp245
sg63
g230
sg56
(lp246
g49
(g50
g51
NtRp247
(dp248
g54
(dp249
g62
I4
ssg63
g243
sg56
(lp250
g49
(g58
g51
NtRp251
(dp252
g54
(dp253
g62
I3
ssg63
Nsg56
(lp254
g49
(g65
g51
NtRp255
(dp256
g54
(dp257
sg63
g251
sg56
(lp258
g49
(g70
g51
NtRp259
(dp260
g54
(dp261
g74
g75
ssg63
g255
sg56
(lp262
S'comment'
p263
asbag49
(g70
g51
NtRp264
(dp265
g54
(dp266
g81
g82
ssg63
g255
sg56
(lp267
S':'
asbag49
(g70
g51
NtRp268
(dp269
g54
(dp270
sg63
g255
sg56
(lp271
g49
(g50
g51
NtRp272
(dp273
g54
(dp274
g62
I3
ssg63
g268
sg56
(lp275
S''
asbasbasbag49
(g65
g51
NtRp276
(dp277
g54
(dp278
sg63
g251
sg56
(lp279
g49
(g70
g51
NtRp280
(dp281
g54
(dp282
g74
g75
ssg63
g276
sg56
(lp283
S'domain'
p284
asbag49
(g70
g51
NtRp285
(dp286
g54
(dp287
g81
g82
ssg63
g276
sg56
(lp288
S':'
asbag49
(g70
g51
NtRp289
(dp290
g54
(dp291
sg63
g276
sg56
(lp292
g49
(g50
g51
NtRp293
(dp294
g54
(dp295
g62
I3
ssg63
g289
sg56
(lp296
S''
asbasbasbag49
(g65
g51
NtRp297
(dp298
g54
(dp299
sg63
g251
sg56
(lp300
g49
(g70
g51
NtRp301
(dp302
g54
(dp303
g74
g75
ssg63
g297
sg56
(lp304
S'expires'
p305
asbag49
(g70
g51
NtRp306
(dp307
g54
(dp308
g81
g82
ssg63
g297
sg56
(lp309
S':'
asbag49
(g70
g51
NtRp310
(dp311
g54
(dp312
sg63
g297
sg56
(lp313
g49
(g50
g51
NtRp314
(dp315
g54
(dp316
g62
I3
ssg63
g310
sg56
(lp317
S''
asbasbasbag49
(g65
g51
NtRp318
(dp319
g54
(dp320
sg63
g251
sg56
(lp321
g49
(g70
g51
NtRp322
(dp323
g54
(dp324
g74
g75
ssg63
g318
sg56
(lp325
S'max-age'
p326
asbag49
(g70
g51
NtRp327
(dp328
g54
(dp329
g81
g82
ssg63
g318
sg56
(lp330
S':'
asbag49
(g70
g51
NtRp331
(dp332
g54
(dp333
sg63
g318
sg56
(lp334
g49
(g50
g51
NtRp335
(dp336
g54
(dp337
g62
I3
ssg63
g331
sg56
(lp338
S''
asbasbasbag49
(g65
g51
NtRp339
(dp340
g54
(dp341
sg63
g251
sg56
(lp342
g49
(g70
g51
NtRp343
(dp344
g54
(dp345
g74
g75
ssg63
g339
sg56
(lp346
S'path'
p347
asbag49
(g70
g51
NtRp348
(dp349
g54
(dp350
g81
g82
ssg63
g339
sg56
(lp351
S':'
asbag49
(g70
g51
NtRp352
(dp353
g54
(dp354
sg63
g339
sg56
(lp355
g49
(g50
g51
NtRp356
(dp357
g54
(dp358
g62
I3
ssg63
g352
sg56
(lp359
S''
asbasbasbag49
(g65
g51
NtRp360
(dp361
g54
(dp362
sg63
g251
sg56
(lp363
g49
(g70
g51
NtRp364
(dp365
g54
(dp366
g74
g75
ssg63
g360
sg56
(lp367
S'secure'
p368
asbag49
(g70
g51
NtRp369
(dp370
g54
(dp371
g81
g82
ssg63
g360
sg56
(lp372
S':'
asbag49
(g70
g51
NtRp373
(dp374
g54
(dp375
sg63
g360
sg56
(lp376
g49
(g50
g51
NtRp377
(dp378
g54
(dp379
g62
I3
ssg63
g373
sg56
(lp380
S''
asbasbasbag49
(g65
g51
NtRp381
(dp382
g54
(dp383
sg63
g251
sg56
(lp384
g49
(g70
g51
NtRp385
(dp386
g54
(dp387
g74
g75
ssg63
g381
sg56
(lp388
S'version'
p389
asbag49
(g70
g51
NtRp390
(dp391
g54
(dp392
g81
g82
ssg63
g381
sg56
(lp393
S':'
asbag49
(g70
g51
NtRp394
(dp395
g54
(dp396
sg63
g381
sg56
(lp397
g49
(g50
g51
NtRp398
(dp399
g54
(dp400
g62
I3
ssg63
g394
sg56
(lp401
S''
asbasbasbasbasbasbasbasbasbasbasbag49
(g65
g51
NtRp402
(dp403
g54
(dp404
sg63
g59
sg56
(lp405
g49
(g70
g51
NtRp406
(dp407
g54
(dp408
g74
g75
ssg63
g402
sg56
(lp409
S'env'
p410
asbag49
(g70
g51
NtRp411
(dp412
g54
(dp413
g81
g82
ssg63
g402
sg56
(lp414
S':'
asbag49
(g70
g51
NtRp415
(dp416
g54
(dp417
sg63
g402
sg56
(lp418
g49
(g50
g51
NtRp419
(dp420
g54
(dp421
g62
I5
ssg63
g415
sg56
(lp422
g49
(g58
g51
NtRp423
(dp424
g54
(dp425
g62
I4
ssg63
Nsg56
(lp426
g49
(g65
g51
NtRp427
(dp428
g54
(dp429
sg63
g423
sg56
(lp430
g49
(g70
g51
NtRp431
(dp432
g54
(dp433
g74
g75
ssg63
g427
sg56
(lp434
S'app_folders'
p435
asbag49
(g70
g51
NtRp436
(dp437
g54
(dp438
g81
g82
ssg63
g427
sg56
(lp439
S':'
asbag49
(g70
g51
NtRp440
(dp441
g54
(dp442
sg63
g427
sg56
(lp443
g49
(g50
g51
NtRp444
(dp445
g54
(dp446
g62
I4
ssg63
g440
sg56
(lp447
S"set(['C:\\\\Users\\\\bhanu\\\\Downloads\\\\Compressed\\\\web2py\\\\applications\\\\hostel\\\\', 'C:\\\\Users\\\\bhanu\\\\Downloads\\\\Compressed\\\\web2py\\\\applications\\\\welcome\\\\'])"
p448
asbasbasbag49
(g65
g51
NtRp449
(dp450
g54
(dp451
sg63
g423
sg56
(lp452
g49
(g70
g51
NtRp453
(dp454
g54
(dp455
g74
g75
ssg63
g449
sg56
(lp456
S'applications_parent'
p457
asbag49
(g70
g51
NtRp458
(dp459
g54
(dp460
g81
g82
ssg63
g449
sg56
(lp461
S':'
asbag49
(g70
g51
NtRp462
(dp463
g54
(dp464
sg63
g449
sg56
(lp465
g49
(g50
g51
NtRp466
(dp467
g54
(dp468
g62
I4
ssg63
g462
sg56
(lp469
S'C:\\Users\\bhanu\\Downloads\\Compressed\\web2py'
p470
asbasbasbag49
(g65
g51
NtRp471
(dp472
g54
(dp473
sg63
g423
sg56
(lp474
g49
(g70
g51
NtRp475
(dp476
g54
(dp477
g74
g75
ssg63
g471
sg56
(lp478
S'cmd_args'
p479
asbag49
(g70
g51
NtRp480
(dp481
g54
(dp482
g81
g82
ssg63
g471
sg56
(lp483
S':'
asbag49
(g70
g51
NtRp484
(dp485
g54
(dp486
sg63
g471
sg56
(lp487
g49
(g50
g51
NtRp488
(dp489
g54
(dp490
g62
I4
ssg63
g484
sg56
(lp491
g49
(g58
g51
NtRp492
(dp493
g54
(dp494
g62
I3
ssg63
Nsg56
(lp495
sbasbasbasbag49
(g65
g51
NtRp496
(dp497
g54
(dp498
sg63
g423
sg56
(lp499
g49
(g70
g51
NtRp500
(dp501
g54
(dp502
g74
g75
ssg63
g496
sg56
(lp503
S'cmd_options'
p504
asbag49
(g70
g51
NtRp505
(dp506
g54
(dp507
g81
g82
ssg63
g496
sg56
(lp508
S':'
asbag49
(g70
g51
NtRp509
(dp510
g54
(dp511
sg63
g496
sg56
(lp512
g49
(g50
g51
NtRp513
(dp514
g54
(dp515
g62
I4
ssg63
g509
sg56
(lp516
S"<Values at 0x3121f58: {'verbose': False, 'ip': '127.0.0.1', 'shutdown_timeout': 5, 'taskbar': False, 'nocron': False, 'pid_filename': 'httpserver.pid', 'maxthreads': None, 'softcron': False, 'server_name': 'bhanu-PC', 'bpython': False, 'nogui': False, 'port': 8000, 'extcron': False, 'debuglevel': 30, 'test': None, 'folder': 'C:\\\\Users\\\\bhanu\\\\Downloads\\\\Compressed\\\\web2py', 'config': '', 'import_models': False, 'winservice': '', 'shell': None, 'run': '', 'log_filename': 'httpserver.log', 'args': [''], 'socket_timeout': 5, 'ssl_ca_certificate': None, 'scheduler': None, 'profiler_filename': None, 'ssl_private_key': '', 'password': '<ask>', 'request_queue_size': 5, 'ssl_certificate': '', 'cronjob': False, 'numthreads': None, 'quiet': False, 'interfaces': None, 'minthreads': None, 'timeout': 10, 'plain': False, 'nobanner': False}>"
p517
asbasbasbag49
(g65
g51
NtRp518
(dp519
g54
(dp520
sg63
g423
sg56
(lp521
g49
(g70
g51
NtRp522
(dp523
g54
(dp524
g74
g75
ssg63
g518
sg56
(lp525
S'db_sessions'
p526
asbag49
(g70
g51
NtRp527
(dp528
g54
(dp529
g81
g82
ssg63
g518
sg56
(lp530
S':'
asbag49
(g70
g51
NtRp531
(dp532
g54
(dp533
sg63
g518
sg56
(lp534
g49
(g50
g51
NtRp535
(dp536
g54
(dp537
g62
I4
ssg63
g531
sg56
(lp538
S'set([])'
p539
asbasbasbag49
(g65
g51
NtRp540
(dp541
g54
(dp542
sg63
g423
sg56
(lp543
g49
(g70
g51
NtRp544
(dp545
g54
(dp546
g74
g75
ssg63
g540
sg56
(lp547
S'debugging'
p548
asbag49
(g70
g51
NtRp549
(dp550
g54
(dp551
g81
g82
ssg63
g540
sg56
(lp552
S':'
asbag49
(g70
g51
NtRp553
(dp554
g54
(dp555
sg63
g540
sg56
(lp556
g49
(g50
g51
NtRp557
(dp558
g54
(dp559
g62
I4
ssg63
g553
sg56
(lp560
g92
asbasbasbag49
(g65
g51
NtRp561
(dp562
g54
(dp563
sg63
g423
sg56
(lp564
g49
(g70
g51
NtRp565
(dp566
g54
(dp567
g74
g75
ssg63
g561
sg56
(lp568
S'gluon_parent'
p569
asbag49
(g70
g51
NtRp570
(dp571
g54
(dp572
g81
g82
ssg63
g561
sg56
(lp573
S':'
asbag49
(g70
g51
NtRp574
(dp575
g54
(dp576
sg63
g561
sg56
(lp577
g49
(g50
g51
NtRp578
(dp579
g54
(dp580
g62
I4
ssg63
g574
sg56
(lp581
S'C:\\Users\\bhanu\\Downloads\\Compressed\\web2py'
p582
asbasbasbag49
(g65
g51
NtRp583
(dp584
g54
(dp585
sg63
g423
sg56
(lp586
g49
(g70
g51
NtRp587
(dp588
g54
(dp589
g74
g75
ssg63
g583
sg56
(lp590
S'http_accept'
p591
asbag49
(g70
g51
NtRp592
(dp593
g54
(dp594
g81
g82
ssg63
g583
sg56
(lp595
S':'
asbag49
(g70
g51
NtRp596
(dp597
g54
(dp598
sg63
g583
sg56
(lp599
g49
(g50
g51
NtRp600
(dp601
g54
(dp602
g62
I4
ssg63
g596
sg56
(lp603
S'text/html,application/xhtml+xml,application/xml;q=0.9,*/*;q=0.8'
p604
asbasbasbag49
(g65
g51
NtRp605
(dp606
g54
(dp607
sg63
g423
sg56
(lp608
g49
(g70
g51
NtRp609
(dp610
g54
(dp611
g74
g75
ssg63
g605
sg56
(lp612
S'http_accept_charset'
p613
asbag49
(g70
g51
NtRp614
(dp615
g54
(dp616
g81
g82
ssg63
g605
sg56
(lp617
S':'
asbag49
(g70
g51
NtRp618
(dp619
g54
(dp620
sg63
g605
sg56
(lp621
g49
(g50
g51
NtRp622
(dp623
g54
(dp624
g62
I4
ssg63
g618
sg56
(lp625
S'ISO-8859-1,utf-8;q=0.7,*;q=0.3'
p626
asbasbasbag49
(g65
g51
NtRp627
(dp628
g54
(dp629
sg63
g423
sg56
(lp630
g49
(g70
g51
NtRp631
(dp632
g54
(dp633
g74
g75
ssg63
g627
sg56
(lp634
S'http_accept_encoding'
p635
asbag49
(g70
g51
NtRp636
(dp637
g54
(dp638
g81
g82
ssg63
g627
sg56
(lp639
S':'
asbag49
(g70
g51
NtRp640
(dp641
g54
(dp642
sg63
g627
sg56
(lp643
g49
(g50
g51
NtRp644
(dp645
g54
(dp646
g62
I4
ssg63
g640
sg56
(lp647
S'gzip,deflate,sdch'
p648
asbasbasbag49
(g65
g51
NtRp649
(dp650
g54
(dp651
sg63
g423
sg56
(lp652
g49
(g70
g51
NtRp653
(dp654
g54
(dp655
g74
g75
ssg63
g649
sg56
(lp656
S'http_accept_language'
p657
asbag49
(g70
g51
NtRp658
(dp659
g54
(dp660
g81
g82
ssg63
g649
sg56
(lp661
S':'
asbag49
(g70
g51
NtRp662
(dp663
g54
(dp664
sg63
g649
sg56
(lp665
g49
(g50
g51
NtRp666
(dp667
g54
(dp668
g62
I4
ssg63
g662
sg56
(lp669
S'en-US,en;q=0.8'
p670
asbasbasbag49
(g65
g51
NtRp671
(dp672
g54
(dp673
sg63
g423
sg56
(lp674
g49
(g70
g51
NtRp675
(dp676
g54
(dp677
g74
g75
ssg63
g671
sg56
(lp678
S'http_connection'
p679
asbag49
(g70
g51
NtRp680
(dp681
g54
(dp682
g81
g82
ssg63
g671
sg56
(lp683
S':'
asbag49
(g70
g51
NtRp684
(dp685
g54
(dp686
sg63
g671
sg56
(lp687
g49
(g50
g51
NtRp688
(dp689
g54
(dp690
g62
I4
ssg63
g684
sg56
(lp691
S'keep-alive'
p692
asbasbasbag49
(g65
g51
NtRp693
(dp694
g54
(dp695
sg63
g423
sg56
(lp696
g49
(g70
g51
NtRp697
(dp698
g54
(dp699
g74
g75
ssg63
g693
sg56
(lp700
S'http_cookie'
p701
asbag49
(g70
g51
NtRp702
(dp703
g54
(dp704
g81
g82
ssg63
g693
sg56
(lp705
S':'
asbag49
(g70
g51
NtRp706
(dp707
g54
(dp708
sg63
g693
sg56
(lp709
g49
(g50
g51
NtRp710
(dp711
g54
(dp712
g62
I4
ssg63
g706
sg56
(lp713
S'session_id_welcome=127.0.0.1-7893c859-c0c7-4eba-b732-b5cd8c08bf54'
p714
asbasbasbag49
(g65
g51
NtRp715
(dp716
g54
(dp717
sg63
g423
sg56
(lp718
g49
(g70
g51
NtRp719
(dp720
g54
(dp721
g74
g75
ssg63
g715
sg56
(lp722
S'http_host'
p723
asbag49
(g70
g51
NtRp724
(dp725
g54
(dp726
g81
g82
ssg63
g715
sg56
(lp727
S':'
asbag49
(g70
g51
NtRp728
(dp729
g54
(dp730
sg63
g715
sg56
(lp731
g49
(g50
g51
NtRp732
(dp733
g54
(dp734
g62
I4
ssg63
g728
sg56
(lp735
S'127.0.0.1:8000'
p736
asbasbasbag49
(g65
g51
NtRp737
(dp738
g54
(dp739
sg63
g423
sg56
(lp740
g49
(g70
g51
NtRp741
(dp742
g54
(dp743
g74
g75
ssg63
g737
sg56
(lp744
S'http_user_agent'
p745
asbag49
(g70
g51
NtRp746
(dp747
g54
(dp748
g81
g82
ssg63
g737
sg56
(lp749
S':'
asbag49
(g70
g51
NtRp750
(dp751
g54
(dp752
sg63
g737
sg56
(lp753
g49
(g50
g51
NtRp754
(dp755
g54
(dp756
g62
I4
ssg63
g750
sg56
(lp757
S'Mozilla/5.0 (Windows NT 6.1; WOW64) AppleWebKit/537.4 (KHTML, like Gecko) Chrome/22.0.1229.94 Safari/537.4'
p758
asbasbasbag49
(g65
g51
NtRp759
(dp760
g54
(dp761
sg63
g423
sg56
(lp762
g49
(g70
g51
NtRp763
(dp764
g54
(dp765
g74
g75
ssg63
g759
sg56
(lp766
S'is_jython'
p767
asbag49
(g70
g51
NtRp768
(dp769
g54
(dp770
g81
g82
ssg63
g759
sg56
(lp771
S':'
asbag49
(g70
g51
NtRp772
(dp773
g54
(dp774
sg63
g759
sg56
(lp775
g49
(g50
g51
NtRp776
(dp777
g54
(dp778
g62
I4
ssg63
g772
sg56
(lp779
g92
asbasbasbag49
(g65
g51
NtRp780
(dp781
g54
(dp782
sg63
g423
sg56
(lp783
g49
(g70
g51
NtRp784
(dp785
g54
(dp786
g74
g75
ssg63
g780
sg56
(lp787
S'is_pypy'
p788
asbag49
(g70
g51
NtRp789
(dp790
g54
(dp791
g81
g82
ssg63
g780
sg56
(lp792
S':'
asbag49
(g70
g51
NtRp793
(dp794
g54
(dp795
sg63
g780
sg56
(lp796
g49
(g50
g51
NtRp797
(dp798
g54
(dp799
g62
I4
ssg63
g793
sg56
(lp800
g92
asbasbasbag49
(g65
g51
NtRp801
(dp802
g54
(dp803
sg63
g423
sg56
(lp804
g49
(g70
g51
NtRp805
(dp806
g54
(dp807
g74
g75
ssg63
g801
sg56
(lp808
S'path_info'
p809
asbag49
(g70
g51
NtRp810
(dp811
g54
(dp812
g81
g82
ssg63
g801
sg56
(lp813
S':'
asbag49
(g70
g51
NtRp814
(dp815
g54
(dp816
sg63
g801
sg56
(lp817
g49
(g50
g51
NtRp818
(dp819
g54
(dp820
g62
I4
ssg63
g814
sg56
(lp821
S'/hostel/default/index'
p822
asbasbasbag49
(g65
g51
NtRp823
(dp824
g54
(dp825
sg63
g423
sg56
(lp826
g49
(g70
g51
NtRp827
(dp828
g54
(dp829
g74
g75
ssg63
g823
sg56
(lp830
S'query_string'
p831
asbag49
(g70
g51
NtRp832
(dp833
g54
(dp834
g81
g82
ssg63
g823
sg56
(lp835
S':'
asbag49
(g70
g51
NtRp836
(dp837
g54
(dp838
sg63
g823
sg56
(lp839
g49
(g50
g51
NtRp840
(dp841
g54
(dp842
g62
I4
ssg63
g836
sg56
(lp843
S''
asbasbasbag49
(g65
g51
NtRp844
(dp845
g54
(dp846
sg63
g423
sg56
(lp847
g49
(g70
g51
NtRp848
(dp849
g54
(dp850
g74
g75
ssg63
g844
sg56
(lp851
S'remote_addr'
p852
asbag49
(g70
g51
NtRp853
(dp854
g54
(dp855
g81
g82
ssg63
g844
sg56
(lp856
S':'
asbag49
(g70
g51
NtRp857
(dp858
g54
(dp859
sg63
g844
sg56
(lp860
g49
(g50
g51
NtRp861
(dp862
g54
(dp863
g62
I4
ssg63
g857
sg56
(lp864
g182
asbasbasbag49
(g65
g51
NtRp865
(dp866
g54
(dp867
sg63
g423
sg56
(lp868
g49
(g70
g51
NtRp869
(dp870
g54
(dp871
g74
g75
ssg63
g865
sg56
(lp872
S'remote_port'
p873
asbag49
(g70
g51
NtRp874
(dp875
g54
(dp876
g81
g82
ssg63
g865
sg56
(lp877
S':'
asbag49
(g70
g51
NtRp878
(dp879
g54
(dp880
sg63
g865
sg56
(lp881
g49
(g50
g51
NtRp882
(dp883
g54
(dp884
g62
I4
ssg63
g878
sg56
(lp885
S'49164'
p886
asbasbasbag49
(g65
g51
NtRp887
(dp888
g54
(dp889
sg63
g423
sg56
(lp890
g49
(g70
g51
NtRp891
(dp892
g54
(dp893
g74
g75
ssg63
g887
sg56
(lp894
S'request_method'
p895
asbag49
(g70
g51
NtRp896
(dp897
g54
(dp898
g81
g82
ssg63
g887
sg56
(lp899
S':'
asbag49
(g70
g51
NtRp900
(dp901
g54
(dp902
sg63
g887
sg56
(lp903
g49
(g50
g51
NtRp904
(dp905
g54
(dp906
g62
I4
ssg63
g900
sg56
(lp907
S'GET'
p908
asbasbasbag49
(g65
g51
NtRp909
(dp910
g54
(dp911
sg63
g423
sg56
(lp912
g49
(g70
g51
NtRp913
(dp914
g54
(dp915
g74
g75
ssg63
g909
sg56
(lp916
S'script_name'
p917
asbag49
(g70
g51
NtRp918
(dp919
g54
(dp920
g81
g82
ssg63
g909
sg56
(lp921
S':'
asbag49
(g70
g51
NtRp922
(dp923
g54
(dp924
sg63
g909
sg56
(lp925
g49
(g50
g51
NtRp926
(dp927
g54
(dp928
g62
I4
ssg63
g922
sg56
(lp929
S''
asbasbasbag49
(g65
g51
NtRp930
(dp931
g54
(dp932
sg63
g423
sg56
(lp933
g49
(g70
g51
NtRp934
(dp935
g54
(dp936
g74
g75
ssg63
g930
sg56
(lp937
S'server_name'
p938
asbag49
(g70
g51
NtRp939
(dp940
g54
(dp941
g81
g82
ssg63
g930
sg56
(lp942
S':'
asbag49
(g70
g51
NtRp943
(dp944
g54
(dp945
sg63
g930
sg56
(lp946
g49
(g50
g51
NtRp947
(dp948
g54
(dp949
g62
I4
ssg63
g943
sg56
(lp950
S'bhanu-PC'
p951
asbasbasbag49
(g65
g51
NtRp952
(dp953
g54
(dp954
sg63
g423
sg56
(lp955
g49
(g70
g51
NtRp956
(dp957
g54
(dp958
g74
g75
ssg63
g952
sg56
(lp959
S'server_port'
p960
asbag49
(g70
g51
NtRp961
(dp962
g54
(dp963
g81
g82
ssg63
g952
sg56
(lp964
S':'
asbag49
(g70
g51
NtRp965
(dp966
g54
(dp967
sg63
g952
sg56
(lp968
g49
(g50
g51
NtRp969
(dp970
g54
(dp971
g62
I4
ssg63
g965
sg56
(lp972
S'8000'
p973
asbasbasbag49
(g65
g51
NtRp974
(dp975
g54
(dp976
sg63
g423
sg56
(lp977
g49
(g70
g51
NtRp978
(dp979
g54
(dp980
g74
g75
ssg63
g974
sg56
(lp981
S'server_protocol'
p982
asbag49
(g70
g51
NtRp983
(dp984
g54
(dp985
g81
g82
ssg63
g974
sg56
(lp986
S':'
asbag49
(g70
g51
NtRp987
(dp988
g54
(dp989
sg63
g974
sg56
(lp990
g49
(g50
g51
NtRp991
(dp992
g54
(dp993
g62
I4
ssg63
g987
sg56
(lp994
S'HTTP/1.1'
p995
asbasbasbag49
(g65
g51
NtRp996
(dp997
g54
(dp998
sg63
g423
sg56
(lp999
g49
(g70
g51
NtRp1000
(dp1001
g54
(dp1002
g74
g75
ssg63
g996
sg56
(lp1003
S'server_software'
p1004
asbag49
(g70
g51
NtRp1005
(dp1006
g54
(dp1007
g81
g82
ssg63
g996
sg56
(lp1008
S':'
asbag49
(g70
g51
NtRp1009
(dp1010
g54
(dp1011
sg63
g996
sg56
(lp1012
g49
(g50
g51
NtRp1013
(dp1014
g54
(dp1015
g62
I4
ssg63
g1009
sg56
(lp1016
S'Rocket 1.2.4'
p1017
asbasbasbag49
(g65
g51
NtRp1018
(dp1019
g54
(dp1020
sg63
g423
sg56
(lp1021
g49
(g70
g51
NtRp1022
(dp1023
g54
(dp1024
g74
g75
ssg63
g1018
sg56
(lp1025
S'web2py_crontype'
p1026
asbag49
(g70
g51
NtRp1027
(dp1028
g54
(dp1029
g81
g82
ssg63
g1018
sg56
(lp1030
S':'
asbag49
(g70
g51
NtRp1031
(dp1032
g54
(dp1033
sg63
g1018
sg56
(lp1034
g49
(g50
g51
NtRp1035
(dp1036
g54
(dp1037
g62
I4
ssg63
g1031
sg56
(lp1038
S'hard'
p1039
asbasbasbag49
(g65
g51
NtRp1040
(dp1041
g54
(dp1042
sg63
g423
sg56
(lp1043
g49
(g70
g51
NtRp1044
(dp1045
g54
(dp1046
g74
g75
ssg63
g1040
sg56
(lp1047
S'web2py_path'
p1048
asbag49
(g70
g51
NtRp1049
(dp1050
g54
(dp1051
g81
g82
ssg63
g1040
sg56
(lp1052
S':'
asbag49
(g70
g51
NtRp1053
(dp1054
g54
(dp1055
sg63
g1040
sg56
(lp1056
g49
(g50
g51
NtRp1057
(dp1058
g54
(dp1059
g62
I4
ssg63
g1053
sg56
(lp1060
g470
asbasbasbag49
(g65
g51
NtRp1061
(dp1062
g54
(dp1063
sg63
g423
sg56
(lp1064
g49
(g70
g51
NtRp1065
(dp1066
g54
(dp1067
g74
g75
ssg63
g1061
sg56
(lp1068
S'web2py_version'
p1069
asbag49
(g70
g51
NtRp1070
(dp1071
g54
(dp1072
g81
g82
ssg63
g1061
sg56
(lp1073
S':'
asbag49
(g70
g51
NtRp1074
(dp1075
g54
(dp1076
sg63
g1061
sg56
(lp1077
g49
(g50
g51
NtRp1078
(dp1079
g54
(dp1080
g62
I4
ssg63
g1074
sg56
(lp1081
g49
(g58
g51
NtRp1082
(dp1083
g54
(dp1084
g62
I3
ssg63
Nsg56
(lp1085
g49
(g65
g51
NtRp1086
(dp1087
g54
(dp1088
sg63
g1082
sg56
(lp1089
g49
(g70
g51
NtRp1090
(dp1091
g54
(dp1092
sg63
g1086
sg56
(lp1093
g49
(g50
g51
NtRp1094
(dp1095
g54
(dp1096
g62
I3
ssg63
g1090
sg56
(lp1097
S'1'
asbasbasbag49
(g65
g51
NtRp1098
(dp1099
g54
(dp1100
sg63
g1082
sg56
(lp1101
g49
(g70
g51
NtRp1102
(dp1103
g54
(dp1104
sg63
g1098
sg56
(lp1105
g49
(g50
g51
NtRp1106
(dp1107
g54
(dp1108
g62
I3
ssg63
g1102
sg56
(lp1109
S'99'
p1110
asbasbasbag49
(g65
g51
NtRp1111
(dp1112
g54
(dp1113
sg63
g1082
sg56
(lp1114
g49
(g70
g51
NtRp1115
(dp1116
g54
(dp1117
sg63
g1111
sg56
(lp1118
g49
(g50
g51
NtRp1119
(dp1120
g54
(dp1121
g62
I3
ssg63
g1115
sg56
(lp1122
S'7'
asbasbasbag49
(g65
g51
NtRp1123
(dp1124
g54
(dp1125
sg63
g1082
sg56
(lp1126
g49
(g70
g51
NtRp1127
(dp1128
g54
(dp1129
sg63
g1123
sg56
(lp1130
g49
(g50
g51
NtRp1131
(dp1132
g54
(dp1133
g62
I3
ssg63
g1127
sg56
(lp1134
S'datetime.datetime(2012, 3, 4, 22, 12, 8)'
p1135
asbasbasbag49
(g65
g51
NtRp1136
(dp1137
g54
(dp1138
sg63
g1082
sg56
(lp1139
g49
(g70
g51
NtRp1140
(dp1141
g54
(dp1142
sg63
g1136
sg56
(lp1143
g49
(g50
g51
NtRp1144
(dp1145
g54
(dp1146
g62
I3
ssg63
g1140
sg56
(lp1147
S'stable'
p1148
asbasbasbasbasbasbasbag49
(g65
g51
NtRp1149
(dp1150
g54
(dp1151
sg63
g423
sg56
(lp1152
g49
(g70
g51
NtRp1153
(dp1154
g54
(dp1155
g74
g75
ssg63
g1149
sg56
(lp1156
S'wsgi_errors'
p1157
asbag49
(g70
g51
NtRp1158
(dp1159
g54
(dp1160
g81
g82
ssg63
g1149
sg56
(lp1161
S':'
asbag49
(g70
g51
NtRp1162
(dp1163
g54
(dp1164
sg63
g1149
sg56
(lp1165
g49
(g50
g51
NtRp1166
(dp1167
g54
(dp1168
g62
I4
ssg63
g1162
sg56
(lp1169
S"<open file '<stderr>', mode 'w' at 0x01EE00B0>"
p1170
asbasbasbag49
(g65
g51
NtRp1171
(dp1172
g54
(dp1173
sg63
g423
sg56
(lp1174
g49
(g70
g51
NtRp1175
(dp1176
g54
(dp1177
g74
g75
ssg63
g1171
sg56
(lp1178
S'wsgi_file_wrapper'
p1179
asbag49
(g70
g51
NtRp1180
(dp1181
g54
(dp1182
g81
g82
ssg63
g1171
sg56
(lp1183
S':'
asbag49
(g70
g51
NtRp1184
(dp1185
g54
(dp1186
sg63
g1171
sg56
(lp1187
g49
(g50
g51
NtRp1188
(dp1189
g54
(dp1190
g62
I4
ssg63
g1184
sg56
(lp1191
S'<class wsgiref.util.FileWrapper at 0x02EC6450>'
p1192
asbasbasbag49
(g65
g51
NtRp1193
(dp1194
g54
(dp1195
sg63
g423
sg56
(lp1196
g49
(g70
g51
NtRp1197
(dp1198
g54
(dp1199
g74
g75
ssg63
g1193
sg56
(lp1200
S'wsgi_input'
p1201
asbag49
(g70
g51
NtRp1202
(dp1203
g54
(dp1204
g81
g82
ssg63
g1193
sg56
(lp1205
S':'
asbag49
(g70
g51
NtRp1206
(dp1207
g54
(dp1208
sg63
g1193
sg56
(lp1209
g49
(g50
g51
NtRp1210
(dp1211
g54
(dp1212
g62
I4
ssg63
g1206
sg56
(lp1213
S'<socket._fileobject object at 0x032CADB0>'
p1214
asbasbasbag49
(g65
g51
NtRp1215
(dp1216
g54
(dp1217
sg63
g423
sg56
(lp1218
g49
(g70
g51
NtRp1219
(dp1220
g54
(dp1221
g74
g75
ssg63
g1215
sg56
(lp1222
S'wsgi_multiprocess'
p1223
asbag49
(g70
g51
NtRp1224
(dp1225
g54
(dp1226
g81
g82
ssg63
g1215
sg56
(lp1227
S':'
asbag49
(g70
g51
NtRp1228
(dp1229
g54
(dp1230
sg63
g1215
sg56
(lp1231
g49
(g50
g51
NtRp1232
(dp1233
g54
(dp1234
g62
I4
ssg63
g1228
sg56
(lp1235
g92
asbasbasbag49
(g65
g51
NtRp1236
(dp1237
g54
(dp1238
sg63
g423
sg56
(lp1239
g49
(g70
g51
NtRp1240
(dp1241
g54
(dp1242
g74
g75
ssg63
g1236
sg56
(lp1243
S'wsgi_multithread'
p1244
asbag49
(g70
g51
NtRp1245
(dp1246
g54
(dp1247
g81
g82
ssg63
g1236
sg56
(lp1248
S':'
asbag49
(g70
g51
NtRp1249
(dp1250
g54
(dp1251
sg63
g1236
sg56
(lp1252
g49
(g50
g51
NtRp1253
(dp1254
g54
(dp1255
g62
I4
ssg63
g1249
sg56
(lp1256
S'True'
p1257
asbasbasbag49
(g65
g51
NtRp1258
(dp1259
g54
(dp1260
sg63
g423
sg56
(lp1261
g49
(g70
g51
NtRp1262
(dp1263
g54
(dp1264
g74
g75
ssg63
g1258
sg56
(lp1265
S'wsgi_run_once'
p1266
asbag49
(g70
g51
NtRp1267
(dp1268
g54
(dp1269
g81
g82
ssg63
g1258
sg56
(lp1270
S':'
asbag49
(g70
g51
NtRp1271
(dp1272
g54
(dp1273
sg63
g1258
sg56
(lp1274
g49
(g50
g51
NtRp1275
(dp1276
g54
(dp1277
g62
I4
ssg63
g1271
sg56
(lp1278
g92
asbasbasbag49
(g65
g51
NtRp1279
(dp1280
g54
(dp1281
sg63
g423
sg56
(lp1282
g49
(g70
g51
NtRp1283
(dp1284
g54
(dp1285
g74
g75
ssg63
g1279
sg56
(lp1286
S'wsgi_url_scheme'
p1287
asbag49
(g70
g51
NtRp1288
(dp1289
g54
(dp1290
g81
g82
ssg63
g1279
sg56
(lp1291
S':'
asbag49
(g70
g51
NtRp1292
(dp1293
g54
(dp1294
sg63
g1279
sg56
(lp1295
g49
(g50
g51
NtRp1296
(dp1297
g54
(dp1298
g62
I4
ssg63
g1292
sg56
(lp1299
S'http'
p1300
asbasbasbag49
(g65
g51
NtRp1301
(dp1302
g54
(dp1303
sg63
g423
sg56
(lp1304
g49
(g70
g51
NtRp1305
(dp1306
g54
(dp1307
g74
g75
ssg63
g1301
sg56
(lp1308
S'wsgi_version'
p1309
asbag49
(g70
g51
NtRp1310
(dp1311
g54
(dp1312
g81
g82
ssg63
g1301
sg56
(lp1313
S':'
asbag49
(g70
g51
NtRp1314
(dp1315
g54
(dp1316
sg63
g1301
sg56
(lp1317
g49
(g50
g51
NtRp1318
(dp1319
g54
(dp1320
g62
I4
ssg63
g1314
sg56
(lp1321
g49
(g58
g51
NtRp1322
(dp1323
g54
(dp1324
g62
I3
ssg63
Nsg56
(lp1325
g49
(g65
g51
NtRp1326
(dp1327
g54
(dp1328
sg63
g1322
sg56
(lp1329
g49
(g70
g51
NtRp1330
(dp1331
g54
(dp1332
sg63
g1326
sg56
(lp1333
g49
(g50
g51
NtRp1334
(dp1335
g54
(dp1336
g62
I3
ssg63
g1330
sg56
(lp1337
S'1'
asbasbasbag49
(g65
g51
NtRp1338
(dp1339
g54
(dp1340
sg63
g1322
sg56
(lp1341
g49
(g70
g51
NtRp1342
(dp1343
g54
(dp1344
sg63
g1338
sg56
(lp1345
g49
(g50
g51
NtRp1346
(dp1347
g54
(dp1348
g62
I3
ssg63
g1342
sg56
(lp1349
S'0'
asbasbasbasbasbasbasbasbasbasbasbag49
(g65
g51
NtRp1350
(dp1351
g54
(dp1352
sg63
g59
sg56
(lp1353
g49
(g70
g51
NtRp1354
(dp1355
g54
(dp1356
g74
g75
ssg63
g1350
sg56
(lp1357
S'extension'
p1358
asbag49
(g70
g51
NtRp1359
(dp1360
g54
(dp1361
g81
g82
ssg63
g1350
sg56
(lp1362
S':'
asbag49
(g70
g51
NtRp1363
(dp1364
g54
(dp1365
sg63
g1350
sg56
(lp1366
g49
(g50
g51
NtRp1367
(dp1368
g54
(dp1369
g62
I5
ssg63
g1363
sg56
(lp1370
S'html'
p1371
asbasbasbag49
(g65
g51
NtRp1372
(dp1373
g54
(dp1374
sg63
g59
sg56
(lp1375
g49
(g70
g51
NtRp1376
(dp1377
g54
(dp1378
g74
g75
ssg63
g1372
sg56
(lp1379
S'folder'
p1380
asbag49
(g70
g51
NtRp1381
(dp1382
g54
(dp1383
g81
g82
ssg63
g1372
sg56
(lp1384
S':'
asbag49
(g70
g51
NtRp1385
(dp1386
g54
(dp1387
sg63
g1372
sg56
(lp1388
g49
(g50
g51
NtRp1389
(dp1390
g54
(dp1391
g62
I5
ssg63
g1385
sg56
(lp1392
S'C:\\Users\\bhanu\\Downloads\\Compressed\\web2py\\applications\\hostel\\'
p1393
asbasbasbag49
(g65
g51
NtRp1394
(dp1395
g54
(dp1396
sg63
g59
sg56
(lp1397
g49
(g70
g51
NtRp1398
(dp1399
g54
(dp1400
g74
g75
ssg63
g1394
sg56
(lp1401
S'function'
p1402
asbag49
(g70
g51
NtRp1403
(dp1404
g54
(dp1405
g81
g82
ssg63
g1394
sg56
(lp1406
S':'
asbag49
(g70
g51
NtRp1407
(dp1408
g54
(dp1409
sg63
g1394
sg56
(lp1410
g49
(g50
g51
NtRp1411
(dp1412
g54
(dp1413
g62
I5
ssg63
g1407
sg56
(lp1414
S'index'
p1415
asbasbasbag49
(g65
g51
NtRp1416
(dp1417
g54
(dp1418
sg63
g59
sg56
(lp1419
g49
(g70
g51
NtRp1420
(dp1421
g54
(dp1422
g74
g75
ssg63
g1416
sg56
(lp1423
S'get_vars'
p1424
asbag49
(g70
g51
NtRp1425
(dp1426
g54
(dp1427
g81
g82
ssg63
g1416
sg56
(lp1428
S':'
asbag49
(g70
g51
NtRp1429
(dp1430
g54
(dp1431
sg63
g1416
sg56
(lp1432
g49
(g50
g51
NtRp1433
(dp1434
g54
(dp1435
g62
I5
ssg63
g1429
sg56
(lp1436
g49
(g58
g51
NtRp1437
(dp1438
g54
(dp1439
g62
I4
ssg63
Nsg56
(lp1440
sbasbasbasbag49
(g65
g51
NtRp1441
(dp1442
g54
(dp1443
sg63
g59
sg56
(lp1444
g49
(g70
g51
NtRp1445
(dp1446
g54
(dp1447
g74
g75
ssg63
g1441
sg56
(lp1448
S'global_settings'
p1449
asbag49
(g70
g51
NtRp1450
(dp1451
g54
(dp1452
g81
g82
ssg63
g1441
sg56
(lp1453
S':'
asbag49
(g70
g51
NtRp1454
(dp1455
g54
(dp1456
sg63
g1441
sg56
(lp1457
g49
(g50
g51
NtRp1458
(dp1459
g54
(dp1460
g62
I5
ssg63
g1454
sg56
(lp1461
g49
(g58
g51
NtRp1462
(dp1463
g54
(dp1464
g62
I4
ssg63
Nsg56
(lp1465
g49
(g65
g51
NtRp1466
(dp1467
g54
(dp1468
sg63
g1462
sg56
(lp1469
g49
(g70
g51
NtRp1470
(dp1471
g54
(dp1472
g74
g75
ssg63
g1466
sg56
(lp1473
g435
asbag49
(g70
g51
NtRp1474
(dp1475
g54
(dp1476
g81
g82
ssg63
g1466
sg56
(lp1477
S':'
asbag49
(g70
g51
NtRp1478
(dp1479
g54
(dp1480
sg63
g1466
sg56
(lp1481
g49
(g50
g51
NtRp1482
(dp1483
g54
(dp1484
g62
I4
ssg63
g1478
sg56
(lp1485
S"set(['C:\\\\Users\\\\bhanu\\\\Downloads\\\\Compressed\\\\web2py\\\\applications\\\\hostel\\\\', 'C:\\\\Users\\\\bhanu\\\\Downloads\\\\Compressed\\\\web2py\\\\applications\\\\welcome\\\\'])"
p1486
asbasbasbag49
(g65
g51
NtRp1487
(dp1488
g54
(dp1489
sg63
g1462
sg56
(lp1490
g49
(g70
g51
NtRp1491
(dp1492
g54
(dp1493
g74
g75
ssg63
g1487
sg56
(lp1494
g457
asbag49
(g70
g51
NtRp1495
(dp1496
g54
(dp1497
g81
g82
ssg63
g1487
sg56
(lp1498
S':'
asbag49
(g70
g51
NtRp1499
(dp1500
g54
(dp1501
sg63
g1487
sg56
(lp1502
g49
(g50
g51
NtRp1503
(dp1504
g54
(dp1505
g62
I4
ssg63
g1499
sg56
(lp1506
g470
asbasbasbag49
(g65
g51
NtRp1507
(dp1508
g54
(dp1509
sg63
g1462
sg56
(lp1510
g49
(g70
g51
NtRp1511
(dp1512
g54
(dp1513
g74
g75
ssg63
g1507
sg56
(lp1514
g479
asbag49
(g70
g51
NtRp1515
(dp1516
g54
(dp1517
g81
g82
ssg63
g1507
sg56
(lp1518
S':'
asbag49
(g70
g51
NtRp1519
(dp1520
g54
(dp1521
sg63
g1507
sg56
(lp1522
g49
(g50
g51
NtRp1523
(dp1524
g54
(dp1525
g62
I4
ssg63
g1519
sg56
(lp1526
g49
(g58
g51
NtRp1527
(dp1528
g54
(dp1529
g62
I3
ssg63
Nsg56
(lp1530
sbasbasbasbag49
(g65
g51
NtRp1531
(dp1532
g54
(dp1533
sg63
g1462
sg56
(lp1534
g49
(g70
g51
NtRp1535
(dp1536
g54
(dp1537
g74
g75
ssg63
g1531
sg56
(lp1538
g504
asbag49
(g70
g51
NtRp1539
(dp1540
g54
(dp1541
g81
g82
ssg63
g1531
sg56
(lp1542
S':'
asbag49
(g70
g51
NtRp1543
(dp1544
g54
(dp1545
sg63
g1531
sg56
(lp1546
g49
(g50
g51
NtRp1547
(dp1548
g54
(dp1549
g62
I4
ssg63
g1543
sg56
(lp1550
S"<Values at 0x3121f58: {'verbose': False, 'ip': '127.0.0.1', 'shutdown_timeout': 5, 'taskbar': False, 'nocron': False, 'pid_filename': 'httpserver.pid', 'maxthreads': None, 'softcron': False, 'server_name': 'bhanu-PC', 'bpython': False, 'nogui': False, 'port': 8000, 'extcron': False, 'debuglevel': 30, 'test': None, 'folder': 'C:\\\\Users\\\\bhanu\\\\Downloads\\\\Compressed\\\\web2py', 'config': '', 'import_models': False, 'winservice': '', 'shell': None, 'run': '', 'log_filename': 'httpserver.log', 'args': [''], 'socket_timeout': 5, 'ssl_ca_certificate': None, 'scheduler': None, 'profiler_filename': None, 'ssl_private_key': '', 'password': '<ask>', 'request_queue_size': 5, 'ssl_certificate': '', 'cronjob': False, 'numthreads': None, 'quiet': False, 'interfaces': None, 'minthreads': None, 'timeout': 10, 'plain': False, 'nobanner': False}>"
p1551
asbasbasbag49
(g65
g51
NtRp1552
(dp1553
g54
(dp1554
sg63
g1462
sg56
(lp1555
g49
(g70
g51
NtRp1556
(dp1557
g54
(dp1558
g74
g75
ssg63
g1552
sg56
(lp1559
g526
asbag49
(g70
g51
NtRp1560
(dp1561
g54
(dp1562
g81
g82
ssg63
g1552
sg56
(lp1563
S':'
asbag49
(g70
g51
NtRp1564
(dp1565
g54
(dp1566
sg63
g1552
sg56
(lp1567
g49
(g50
g51
NtRp1568
(dp1569
g54
(dp1570
g62
I4
ssg63
g1564
sg56
(lp1571
S'set([])'
p1572
asbasbasbag49
(g65
g51
NtRp1573
(dp1574
g54
(dp1575
sg63
g1462
sg56
(lp1576
g49
(g70
g51
NtRp1577
(dp1578
g54
(dp1579
g74
g75
ssg63
g1573
sg56
(lp1580
g548
asbag49
(g70
g51
NtRp1581
(dp1582
g54
(dp1583
g81
g82
ssg63
g1573
sg56
(lp1584
S':'
asbag49
(g70
g51
NtRp1585
(dp1586
g54
(dp1587
sg63
g1573
sg56
(lp1588
g49
(g50
g51
NtRp1589
(dp1590
g54
(dp1591
g62
I4
ssg63
g1585
sg56
(lp1592
g92
asbasbasbag49
(g65
g51
NtRp1593
(dp1594
g54
(dp1595
sg63
g1462
sg56
(lp1596
g49
(g70
g51
NtRp1597
(dp1598
g54
(dp1599
g74
g75
ssg63
g1593
sg56
(lp1600
g569
asbag49
(g70
g51
NtRp1601
(dp1602
g54
(dp1603
g81
g82
ssg63
g1593
sg56
(lp1604
S':'
asbag49
(g70
g51
NtRp1605
(dp1606
g54
(dp1607
sg63
g1593
sg56
(lp1608
g49
(g50
g51
NtRp1609
(dp1610
g54
(dp1611
g62
I4
ssg63
g1605
sg56
(lp1612
g582
asbasbasbag49
(g65
g51
NtRp1613
(dp1614
g54
(dp1615
sg63
g1462
sg56
(lp1616
g49
(g70
g51
NtRp1617
(dp1618
g54
(dp1619
g74
g75
ssg63
g1613
sg56
(lp1620
g767
asbag49
(g70
g51
NtRp1621
(dp1622
g54
(dp1623
g81
g82
ssg63
g1613
sg56
(lp1624
S':'
asbag49
(g70
g51
NtRp1625
(dp1626
g54
(dp1627
sg63
g1613
sg56
(lp1628
g49
(g50
g51
NtRp1629
(dp1630
g54
(dp1631
g62
I4
ssg63
g1625
sg56
(lp1632
g92
asbasbasbag49
(g65
g51
NtRp1633
(dp1634
g54
(dp1635
sg63
g1462
sg56
(lp1636
g49
(g70
g51
NtRp1637
(dp1638
g54
(dp1639
g74
g75
ssg63
g1633
sg56
(lp1640
g788
asbag49
(g70
g51
NtRp1641
(dp1642
g54
(dp1643
g81
g82
ssg63
g1633
sg56
(lp1644
S':'
asbag49
(g70
g51
NtRp1645
(dp1646
g54
(dp1647
sg63
g1633
sg56
(lp1648
g49
(g50
g51
NtRp1649
(dp1650
g54
(dp1651
g62
I4
ssg63
g1645
sg56
(lp1652
g92
asbasbasbag49
(g65
g51
NtRp1653
(dp1654
g54
(dp1655
sg63
g1462
sg56
(lp1656
g49
(g70
g51
NtRp1657
(dp1658
g54
(dp1659
g74
g75
ssg63
g1653
sg56
(lp1660
g1026
asbag49
(g70
g51
NtRp1661
(dp1662
g54
(dp1663
g81
g82
ssg63
g1653
sg56
(lp1664
S':'
asbag49
(g70
g51
NtRp1665
(dp1666
g54
(dp1667
sg63
g1653
sg56
(lp1668
g49
(g50
g51
NtRp1669
(dp1670
g54
(dp1671
g62
I4
ssg63
g1665
sg56
(lp1672
g1039
asbasbasbag49
(g65
g51
NtRp1673
(dp1674
g54
(dp1675
sg63
g1462
sg56
(lp1676
g49
(g70
g51
NtRp1677
(dp1678
g54
(dp1679
g74
g75
ssg63
g1673
sg56
(lp1680
g1069
asbag49
(g70
g51
NtRp1681
(dp1682
g54
(dp1683
g81
g82
ssg63
g1673
sg56
(lp1684
S':'
asbag49
(g70
g51
NtRp1685
(dp1686
g54
(dp1687
sg63
g1673
sg56
(lp1688
g49
(g50
g51
NtRp1689
(dp1690
g54
(dp1691
g62
I4
ssg63
g1685
sg56
(lp1692
g49
(g58
g51
NtRp1693
(dp1694
g54
(dp1695
g62
I3
ssg63
Nsg56
(lp1696
g49
(g65
g51
NtRp1697
(dp1698
g54
(dp1699
sg63
g1693
sg56
(lp1700
g49
(g70
g51
NtRp1701
(dp1702
g54
(dp1703
sg63
g1697
sg56
(lp1704
g49
(g50
g51
NtRp1705
(dp1706
g54
(dp1707
g62
I3
ssg63
g1701
sg56
(lp1708
S'1'
asbasbasbag49
(g65
g51
NtRp1709
(dp1710
g54
(dp1711
sg63
g1693
sg56
(lp1712
g49
(g70
g51
NtRp1713
(dp1714
g54
(dp1715
sg63
g1709
sg56
(lp1716
g49
(g50
g51
NtRp1717
(dp1718
g54
(dp1719
g62
I3
ssg63
g1713
sg56
(lp1720
S'99'
p1721
asbasbasbag49
(g65
g51
NtRp1722
(dp1723
g54
(dp1724
sg63
g1693
sg56
(lp1725
g49
(g70
g51
NtRp1726
(dp1727
g54
(dp1728
sg63
g1722
sg56
(lp1729
g49
(g50
g51
NtRp1730
(dp1731
g54
(dp1732
g62
I3
ssg63
g1726
sg56
(lp1733
S'7'
asbasbasbag49
(g65
g51
NtRp1734
(dp1735
g54
(dp1736
sg63
g1693
sg56
(lp1737
g49
(g70
g51
NtRp1738
(dp1739
g54
(dp1740
sg63
g1734
sg56
(lp1741
g49
(g50
g51
NtRp1742
(dp1743
g54
(dp1744
g62
I3
ssg63
g1738
sg56
(lp1745
S'datetime.datetime(2012, 3, 4, 22, 12, 8)'
p1746
asbasbasbag49
(g65
g51
NtRp1747
(dp1748
g54
(dp1749
sg63
g1693
sg56
(lp1750
g49
(g70
g51
NtRp1751
(dp1752
g54
(dp1753
sg63
g1747
sg56
(lp1754
g49
(g50
g51
NtRp1755
(dp1756
g54
(dp1757
g62
I3
ssg63
g1751
sg56
(lp1758
g1148
asbasbasbasbasbasbasbasbasbasbasbag49
(g65
g51
NtRp1759
(dp1760
g54
(dp1761
sg63
g59
sg56
(lp1762
g49
(g70
g51
NtRp1763
(dp1764
g54
(dp1765
g74
g75
ssg63
g1759
sg56
(lp1766
S'is_https'
p1767
asbag49
(g70
g51
NtRp1768
(dp1769
g54
(dp1770
g81
g82
ssg63
g1759
sg56
(lp1771
S':'
asbag49
(g70
g51
NtRp1772
(dp1773
g54
(dp1774
sg63
g1759
sg56
(lp1775
g49
(g50
g51
NtRp1776
(dp1777
g54
(dp1778
g62
I5
ssg63
g1772
sg56
(lp1779
g92
asbasbasbag49
(g65
g51
NtRp1780
(dp1781
g54
(dp1782
sg63
g59
sg56
(lp1783
g49
(g70
g51
NtRp1784
(dp1785
g54
(dp1786
g74
g75
ssg63
g1780
sg56
(lp1787
S'is_local'
p1788
asbag49
(g70
g51
NtRp1789
(dp1790
g54
(dp1791
g81
g82
ssg63
g1780
sg56
(lp1792
S':'
asbag49
(g70
g51
NtRp1793
(dp1794
g54
(dp1795
sg63
g1780
sg56
(lp1796
g49
(g50
g51
NtRp1797
(dp1798
g54
(dp1799
g62
I5
ssg63
g1793
sg56
(lp1800
g1257
asbasbasbag49
(g65
g51
NtRp1801
(dp1802
g54
(dp1803
sg63
g59
sg56
(lp1804
g49
(g70
g51
NtRp1805
(dp1806
g54
(dp1807
g74
g75
ssg63
g1801
sg56
(lp1808
S'is_restful'
p1809
asbag49
(g70
g51
NtRp1810
(dp1811
g54
(dp1812
g81
g82
ssg63
g1801
sg56
(lp1813
S':'
asbag49
(g70
g51
NtRp1814
(dp1815
g54
(dp1816
sg63
g1801
sg56
(lp1817
g49
(g50
g51
NtRp1818
(dp1819
g54
(dp1820
g62
I5
ssg63
g1814
sg56
(lp1821
g92
asbasbasbag49
(g65
g51
NtRp1822
(dp1823
g54
(dp1824
sg63
g59
sg56
(lp1825
g49
(g70
g51
NtRp1826
(dp1827
g54
(dp1828
g74
g75
ssg63
g1822
sg56
(lp1829
S'now'
p1830
asbag49
(g70
g51
NtRp1831
(dp1832
g54
(dp1833
g81
g82
ssg63
g1822
sg56
(lp1834
S':'
asbag49
(g70
g51
NtRp1835
(dp1836
g54
(dp1837
sg63
g1822
sg56
(lp1838
g49
(g50
g51
NtRp1839
(dp1840
g54
(dp1841
g62
I5
ssg63
g1835
sg56
(lp1842
S'datetime.datetime(2012, 10, 16, 8, 43, 35, 63000)'
p1843
asbasbasbag49
(g65
g51
NtRp1844
(dp1845
g54
(dp1846
sg63
g59
sg56
(lp1847
g49
(g70
g51
NtRp1848
(dp1849
g54
(dp1850
g74
g75
ssg63
g1844
sg56
(lp1851
S'post_vars'
p1852
asbag49
(g70
g51
NtRp1853
(dp1854
g54
(dp1855
g81
g82
ssg63
g1844
sg56
(lp1856
S':'
asbag49
(g70
g51
NtRp1857
(dp1858
g54
(dp1859
sg63
g1844
sg56
(lp1860
g49
(g50
g51
NtRp1861
(dp1862
g54
(dp1863
g62
I5
ssg63
g1857
sg56
(lp1864
g49
(g58
g51
NtRp1865
(dp1866
g54
(dp1867
g62
I4
ssg63
Nsg56
(lp1868
sbasbasbasbag49
(g65
g51
NtRp1869
(dp1870
g54
(dp1871
sg63
g59
sg56
(lp1872
g49
(g70
g51
NtRp1873
(dp1874
g54
(dp1875
g74
g75
ssg63
g1869
sg56
(lp1876
S'url'
p1877
asbag49
(g70
g51
NtRp1878
(dp1879
g54
(dp1880
g81
g82
ssg63
g1869
sg56
(lp1881
S':'
asbag49
(g70
g51
NtRp1882
(dp1883
g54
(dp1884
sg63
g1869
sg56
(lp1885
g49
(g50
g51
NtRp1886
(dp1887
g54
(dp1888
g62
I5
ssg63
g1882
sg56
(lp1889
S'/hostel/default/index'
p1890
asbasbasbag49
(g65
g51
NtRp1891
(dp1892
g54
(dp1893
sg63
g59
sg56
(lp1894
g49
(g70
g51
NtRp1895
(dp1896
g54
(dp1897
g74
g75
ssg63
g1891
sg56
(lp1898
S'utcnow'
p1899
asbag49
(g70
g51
NtRp1900
(dp1901
g54
(dp1902
g81
g82
ssg63
g1891
sg56
(lp1903
S':'
asbag49
(g70
g51
NtRp1904
(dp1905
g54
(dp1906
sg63
g1891
sg56
(lp1907
g49
(g50
g51
NtRp1908
(dp1909
g54
(dp1910
g62
I5
ssg63
g1904
sg56
(lp1911
S'datetime.datetime(2012, 10, 16, 3, 13, 35, 63000)'
p1912
asbasbasbag49
(g65
g51
NtRp1913
(dp1914
g54
(dp1915
sg63
g59
sg56
(lp1916
g49
(g70
g51
NtRp1917
(dp1918
g54
(dp1919
g74
g75
ssg63
g1913
sg56
(lp1920
S'uuid'
p1921
asbag49
(g70
g51
NtRp1922
(dp1923
g54
(dp1924
g81
g82
ssg63
g1913
sg56
(lp1925
S':'
asbag49
(g70
g51
NtRp1926
(dp1927
g54
(dp1928
sg63
g1913
sg56
(lp1929
g49
(g50
g51
NtRp1930
(dp1931
g54
(dp1932
g62
I5
ssg63
g1926
sg56
(lp1933
S'hostel/127.0.0.1.2012-10-16.08-43-35.e50ba993-4e3d-4e5f-ab15-5a86adf06547'
p1934
asbasbasbag49
(g65
g51
NtRp1935
(dp1936
g54
(dp1937
sg63
g59
sg56
(lp1938
g49
(g70
g51
NtRp1939
(dp1940
g54
(dp1941
g74
g75
ssg63
g1935
sg56
(lp1942
S'vars'
p1943
asbag49
(g70
g51
NtRp1944
(dp1945
g54
(dp1946
g81
g82
ssg63
g1935
sg56
(lp1947
S':'
asbag49
(g70
g51
NtRp1948
(dp1949
g54
(dp1950
sg63
g1935
sg56
(lp1951
g49
(g50
g51
NtRp1952
(dp1953
g54
(dp1954
g62
I5
ssg63
g1948
sg56
(lp1955
g49
(g58
g51
NtRp1956
(dp1957
g54
(dp1958
g62
I4
ssg63
Nsg56
(lp1959
sbasbasbasbag49
(g65
g51
NtRp1960
(dp1961
g54
(dp1962
sg63
g59
sg56
(lp1963
g49
(g70
g51
NtRp1964
(dp1965
g54
(dp1966
g74
g75
ssg63
g1960
sg56
(lp1967
S'wsgi'
p1968
asbag49
(g70
g51
NtRp1969
(dp1970
g54
(dp1971
g81
g82
ssg63
g1960
sg56
(lp1972
S':'
asbag49
(g70
g51
NtRp1973
(dp1974
g54
(dp1975
sg63
g1960
sg56
(lp1976
g49
(g50
g51
NtRp1977
(dp1978
g54
(dp1979
g62
I5
ssg63
g1973
sg56
(lp1980
g49
(g58
g51
NtRp1981
(dp1982
g54
(dp1983
g62
I4
ssg63
Nsg56
(lp1984
g49
(g65
g51
NtRp1985
(dp1986
g54
(dp1987
sg63
g1981
sg56
(lp1988
g49
(g70
g51
NtRp1989
(dp1990
g54
(dp1991
g74
g75
ssg63
g1985
sg56
(lp1992
S'environ'
p1993
asbag49
(g70
g51
NtRp1994
(dp1995
g54
(dp1996
g81
g82
ssg63
g1985
sg56
(lp1997
S':'
asbag49
(g70
g51
NtRp1998
(dp1999
g54
(dp2000
sg63
g1985
sg56
(lp2001
g49
(g50
g51
NtRp2002
(dp2003
g54
(dp2004
g62
I4
ssg63
g1998
sg56
(lp2005
g49
(g58
g51
NtRp2006
(dp2007
g54
(dp2008
g62
I3
ssg63
Nsg56
(lp2009
g49
(g65
g51
NtRp2010
(dp2011
g54
(dp2012
sg63
g2006
sg56
(lp2013
g49
(g70
g51
NtRp2014
(dp2015
g54
(dp2016
g74
g75
ssg63
g2010
sg56
(lp2017
S'HTTP_ACCEPT'
p2018
asbag49
(g70
g51
NtRp2019
(dp2020
g54
(dp2021
g81
g82
ssg63
g2010
sg56
(lp2022
S':'
asbag49
(g70
g51
NtRp2023
(dp2024
g54
(dp2025
sg63
g2010
sg56
(lp2026
g49
(g50
g51
NtRp2027
(dp2028
g54
(dp2029
g62
I3
ssg63
g2023
sg56
(lp2030
g604
asbasbasbag49
(g65
g51
NtRp2031
(dp2032
g54
(dp2033
sg63
g2006
sg56
(lp2034
g49
(g70
g51
NtRp2035
(dp2036
g54
(dp2037
g74
g75
ssg63
g2031
sg56
(lp2038
S'HTTP_ACCEPT_CHARSET'
p2039
asbag49
(g70
g51
NtRp2040
(dp2041
g54
(dp2042
g81
g82
ssg63
g2031
sg56
(lp2043
S':'
asbag49
(g70
g51
NtRp2044
(dp2045
g54
(dp2046
sg63
g2031
sg56
(lp2047
g49
(g50
g51
NtRp2048
(dp2049
g54
(dp2050
g62
I3
ssg63
g2044
sg56
(lp2051
g626
asbasbasbag49
(g65
g51
NtRp2052
(dp2053
g54
(dp2054
sg63
g2006
sg56
(lp2055
g49
(g70
g51
NtRp2056
(dp2057
g54
(dp2058
g74
g75
ssg63
g2052
sg56
(lp2059
S'HTTP_ACCEPT_ENCODING'
p2060
asbag49
(g70
g51
NtRp2061
(dp2062
g54
(dp2063
g81
g82
ssg63
g2052
sg56
(lp2064
S':'
asbag49
(g70
g51
NtRp2065
(dp2066
g54
(dp2067
sg63
g2052
sg56
(lp2068
g49
(g50
g51
NtRp2069
(dp2070
g54
(dp2071
g62
I3
ssg63
g2065
sg56
(lp2072
g648
asbasbasbag49
(g65
g51
NtRp2073
(dp2074
g54
(dp2075
sg63
g2006
sg56
(lp2076
g49
(g70
g51
NtRp2077
(dp2078
g54
(dp2079
g74
g75
ssg63
g2073
sg56
(lp2080
S'HTTP_ACCEPT_LANGUAGE'
p2081
asbag49
(g70
g51
NtRp2082
(dp2083
g54
(dp2084
g81
g82
ssg63
g2073
sg56
(lp2085
S':'
asbag49
(g70
g51
NtRp2086
(dp2087
g54
(dp2088
sg63
g2073
sg56
(lp2089
g49
(g50
g51
NtRp2090
(dp2091
g54
(dp2092
g62
I3
ssg63
g2086
sg56
(lp2093
g670
asbasbasbag49
(g65
g51
NtRp2094
(dp2095
g54
(dp2096
sg63
g2006
sg56
(lp2097
g49
(g70
g51
NtRp2098
(dp2099
g54
(dp2100
g74
g75
ssg63
g2094
sg56
(lp2101
S'HTTP_CONNECTION'
p2102
asbag49
(g70
g51
NtRp2103
(dp2104
g54
(dp2105
g81
g82
ssg63
g2094
sg56
(lp2106
S':'
asbag49
(g70
g51
NtRp2107
(dp2108
g54
(dp2109
sg63
g2094
sg56
(lp2110
g49
(g50
g51
NtRp2111
(dp2112
g54
(dp2113
g62
I3
ssg63
g2107
sg56
(lp2114
g692
asbasbasbag49
(g65
g51
NtRp2115
(dp2116
g54
(dp2117
sg63
g2006
sg56
(lp2118
g49
(g70
g51
NtRp2119
(dp2120
g54
(dp2121
g74
g75
ssg63
g2115
sg56
(lp2122
S'HTTP_COOKIE'
p2123
asbag49
(g70
g51
NtRp2124
(dp2125
g54
(dp2126
g81
g82
ssg63
g2115
sg56
(lp2127
S':'
asbag49
(g70
g51
NtRp2128
(dp2129
g54
(dp2130
sg63
g2115
sg56
(lp2131
g49
(g50
g51
NtRp2132
(dp2133
g54
(dp2134
g62
I3
ssg63
g2128
sg56
(lp2135
g714
asbasbasbag49
(g65
g51
NtRp2136
(dp2137
g54
(dp2138
sg63
g2006
sg56
(lp2139
g49
(g70
g51
NtRp2140
(dp2141
g54
(dp2142
g74
g75
ssg63
g2136
sg56
(lp2143
S'HTTP_HOST'
p2144
asbag49
(g70
g51
NtRp2145
(dp2146
g54
(dp2147
g81
g82
ssg63
g2136
sg56
(lp2148
S':'
asbag49
(g70
g51
NtRp2149
(dp2150
g54
(dp2151
sg63
g2136
sg56
(lp2152
g49
(g50
g51
NtRp2153
(dp2154
g54
(dp2155
g62
I3
ssg63
g2149
sg56
(lp2156
g736
asbasbasbag49
(g65
g51
NtRp2157
(dp2158
g54
(dp2159
sg63
g2006
sg56
(lp2160
g49
(g70
g51
NtRp2161
(dp2162
g54
(dp2163
g74
g75
ssg63
g2157
sg56
(lp2164
S'HTTP_USER_AGENT'
p2165
asbag49
(g70
g51
NtRp2166
(dp2167
g54
(dp2168
g81
g82
ssg63
g2157
sg56
(lp2169
S':'
asbag49
(g70
g51
NtRp2170
(dp2171
g54
(dp2172
sg63
g2157
sg56
(lp2173
g49
(g50
g51
NtRp2174
(dp2175
g54
(dp2176
g62
I3
ssg63
g2170
sg56
(lp2177
g758
asbasbasbag49
(g65
g51
NtRp2178
(dp2179
g54
(dp2180
sg63
g2006
sg56
(lp2181
g49
(g70
g51
NtRp2182
(dp2183
g54
(dp2184
g74
g75
ssg63
g2178
sg56
(lp2185
S'PATH_INFO'
p2186
asbag49
(g70
g51
NtRp2187
(dp2188
g54
(dp2189
g81
g82
ssg63
g2178
sg56
(lp2190
S':'
asbag49
(g70
g51
NtRp2191
(dp2192
g54
(dp2193
sg63
g2178
sg56
(lp2194
g49
(g50
g51
NtRp2195
(dp2196
g54
(dp2197
g62
I3
ssg63
g2191
sg56
(lp2198
g822
asbasbasbag49
(g65
g51
NtRp2199
(dp2200
g54
(dp2201
sg63
g2006
sg56
(lp2202
g49
(g70
g51
NtRp2203
(dp2204
g54
(dp2205
g74
g75
ssg63
g2199
sg56
(lp2206
S'QUERY_STRING'
p2207
asbag49
(g70
g51
NtRp2208
(dp2209
g54
(dp2210
g81
g82
ssg63
g2199
sg56
(lp2211
S':'
asbag49
(g70
g51
NtRp2212
(dp2213
g54
(dp2214
sg63
g2199
sg56
(lp2215
g49
(g50
g51
NtRp2216
(dp2217
g54
(dp2218
g62
I3
ssg63
g2212
sg56
(lp2219
S''
asbasbasbag49
(g65
g51
NtRp2220
(dp2221
g54
(dp2222
sg63
g2006
sg56
(lp2223
g49
(g70
g51
NtRp2224
(dp2225
g54
(dp2226
g74
g75
ssg63
g2220
sg56
(lp2227
S'REMOTE_ADDR'
p2228
asbag49
(g70
g51
NtRp2229
(dp2230
g54
(dp2231
g81
g82
ssg63
g2220
sg56
(lp2232
S':'
asbag49
(g70
g51
NtRp2233
(dp2234
g54
(dp2235
sg63
g2220
sg56
(lp2236
g49
(g50
g51
NtRp2237
(dp2238
g54
(dp2239
g62
I3
ssg63
g2233
sg56
(lp2240
g182
asbasbasbag49
(g65
g51
NtRp2241
(dp2242
g54
(dp2243
sg63
g2006
sg56
(lp2244
g49
(g70
g51
NtRp2245
(dp2246
g54
(dp2247
g74
g75
ssg63
g2241
sg56
(lp2248
S'REMOTE_PORT'
p2249
asbag49
(g70
g51
NtRp2250
(dp2251
g54
(dp2252
g81
g82
ssg63
g2241
sg56
(lp2253
S':'
asbag49
(g70
g51
NtRp2254
(dp2255
g54
(dp2256
sg63
g2241
sg56
(lp2257
g49
(g50
g51
NtRp2258
(dp2259
g54
(dp2260
g62
I3
ssg63
g2254
sg56
(lp2261
g886
asbasbasbag49
(g65
g51
NtRp2262
(dp2263
g54
(dp2264
sg63
g2006
sg56
(lp2265
g49
(g70
g51
NtRp2266
(dp2267
g54
(dp2268
g74
g75
ssg63
g2262
sg56
(lp2269
S'REQUEST_METHOD'
p2270
asbag49
(g70
g51
NtRp2271
(dp2272
g54
(dp2273
g81
g82
ssg63
g2262
sg56
(lp2274
S':'
asbag49
(g70
g51
NtRp2275
(dp2276
g54
(dp2277
sg63
g2262
sg56
(lp2278
g49
(g50
g51
NtRp2279
(dp2280
g54
(dp2281
g62
I3
ssg63
g2275
sg56
(lp2282
g908
asbasbasbag49
(g65
g51
NtRp2283
(dp2284
g54
(dp2285
sg63
g2006
sg56
(lp2286
g49
(g70
g51
NtRp2287
(dp2288
g54
(dp2289
g74
g75
ssg63
g2283
sg56
(lp2290
S'SCRIPT_NAME'
p2291
asbag49
(g70
g51
NtRp2292
(dp2293
g54
(dp2294
g81
g82
ssg63
g2283
sg56
(lp2295
S':'
asbag49
(g70
g51
NtRp2296
(dp2297
g54
(dp2298
sg63
g2283
sg56
(lp2299
g49
(g50
g51
NtRp2300
(dp2301
g54
(dp2302
g62
I3
ssg63
g2296
sg56
(lp2303
S''
asbasbasbag49
(g65
g51
NtRp2304
(dp2305
g54
(dp2306
sg63
g2006
sg56
(lp2307
g49
(g70
g51
NtRp2308
(dp2309
g54
(dp2310
g74
g75
ssg63
g2304
sg56
(lp2311
S'SERVER_NAME'
p2312
asbag49
(g70
g51
NtRp2313
(dp2314
g54
(dp2315
g81
g82
ssg63
g2304
sg56
(lp2316
S':'
asbag49
(g70
g51
NtRp2317
(dp2318
g54
(dp2319
sg63
g2304
sg56
(lp2320
g49
(g50
g51
NtRp2321
(dp2322
g54
(dp2323
g62
I3
ssg63
g2317
sg56
(lp2324
g951
asbasbasbag49
(g65
g51
NtRp2325
(dp2326
g54
(dp2327
sg63
g2006
sg56
(lp2328
g49
(g70
g51
NtRp2329
(dp2330
g54
(dp2331
g74
g75
ssg63
g2325
sg56
(lp2332
S'SERVER_PORT'
p2333
asbag49
(g70
g51
NtRp2334
(dp2335
g54
(dp2336
g81
g82
ssg63
g2325
sg56
(lp2337
S':'
asbag49
(g70
g51
NtRp2338
(dp2339
g54
(dp2340
sg63
g2325
sg56
(lp2341
g49
(g50
g51
NtRp2342
(dp2343
g54
(dp2344
g62
I3
ssg63
g2338
sg56
(lp2345
g973
asbasbasbag49
(g65
g51
NtRp2346
(dp2347
g54
(dp2348
sg63
g2006
sg56
(lp2349
g49
(g70
g51
NtRp2350
(dp2351
g54
(dp2352
g74
g75
ssg63
g2346
sg56
(lp2353
S'SERVER_PROTOCOL'
p2354
asbag49
(g70
g51
NtRp2355
(dp2356
g54
(dp2357
g81
g82
ssg63
g2346
sg56
(lp2358
S':'
asbag49
(g70
g51
NtRp2359
(dp2360
g54
(dp2361
sg63
g2346
sg56
(lp2362
g49
(g50
g51
NtRp2363
(dp2364
g54
(dp2365
g62
I3
ssg63
g2359
sg56
(lp2366
g995
asbasbasbag49
(g65
g51
NtRp2367
(dp2368
g54
(dp2369
sg63
g2006
sg56
(lp2370
g49
(g70
g51
NtRp2371
(dp2372
g54
(dp2373
g74
g75
ssg63
g2367
sg56
(lp2374
S'SERVER_SOFTWARE'
p2375
asbag49
(g70
g51
NtRp2376
(dp2377
g54
(dp2378
g81
g82
ssg63
g2367
sg56
(lp2379
S':'
asbag49
(g70
g51
NtRp2380
(dp2381
g54
(dp2382
sg63
g2367
sg56
(lp2383
g49
(g50
g51
NtRp2384
(dp2385
g54
(dp2386
g62
I3
ssg63
g2380
sg56
(lp2387
g1017
asbasbasbag49
(g65
g51
NtRp2388
(dp2389
g54
(dp2390
sg63
g2006
sg56
(lp2391
g49
(g70
g51
NtRp2392
(dp2393
g54
(dp2394
g74
g75
ssg63
g2388
sg56
(lp2395
S'wsgi.errors'
p2396
asbag49
(g70
g51
NtRp2397
(dp2398
g54
(dp2399
g81
g82
ssg63
g2388
sg56
(lp2400
S':'
asbag49
(g70
g51
NtRp2401
(dp2402
g54
(dp2403
sg63
g2388
sg56
(lp2404
g49
(g50
g51
NtRp2405
(dp2406
g54
(dp2407
g62
I3
ssg63
g2401
sg56
(lp2408
S"<open file '<stderr>', mode 'w' at 0x01EE00B0>"
p2409
asbasbasbag49
(g65
g51
NtRp2410
(dp2411
g54
(dp2412
sg63
g2006
sg56
(lp2413
g49
(g70
g51
NtRp2414
(dp2415
g54
(dp2416
g74
g75
ssg63
g2410
sg56
(lp2417
S'wsgi.file_wrapper'
p2418
asbag49
(g70
g51
NtRp2419
(dp2420
g54
(dp2421
g81
g82
ssg63
g2410
sg56
(lp2422
S':'
asbag49
(g70
g51
NtRp2423
(dp2424
g54
(dp2425
sg63
g2410
sg56
(lp2426
g49
(g50
g51
NtRp2427
(dp2428
g54
(dp2429
g62
I3
ssg63
g2423
sg56
(lp2430
S'<class wsgiref.util.FileWrapper at 0x02EC6450>'
p2431
asbasbasbag49
(g65
g51
NtRp2432
(dp2433
g54
(dp2434
sg63
g2006
sg56
(lp2435
g49
(g70
g51
NtRp2436
(dp2437
g54
(dp2438
g74
g75
ssg63
g2432
sg56
(lp2439
S'wsgi.input'
p2440
asbag49
(g70
g51
NtRp2441
(dp2442
g54
(dp2443
g81
g82
ssg63
g2432
sg56
(lp2444
S':'
asbag49
(g70
g51
NtRp2445
(dp2446
g54
(dp2447
sg63
g2432
sg56
(lp2448
g49
(g50
g51
NtRp2449
(dp2450
g54
(dp2451
g62
I3
ssg63
g2445
sg56
(lp2452
S'<cStringIO.StringO object at 0x032E5520>'
p2453
asbasbasbag49
(g65
g51
NtRp2454
(dp2455
g54
(dp2456
sg63
g2006
sg56
(lp2457
g49
(g70
g51
NtRp2458
(dp2459
g54
(dp2460
g74
g75
ssg63
g2454
sg56
(lp2461
S'wsgi.multiprocess'
p2462
asbag49
(g70
g51
NtRp2463
(dp2464
g54
(dp2465
g81
g82
ssg63
g2454
sg56
(lp2466
S':'
asbag49
(g70
g51
NtRp2467
(dp2468
g54
(dp2469
sg63
g2454
sg56
(lp2470
g49
(g50
g51
NtRp2471
(dp2472
g54
(dp2473
g62
I3
ssg63
g2467
sg56
(lp2474
g92
asbasbasbag49
(g65
g51
NtRp2475
(dp2476
g54
(dp2477
sg63
g2006
sg56
(lp2478
g49
(g70
g51
NtRp2479
(dp2480
g54
(dp2481
g74
g75
ssg63
g2475
sg56
(lp2482
S'wsgi.multithread'
p2483
asbag49
(g70
g51
NtRp2484
(dp2485
g54
(dp2486
g81
g82
ssg63
g2475
sg56
(lp2487
S':'
asbag49
(g70
g51
NtRp2488
(dp2489
g54
(dp2490
sg63
g2475
sg56
(lp2491
g49
(g50
g51
NtRp2492
(dp2493
g54
(dp2494
g62
I3
ssg63
g2488
sg56
(lp2495
g1257
asbasbasbag49
(g65
g51
NtRp2496
(dp2497
g54
(dp2498
sg63
g2006
sg56
(lp2499
g49
(g70
g51
NtRp2500
(dp2501
g54
(dp2502
g74
g75
ssg63
g2496
sg56
(lp2503
S'wsgi.run_once'
p2504
asbag49
(g70
g51
NtRp2505
(dp2506
g54
(dp2507
g81
g82
ssg63
g2496
sg56
(lp2508
S':'
asbag49
(g70
g51
NtRp2509
(dp2510
g54
(dp2511
sg63
g2496
sg56
(lp2512
g49
(g50
g51
NtRp2513
(dp2514
g54
(dp2515
g62
I3
ssg63
g2509
sg56
(lp2516
g92
asbasbasbag49
(g65
g51
NtRp2517
(dp2518
g54
(dp2519
sg63
g2006
sg56
(lp2520
g49
(g70
g51
NtRp2521
(dp2522
g54
(dp2523
g74
g75
ssg63
g2517
sg56
(lp2524
S'wsgi.url_scheme'
p2525
asbag49
(g70
g51
NtRp2526
(dp2527
g54
(dp2528
g81
g82
ssg63
g2517
sg56
(lp2529
S':'
asbag49
(g70
g51
NtRp2530
(dp2531
g54
(dp2532
sg63
g2517
sg56
(lp2533
g49
(g50
g51
NtRp2534
(dp2535
g54
(dp2536
g62
I3
ssg63
g2530
sg56
(lp2537
g1300
asbasbasbag49
(g65
g51
NtRp2538
(dp2539
g54
(dp2540
sg63
g2006
sg56
(lp2541
g49
(g70
g51
NtRp2542
(dp2543
g54
(dp2544
g74
g75
ssg63
g2538
sg56
(lp2545
S'wsgi.version'
p2546
asbag49
(g70
g51
NtRp2547
(dp2548
g54
(dp2549
g81
g82
ssg63
g2538
sg56
(lp2550
S':'
asbag49
(g70
g51
NtRp2551
(dp2552
g54
(dp2553
sg63
g2538
sg56
(lp2554
g49
(g50
g51
NtRp2555
(dp2556
g54
(dp2557
g62
I3
ssg63
g2551
sg56
(lp2558
S'1'
asbasbasbasbasbasbasbasbasbasbasbasbasbsS'frames'
p2559
(lp2560
(dp2561
S'file'
p2562
S'C:\\Users\\bhanu\\Downloads\\Compressed\\web2py\\gluon\\restricted.py'
p2563
sS'dump'
p2564
(dp2565
sS'lnum'
p2566
I205
sS'lines'
p2567
(dp2568
sS'call'
p2569
S"(code='# -*- coding: utf-8 -*-\\n### required - do no del...of=prof)\\n\\nresponse._vars=response._caller(index)\\n', environment={'A': <class 'gluon.html.A'>, 'Auth': <class 'gluon.tools.Auth'>, 'B': <class 'gluon.html.B'>, 'BEAUTIFY': <class 'gluon.html.BEAUTIFY'>, 'BODY': <class 'gluon.html.BODY'>, 'BR': <class 'gluon.html.BR'>, 'BUTTON': <class 'gluon.html.BUTTON'>, 'CAT': <class 'gluon.html.CAT'>, 'CENTER': <class 'gluon.html.CENTER'>, 'CLEANUP': <class 'gluon.validators.CLEANUP'>, ...}, layer=r'C:\\Users\\bhanu\\Downloads\\Compressed\\web2py\\applications\\hostel\\controllers/default.py')"
p2570
sS'func'
p2571
S'restricted'
p2572
sa(dp2573
g2562
S'C:\\Users\\bhanu\\Downloads\\Compressed\\web2py\\applications\\hostel\\controllers\\default.py'
p2574
sg2564
(dp2575
sg2566
I174
sg2567
(dp2576
I163
S'    query=db.students.name.lower().startswith(name)'
p2577
sI164
S'    set=db(query)'
p2578
sI165
S'    result=set.select()'
p2579
sI166
S'    return dict(result=result)'
p2580
sI167
S''
sI168
S'def viewprofile():'
p2581
sI169
S'    query=(db.students.roll_no==request.args(0))'
p2582
sI170
S'    set=db(query)'
p2583
sI171
S'    prof=set.select()'
p2584
sI172
S'    return dict(prof=prof)'
p2585
ssg2569
S'()'
p2586
sg2571
S'<module>'
p2587
sa(dp2588
g2562
S'C:\\Users\\bhanu\\Downloads\\Compressed\\web2py\\gluon\\globals.py'
p2589
sg2564
(dp2590
sg2566
I173
sg2567
(dp2591
sg2569
S'(f=<function index at 0x067A9670>)'
p2592
sg2571
S'<lambda>'
p2593
sa(dp2594
g2562
S'C:\\Users\\bhanu\\Downloads\\Compressed\\web2py\\applications\\hostel\\controllers\\default.py'
p2595
sg2564
(dp2596
sg2566
I26
sg2567
(dp2597
I21
S"    redirect(URL(r=request,f='index'))"
p2598
sI22
S'    return dict()'
p2599
sI23
S'def index():'
p2600
sI24
S'    session.flash=response.flash'
p2601
sI25
S'    a=db(auth.user_id==db.auth_membership.user_id).select(db.auth_membership.ALL)'
p2602
sI26
S'    if a[0].group_id==5:'
p2603
sI27
S"        redirect(URL(r=request,f='student'))"
p2604
sI28
S'    if a[0].group_id==6:'
p2605
sI29
S"        redirect(URL(r=request,f='staff'))"
p2606
sI30
S'    if a[0].group_id==7:'
p2607
ssg2569
S'()'
p2608
sg2571
S'index'
p2609
sa(dp2610
g2562
S'C:\\Users\\bhanu\\Downloads\\Compressed\\web2py\\gluon\\dal.py'
p2611
sg2564
(dp2612
sg2566
I7755
sg2567
(dp2613
sg2569
S'(self=<gluon.dal.Rows object at 0x06BBE430>, i=0)'
p2614
sg2571
g20
sasS'pyver'
p2615
S'Python 2.5.4: C:\\Users\\bhanu\\Downloads\\Compressed\\web2py\\web2py.exe'
p2616
sS'session'
p2617
g49
(g50
g51
NtRp2618
(dp2619
g54
(dp2620
sg56
(lp2621
g49
(g58
g51
NtRp2622
(dp2623
g54
(dp2624
g62
I5
ssg63
Nsg56
(lp2625
g49
(g65
g51
NtRp2626
(dp2627
g54
(dp2628
sg63
g2622
sg56
(lp2629
g49
(g70
g51
NtRp2630
(dp2631
g54
(dp2632
g74
g75
ssg63
g2626
sg56
(lp2633
S'flash'
p2634
asbag49
(g70
g51
NtRp2635
(dp2636
g54
(dp2637
g81
g82
ssg63
g2626
sg56
(lp2638
S':'
asbag49
(g70
g51
NtRp2639
(dp2640
g54
(dp2641
sg63
g2626
sg56
(lp2642
g49
(g50
g51
NtRp2643
(dp2644
g54
(dp2645
g62
I5
ssg63
g2639
sg56
(lp2646
S''
asbasbasbasbasbsS'etype'
p2647
S"<type 'exceptions.IndexError'>"
p2648
sS'date'
p2649
S'Tue Oct 16 08:43:35 2012'
p2650
sS'response'
p2651
g49
(g50
g51
NtRp2652
(dp2653
g54
(dp2654
sg56
(lp2655
g49
(g58
g51
NtRp2656
(dp2657
g54
(dp2658
g62
I5
ssg63
Nsg56
(lp2659
g49
(g65
g51
NtRp2660
(dp2661
g54
(dp2662
sg63
g2656
sg56
(lp2663
g49
(g70
g51
NtRp2664
(dp2665
g54
(dp2666
g74
g75
ssg63
g2660
sg56
(lp2667
g147
asbag49
(g70
g51
NtRp2668
(dp2669
g54
(dp2670
g81
g82
ssg63
g2660
sg56
(lp2671
S':'
asbag49
(g70
g51
NtRp2672
(dp2673
g54
(dp2674
sg63
g2660
sg56
(lp2675
g49
(g50
g51
NtRp2676
(dp2677
g54
(dp2678
g62
I5
ssg63
g2672
sg56
(lp2679
S'<cStringIO.StringO object at 0x032E5420>'
p2680
asbasbasbag49
(g65
g51
NtRp2681
(dp2682
g54
(dp2683
sg63
g2656
sg56
(lp2684
g49
(g70
g51
NtRp2685
(dp2686
g54
(dp2687
g74
g75
ssg63
g2681
sg56
(lp2688
S'complaint'
p2689
asbag49
(g70
g51
NtRp2690
(dp2691
g54
(dp2692
g81
g82
ssg63
g2681
sg56
(lp2693
S':'
asbag49
(g70
g51
NtRp2694
(dp2695
g54
(dp2696
sg63
g2681
sg56
(lp2697
g49
(g50
g51
NtRp2698
(dp2699
g54
(dp2700
g62
I5
ssg63
g2694
sg56
(lp2701
g49
(g58
g51
NtRp2702
(dp2703
g54
(dp2704
g62
I4
ssg63
Nsg56
(lp2705
g49
(g65
g51
NtRp2706
(dp2707
g54
(dp2708
sg63
g2702
sg56
(lp2709
g49
(g70
g51
NtRp2710
(dp2711
g54
(dp2712
sg63
g2706
sg56
(lp2713
g49
(g50
g51
NtRp2714
(dp2715
g54
(dp2716
g62
I4
ssg63
g2710
sg56
(lp2717
g49
(g58
g51
NtRp2718
(dp2719
g54
(dp2720
g62
I3
ssg63
Nsg56
(lp2721
g49
(g65
g51
NtRp2722
(dp2723
g54
(dp2724
sg63
g2718
sg56
(lp2725
g49
(g70
g51
NtRp2726
(dp2727
g54
(dp2728
sg63
g2722
sg56
(lp2729
g49
(g50
g51
NtRp2730
(dp2731
g54
(dp2732
g62
I3
ssg63
g2726
sg56
(lp2733
cgluon.languages
lazyT_unpickle
p2734
(S's\t\x00\x00\x00COMPLAINT'
tRp2735
asbasbasbag49
(g65
g51
NtRp2736
(dp2737
g54
(dp2738
sg63
g2718
sg56
(lp2739
g49
(g70
g51
NtRp2740
(dp2741
g54
(dp2742
sg63
g2736
sg56
(lp2743
g49
(g50
g51
NtRp2744
(dp2745
g54
(dp2746
g62
I3
ssg63
g2740
sg56
(lp2747
g92
asbasbasbag49
(g65
g51
NtRp2748
(dp2749
g54
(dp2750
sg63
g2718
sg56
(lp2751
g49
(g70
g51
NtRp2752
(dp2753
g54
(dp2754
sg63
g2748
sg56
(lp2755
g49
(g50
g51
NtRp2756
(dp2757
g54
(dp2758
g62
I3
ssg63
g2752
sg56
(lp2759
S'/hostel/default/complaint'
p2760
asbasbasbag49
(g65
g51
NtRp2761
(dp2762
g54
(dp2763
sg63
g2718
sg56
(lp2764
g49
(g70
g51
NtRp2765
(dp2766
g54
(dp2767
sg63
g2761
sg56
(lp2768
g49
(g50
g51
NtRp2769
(dp2770
g54
(dp2771
g62
I3
ssg63
g2765
sg56
(lp2772
g49
(g58
g51
NtRp2773
(dp2774
g54
(dp2775
g62
I2
ssg63
Nsg56
(lp2776
sbasbasbasbasbasbasbasbasbasbasbasbag49
(g65
g51
NtRp2777
(dp2778
g54
(dp2779
sg63
g2656
sg56
(lp2780
g49
(g70
g51
NtRp2781
(dp2782
g54
(dp2783
g74
g75
ssg63
g2777
sg56
(lp2784
g213
asbag49
(g70
g51
NtRp2785
(dp2786
g54
(dp2787
g81
g82
ssg63
g2777
sg56
(lp2788
S':'
asbag49
(g70
g51
NtRp2789
(dp2790
g54
(dp2791
sg63
g2777
sg56
(lp2792
g49
(g50
g51
NtRp2793
(dp2794
g54
(dp2795
g62
I5
ssg63
g2789
sg56
(lp2796
g49
(g58
g51
NtRp2797
(dp2798
g54
(dp2799
g62
I4
ssg63
Nsg56
(lp2800
g49
(g65
g51
NtRp2801
(dp2802
g54
(dp2803
sg63
g2797
sg56
(lp2804
g49
(g70
g51
NtRp2805
(dp2806
g54
(dp2807
g74
g75
ssg63
g2801
sg56
(lp2808
S'session_id_hostel'
p2809
asbag49
(g70
g51
NtRp2810
(dp2811
g54
(dp2812
g81
g82
ssg63
g2801
sg56
(lp2813
S':'
asbag49
(g70
g51
NtRp2814
(dp2815
g54
(dp2816
sg63
g2801
sg56
(lp2817
g49
(g50
g51
NtRp2818
(dp2819
g54
(dp2820
g62
I4
ssg63
g2814
sg56
(lp2821
g49
(g58
g51
NtRp2822
(dp2823
g54
(dp2824
g62
I3
ssg63
Nsg56
(lp2825
g49
(g65
g51
NtRp2826
(dp2827
g54
(dp2828
sg63
g2822
sg56
(lp2829
g49
(g70
g51
NtRp2830
(dp2831
g54
(dp2832
g74
g75
ssg63
g2826
sg56
(lp2833
g263
asbag49
(g70
g51
NtRp2834
(dp2835
g54
(dp2836
g81
g82
ssg63
g2826
sg56
(lp2837
S':'
asbag49
(g70
g51
NtRp2838
(dp2839
g54
(dp2840
sg63
g2826
sg56
(lp2841
g49
(g50
g51
NtRp2842
(dp2843
g54
(dp2844
g62
I3
ssg63
g2838
sg56
(lp2845
S''
asbasbasbag49
(g65
g51
NtRp2846
(dp2847
g54
(dp2848
sg63
g2822
sg56
(lp2849
g49
(g70
g51
NtRp2850
(dp2851
g54
(dp2852
g74
g75
ssg63
g2846
sg56
(lp2853
g284
asbag49
(g70
g51
NtRp2854
(dp2855
g54
(dp2856
g81
g82
ssg63
g2846
sg56
(lp2857
S':'
asbag49
(g70
g51
NtRp2858
(dp2859
g54
(dp2860
sg63
g2846
sg56
(lp2861
g49
(g50
g51
NtRp2862
(dp2863
g54
(dp2864
g62
I3
ssg63
g2858
sg56
(lp2865
S''
asbasbasbag49
(g65
g51
NtRp2866
(dp2867
g54
(dp2868
sg63
g2822
sg56
(lp2869
g49
(g70
g51
NtRp2870
(dp2871
g54
(dp2872
g74
g75
ssg63
g2866
sg56
(lp2873
g305
asbag49
(g70
g51
NtRp2874
(dp2875
g54
(dp2876
g81
g82
ssg63
g2866
sg56
(lp2877
S':'
asbag49
(g70
g51
NtRp2878
(dp2879
g54
(dp2880
sg63
g2866
sg56
(lp2881
g49
(g50
g51
NtRp2882
(dp2883
g54
(dp2884
g62
I3
ssg63
g2878
sg56
(lp2885
S''
asbasbasbag49
(g65
g51
NtRp2886
(dp2887
g54
(dp2888
sg63
g2822
sg56
(lp2889
g49
(g70
g51
NtRp2890
(dp2891
g54
(dp2892
g74
g75
ssg63
g2886
sg56
(lp2893
g326
asbag49
(g70
g51
NtRp2894
(dp2895
g54
(dp2896
g81
g82
ssg63
g2886
sg56
(lp2897
S':'
asbag49
(g70
g51
NtRp2898
(dp2899
g54
(dp2900
sg63
g2886
sg56
(lp2901
g49
(g50
g51
NtRp2902
(dp2903
g54
(dp2904
g62
I3
ssg63
g2898
sg56
(lp2905
S''
asbasbasbag49
(g65
g51
NtRp2906
(dp2907
g54
(dp2908
sg63
g2822
sg56
(lp2909
g49
(g70
g51
NtRp2910
(dp2911
g54
(dp2912
g74
g75
ssg63
g2906
sg56
(lp2913
g347
asbag49
(g70
g51
NtRp2914
(dp2915
g54
(dp2916
g81
g82
ssg63
g2906
sg56
(lp2917
S':'
asbag49
(g70
g51
NtRp2918
(dp2919
g54
(dp2920
sg63
g2906
sg56
(lp2921
g49
(g50
g51
NtRp2922
(dp2923
g54
(dp2924
g62
I3
ssg63
g2918
sg56
(lp2925
S'/'
asbasbasbag49
(g65
g51
NtRp2926
(dp2927
g54
(dp2928
sg63
g2822
sg56
(lp2929
g49
(g70
g51
NtRp2930
(dp2931
g54
(dp2932
g74
g75
ssg63
g2926
sg56
(lp2933
g368
asbag49
(g70
g51
NtRp2934
(dp2935
g54
(dp2936
g81
g82
ssg63
g2926
sg56
(lp2937
S':'
asbag49
(g70
g51
NtRp2938
(dp2939
g54
(dp2940
sg63
g2926
sg56
(lp2941
g49
(g50
g51
NtRp2942
(dp2943
g54
(dp2944
g62
I3
ssg63
g2938
sg56
(lp2945
S''
asbasbasbag49
(g65
g51
NtRp2946
(dp2947
g54
(dp2948
sg63
g2822
sg56
(lp2949
g49
(g70
g51
NtRp2950
(dp2951
g54
(dp2952
g74
g75
ssg63
g2946
sg56
(lp2953
g389
asbag49
(g70
g51
NtRp2954
(dp2955
g54
(dp2956
g81
g82
ssg63
g2946
sg56
(lp2957
S':'
asbag49
(g70
g51
NtRp2958
(dp2959
g54
(dp2960
sg63
g2946
sg56
(lp2961
g49
(g50
g51
NtRp2962
(dp2963
g54
(dp2964
g62
I3
ssg63
g2958
sg56
(lp2965
S''
asbasbasbasbasbasbasbasbasbasbasbag49
(g65
g51
NtRp2966
(dp2967
g54
(dp2968
sg63
g2656
sg56
(lp2969
g49
(g70
g51
NtRp2970
(dp2971
g54
(dp2972
g74
g75
ssg63
g2966
sg56
(lp2973
S'delimiters'
p2974
asbag49
(g70
g51
NtRp2975
(dp2976
g54
(dp2977
g81
g82
ssg63
g2966
sg56
(lp2978
S':'
asbag49
(g70
g51
NtRp2979
(dp2980
g54
(dp2981
sg63
g2966
sg56
(lp2982
g49
(g50
g51
NtRp2983
(dp2984
g54
(dp2985
g62
I5
ssg63
g2979
sg56
(lp2986
g49
(g58
g51
NtRp2987
(dp2988
g54
(dp2989
g62
I4
ssg63
Nsg56
(lp2990
g49
(g65
g51
NtRp2991
(dp2992
g54
(dp2993
sg63
g2987
sg56
(lp2994
g49
(g70
g51
NtRp2995
(dp2996
g54
(dp2997
sg63
g2991
sg56
(lp2998
g49
(g50
g51
NtRp2999
(dp3000
g54
(dp3001
g62
I4
ssg63
g2995
sg56
(lp3002
S'{{'
p3003
asbasbasbag49
(g65
g51
NtRp3004
(dp3005
g54
(dp3006
sg63
g2987
sg56
(lp3007
g49
(g70
g51
NtRp3008
(dp3009
g54
(dp3010
sg63
g3004
sg56
(lp3011
g49
(g50
g51
NtRp3012
(dp3013
g54
(dp3014
g62
I4
ssg63
g3008
sg56
(lp3015
S'}}'
p3016
asbasbasbasbasbasbasbag49
(g65
g51
NtRp3017
(dp3018
g54
(dp3019
sg63
g2656
sg56
(lp3020
g49
(g70
g51
NtRp3021
(dp3022
g54
(dp3023
g74
g75
ssg63
g3017
sg56
(lp3024
S'enter_laptop_details'
p3025
asbag49
(g70
g51
NtRp3026
(dp3027
g54
(dp3028
g81
g82
ssg63
g3017
sg56
(lp3029
S':'
asbag49
(g70
g51
NtRp3030
(dp3031
g54
(dp3032
sg63
g3017
sg56
(lp3033
g49
(g50
g51
NtRp3034
(dp3035
g54
(dp3036
g62
I5
ssg63
g3030
sg56
(lp3037
g49
(g58
g51
NtRp3038
(dp3039
g54
(dp3040
g62
I4
ssg63
Nsg56
(lp3041
g49
(g65
g51
NtRp3042
(dp3043
g54
(dp3044
sg63
g3038
sg56
(lp3045
g49
(g70
g51
NtRp3046
(dp3047
g54
(dp3048
sg63
g3042
sg56
(lp3049
g49
(g50
g51
NtRp3050
(dp3051
g54
(dp3052
g62
I4
ssg63
g3046
sg56
(lp3053
g49
(g58
g51
NtRp3054
(dp3055
g54
(dp3056
g62
I3
ssg63
Nsg56
(lp3057
g49
(g65
g51
NtRp3058
(dp3059
g54
(dp3060
sg63
g3054
sg56
(lp3061
g49
(g70
g51
NtRp3062
(dp3063
g54
(dp3064
sg63
g3058
sg56
(lp3065
g49
(g50
g51
NtRp3066
(dp3067
g54
(dp3068
g62
I3
ssg63
g3062
sg56
(lp3069
g2734
(S's\x14\x00\x00\x00Enter Laptop Details'
tRp3070
asbasbasbag49
(g65
g51
NtRp3071
(dp3072
g54
(dp3073
sg63
g3054
sg56
(lp3074
g49
(g70
g51
NtRp3075
(dp3076
g54
(dp3077
sg63
g3071
sg56
(lp3078
g49
(g50
g51
NtRp3079
(dp3080
g54
(dp3081
g62
I3
ssg63
g3075
sg56
(lp3082
g92
asbasbasbag49
(g65
g51
NtRp3083
(dp3084
g54
(dp3085
sg63
g3054
sg56
(lp3086
g49
(g70
g51
NtRp3087
(dp3088
g54
(dp3089
sg63
g3083
sg56
(lp3090
g49
(g50
g51
NtRp3091
(dp3092
g54
(dp3093
g62
I3
ssg63
g3087
sg56
(lp3094
S'/hostel/default/enter_laptop_details'
p3095
asbasbasbag49
(g65
g51
NtRp3096
(dp3097
g54
(dp3098
sg63
g3054
sg56
(lp3099
g49
(g70
g51
NtRp3100
(dp3101
g54
(dp3102
sg63
g3096
sg56
(lp3103
g49
(g50
g51
NtRp3104
(dp3105
g54
(dp3106
g62
I3
ssg63
g3100
sg56
(lp3107
g49
(g58
g51
NtRp3108
(dp3109
g54
(dp3110
g62
I2
ssg63
Nsg56
(lp3111
sbasbasbasbasbasbasbasbasbasbasbasbag49
(g65
g51
NtRp3112
(dp3113
g54
(dp3114
sg63
g2656
sg56
(lp3115
g49
(g70
g51
NtRp3116
(dp3117
g54
(dp3118
g74
g75
ssg63
g3112
sg56
(lp3119
S'files'
p3120
asbag49
(g70
g51
NtRp3121
(dp3122
g54
(dp3123
g81
g82
ssg63
g3112
sg56
(lp3124
S':'
asbag49
(g70
g51
NtRp3125
(dp3126
g54
(dp3127
sg63
g3112
sg56
(lp3128
g49
(g50
g51
NtRp3129
(dp3130
g54
(dp3131
g62
I5
ssg63
g3125
sg56
(lp3132
g49
(g58
g51
NtRp3133
(dp3134
g54
(dp3135
g62
I4
ssg63
Nsg56
(lp3136
sbasbasbasbag49
(g65
g51
NtRp3137
(dp3138
g54
(dp3139
sg63
g2656
sg56
(lp3140
g49
(g70
g51
NtRp3141
(dp3142
g54
(dp3143
g74
g75
ssg63
g3137
sg56
(lp3144
g2634
asbag49
(g70
g51
NtRp3145
(dp3146
g54
(dp3147
g81
g82
ssg63
g3137
sg56
(lp3148
S':'
asbag49
(g70
g51
NtRp3149
(dp3150
g54
(dp3151
sg63
g3137
sg56
(lp3152
g49
(g50
g51
NtRp3153
(dp3154
g54
(dp3155
g62
I5
ssg63
g3149
sg56
(lp3156
S''
asbasbasbag49
(g65
g51
NtRp3157
(dp3158
g54
(dp3159
sg63
g2656
sg56
(lp3160
g49
(g70
g51
NtRp3161
(dp3162
g54
(dp3163
g74
g75
ssg63
g3157
sg56
(lp3164
S'generic_patterns'
p3165
asbag49
(g70
g51
NtRp3166
(dp3167
g54
(dp3168
g81
g82
ssg63
g3157
sg56
(lp3169
S':'
asbag49
(g70
g51
NtRp3170
(dp3171
g54
(dp3172
sg63
g3157
sg56
(lp3173
g49
(g50
g51
NtRp3174
(dp3175
g54
(dp3176
g62
I5
ssg63
g3170
sg56
(lp3177
g49
(g58
g51
NtRp3178
(dp3179
g54
(dp3180
g62
I4
ssg63
Nsg56
(lp3181
g49
(g65
g51
NtRp3182
(dp3183
g54
(dp3184
sg63
g3178
sg56
(lp3185
g49
(g70
g51
NtRp3186
(dp3187
g54
(dp3188
sg63
g3182
sg56
(lp3189
g49
(g50
g51
NtRp3190
(dp3191
g54
(dp3192
g62
I4
ssg63
g3186
sg56
(lp3193
S'*'
asbasbasbasbasbasbasbag49
(g65
g51
NtRp3194
(dp3195
g54
(dp3196
sg63
g2656
sg56
(lp3197
g49
(g70
g51
NtRp3198
(dp3199
g54
(dp3200
g74
g75
ssg63
g3194
sg56
(lp3201
S'headers'
p3202
asbag49
(g70
g51
NtRp3203
(dp3204
g54
(dp3205
g81
g82
ssg63
g3194
sg56
(lp3206
S':'
asbag49
(g70
g51
NtRp3207
(dp3208
g54
(dp3209
sg63
g3194
sg56
(lp3210
g49
(g50
g51
NtRp3211
(dp3212
g54
(dp3213
g62
I5
ssg63
g3207
sg56
(lp3214
g49
(g58
g51
NtRp3215
(dp3216
g54
(dp3217
g62
I4
ssg63
Nsg56
(lp3218
g49
(g65
g51
NtRp3219
(dp3220
g54
(dp3221
sg63
g3215
sg56
(lp3222
g49
(g70
g51
NtRp3223
(dp3224
g54
(dp3225
g74
g75
ssg63
g3219
sg56
(lp3226
S'Cache-Control'
p3227
asbag49
(g70
g51
NtRp3228
(dp3229
g54
(dp3230
g81
g82
ssg63
g3219
sg56
(lp3231
S':'
asbag49
(g70
g51
NtRp3232
(dp3233
g54
(dp3234
sg63
g3219
sg56
(lp3235
g49
(g50
g51
NtRp3236
(dp3237
g54
(dp3238
g62
I4
ssg63
g3232
sg56
(lp3239
S'no-store, no-cache, must-revalidate, post-check=0, pre-check=0'
p3240
asbasbasbag49
(g65
g51
NtRp3241
(dp3242
g54
(dp3243
sg63
g3215
sg56
(lp3244
g49
(g70
g51
NtRp3245
(dp3246
g54
(dp3247
g74
g75
ssg63
g3241
sg56
(lp3248
S'Content-Type'
p3249
asbag49
(g70
g51
NtRp3250
(dp3251
g54
(dp3252
g81
g82
ssg63
g3241
sg56
(lp3253
S':'
asbag49
(g70
g51
NtRp3254
(dp3255
g54
(dp3256
sg63
g3241
sg56
(lp3257
g49
(g50
g51
NtRp3258
(dp3259
g54
(dp3260
g62
I4
ssg63
g3254
sg56
(lp3261
S'text/html; charset=utf-8'
p3262
asbasbasbag49
(g65
g51
NtRp3263
(dp3264
g54
(dp3265
sg63
g3215
sg56
(lp3266
g49
(g70
g51
NtRp3267
(dp3268
g54
(dp3269
g74
g75
ssg63
g3263
sg56
(lp3270
S'Expires'
p3271
asbag49
(g70
g51
NtRp3272
(dp3273
g54
(dp3274
g81
g82
ssg63
g3263
sg56
(lp3275
S':'
asbag49
(g70
g51
NtRp3276
(dp3277
g54
(dp3278
sg63
g3263
sg56
(lp3279
g49
(g50
g51
NtRp3280
(dp3281
g54
(dp3282
g62
I4
ssg63
g3276
sg56
(lp3283
S'Tue, 16 Oct 2012 03:13:35 GMT'
p3284
asbasbasbag49
(g65
g51
NtRp3285
(dp3286
g54
(dp3287
sg63
g3215
sg56
(lp3288
g49
(g70
g51
NtRp3289
(dp3290
g54
(dp3291
g74
g75
ssg63
g3285
sg56
(lp3292
S'Pragma'
p3293
asbag49
(g70
g51
NtRp3294
(dp3295
g54
(dp3296
g81
g82
ssg63
g3285
sg56
(lp3297
S':'
asbag49
(g70
g51
NtRp3298
(dp3299
g54
(dp3300
sg63
g3285
sg56
(lp3301
g49
(g50
g51
NtRp3302
(dp3303
g54
(dp3304
g62
I4
ssg63
g3298
sg56
(lp3305
S'no-cache'
p3306
asbasbasbag49
(g65
g51
NtRp3307
(dp3308
g54
(dp3309
sg63
g3215
sg56
(lp3310
g49
(g70
g51
NtRp3311
(dp3312
g54
(dp3313
g74
g75
ssg63
g3307
sg56
(lp3314
S'X-Powered-By'
p3315
asbag49
(g70
g51
NtRp3316
(dp3317
g54
(dp3318
g81
g82
ssg63
g3307
sg56
(lp3319
S':'
asbag49
(g70
g51
NtRp3320
(dp3321
g54
(dp3322
sg63
g3307
sg56
(lp3323
g49
(g50
g51
NtRp3324
(dp3325
g54
(dp3326
g62
I4
ssg63
g3320
sg56
(lp3327
S'web2py'
p3328
asbasbasbasbasbasbasbag49
(g65
g51
NtRp3329
(dp3330
g54
(dp3331
sg63
g2656
sg56
(lp3332
g49
(g70
g51
NtRp3333
(dp3334
g54
(dp3335
g74
g75
ssg63
g3329
sg56
(lp3336
S'laptop_out_details'
p3337
asbag49
(g70
g51
NtRp3338
(dp3339
g54
(dp3340
g81
g82
ssg63
g3329
sg56
(lp3341
S':'
asbag49
(g70
g51
NtRp3342
(dp3343
g54
(dp3344
sg63
g3329
sg56
(lp3345
g49
(g50
g51
NtRp3346
(dp3347
g54
(dp3348
g62
I5
ssg63
g3342
sg56
(lp3349
g49
(g58
g51
NtRp3350
(dp3351
g54
(dp3352
g62
I4
ssg63
Nsg56
(lp3353
g49
(g65
g51
NtRp3354
(dp3355
g54
(dp3356
sg63
g3350
sg56
(lp3357
g49
(g70
g51
NtRp3358
(dp3359
g54
(dp3360
sg63
g3354
sg56
(lp3361
g49
(g50
g51
NtRp3362
(dp3363
g54
(dp3364
g62
I4
ssg63
g3358
sg56
(lp3365
g49
(g58
g51
NtRp3366
(dp3367
g54
(dp3368
g62
I3
ssg63
Nsg56
(lp3369
g49
(g65
g51
NtRp3370
(dp3371
g54
(dp3372
sg63
g3366
sg56
(lp3373
g49
(g70
g51
NtRp3374
(dp3375
g54
(dp3376
sg63
g3370
sg56
(lp3377
g49
(g50
g51
NtRp3378
(dp3379
g54
(dp3380
g62
I3
ssg63
g3374
sg56
(lp3381
g2734
(S's\x0f\x00\x00\x00Laptop Movement'
tRp3382
asbasbasbag49
(g65
g51
NtRp3383
(dp3384
g54
(dp3385
sg63
g3366
sg56
(lp3386
g49
(g70
g51
NtRp3387
(dp3388
g54
(dp3389
sg63
g3383
sg56
(lp3390
g49
(g50
g51
NtRp3391
(dp3392
g54
(dp3393
g62
I3
ssg63
g3387
sg56
(lp3394
g92
asbasbasbag49
(g65
g51
NtRp3395
(dp3396
g54
(dp3397
sg63
g3366
sg56
(lp3398
g49
(g70
g51
NtRp3399
(dp3400
g54
(dp3401
sg63
g3395
sg56
(lp3402
g49
(g50
g51
NtRp3403
(dp3404
g54
(dp3405
g62
I3
ssg63
g3399
sg56
(lp3406
S'/hostel/default/laptop_out_details'
p3407
asbasbasbag49
(g65
g51
NtRp3408
(dp3409
g54
(dp3410
sg63
g3366
sg56
(lp3411
g49
(g70
g51
NtRp3412
(dp3413
g54
(dp3414
sg63
g3408
sg56
(lp3415
g49
(g50
g51
NtRp3416
(dp3417
g54
(dp3418
g62
I3
ssg63
g3412
sg56
(lp3419
g49
(g58
g51
NtRp3420
(dp3421
g54
(dp3422
g62
I2
ssg63
Nsg56
(lp3423
sbasbasbasbasbasbasbasbasbasbasbasbag49
(g65
g51
NtRp3424
(dp3425
g54
(dp3426
sg63
g2656
sg56
(lp3427
g49
(g70
g51
NtRp3428
(dp3429
g54
(dp3430
g74
g75
ssg63
g3424
sg56
(lp3431
S'menu'
p3432
asbag49
(g70
g51
NtRp3433
(dp3434
g54
(dp3435
g81
g82
ssg63
g3424
sg56
(lp3436
S':'
asbag49
(g70
g51
NtRp3437
(dp3438
g54
(dp3439
sg63
g3424
sg56
(lp3440
g49
(g50
g51
NtRp3441
(dp3442
g54
(dp3443
g62
I5
ssg63
g3437
sg56
(lp3444
g49
(g58
g51
NtRp3445
(dp3446
g54
(dp3447
g62
I4
ssg63
Nsg56
(lp3448
g49
(g65
g51
NtRp3449
(dp3450
g54
(dp3451
sg63
g3445
sg56
(lp3452
g49
(g70
g51
NtRp3453
(dp3454
g54
(dp3455
sg63
g3449
sg56
(lp3456
g49
(g50
g51
NtRp3457
(dp3458
g54
(dp3459
g62
I4
ssg63
g3453
sg56
(lp3460
g49
(g58
g51
NtRp3461
(dp3462
g54
(dp3463
g62
I3
ssg63
Nsg56
(lp3464
g49
(g65
g51
NtRp3465
(dp3466
g54
(dp3467
sg63
g3461
sg56
(lp3468
g49
(g70
g51
NtRp3469
(dp3470
g54
(dp3471
sg63
g3465
sg56
(lp3472
g49
(g50
g51
NtRp3473
(dp3474
g54
(dp3475
g62
I3
ssg63
g3469
sg56
(lp3476
g2734
(S's\x04\x00\x00\x00HOME'
tRp3477
asbasbasbag49
(g65
g51
NtRp3478
(dp3479
g54
(dp3480
sg63
g3461
sg56
(lp3481
g49
(g70
g51
NtRp3482
(dp3483
g54
(dp3484
sg63
g3478
sg56
(lp3485
g49
(g50
g51
NtRp3486
(dp3487
g54
(dp3488
g62
I3
ssg63
g3482
sg56
(lp3489
g1257
asbasbasbag49
(g65
g51
NtRp3490
(dp3491
g54
(dp3492
sg63
g3461
sg56
(lp3493
g49
(g70
g51
NtRp3494
(dp3495
g54
(dp3496
sg63
g3490
sg56
(lp3497
g49
(g50
g51
NtRp3498
(dp3499
g54
(dp3500
g62
I3
ssg63
g3494
sg56
(lp3501
S'/hostel/default/index'
p3502
asbasbasbag49
(g65
g51
NtRp3503
(dp3504
g54
(dp3505
sg63
g3461
sg56
(lp3506
g49
(g70
g51
NtRp3507
(dp3508
g54
(dp3509
sg63
g3503
sg56
(lp3510
g49
(g50
g51
NtRp3511
(dp3512
g54
(dp3513
g62
I3
ssg63
g3507
sg56
(lp3514
g49
(g58
g51
NtRp3515
(dp3516
g54
(dp3517
g62
I2
ssg63
Nsg56
(lp3518
sbasbasbasbasbasbasbasbasbasbasbasbag49
(g65
g51
NtRp3519
(dp3520
g54
(dp3521
sg63
g2656
sg56
(lp3522
g49
(g70
g51
NtRp3523
(dp3524
g54
(dp3525
g74
g75
ssg63
g3519
sg56
(lp3526
S'meta'
p3527
asbag49
(g70
g51
NtRp3528
(dp3529
g54
(dp3530
g81
g82
ssg63
g3519
sg56
(lp3531
S':'
asbag49
(g70
g51
NtRp3532
(dp3533
g54
(dp3534
sg63
g3519
sg56
(lp3535
g49
(g50
g51
NtRp3536
(dp3537
g54
(dp3538
g62
I5
ssg63
g3532
sg56
(lp3539
g49
(g58
g51
NtRp3540
(dp3541
g54
(dp3542
g62
I4
ssg63
Nsg56
(lp3543
g49
(g65
g51
NtRp3544
(dp3545
g54
(dp3546
sg63
g3540
sg56
(lp3547
g49
(g70
g51
NtRp3548
(dp3549
g54
(dp3550
g74
g75
ssg63
g3544
sg56
(lp3551
S'author'
p3552
asbag49
(g70
g51
NtRp3553
(dp3554
g54
(dp3555
g81
g82
ssg63
g3544
sg56
(lp3556
S':'
asbag49
(g70
g51
NtRp3557
(dp3558
g54
(dp3559
sg63
g3544
sg56
(lp3560
g49
(g50
g51
NtRp3561
(dp3562
g54
(dp3563
g62
I4
ssg63
g3557
sg56
(lp3564
S'you <you@example.com>'
p3565
asbasbasbag49
(g65
g51
NtRp3566
(dp3567
g54
(dp3568
sg63
g3540
sg56
(lp3569
g49
(g70
g51
NtRp3570
(dp3571
g54
(dp3572
g74
g75
ssg63
g3566
sg56
(lp3573
S'description'
p3574
asbag49
(g70
g51
NtRp3575
(dp3576
g54
(dp3577
g81
g82
ssg63
g3566
sg56
(lp3578
S':'
asbag49
(g70
g51
NtRp3579
(dp3580
g54
(dp3581
sg63
g3566
sg56
(lp3582
g49
(g50
g51
NtRp3583
(dp3584
g54
(dp3585
g62
I4
ssg63
g3579
sg56
(lp3586
S''
asbasbasbag49
(g65
g51
NtRp3587
(dp3588
g54
(dp3589
sg63
g3540
sg56
(lp3590
g49
(g70
g51
NtRp3591
(dp3592
g54
(dp3593
g74
g75
ssg63
g3587
sg56
(lp3594
S'keywords'
p3595
asbag49
(g70
g51
NtRp3596
(dp3597
g54
(dp3598
g81
g82
ssg63
g3587
sg56
(lp3599
S':'
asbag49
(g70
g51
NtRp3600
(dp3601
g54
(dp3602
sg63
g3587
sg56
(lp3603
g49
(g50
g51
NtRp3604
(dp3605
g54
(dp3606
g62
I4
ssg63
g3600
sg56
(lp3607
S''
asbasbasbasbasbasbasbag49
(g65
g51
NtRp3608
(dp3609
g54
(dp3610
sg63
g2656
sg56
(lp3611
g49
(g70
g51
NtRp3612
(dp3613
g54
(dp3614
g74
g75
ssg63
g3608
sg56
(lp3615
S'postprocessing'
p3616
asbag49
(g70
g51
NtRp3617
(dp3618
g54
(dp3619
g81
g82
ssg63
g3608
sg56
(lp3620
S':'
asbag49
(g70
g51
NtRp3621
(dp3622
g54
(dp3623
sg63
g3608
sg56
(lp3624
g49
(g50
g51
NtRp3625
(dp3626
g54
(dp3627
g62
I5
ssg63
g3621
sg56
(lp3628
g49
(g58
g51
NtRp3629
(dp3630
g54
(dp3631
g62
I4
ssg63
Nsg56
(lp3632
sbasbasbasbag49
(g65
g51
NtRp3633
(dp3634
g54
(dp3635
sg63
g2656
sg56
(lp3636
g49
(g70
g51
NtRp3637
(dp3638
g54
(dp3639
g74
g75
ssg63
g3633
sg56
(lp3640
S'search'
p3641
asbag49
(g70
g51
NtRp3642
(dp3643
g54
(dp3644
g81
g82
ssg63
g3633
sg56
(lp3645
S':'
asbag49
(g70
g51
NtRp3646
(dp3647
g54
(dp3648
sg63
g3633
sg56
(lp3649
g49
(g50
g51
NtRp3650
(dp3651
g54
(dp3652
g62
I5
ssg63
g3646
sg56
(lp3653
g49
(g58
g51
NtRp3654
(dp3655
g54
(dp3656
g62
I4
ssg63
Nsg56
(lp3657
g49
(g65
g51
NtRp3658
(dp3659
g54
(dp3660
sg63
g3654
sg56
(lp3661
g49
(g70
g51
NtRp3662
(dp3663
g54
(dp3664
sg63
g3658
sg56
(lp3665
g49
(g50
g51
NtRp3666
(dp3667
g54
(dp3668
g62
I4
ssg63
g3662
sg56
(lp3669
g49
(g58
g51
NtRp3670
(dp3671
g54
(dp3672
g62
I3
ssg63
Nsg56
(lp3673
g49
(g65
g51
NtRp3674
(dp3675
g54
(dp3676
sg63
g3670
sg56
(lp3677
g49
(g70
g51
NtRp3678
(dp3679
g54
(dp3680
sg63
g3674
sg56
(lp3681
g49
(g50
g51
NtRp3682
(dp3683
g54
(dp3684
g62
I3
ssg63
g3678
sg56
(lp3685
g2734
(S's\x06\x00\x00\x00SEARCH'
tRp3686
asbasbasbag49
(g65
g51
NtRp3687
(dp3688
g54
(dp3689
sg63
g3670
sg56
(lp3690
g49
(g70
g51
NtRp3691
(dp3692
g54
(dp3693
sg63
g3687
sg56
(lp3694
g49
(g50
g51
NtRp3695
(dp3696
g54
(dp3697
g62
I3
ssg63
g3691
sg56
(lp3698
g92
asbasbasbag49
(g65
g51
NtRp3699
(dp3700
g54
(dp3701
sg63
g3670
sg56
(lp3702
g49
(g70
g51
NtRp3703
(dp3704
g54
(dp3705
sg63
g3699
sg56
(lp3706
g49
(g50
g51
NtRp3707
(dp3708
g54
(dp3709
g62
I3
ssg63
g3703
sg56
(lp3710
S'/hostel/default/search'
p3711
asbasbasbag49
(g65
g51
NtRp3712
(dp3713
g54
(dp3714
sg63
g3670
sg56
(lp3715
g49
(g70
g51
NtRp3716
(dp3717
g54
(dp3718
sg63
g3712
sg56
(lp3719
g49
(g50
g51
NtRp3720
(dp3721
g54
(dp3722
g62
I3
ssg63
g3716
sg56
(lp3723
g49
(g58
g51
NtRp3724
(dp3725
g54
(dp3726
g62
I2
ssg63
Nsg56
(lp3727
sbasbasbasbasbasbasbasbasbasbasbasbag49
(g65
g51
NtRp3728
(dp3729
g54
(dp3730
sg63
g2656
sg56
(lp3731
g49
(g70
g51
NtRp3732
(dp3733
g54
(dp3734
g74
g75
ssg63
g3728
sg56
(lp3735
S'session_filename'
p3736
asbag49
(g70
g51
NtRp3737
(dp3738
g54
(dp3739
g81
g82
ssg63
g3728
sg56
(lp3740
S':'
asbag49
(g70
g51
NtRp3741
(dp3742
g54
(dp3743
sg63
g3728
sg56
(lp3744
g49
(g50
g51
NtRp3745
(dp3746
g54
(dp3747
g62
I5
ssg63
g3741
sg56
(lp3748
S'C:\\Users\\bhanu\\Downloads\\Compressed\\web2py\\applications\\hostel\\sessions\\127.0.0.1-5e6f274b-0b56-4bd6-952f-911b6706a63b'
p3749
asbasbasbag49
(g65
g51
NtRp3750
(dp3751
g54
(dp3752
sg63
g2656
sg56
(lp3753
g49
(g70
g51
NtRp3754
(dp3755
g54
(dp3756
g74
g75
ssg63
g3750
sg56
(lp3757
S'session_id'
p3758
asbag49
(g70
g51
NtRp3759
(dp3760
g54
(dp3761
g81
g82
ssg63
g3750
sg56
(lp3762
S':'
asbag49
(g70
g51
NtRp3763
(dp3764
g54
(dp3765
sg63
g3750
sg56
(lp3766
g49
(g50
g51
NtRp3767
(dp3768
g54
(dp3769
g62
I5
ssg63
g3763
sg56
(lp3770
S'127.0.0.1-5e6f274b-0b56-4bd6-952f-911b6706a63b'
p3771
asbasbasbag49
(g65
g51
NtRp3772
(dp3773
g54
(dp3774
sg63
g2656
sg56
(lp3775
g49
(g70
g51
NtRp3776
(dp3777
g54
(dp3778
g74
g75
ssg63
g3772
sg56
(lp3779
S'session_id_name'
p3780
asbag49
(g70
g51
NtRp3781
(dp3782
g54
(dp3783
g81
g82
ssg63
g3772
sg56
(lp3784
S':'
asbag49
(g70
g51
NtRp3785
(dp3786
g54
(dp3787
sg63
g3772
sg56
(lp3788
g49
(g50
g51
NtRp3789
(dp3790
g54
(dp3791
g62
I5
ssg63
g3785
sg56
(lp3792
g2809
asbasbasbag49
(g65
g51
NtRp3793
(dp3794
g54
(dp3795
sg63
g2656
sg56
(lp3796
g49
(g70
g51
NtRp3797
(dp3798
g54
(dp3799
g74
g75
ssg63
g3793
sg56
(lp3800
S'session_new'
p3801
asbag49
(g70
g51
NtRp3802
(dp3803
g54
(dp3804
g81
g82
ssg63
g3793
sg56
(lp3805
S':'
asbag49
(g70
g51
NtRp3806
(dp3807
g54
(dp3808
sg63
g3793
sg56
(lp3809
g49
(g50
g51
NtRp3810
(dp3811
g54
(dp3812
g62
I5
ssg63
g3806
sg56
(lp3813
g1257
asbasbasbag49
(g65
g51
NtRp3814
(dp3815
g54
(dp3816
sg63
g2656
sg56
(lp3817
g49
(g70
g51
NtRp3818
(dp3819
g54
(dp3820
g74
g75
ssg63
g3814
sg56
(lp3821
S'status'
p3822
asbag49
(g70
g51
NtRp3823
(dp3824
g54
(dp3825
g81
g82
ssg63
g3814
sg56
(lp3826
S':'
asbag49
(g70
g51
NtRp3827
(dp3828
g54
(dp3829
sg63
g3814
sg56
(lp3830
g49
(g50
g51
NtRp3831
(dp3832
g54
(dp3833
g62
I5
ssg63
g3827
sg56
(lp3834
S'200'
p3835
asbasbasbag49
(g65
g51
NtRp3836
(dp3837
g54
(dp3838
sg63
g2656
sg56
(lp3839
g49
(g70
g51
NtRp3840
(dp3841
g54
(dp3842
g74
g75
ssg63
g3836
sg56
(lp3843
S'student_out_details'
p3844
asbag49
(g70
g51
NtRp3845
(dp3846
g54
(dp3847
g81
g82
ssg63
g3836
sg56
(lp3848
S':'
asbag49
(g70
g51
NtRp3849
(dp3850
g54
(dp3851
sg63
g3836
sg56
(lp3852
g49
(g50
g51
NtRp3853
(dp3854
g54
(dp3855
g62
I5
ssg63
g3849
sg56
(lp3856
g49
(g58
g51
NtRp3857
(dp3858
g54
(dp3859
g62
I4
ssg63
Nsg56
(lp3860
g49
(g65
g51
NtRp3861
(dp3862
g54
(dp3863
sg63
g3857
sg56
(lp3864
g49
(g70
g51
NtRp3865
(dp3866
g54
(dp3867
sg63
g3861
sg56
(lp3868
g49
(g50
g51
NtRp3869
(dp3870
g54
(dp3871
g62
I4
ssg63
g3865
sg56
(lp3872
g49
(g58
g51
NtRp3873
(dp3874
g54
(dp3875
g62
I3
ssg63
Nsg56
(lp3876
g49
(g65
g51
NtRp3877
(dp3878
g54
(dp3879
sg63
g3873
sg56
(lp3880
g49
(g70
g51
NtRp3881
(dp3882
g54
(dp3883
sg63
g3877
sg56
(lp3884
g49
(g50
g51
NtRp3885
(dp3886
g54
(dp3887
g62
I3
ssg63
g3881
sg56
(lp3888
g2734
(S's\x0e\x00\x00\x00Outing Details'
tRp3889
asbasbasbag49
(g65
g51
NtRp3890
(dp3891
g54
(dp3892
sg63
g3873
sg56
(lp3893
g49
(g70
g51
NtRp3894
(dp3895
g54
(dp3896
sg63
g3890
sg56
(lp3897
g49
(g50
g51
NtRp3898
(dp3899
g54
(dp3900
g62
I3
ssg63
g3894
sg56
(lp3901
g92
asbasbasbag49
(g65
g51
NtRp3902
(dp3903
g54
(dp3904
sg63
g3873
sg56
(lp3905
g49
(g70
g51
NtRp3906
(dp3907
g54
(dp3908
sg63
g3902
sg56
(lp3909
g49
(g50
g51
NtRp3910
(dp3911
g54
(dp3912
g62
I3
ssg63
g3906
sg56
(lp3913
S'/hostel/default/student_out_details'
p3914
asbasbasbag49
(g65
g51
NtRp3915
(dp3916
g54
(dp3917
sg63
g3873
sg56
(lp3918
g49
(g70
g51
NtRp3919
(dp3920
g54
(dp3921
sg63
g3915
sg56
(lp3922
g49
(g50
g51
NtRp3923
(dp3924
g54
(dp3925
g62
I3
ssg63
g3919
sg56
(lp3926
g49
(g58
g51
NtRp3927
(dp3928
g54
(dp3929
g62
I2
ssg63
Nsg56
(lp3930
sbasbasbasbasbasbasbasbasbasbasbasbag49
(g65
g51
NtRp3931
(dp3932
g54
(dp3933
sg63
g2656
sg56
(lp3934
g49
(g70
g51
NtRp3935
(dp3936
g54
(dp3937
g74
g75
ssg63
g3931
sg56
(lp3938
S'subtitle'
p3939
asbag49
(g70
g51
NtRp3940
(dp3941
g54
(dp3942
g81
g82
ssg63
g3931
sg56
(lp3943
S':'
asbag49
(g70
g51
NtRp3944
(dp3945
g54
(dp3946
sg63
g3931
sg56
(lp3947
g49
(g50
g51
NtRp3948
(dp3949
g54
(dp3950
g62
I5
ssg63
g3944
sg56
(lp3951
S'powered by web2py'
p3952
asbasbasbag49
(g65
g51
NtRp3953
(dp3954
g54
(dp3955
sg63
g2656
sg56
(lp3956
g49
(g70
g51
NtRp3957
(dp3958
g54
(dp3959
g74
g75
ssg63
g3953
sg56
(lp3960
S'title'
p3961
asbag49
(g70
g51
NtRp3962
(dp3963
g54
(dp3964
g81
g82
ssg63
g3953
sg56
(lp3965
S':'
asbag49
(g70
g51
NtRp3966
(dp3967
g54
(dp3968
sg63
g3953
sg56
(lp3969
g49
(g50
g51
NtRp3970
(dp3971
g54
(dp3972
g62
I5
ssg63
g3966
sg56
(lp3973
S'My New App'
p3974
asbasbasbag49
(g65
g51
NtRp3975
(dp3976
g54
(dp3977
sg63
g2656
sg56
(lp3978
g49
(g70
g51
NtRp3979
(dp3980
g54
(dp3981
g74
g75
ssg63
g3975
sg56
(lp3982
g1921
asbag49
(g70
g51
NtRp3983
(dp3984
g54
(dp3985
g81
g82
ssg63
g3975
sg56
(lp3986
S':'
asbag49
(g70
g51
NtRp3987
(dp3988
g54
(dp3989
sg63
g3975
sg56
(lp3990
g49
(g50
g51
NtRp3991
(dp3992
g54
(dp3993
g62
I5
ssg63
g3987
sg56
(lp3994
g1934
asbasbasbag49
(g65
g51
NtRp3995
(dp3996
g54
(dp3997
sg63
g2656
sg56
(lp3998
g49
(g70
g51
NtRp3999
(dp4000
g54
(dp4001
g74
g75
ssg63
g3995
sg56
(lp4002
S'view'
p4003
asbag49
(g70
g51
NtRp4004
(dp4005
g54
(dp4006
g81
g82
ssg63
g3995
sg56
(lp4007
S':'
asbag49
(g70
g51
NtRp4008
(dp4009
g54
(dp4010
sg63
g3995
sg56
(lp4011
g49
(g50
g51
NtRp4012
(dp4013
g54
(dp4014
g62
I5
ssg63
g4008
sg56
(lp4015
S'default/index.html'
p4016
asbasbasbasbasbsS'locals'
p4017
(dp4018
S'i'
S'0'
sS'self'
p4019
S'<gluon.dal.Rows object at 0x06BBE430>'
p4020
sssS'traceback'
p4021
S'Traceback (most recent call last):\n  File "gluon/restricted.py", line 205, in restricted\n  File "C:\\Users\\bhanu\\Downloads\\Compressed\\web2py\\applications\\hostel\\controllers/default.py", line 174, in <module>\n  File "gluon/globals.py", line 173, in <lambda>\n  File "C:\\Users\\bhanu\\Downloads\\Compressed\\web2py\\applications\\hostel\\controllers/default.py", line 26, in index\n  File "gluon/dal.py", line 7755, in __getitem__\nIndexError: list index out of range\n'
p4022
s.