(dp1
S'output'
p2
S"<type 'exceptions.IndexError'> list index out of range"
p3
sS'layer'
p4
S'/home/bhanu/web2py/applications/sss/controllers/default.py'
p5
sS'code'
p6
S'# -*- coding: utf-8 -*-\n### required - do no delete\n\nresponse.title="IIIT-H Hostel Management Portal"\n\nfrom gluon.sqlhtml import form_factory\nimport socket\nimport re\nsession.pdf1=0\nsession.place=\'All\'\n\nCAS.login_url=\'https://login.iiit.ac.in/cas/login\'\nCAS.check_url=\'https://login.iiit.ac.in/cas/validate\'\nCAS.logout_url=\'https://login.iiit.ac.in/cas/logout\'\nCAS.my_url=\'http://127.0.0.1:8000/sss/default/login\'\n\n#if not session.token and not request.function==\'login\':\n #  redirect(URL(r=request, f=\'login\'))\n#session.name="aaa"\nsession.token="chaluvadibhanu.dev@students.iiit.ac.in"\nsession.login = 1 \n\n\n\ndef login():\n    session.login = 1 \n    session.token = CAS.login(request)\n    name=db(db.students.email==str(session.token)).select(db.students.ALL);\n    session.name=name[0].name\n    session.roll_no=name[0].roll_no\n    session.email = session.token.split(\'@\')[0]\n    redirect(URL(r=request, f=\'index\'))\n    return dict()\n    \ndef logout():\n    session.token=None\n    session.name=""\n    CAS.logout()\n\n\ndef user(): return dict(form=auth())\ndef download(): return response.download(request,db)\ndef call(): return service()\n### end requires\n#@auth.requires_login()\n\ndef poll():\n    return dict()\n#@auth.requires_login()\ndef sr():\n    l=len(request.args)\n    db.poll.insert(question=request.args(0),options_no=l-1,posted_by=session.name)\n    q=db(db.poll.question==request.args(0)).select(db.poll.ALL)\n    pid=q[0].id\n    i=1\n    while i<l :\n        db.options.insert(option=request.args(i),qid=pid)\n        i=i+1\n\n     \n    if session.login==2:\n        db(db.poll.id==pid).update(flag=1)    \n        session.flash="New Poll Created"\n    else:\n        db(db.poll.id==pid).update(flag=0)    \n        session.flash="Your request has been sent"\n    #redirect(URL(r=request,f=\'index\'))\n    return dict(a=request.args,l=l)\n\n#@auth.requires_login()\n\ndef searchbyroll():\n    roll=request.vars.name\n    print roll\n    query=(db.students.roll_no.startswith(roll))\n    set=db(query)\n    result=set.select()\n    return dict(result=result)\n\ndef view_logs():\n    return dict()\n\ndef medreq():\n    form=SQLFORM(db.medical)\n    now = time.localtime(time.time())\n    year, month, day, hour, minute, second, weekday, yearday, daylight = now\n    db.medical.posted_by.default=session.name\n    db.medical.Date.default=datetime.datetime.today()\n    db.medical.Time.default="%02d:%02d:%02d" % (hour, minute, second)\n    db.medical.Flag.default=1\n    name=db(db.students.email==str(session.token)).select(db.students.ALL);\n    mobile=name[0].mobile\n    form.vars.mobile=mobile\n   \n    if form.accepts(request.vars,session):\n          session.flash="Request recorded"\n          redirect(URL(r=request,f=\'byroll\'))\n    \n    return dict(form=form)\n\n\ndef amedreq():\n\n    form=SQLFORM(db.medical)\n    now = time.localtime(time.time())\n    year, month, day, hour, minute, second, weekday, yearday, daylight = now\n    db.medical.posted_by.default=session.name\n    db.medical.Date.default=datetime.datetime.today()\n    db.medical.Time.default="%02d:%02d:%02d" % (hour, minute, second)\n    db.medical.Flag.default=1\n    name=db(db.students.email==str(session.token)).select(db.students.ALL);\n    mobile=name[0].mobile\n    form.vars.mobile=mobile\n    \n    doctor=db().select(db.docs.ALL)\n  \n    \n    if form.accepts(request.vars,session):\n          session.flash="Request recorded"\n          #redirect(URL(r=request,f=\'index\'))\n    form1=SQLFORM(db.docs)\n    if form1.accepts(request.vars,session):\n          session.flash="Request recorded"\n          redirect(URL(r=request,f=\'amedreq\'))\n    return dict(form=form,form1=form1,doctor=doctor)\n\n\ndef sr1():\n    l=len(request.vars.q1Options)\n    db.poll.insert(question=request.vars.question,options_no=l,posted_by=session.name)\n    \n    print l\n    q=db(db.poll.question==request.vars.question).select(db.poll.ALL)\n    pid=q[0].id\n    i=0\n    print request.vars.q1Options\n    while i<l :\n         db.options.insert(option=request.vars.q1Options[i],qid=pid)\n         i=i+1\n    if session.login==2:\n        db(db.poll.id==pid).update(flag=1)    \n        session.flash="New Poll Created"\n    else:\n        db(db.poll.id==pid).update(flag=0)    \n        session.flash="Your request has been sent"\n\ndef vmedical():\n    return dict(form=db(db.medical.Flag==1).select(db.medical.ALL,orderby=db.medical.Doctor|~ db.medical.id))\n\ndef searchbyroom():\n    room=request.vars.name\n    hostel=request.vars.cars\n    print hostel\n    query=(db.students.room_no==room)\n    set=db(query)\n    result=set.select()\n    return dict(result=result)\n\ndef searchbyname():\n    name=request.vars.name.lower()\n    query=db.students.name.lower().startswith(name)\n    set=db(query)\n    result=set.select()\n    return dict(result=result)\n\ndef markcom():\n     if type(request.vars.option)==str:\n         l=1\n         db(db.complaint.id==request.vars.option).update(Flag=0) \n         \n     else:\n         l=len(request.vars.option)\n         for i in range(l):\n             db(db.complaint.id==request.vars.option[i]).update(Flag=0) \n     redirect(URL(r=request,f=\'vcomplaint\'))\n     return dict(form=l)\n\ndef markcom_med():\n     if type(request.vars.option)==str:\n         l=1\n         db(db.medical.id==request.vars.option).update(Flag=0) \n         \n     else:\n         l=len(request.vars.option)\n         for i in range(l):\n             db(db.medical.id==request.vars.option[i]).update(Flag=0) \n     redirect(URL(r=request,f=\'vmedical\'))\n     return dict(form=l)\n\n\ndef index():\n  session.flash=response.flash\n  if session.login==0:\n        session.login = 1\n        redirect(URL(r=request, f=\'student\'))\n\n        if db(db.puser.email==session.token).select(db.puser.ALL) :\n                session.login = 2\n                redirect(URL(r=request, f=\'puser\'))\n  \n        if db(db.admin.email==session.token).select(db.admin.ALL) :\n                session.login = 4\n                redirect(URL(r=request, f=\'admin\'))\n\n                      \n        if db(db.staff.email==session.token).select(db.staff.ALL) :\n                session.login = 3\n                redirect(URL(r=request, f=\'staff\'))\n\n        else: \n                session.login = 1\n                redirect(URL(r=request, f=\'student\'))\n  else:\n         if session.login==1:\n                redirect(URL(r=request, f=\'student\'))\n                \n         if session.login==2:\n                redirect(URL(r=request, f=\'puser\'))\n                \n         if session.login==3:\n                redirect(URL(r=request, f=\'staff\'))\n                \n         if session.login==4:\n                redirect(URL(r=request, f=\'admin\'))                                                 \n\n\n \ndef requests():\n    poll=db(db.poll.flag==0).select(db.poll.ALL)\n    newsfeed=db(db.news_feed.flag==0).select(db.news_feed.ALL)\n   # query=((db.poll.flag==0))\n    #query2=((db.news_feed.flag==0))\n    #newsfeed=SQLFORM.smartgrid(newsfeed=newsfeed)\n    #form1=SQLFORM.grid(query=query)\n    \n    #form2=SQLFORM.grid(query=query2)\n    if not (poll or  newsfeed):\n        session.flash="All requests processed"\n        redirect(URL(r=request,f=\'index\'))\n    return dict(form1=poll,form2=newsfeed)\n    \ndef request_poll():\n    i=request.args\n    if i[1]=="1":\n        db(db.poll.id==i[0]).update(flag=1)\n    if i[1]=="-1":\n        db(db.poll.id==i[0]).delete()\n        db(db.options.qid==i[0]).delete()\n    redirect(URL(r=request,f=\'requests\'))\n    return dict()\n\ndef request_newsfeed():\n    i=request.args\n    if i[1]=="1":\n        db(db.news_feed.id==i[0]).update(flag=1)\n    if i[1]=="-1":\n        db(db.news_feed.id==i[0]).delete()\n    redirect(URL(r=request,f=\'requests\'))\n    return dict()    \n\n\n\ndef add_news_feed():\n    form=SQLFORM(db.news_feed);\n    form.vars.posted_by=session.name\n    \n    if session.login==2:\n            form.vars.flag=1\n    else:\n            form.vars.flag=0\n            \n    if form.accepts(request.vars,session):\n        if session.login==2:\n            session.flash="Newsfeed Added"\n\n        else:\n            session.flash="Your request has been sent"\n\n        redirect(URL(r=request,f=\'index\'))\n    return dict(form=form)\n      \n\ndef student():\n    variable=0\n    if request.vars.option!=None:\n        k=request.vars.option\n        l=db(db.options.id==k).select(db.options.ALL)\n        \n        la=l[0].qid\n        l=l[0].counter\n        db(db.options.id==k).update(counter=l+1)\n        l2=db(db.poll.id==la).select(db.poll.ALL)\n        l2=l2[0].counter\n        db(db.poll.id==la).update(counter=l2+1)\n        db.vote.insert(qid=la,voted_by=session.name)\n        redirect(URL(r=request,f=\'index\'))\n    if len(request.args) > 0:\n        variable=1\n    newsfeed=db().select(db.news_feed.ALL,orderby=~db.news_feed.id)\n    polls=db().select(db.poll.ALL,orderby=~db.poll.id)\n    \n    form=SQLFORM(db.news_feed);\n    form.vars.posted_by=session.name\n    \n    if session.login==2:\n            form.vars.flag=1\n    else:\n            form.vars.flag=0\n            \n    if form.accepts(request.vars,session):\n        if session.login==2:\n            session.flash="Newsfeed Added"\n\n        else:\n            session.flash="Your request has been sent"\n\n        redirect(URL(r=request,f=\'index\'))    \n    return dict(newsfeed=newsfeed,polls=polls,form=form,variable=variable)\n   \ndef staff():\n    form2=SQLFORM(db.other_laptop_out)\n    if form2.accepts(request.vars,session):\n        session.flash="Laptop Details Entered"\n        redirect(URL(r=request,f=\'staff\'))\n    form=SQLFORM(db.laptop_out)\n    if form.accepts(request.vars,session):\n        session.flash="Laptop Details Entered"\n        redirect(URL(r=request,f=\'show_laptop_details\',args=form.vars.roll_no))\n    return dict(form=form,form2=form2)\n   \n \ndef one(): \n    return dict()\n\ndef puser():\n    if request.vars.option!=None:\n        k=request.vars.option\n        l=db(db.options.id==k).select(db.options.ALL)\n        \n        la=l[0].qid\n        l=l[0].counter\n        db(db.options.id==k).update(counter=l+1)\n        l2=db(db.poll.id==la).select(db.poll.ALL)\n        l2=l2[0].counter\n        db(db.poll.id==la).update(counter=l2+1)\n        db.vote.insert(qid=la,voted_by=session.name)\n        redirect(URL(r=request,f=\'index\'))\n\n    newsfeed=db().select(db.news_feed.ALL,orderby=~db.news_feed.id)\n    polls=db().select(db.poll.ALL,orderby=~db.poll.id)\n    return dict(newsfeed=newsfeed,polls=polls)\n\ndef vacant_rooms():\n    #request.vars=None\n    if request.vars.hostel!=None:\n        k=request.vars.hostel\n        l=request.vars.room_no\n        db.vacant_rooms.insert(hostel=k,room_no=l)\n        redirect(URL(r=request,f=\'vacant_rooms\'))\n    form=db().select(db.vacant_rooms.ALL)\n    return dict(form=form)\n\ndef delete_vacant_rooms():\n    db(db.vacant_rooms.id==request.args[0]).delete()\n    redirect(URL(r=request,f=\'vacant_rooms\'))\n\ndef view_vacant_rooms():\n    return dict()\n\ndef admin():\n        if request.vars:\n            m=request.vars.id\n            f=request.vars.fro\n            t=request.vars.to\n            if(db(db[request.vars.fro].email==m).delete()):\n                if(t=="admin"):\n                    db.admin.insert(email=m)\n                if(t=="puser"):\n                    db.puser.insert(email=m)\n                if(t=="staff"):\n                    db.staff.insert(email=m)\n                if(t=="user"):\n                    db.nuser.insert(email=m)\n                session.flash="Promotion successfull"\n            else:\n                session.flash="Invalid Promotion"\n            redirect(URL(\'promote\'))\n        return dict()    \n  \n         \ndef error():\n    return dict()\n    \nimport datetime\nimport time\ndef enter_laptop_details():\n    form=""\n    if request.vars.roll!=None:\n        form=db(db.laptop.roll_no==request.vars.roll).select()\n       # redirect(URL(r=request,f=\'index\'))\n    return dict(form=form,roll=request.vars.roll)\n \ndef delete_laptop():\n    db(db.laptop.id==request.args[0]).delete()\n    redirect(URL(r=request,f=\'enter_laptop_details\'+\'?roll=\'+request.args[1]))\n \ndef add_laptop():\n    db.laptop.insert(roll_no=request.vars.roll,service_tag=request.vars.service_tag,company=request.vars.company)            \n    redirect(URL(r=request,f=\'enter_laptop_details\'+\'?roll=\'+request.vars.roll))        \n          \ndef laptop_out_details():\n    form=SQLFORM(db.laptop_out)\n    if form.accepts(request.vars,session):\n        session.flash="Laptop Details Entered"\n        redirect(URL(r=request,f=\'show_laptop_details\',args=form.vars.roll_no))\n    return dict(form=form)\n    \ndef view_laptop_out_details():\n    if request.vars.number!=None:\n        n=request.vars.number\n    else:\n        n=25\n    return dict(form=db().select(db.laptop_out.ALL,limitby=(0,int(n))),number=n)\n\ndef view_student_out_details():\n    if request.vars.number!=None:\n        n=request.vars.number\n    else:\n        n=25\n    return dict(form=db().select(db.student_out.ALL,limitby=(0,int(n))),number=n)\n\ndef student_out_details():\n    form=SQLFORM(db.student_out)\n    if form.accepts(request.vars,session):\n        session.flash="student Details Entered"\n        if form.vars.laptop_presence=="present":\n            db.laptop_out.insert(roll_no=form.vars.roll_no,reason="outside campus")\n            redirect(URL(r=request,f=\'show_laptop_details\',args=form.vars.roll_no))\n        else:\n            redirect(URL(r=request,f=\'index\'))\n    return dict(form=form)\n\ndef show_laptop_details():\n    i=request.args\n    \n    laptop=db(db.laptop.roll_no==i[0]).select(db.laptop.ALL)\n    if not laptop:\n        session.flash="No Record Found Enter Details"\n        redirect(URL(r=request,f= enter_laptop_details))\n    name=db(db.students.roll_no==i[0]).select(db.students.name)\n    \n    return dict(form=laptop,roll=i[0])\n    \ndef regcomplaint():\n    now = time.localtime(time.time())\n    year, month, day, hour, minute, second, weekday, yearday, daylight = now\n    db.complaint.User.default=session.name\n    db.complaint.Date.default=datetime.datetime.today()\n    db.complaint.Time.default="%02d:%02d:%02d" % (hour, minute, second)\n    db.complaint.Flag.default=1\n    form = SQLFORM(db.complaint)\n    w=0\n    if form.process().accepted:\n        session.flash = \'your complaint is registered\'\n        redirect(URL(r=request,f=\'complaint\'))\n    else:\n        w=1  \n    if not request.vars.place:\n        query=(db.complaint.User==session.name)\n        set=db(query)\n        complaints=set.select(orderby=~db.complaint.Flag|~ db.complaint.Date|~db.complaint.Time ,limitby=(0,5))\n        filtered_by="All"\n    else:\n        if(request.vars.place=="All"):\n            query=(db.complaint.User==session.name)\n        else:\n            query=(db.complaint.User==session.name)&(db.complaint.category==request.vars.place) \n        set=db(query)\n        complaints=set.select(orderby=~db.complaint.Flag|~ db.complaint.Date|~db.complaint.Time,limitby=(0,5))\n        filtered_by=request.vars.place\n     \n    if not request.vars.place2:\n        query=(db.complaint.access!="Private") & (db.complaint.Flag!=0)\n        set=db(query)\n        complaints2=set.select(orderby=~ db.complaint.Date|~db.complaint.Time)\n        filtered_by2="All"\n    else:\n        if(request.vars.place2=="All"):\n            query=(db.complaint.access!="Private") & (db.complaint.Flag!=0)\n        else:\n            query=(db.complaint.access!="Private")&(db.complaint.category==request.vars.place2) & (db.complaint.Flag!=0)\n        set=db(query)\n        complaints2=set.select(orderby=~ db.complaint.Date|~db.complaint.Time)\n        filtered_by2=request.vars.place2\n    return dict(w=w,complaints=complaints,complaints2=complaints2,filtered_by=filtered_by,filtered_by2=filtered_by2,form=form)    \n \n#@auth.requires_login()\ndef complaint():\n    if not request.vars.place:\n        query=(db.complaint.User==session.name)\n        set=db(query)\n        complaints=set.select(orderby=~db.complaint.Flag|~ db.complaint.Date|~db.complaint.Time ,limitby=(0,5))\n        filtered_by="All"\n    else:\n        if(request.vars.place=="All"):\n            query=(db.complaint.User==session.name)\n        else:\n            query=(db.complaint.User==session.name)&(db.complaint.category==request.vars.place) \n        set=db(query)\n        complaints=set.select(orderby=~db.complaint.Flag|~ db.complaint.Date|~db.complaint.Time,limitby=(0,5))\n        filtered_by=request.vars.place\n     \n    if not request.vars.place2:\n        query=(db.complaint.access!="Private") & (db.complaint.Flag!=0)\n        set=db(query)\n        complaints2=set.select(orderby=~ db.complaint.Date|~db.complaint.Time)\n        filtered_by2="All"\n    else:\n        if(request.vars.place2=="All"):\n            query=(db.complaint.access!="Private") & (db.complaint.Flag!=0)\n        else:\n            query=(db.complaint.access!="Private")&(db.complaint.category==request.vars.place2) & (db.complaint.Flag!=0)\n        set=db(query)\n        complaints2=set.select(orderby=~ db.complaint.Date|~db.complaint.Time)\n        filtered_by2=request.vars.place2\n    return dict(complaints=complaints,complaints2=complaints2,filtered_by=filtered_by,filtered_by2=filtered_by2)\n     \n     \ndef showcomplaint():\n    return dict()\ndef viewprivate():\n    if(request.args(0)==\'1\'):\n        query=(db.complaint.User==session.name) & (db.complaint.Flag==1)\n        set=db(query)\n        complaints=set.select()\n        return dict(complaints=complaints)\n    else:\n        if(request.vars.place==\'1\'):\n            query=(db.complaint.User==session.name) & (db.complaint.Flag==1)\n        else:\n            query=(db.complaint.User==session.name)&(db.complaint.category==request.vars.place) & (db.complaint.Flag==1)\n        set=db(query)\n        complaints=set.select()\n        return dict(complaints=complaints)\ndef delcomplaint():\n    remove = db(db.complaint.id==request.args(0)).delete()\n    if remove:\n        response.flash=\'complaint deleted succesfully\'\n        redirect(URL(\'viewprivate\'))\n    else:\n        response.flash=\'image deletion failed\'\ndef viewpublic():\n    query=(db.complaint.access!="Private") & (db.complaint.Flag!=0)\n    set=db(query)\n    complaints=set.select()\n    return dict(complaints=complaints)\ndef metcomplaint():\n    db(db.complaint.id==request.args(0)).update(Flag=0)\n    response.flash=\'Removed the complaint succesfully\'\n    redirect(URL(\'viewprivate\'))\ndef search():\n    return dict()\ndef byname():\n    return dict()\ndef byroll():\n#here complaints means students list result\n    complaints=""\n    if request.vars.blood_grp!=None:\n        if request.vars.roll_no!=None:\n            query= ( db.students.roll_no.startswith(request.vars.roll_no) ) & (db.students.blood_grp==request.vars.blood_grp)\n            set=db(query)\n            complaints=set.select()\n        else:\n            complaints=db(db.students.blood_grp==response.vars.blood_grp).select()\n            \n    return dict(result=complaints,grp=request.vars.blood_grp,roll=request.vars.roll_no)\n            \n    return dict()\ndef byroom():\n    return dict()\n\n\ndef viewprofile():\n    query=(db.students.roll_no==request.args(0))\n    set=db(query)\n    prof=set.select()\n    return dict(prof=prof)\n\ndef editprofile():\n    query=(db.students.roll_no==request.vars.roll)\n    set=db(query)\n    prof=set.select()\n    studentid=prof[0].id\n    form=SQLFORM(db.students,studentid)\n    if form.accepts(request.vars,session):\n          session.flash="Profile edited"\n          redirect(URL(r=request,f=\'index\'))\n    return dict(form=form)\n\ndef vcomplaint():\n    m=""\n    n=""\n    \n    if(session.pdf1==0):\n        session.place=request.vars.place\n    if(session.place==None):\n        complaints = db().select(db.complaint.ALL,orderby=~db.complaint.Date|~db.complaint.Time)\n        filtered_by="All"\n    else:\n         if(session.place==\'1\'):\n            m=request.vars.end\n            n=request.vars.start\n            if(m==\'\'):\n                m=datetime.datetime.today()\n            n=request.vars.start\n            if(n==\'\'):\n               today = datetime.datetime.today()\n               DD = datetime.timedelta(days=90)\n               n=today - DD\n            query=(db.complaint.Date>=n)&(db.complaint.Date<=m)\n            set=db(query)\n            complaints=set.select(orderby=~db.complaint.Date|~db.complaint.Time)\n            filtered_by="All"\n         else:\n            m=request.vars.end\n            n=request.vars.start\n            if(m==\'\'):\n                m=datetime.datetime.today()\n            n=request.vars.start\n            if(n==\'\'):\n               today = datetime.datetime.today()\n               DD = datetime.timedelta(days=90)\n               n=today - DD\n            query=(db.complaint.category==session.place)& (db.complaint.Date>=n)&(db.complaint.Date<=m)\n            set=db(query)\n            complaints=set.select(orderby=~db.complaint.Date|~db.complaint.Time)\n            filtered_by=session.place\n            \n    if session.pdf1==1 :\n        o=[]\n        for row in complaints:\n            o=o+[row.access]\n            o=o+[row.category]\n            o=o+[row.AvailableTime]\n            o=o+[row.complaint_body]\n            print 1\n            print o\n        return o\n    else:\n        return dict(complaints=complaints,filtered_by=filtered_by,start=request.vars.start,end=request.vars.end)    \n\n    \ndef staff_vcomplaint():\n    if(session.pdf1==0):\n        session.place=request.vars.place\n    if(session.place==None):\n        complaints = db(db.complaint.Flag==1).select(db.complaint.ALL,orderby=~ db.complaint.Date|~db.complaint.Time)\n        filtered_by="All"\n    else:\n         if(session.place==\'ALL\'):\n           complaints = db(db.complaint.Flag==1).select(db.complaint.ALL,orderby=~ db.complaint.Date|~db.complaint.Time)\n           filtered_by="ALL"\n         else:\n            query=(db.complaint.category==request.vars.place)& (db.complaint.Flag==1)\n\n            set=db(query)\n            complaints=set.select(orderby=~db.complaint.Date|~db.complaint.Time)\n            filtered_by=session.place\n    o=[]\n    print session.pdf1\n    if session.pdf1==1 :\n        for row in complaints:\n            o=o+[row.access]\n            o=o+[row.category]\n            o=o+[row.AvailableTime]\n            o=o+[row.complaint_body]\n            print 1\n            print o\n        return o\n    else:\n            return dict(complaints=complaints,filtered_by=filtered_by)\n            \n                \n                        \ndef month_input():\n    return dict()\n\ndef month_selector():\n    if not request.vars.name:\n        return \'\'\n    pattern = request.vars.name.capitalize() + \'%\'\n    selected = [row.name for row in db(db.students.name.like(pattern)).select()]\n    return \'\'.join([DIV(k,\n                 _onclick="jQuery(\'#name\').val(\'%s\')" % k,\n                 _onmouseover="this.style.backgroundColor=\'yellow\'",\n                 _onmouseout="this.style.backgroundColor=\'white\'"\n                 ).xml() for k in selected])\n\n\n\ndef rules():\n    rules=db().select(db.rules.ALL)\n    form = SQLFORM(db.rules)\n    if form.process().accepted:\n        session.flash = \'New rule added\'\n        redirect(URL(r=request,f=\'rules\'))\n    else:\n        w=1  \n    return dict(rules=rules,form=form)\n    \ndef delrule():\n    remove = db(db.rules.id==request.args(0)).delete()\n    if remove:\n        session.flash=\'rule deleted succesfully\'\n        redirect(URL(\'rules\'))\n    else:\n        session.flash=\'rule deletion failed\'\n\ndef uprule():\n    m=request.args(0)\n    for k in db(db.rules.id==m).select():\n        db.rules.rule.default=k.rule\n    form = SQLFORM(db.rules)\n    if form.process().accepted:\n        response.flash = \'Rule Updated\'\n        db(db.rules.id==request.args(0)).delete()\n        redirect(URL(r=request,f=\'rules\'))   \n    return dict(form=form)\n    \n\n   \ndef deldoc():\n    remove = db(db.docs.id==request.args(0)).delete()\n    if remove:\n        session.flash=\'Entry deleted succesfully\'\n        redirect(URL(\'amedreq\'))\n    else:\n        session.flash=\'entry deletion failed\'\n\ndef updoc():\n    m=request.args(0)\n    for k in db(db.docs.id==m).select():\n        db.docs.Doctor_Name.default=k.Doctor_Name\n        db.docs.Phone_No.default=k.Phone_No\n        db.docs.Available_day_and_time.default=k.Available_day_and_time\n    form = SQLFORM(db.docs)\n    if form.process().accepted:\n        response.flash = \'Entry Updated\'\n        db(db.docs.id==request.args(0)).delete()\n        redirect(URL(r=request,f=\'amedreq\'))   \n    return dict(form=form)\n\n\ndef studentrules():\n    rules=db().select(db.rules.ALL)\n    return dict(rules=rules)\n    \n    \n    \ndef promote():\n        if request.vars:\n            m=request.vars.id\n            f=request.vars.fro\n            t=request.vars.to\n            if(db(db[request.vars.fro].email==m).delete()):\n                if(t=="admin"):\n                    db.admin.insert(email=m)\n                if(t=="puser"):\n                    db.puser.insert(email=m)\n                if(t=="staff"):\n                    db.staff.insert(email=m)\n                if(t=="user"):\n                    db.nuser.insert(email=m)\n                session.flash="Promotion successfull"\n            else:\n                session.flash="Invalid Promotion"\n            redirect(URL(\'promote\'))\n        return dict()\n\n\n\ndef listing():\n    response.title = "Complaints"\n    l=request.vars.function\n    session.pdf1=1\n    session.place=request.vars.place\n    print session.pdf1\n    o=eval(l)()\n    session.place=None\n    session.pdf1=0\n    print o\n    # define header and footers:\n    head = THEAD(TR(TH("User",_width="10%"), \n                    TH("Category",_width="10%"),\n                    TH("Time",_width="10%"),\n                    TH("Complaint",_width="70%"), \n                    _bgcolor="#A0A0A0"))\n    foot = TFOOT(TR(TH("Footer 1",_width="10%"), \n                    TH("Footer 2",_width="10%"),\n                    TH("Footer 4",_width="10%"),\n                    TH("Footer 3",_width="70%"),\n                    _bgcolor="#E0E0E0"))\n    \n    # create several rows:\n    rows = []\n    i=-4\n    k=len(o)/4\n    \n    for i1 in range(k):\n        print "poi"\n        i=i+4\n        col = i % 4 and "#F0F0F0" or "#FFFFFF"\n        rows.append(TR(TD(o[i],_align="center"),\n                           TD(o[i+1] ,_align="center"),\n                            TD(o[i+2] ,_align="center"),\n                       TD(o[i+3], _align="center"),\n                       _bgcolor=col)) \n\n    # make the table object\n    body = TBODY(*rows)\n    table = TABLE(*[head,foot, body], \n                  _border="1", _align="center", _width="100%")\n\n    if request.extension=="pdf":\n        from gluon.contrib.pyfpdf import FPDF, HTMLMixin\n\n        # define our FPDF class (move to modules if it is reused  frequently)\n        class MyFPDF(FPDF, HTMLMixin):\n            def header(self):\n                self.set_font(\'Arial\',\'B\',15)\n                self.cell(0,10, response.title ,1,0,\'C\')\n                self.ln(20)\n                \n            def footer(self):\n                self.set_y(-15)\n                self.set_font(\'Arial\',\'I\',8)\n                txt = \'Page %s of %s\' % (self.page_no(), self.alias_nb_pages())\n                self.cell(0,10,txt,0,0,\'C\')\n                    \n        pdf=MyFPDF()\n        pdf.add_page()\n        pdf.write_html(str(XML(table, sanitize=True)))\n        response.headers[\'Content-Type\']=\'application/pdf\'\n        return pdf.output(dest=\'S\')\n    else:\n        return dict(table=table)\n\nresponse._vars=response._caller(editprofile)\n'
p7
sS'snapshot'
p8
(dp9
S'exception'
p10
(dp11
S'__hash__'
p12
S"<method-wrapper '__hash__' of exceptions.IndexError object>"
p13
sS'__setattr__'
p14
S"<method-wrapper '__setattr__' of exceptions.IndexError object>"
p15
sS'__reduce_ex__'
p16
S'<built-in method __reduce_ex__ of exceptions.IndexError object>'
p17
sS'__getslice__'
p18
S"<method-wrapper '__getslice__' of exceptions.IndexError object>"
p19
sS'__getitem__'
p20
S"<method-wrapper '__getitem__' of exceptions.IndexError object>"
p21
sS'__setstate__'
p22
S'<built-in method __setstate__ of exceptions.IndexError object>'
p23
sS'args'
p24
S"('list index out of range',)"
p25
sS'__reduce__'
p26
S'<built-in method __reduce__ of exceptions.IndexError object>'
p27
sS'__str__'
p28
S"<method-wrapper '__str__' of exceptions.IndexError object>"
p29
sS'__format__'
p30
S'<built-in method __format__ of exceptions.IndexError object>'
p31
sS'__getattribute__'
p32
S"<method-wrapper '__getattribute__' of exceptions.IndexError object>"
p33
sS'__class__'
p34
S"<type 'exceptions.IndexError'>"
p35
sS'__unicode__'
p36
S'<built-in method __unicode__ of exceptions.IndexError object>'
p37
sS'__delattr__'
p38
S"<method-wrapper '__delattr__' of exceptions.IndexError object>"
p39
sS'__subclasshook__'
p40
S'<built-in method __subclasshook__ of type object>'
p41
sS'__repr__'
p42
S"<method-wrapper '__repr__' of exceptions.IndexError object>"
p43
sS'__dict__'
p44
S'{}'
p45
sS'__sizeof__'
p46
S'<built-in method __sizeof__ of exceptions.IndexError object>'
p47
sS'__doc__'
p48
S"'Sequence index out of range.'"
p49
sS'__init__'
p50
S"<method-wrapper '__init__' of exceptions.IndexError object>"
p51
sS'__new__'
p52
S'<built-in method __new__ of type object>'
p53
ssS'evalue'
p54
S'list index out of range'
p55
sS'request'
p56
ccopy_reg
_reconstructor
p57
(cgluon.html
BEAUTIFY
p58
c__builtin__
object
p59
NtRp60
(dp61
S'attributes'
p62
(dp63
sS'components'
p64
(lp65
g57
(cgluon.html
TABLE
p66
g59
NtRp67
(dp68
g62
(dp69
S'level'
p70
I5
ssS'parent'
p71
Nsg64
(lp72
g57
(cgluon.html
TR
p73
g59
NtRp74
(dp75
g62
(dp76
sg71
g67
sg64
(lp77
g57
(cgluon.html
TD
p78
g59
NtRp79
(dp80
g62
(dp81
S'_style'
p82
S'font-weight:bold;vertical-align:top'
p83
ssg71
g74
sg64
(lp84
S'ajax'
p85
asbag57
(g78
g59
NtRp86
(dp87
g62
(dp88
S'_valign'
p89
S'top'
p90
ssg71
g74
sg64
(lp91
S':'
asbag57
(g78
g59
NtRp92
(dp93
g62
(dp94
sg71
g74
sg64
(lp95
g57
(g58
g59
NtRp96
(dp97
g62
(dp98
g70
I5
ssg71
g92
sg64
(lp99
S'False'
p100
asbasbasbag57
(g73
g59
NtRp101
(dp102
g62
(dp103
sg71
g67
sg64
(lp104
g57
(g78
g59
NtRp105
(dp106
g62
(dp107
g82
g83
ssg71
g101
sg64
(lp108
S'application'
p109
asbag57
(g78
g59
NtRp110
(dp111
g62
(dp112
g89
g90
ssg71
g101
sg64
(lp113
S':'
asbag57
(g78
g59
NtRp114
(dp115
g62
(dp116
sg71
g101
sg64
(lp117
g57
(g58
g59
NtRp118
(dp119
g62
(dp120
g70
I5
ssg71
g114
sg64
(lp121
S'sss'
p122
asbasbasbag57
(g73
g59
NtRp123
(dp124
g62
(dp125
sg71
g67
sg64
(lp126
g57
(g78
g59
NtRp127
(dp128
g62
(dp129
g82
g83
ssg71
g123
sg64
(lp130
g24
asbag57
(g78
g59
NtRp131
(dp132
g62
(dp133
g89
g90
ssg71
g123
sg64
(lp134
S':'
asbag57
(g78
g59
NtRp135
(dp136
g62
(dp137
sg71
g123
sg64
(lp138
g57
(g58
g59
NtRp139
(dp140
g62
(dp141
g70
I5
ssg71
g135
sg64
(lp142
g57
(g66
g59
NtRp143
(dp144
g62
(dp145
g70
I4
ssg71
Nsg64
(lp146
sbasbasbasbag57
(g73
g59
NtRp147
(dp148
g62
(dp149
sg71
g67
sg64
(lp150
g57
(g78
g59
NtRp151
(dp152
g62
(dp153
g82
g83
ssg71
g147
sg64
(lp154
S'body'
p155
asbag57
(g78
g59
NtRp156
(dp157
g62
(dp158
g89
g90
ssg71
g147
sg64
(lp159
S':'
asbag57
(g78
g59
NtRp160
(dp161
g62
(dp162
sg71
g147
sg64
(lp163
g57
(g58
g59
NtRp164
(dp165
g62
(dp166
g70
I5
ssg71
g160
sg64
(lp167
S'<cStringIO.StringO object at 0x7fa814c35c70>'
p168
asbasbasbag57
(g73
g59
NtRp169
(dp170
g62
(dp171
sg71
g67
sg64
(lp172
g57
(g78
g59
NtRp173
(dp174
g62
(dp175
g82
g83
ssg71
g169
sg64
(lp176
S'cid'
p177
asbag57
(g78
g59
NtRp178
(dp179
g62
(dp180
g89
g90
ssg71
g169
sg64
(lp181
S':'
asbag57
(g78
g59
NtRp182
(dp183
g62
(dp184
sg71
g169
sg64
(lp185
g57
(g58
g59
NtRp186
(dp187
g62
(dp188
g70
I5
ssg71
g182
sg64
(lp189
S'None'
p190
asbasbasbag57
(g73
g59
NtRp191
(dp192
g62
(dp193
sg71
g67
sg64
(lp194
g57
(g78
g59
NtRp195
(dp196
g62
(dp197
g82
g83
ssg71
g191
sg64
(lp198
S'client'
p199
asbag57
(g78
g59
NtRp200
(dp201
g62
(dp202
g89
g90
ssg71
g191
sg64
(lp203
S':'
asbag57
(g78
g59
NtRp204
(dp205
g62
(dp206
sg71
g191
sg64
(lp207
g57
(g58
g59
NtRp208
(dp209
g62
(dp210
g70
I5
ssg71
g204
sg64
(lp211
S'127.0.0.1'
p212
asbasbasbag57
(g73
g59
NtRp213
(dp214
g62
(dp215
sg71
g67
sg64
(lp216
g57
(g78
g59
NtRp217
(dp218
g62
(dp219
g82
g83
ssg71
g213
sg64
(lp220
S'controller'
p221
asbag57
(g78
g59
NtRp222
(dp223
g62
(dp224
g89
g90
ssg71
g213
sg64
(lp225
S':'
asbag57
(g78
g59
NtRp226
(dp227
g62
(dp228
sg71
g213
sg64
(lp229
g57
(g58
g59
NtRp230
(dp231
g62
(dp232
g70
I5
ssg71
g226
sg64
(lp233
S'default'
p234
asbasbasbag57
(g73
g59
NtRp235
(dp236
g62
(dp237
sg71
g67
sg64
(lp238
g57
(g78
g59
NtRp239
(dp240
g62
(dp241
g82
g83
ssg71
g235
sg64
(lp242
S'cookies'
p243
asbag57
(g78
g59
NtRp244
(dp245
g62
(dp246
g89
g90
ssg71
g235
sg64
(lp247
S':'
asbag57
(g78
g59
NtRp248
(dp249
g62
(dp250
sg71
g235
sg64
(lp251
g57
(g58
g59
NtRp252
(dp253
g62
(dp254
g70
I5
ssg71
g248
sg64
(lp255
g57
(g66
g59
NtRp256
(dp257
g62
(dp258
g70
I4
ssg71
Nsg64
(lp259
g57
(g73
g59
NtRp260
(dp261
g62
(dp262
sg71
g256
sg64
(lp263
g57
(g78
g59
NtRp264
(dp265
g62
(dp266
g82
g83
ssg71
g260
sg64
(lp267
S'session_id_admin'
p268
asbag57
(g78
g59
NtRp269
(dp270
g62
(dp271
g89
g90
ssg71
g260
sg64
(lp272
S':'
asbag57
(g78
g59
NtRp273
(dp274
g62
(dp275
sg71
g260
sg64
(lp276
g57
(g58
g59
NtRp277
(dp278
g62
(dp279
g70
I4
ssg71
g273
sg64
(lp280
S'127.0.0.1-0e51496a-81aa-452f-ab67-551333ac456b'
p281
ag57
(g66
g59
NtRp282
(dp283
g62
(dp284
g70
I3
ssg71
Nsg64
(lp285
g57
(g73
g59
NtRp286
(dp287
g62
(dp288
sg71
g282
sg64
(lp289
g57
(g78
g59
NtRp290
(dp291
g62
(dp292
g82
g83
ssg71
g286
sg64
(lp293
S'comment'
p294
asbag57
(g78
g59
NtRp295
(dp296
g62
(dp297
g89
g90
ssg71
g286
sg64
(lp298
S':'
asbag57
(g78
g59
NtRp299
(dp300
g62
(dp301
sg71
g286
sg64
(lp302
g57
(g58
g59
NtRp303
(dp304
g62
(dp305
g70
I3
ssg71
g299
sg64
(lp306
S''
asbasbasbag57
(g73
g59
NtRp307
(dp308
g62
(dp309
sg71
g282
sg64
(lp310
g57
(g78
g59
NtRp311
(dp312
g62
(dp313
g82
g83
ssg71
g307
sg64
(lp314
S'domain'
p315
asbag57
(g78
g59
NtRp316
(dp317
g62
(dp318
g89
g90
ssg71
g307
sg64
(lp319
S':'
asbag57
(g78
g59
NtRp320
(dp321
g62
(dp322
sg71
g307
sg64
(lp323
g57
(g58
g59
NtRp324
(dp325
g62
(dp326
g70
I3
ssg71
g320
sg64
(lp327
S''
asbasbasbag57
(g73
g59
NtRp328
(dp329
g62
(dp330
sg71
g282
sg64
(lp331
g57
(g78
g59
NtRp332
(dp333
g62
(dp334
g82
g83
ssg71
g328
sg64
(lp335
S'expires'
p336
asbag57
(g78
g59
NtRp337
(dp338
g62
(dp339
g89
g90
ssg71
g328
sg64
(lp340
S':'
asbag57
(g78
g59
NtRp341
(dp342
g62
(dp343
sg71
g328
sg64
(lp344
g57
(g58
g59
NtRp345
(dp346
g62
(dp347
g70
I3
ssg71
g341
sg64
(lp348
S''
asbasbasbag57
(g73
g59
NtRp349
(dp350
g62
(dp351
sg71
g282
sg64
(lp352
g57
(g78
g59
NtRp353
(dp354
g62
(dp355
g82
g83
ssg71
g349
sg64
(lp356
S'httponly'
p357
asbag57
(g78
g59
NtRp358
(dp359
g62
(dp360
g89
g90
ssg71
g349
sg64
(lp361
S':'
asbag57
(g78
g59
NtRp362
(dp363
g62
(dp364
sg71
g349
sg64
(lp365
g57
(g58
g59
NtRp366
(dp367
g62
(dp368
g70
I3
ssg71
g362
sg64
(lp369
S''
asbasbasbag57
(g73
g59
NtRp370
(dp371
g62
(dp372
sg71
g282
sg64
(lp373
g57
(g78
g59
NtRp374
(dp375
g62
(dp376
g82
g83
ssg71
g370
sg64
(lp377
S'max-age'
p378
asbag57
(g78
g59
NtRp379
(dp380
g62
(dp381
g89
g90
ssg71
g370
sg64
(lp382
S':'
asbag57
(g78
g59
NtRp383
(dp384
g62
(dp385
sg71
g370
sg64
(lp386
g57
(g58
g59
NtRp387
(dp388
g62
(dp389
g70
I3
ssg71
g383
sg64
(lp390
S''
asbasbasbag57
(g73
g59
NtRp391
(dp392
g62
(dp393
sg71
g282
sg64
(lp394
g57
(g78
g59
NtRp395
(dp396
g62
(dp397
g82
g83
ssg71
g391
sg64
(lp398
S'path'
p399
asbag57
(g78
g59
NtRp400
(dp401
g62
(dp402
g89
g90
ssg71
g391
sg64
(lp403
S':'
asbag57
(g78
g59
NtRp404
(dp405
g62
(dp406
sg71
g391
sg64
(lp407
g57
(g58
g59
NtRp408
(dp409
g62
(dp410
g70
I3
ssg71
g404
sg64
(lp411
S''
asbasbasbag57
(g73
g59
NtRp412
(dp413
g62
(dp414
sg71
g282
sg64
(lp415
g57
(g78
g59
NtRp416
(dp417
g62
(dp418
g82
g83
ssg71
g412
sg64
(lp419
S'secure'
p420
asbag57
(g78
g59
NtRp421
(dp422
g62
(dp423
g89
g90
ssg71
g412
sg64
(lp424
S':'
asbag57
(g78
g59
NtRp425
(dp426
g62
(dp427
sg71
g412
sg64
(lp428
g57
(g58
g59
NtRp429
(dp430
g62
(dp431
g70
I3
ssg71
g425
sg64
(lp432
S''
asbasbasbag57
(g73
g59
NtRp433
(dp434
g62
(dp435
sg71
g282
sg64
(lp436
g57
(g78
g59
NtRp437
(dp438
g62
(dp439
g82
g83
ssg71
g433
sg64
(lp440
S'version'
p441
asbag57
(g78
g59
NtRp442
(dp443
g62
(dp444
g89
g90
ssg71
g433
sg64
(lp445
S':'
asbag57
(g78
g59
NtRp446
(dp447
g62
(dp448
sg71
g433
sg64
(lp449
g57
(g58
g59
NtRp450
(dp451
g62
(dp452
g70
I3
ssg71
g446
sg64
(lp453
S''
asbasbasbasbasbasbasbag57
(g73
g59
NtRp454
(dp455
g62
(dp456
sg71
g256
sg64
(lp457
g57
(g78
g59
NtRp458
(dp459
g62
(dp460
g82
g83
ssg71
g454
sg64
(lp461
S'session_id_sss'
p462
asbag57
(g78
g59
NtRp463
(dp464
g62
(dp465
g89
g90
ssg71
g454
sg64
(lp466
S':'
asbag57
(g78
g59
NtRp467
(dp468
g62
(dp469
sg71
g454
sg64
(lp470
g57
(g58
g59
NtRp471
(dp472
g62
(dp473
g70
I4
ssg71
g467
sg64
(lp474
S'127.0.0.1-2bf5f5db-0c4f-4f60-a152-3890f674624a'
p475
ag57
(g66
g59
NtRp476
(dp477
g62
(dp478
g70
I3
ssg71
Nsg64
(lp479
g57
(g73
g59
NtRp480
(dp481
g62
(dp482
sg71
g476
sg64
(lp483
g57
(g78
g59
NtRp484
(dp485
g62
(dp486
g82
g83
ssg71
g480
sg64
(lp487
g294
asbag57
(g78
g59
NtRp488
(dp489
g62
(dp490
g89
g90
ssg71
g480
sg64
(lp491
S':'
asbag57
(g78
g59
NtRp492
(dp493
g62
(dp494
sg71
g480
sg64
(lp495
g57
(g58
g59
NtRp496
(dp497
g62
(dp498
g70
I3
ssg71
g492
sg64
(lp499
S''
asbasbasbag57
(g73
g59
NtRp500
(dp501
g62
(dp502
sg71
g476
sg64
(lp503
g57
(g78
g59
NtRp504
(dp505
g62
(dp506
g82
g83
ssg71
g500
sg64
(lp507
g315
asbag57
(g78
g59
NtRp508
(dp509
g62
(dp510
g89
g90
ssg71
g500
sg64
(lp511
S':'
asbag57
(g78
g59
NtRp512
(dp513
g62
(dp514
sg71
g500
sg64
(lp515
g57
(g58
g59
NtRp516
(dp517
g62
(dp518
g70
I3
ssg71
g512
sg64
(lp519
S''
asbasbasbag57
(g73
g59
NtRp520
(dp521
g62
(dp522
sg71
g476
sg64
(lp523
g57
(g78
g59
NtRp524
(dp525
g62
(dp526
g82
g83
ssg71
g520
sg64
(lp527
g336
asbag57
(g78
g59
NtRp528
(dp529
g62
(dp530
g89
g90
ssg71
g520
sg64
(lp531
S':'
asbag57
(g78
g59
NtRp532
(dp533
g62
(dp534
sg71
g520
sg64
(lp535
g57
(g58
g59
NtRp536
(dp537
g62
(dp538
g70
I3
ssg71
g532
sg64
(lp539
S''
asbasbasbag57
(g73
g59
NtRp540
(dp541
g62
(dp542
sg71
g476
sg64
(lp543
g57
(g78
g59
NtRp544
(dp545
g62
(dp546
g82
g83
ssg71
g540
sg64
(lp547
g357
asbag57
(g78
g59
NtRp548
(dp549
g62
(dp550
g89
g90
ssg71
g540
sg64
(lp551
S':'
asbag57
(g78
g59
NtRp552
(dp553
g62
(dp554
sg71
g540
sg64
(lp555
g57
(g58
g59
NtRp556
(dp557
g62
(dp558
g70
I3
ssg71
g552
sg64
(lp559
S''
asbasbasbag57
(g73
g59
NtRp560
(dp561
g62
(dp562
sg71
g476
sg64
(lp563
g57
(g78
g59
NtRp564
(dp565
g62
(dp566
g82
g83
ssg71
g560
sg64
(lp567
g378
asbag57
(g78
g59
NtRp568
(dp569
g62
(dp570
g89
g90
ssg71
g560
sg64
(lp571
S':'
asbag57
(g78
g59
NtRp572
(dp573
g62
(dp574
sg71
g560
sg64
(lp575
g57
(g58
g59
NtRp576
(dp577
g62
(dp578
g70
I3
ssg71
g572
sg64
(lp579
S''
asbasbasbag57
(g73
g59
NtRp580
(dp581
g62
(dp582
sg71
g476
sg64
(lp583
g57
(g78
g59
NtRp584
(dp585
g62
(dp586
g82
g83
ssg71
g580
sg64
(lp587
g399
asbag57
(g78
g59
NtRp588
(dp589
g62
(dp590
g89
g90
ssg71
g580
sg64
(lp591
S':'
asbag57
(g78
g59
NtRp592
(dp593
g62
(dp594
sg71
g580
sg64
(lp595
g57
(g58
g59
NtRp596
(dp597
g62
(dp598
g70
I3
ssg71
g592
sg64
(lp599
S''
asbasbasbag57
(g73
g59
NtRp600
(dp601
g62
(dp602
sg71
g476
sg64
(lp603
g57
(g78
g59
NtRp604
(dp605
g62
(dp606
g82
g83
ssg71
g600
sg64
(lp607
g420
asbag57
(g78
g59
NtRp608
(dp609
g62
(dp610
g89
g90
ssg71
g600
sg64
(lp611
S':'
asbag57
(g78
g59
NtRp612
(dp613
g62
(dp614
sg71
g600
sg64
(lp615
g57
(g58
g59
NtRp616
(dp617
g62
(dp618
g70
I3
ssg71
g612
sg64
(lp619
S''
asbasbasbag57
(g73
g59
NtRp620
(dp621
g62
(dp622
sg71
g476
sg64
(lp623
g57
(g78
g59
NtRp624
(dp625
g62
(dp626
g82
g83
ssg71
g620
sg64
(lp627
g441
asbag57
(g78
g59
NtRp628
(dp629
g62
(dp630
g89
g90
ssg71
g620
sg64
(lp631
S':'
asbag57
(g78
g59
NtRp632
(dp633
g62
(dp634
sg71
g620
sg64
(lp635
g57
(g58
g59
NtRp636
(dp637
g62
(dp638
g70
I3
ssg71
g632
sg64
(lp639
S''
asbasbasbasbasbasbasbag57
(g73
g59
NtRp640
(dp641
g62
(dp642
sg71
g256
sg64
(lp643
g57
(g78
g59
NtRp644
(dp645
g62
(dp646
g82
g83
ssg71
g640
sg64
(lp647
S'session_id_sssa'
p648
asbag57
(g78
g59
NtRp649
(dp650
g62
(dp651
g89
g90
ssg71
g640
sg64
(lp652
S':'
asbag57
(g78
g59
NtRp653
(dp654
g62
(dp655
sg71
g640
sg64
(lp656
g57
(g58
g59
NtRp657
(dp658
g62
(dp659
g70
I4
ssg71
g653
sg64
(lp660
S'127.0.0.1-950878e8-b104-425d-bdf6-b9173f6dc884'
p661
ag57
(g66
g59
NtRp662
(dp663
g62
(dp664
g70
I3
ssg71
Nsg64
(lp665
g57
(g73
g59
NtRp666
(dp667
g62
(dp668
sg71
g662
sg64
(lp669
g57
(g78
g59
NtRp670
(dp671
g62
(dp672
g82
g83
ssg71
g666
sg64
(lp673
g294
asbag57
(g78
g59
NtRp674
(dp675
g62
(dp676
g89
g90
ssg71
g666
sg64
(lp677
S':'
asbag57
(g78
g59
NtRp678
(dp679
g62
(dp680
sg71
g666
sg64
(lp681
g57
(g58
g59
NtRp682
(dp683
g62
(dp684
g70
I3
ssg71
g678
sg64
(lp685
S''
asbasbasbag57
(g73
g59
NtRp686
(dp687
g62
(dp688
sg71
g662
sg64
(lp689
g57
(g78
g59
NtRp690
(dp691
g62
(dp692
g82
g83
ssg71
g686
sg64
(lp693
g315
asbag57
(g78
g59
NtRp694
(dp695
g62
(dp696
g89
g90
ssg71
g686
sg64
(lp697
S':'
asbag57
(g78
g59
NtRp698
(dp699
g62
(dp700
sg71
g686
sg64
(lp701
g57
(g58
g59
NtRp702
(dp703
g62
(dp704
g70
I3
ssg71
g698
sg64
(lp705
S''
asbasbasbag57
(g73
g59
NtRp706
(dp707
g62
(dp708
sg71
g662
sg64
(lp709
g57
(g78
g59
NtRp710
(dp711
g62
(dp712
g82
g83
ssg71
g706
sg64
(lp713
g336
asbag57
(g78
g59
NtRp714
(dp715
g62
(dp716
g89
g90
ssg71
g706
sg64
(lp717
S':'
asbag57
(g78
g59
NtRp718
(dp719
g62
(dp720
sg71
g706
sg64
(lp721
g57
(g58
g59
NtRp722
(dp723
g62
(dp724
g70
I3
ssg71
g718
sg64
(lp725
S''
asbasbasbag57
(g73
g59
NtRp726
(dp727
g62
(dp728
sg71
g662
sg64
(lp729
g57
(g78
g59
NtRp730
(dp731
g62
(dp732
g82
g83
ssg71
g726
sg64
(lp733
g357
asbag57
(g78
g59
NtRp734
(dp735
g62
(dp736
g89
g90
ssg71
g726
sg64
(lp737
S':'
asbag57
(g78
g59
NtRp738
(dp739
g62
(dp740
sg71
g726
sg64
(lp741
g57
(g58
g59
NtRp742
(dp743
g62
(dp744
g70
I3
ssg71
g738
sg64
(lp745
S''
asbasbasbag57
(g73
g59
NtRp746
(dp747
g62
(dp748
sg71
g662
sg64
(lp749
g57
(g78
g59
NtRp750
(dp751
g62
(dp752
g82
g83
ssg71
g746
sg64
(lp753
g378
asbag57
(g78
g59
NtRp754
(dp755
g62
(dp756
g89
g90
ssg71
g746
sg64
(lp757
S':'
asbag57
(g78
g59
NtRp758
(dp759
g62
(dp760
sg71
g746
sg64
(lp761
g57
(g58
g59
NtRp762
(dp763
g62
(dp764
g70
I3
ssg71
g758
sg64
(lp765
S''
asbasbasbag57
(g73
g59
NtRp766
(dp767
g62
(dp768
sg71
g662
sg64
(lp769
g57
(g78
g59
NtRp770
(dp771
g62
(dp772
g82
g83
ssg71
g766
sg64
(lp773
g399
asbag57
(g78
g59
NtRp774
(dp775
g62
(dp776
g89
g90
ssg71
g766
sg64
(lp777
S':'
asbag57
(g78
g59
NtRp778
(dp779
g62
(dp780
sg71
g766
sg64
(lp781
g57
(g58
g59
NtRp782
(dp783
g62
(dp784
g70
I3
ssg71
g778
sg64
(lp785
S''
asbasbasbag57
(g73
g59
NtRp786
(dp787
g62
(dp788
sg71
g662
sg64
(lp789
g57
(g78
g59
NtRp790
(dp791
g62
(dp792
g82
g83
ssg71
g786
sg64
(lp793
g420
asbag57
(g78
g59
NtRp794
(dp795
g62
(dp796
g89
g90
ssg71
g786
sg64
(lp797
S':'
asbag57
(g78
g59
NtRp798
(dp799
g62
(dp800
sg71
g786
sg64
(lp801
g57
(g58
g59
NtRp802
(dp803
g62
(dp804
g70
I3
ssg71
g798
sg64
(lp805
S''
asbasbasbag57
(g73
g59
NtRp806
(dp807
g62
(dp808
sg71
g662
sg64
(lp809
g57
(g78
g59
NtRp810
(dp811
g62
(dp812
g82
g83
ssg71
g806
sg64
(lp813
g441
asbag57
(g78
g59
NtRp814
(dp815
g62
(dp816
g89
g90
ssg71
g806
sg64
(lp817
S':'
asbag57
(g78
g59
NtRp818
(dp819
g62
(dp820
sg71
g806
sg64
(lp821
g57
(g58
g59
NtRp822
(dp823
g62
(dp824
g70
I3
ssg71
g818
sg64
(lp825
S''
asbasbasbasbasbasbasbag57
(g73
g59
NtRp826
(dp827
g62
(dp828
sg71
g256
sg64
(lp829
g57
(g78
g59
NtRp830
(dp831
g62
(dp832
g82
g83
ssg71
g826
sg64
(lp833
S'session_id_sssaa'
p834
asbag57
(g78
g59
NtRp835
(dp836
g62
(dp837
g89
g90
ssg71
g826
sg64
(lp838
S':'
asbag57
(g78
g59
NtRp839
(dp840
g62
(dp841
sg71
g826
sg64
(lp842
g57
(g58
g59
NtRp843
(dp844
g62
(dp845
g70
I4
ssg71
g839
sg64
(lp846
S'127.0.0.1-503dec05-cfa1-4aa1-a176-15773671ffdc'
p847
ag57
(g66
g59
NtRp848
(dp849
g62
(dp850
g70
I3
ssg71
Nsg64
(lp851
g57
(g73
g59
NtRp852
(dp853
g62
(dp854
sg71
g848
sg64
(lp855
g57
(g78
g59
NtRp856
(dp857
g62
(dp858
g82
g83
ssg71
g852
sg64
(lp859
g294
asbag57
(g78
g59
NtRp860
(dp861
g62
(dp862
g89
g90
ssg71
g852
sg64
(lp863
S':'
asbag57
(g78
g59
NtRp864
(dp865
g62
(dp866
sg71
g852
sg64
(lp867
g57
(g58
g59
NtRp868
(dp869
g62
(dp870
g70
I3
ssg71
g864
sg64
(lp871
S''
asbasbasbag57
(g73
g59
NtRp872
(dp873
g62
(dp874
sg71
g848
sg64
(lp875
g57
(g78
g59
NtRp876
(dp877
g62
(dp878
g82
g83
ssg71
g872
sg64
(lp879
g315
asbag57
(g78
g59
NtRp880
(dp881
g62
(dp882
g89
g90
ssg71
g872
sg64
(lp883
S':'
asbag57
(g78
g59
NtRp884
(dp885
g62
(dp886
sg71
g872
sg64
(lp887
g57
(g58
g59
NtRp888
(dp889
g62
(dp890
g70
I3
ssg71
g884
sg64
(lp891
S''
asbasbasbag57
(g73
g59
NtRp892
(dp893
g62
(dp894
sg71
g848
sg64
(lp895
g57
(g78
g59
NtRp896
(dp897
g62
(dp898
g82
g83
ssg71
g892
sg64
(lp899
g336
asbag57
(g78
g59
NtRp900
(dp901
g62
(dp902
g89
g90
ssg71
g892
sg64
(lp903
S':'
asbag57
(g78
g59
NtRp904
(dp905
g62
(dp906
sg71
g892
sg64
(lp907
g57
(g58
g59
NtRp908
(dp909
g62
(dp910
g70
I3
ssg71
g904
sg64
(lp911
S''
asbasbasbag57
(g73
g59
NtRp912
(dp913
g62
(dp914
sg71
g848
sg64
(lp915
g57
(g78
g59
NtRp916
(dp917
g62
(dp918
g82
g83
ssg71
g912
sg64
(lp919
g357
asbag57
(g78
g59
NtRp920
(dp921
g62
(dp922
g89
g90
ssg71
g912
sg64
(lp923
S':'
asbag57
(g78
g59
NtRp924
(dp925
g62
(dp926
sg71
g912
sg64
(lp927
g57
(g58
g59
NtRp928
(dp929
g62
(dp930
g70
I3
ssg71
g924
sg64
(lp931
S''
asbasbasbag57
(g73
g59
NtRp932
(dp933
g62
(dp934
sg71
g848
sg64
(lp935
g57
(g78
g59
NtRp936
(dp937
g62
(dp938
g82
g83
ssg71
g932
sg64
(lp939
g378
asbag57
(g78
g59
NtRp940
(dp941
g62
(dp942
g89
g90
ssg71
g932
sg64
(lp943
S':'
asbag57
(g78
g59
NtRp944
(dp945
g62
(dp946
sg71
g932
sg64
(lp947
g57
(g58
g59
NtRp948
(dp949
g62
(dp950
g70
I3
ssg71
g944
sg64
(lp951
S''
asbasbasbag57
(g73
g59
NtRp952
(dp953
g62
(dp954
sg71
g848
sg64
(lp955
g57
(g78
g59
NtRp956
(dp957
g62
(dp958
g82
g83
ssg71
g952
sg64
(lp959
g399
asbag57
(g78
g59
NtRp960
(dp961
g62
(dp962
g89
g90
ssg71
g952
sg64
(lp963
S':'
asbag57
(g78
g59
NtRp964
(dp965
g62
(dp966
sg71
g952
sg64
(lp967
g57
(g58
g59
NtRp968
(dp969
g62
(dp970
g70
I3
ssg71
g964
sg64
(lp971
S''
asbasbasbag57
(g73
g59
NtRp972
(dp973
g62
(dp974
sg71
g848
sg64
(lp975
g57
(g78
g59
NtRp976
(dp977
g62
(dp978
g82
g83
ssg71
g972
sg64
(lp979
g420
asbag57
(g78
g59
NtRp980
(dp981
g62
(dp982
g89
g90
ssg71
g972
sg64
(lp983
S':'
asbag57
(g78
g59
NtRp984
(dp985
g62
(dp986
sg71
g972
sg64
(lp987
g57
(g58
g59
NtRp988
(dp989
g62
(dp990
g70
I3
ssg71
g984
sg64
(lp991
S''
asbasbasbag57
(g73
g59
NtRp992
(dp993
g62
(dp994
sg71
g848
sg64
(lp995
g57
(g78
g59
NtRp996
(dp997
g62
(dp998
g82
g83
ssg71
g992
sg64
(lp999
g441
asbag57
(g78
g59
NtRp1000
(dp1001
g62
(dp1002
g89
g90
ssg71
g992
sg64
(lp1003
S':'
asbag57
(g78
g59
NtRp1004
(dp1005
g62
(dp1006
sg71
g992
sg64
(lp1007
g57
(g58
g59
NtRp1008
(dp1009
g62
(dp1010
g70
I3
ssg71
g1004
sg64
(lp1011
S''
asbasbasbasbasbasbasbag57
(g73
g59
NtRp1012
(dp1013
g62
(dp1014
sg71
g256
sg64
(lp1015
g57
(g78
g59
NtRp1016
(dp1017
g62
(dp1018
g82
g83
ssg71
g1012
sg64
(lp1019
S'session_id_sssaaa'
p1020
asbag57
(g78
g59
NtRp1021
(dp1022
g62
(dp1023
g89
g90
ssg71
g1012
sg64
(lp1024
S':'
asbag57
(g78
g59
NtRp1025
(dp1026
g62
(dp1027
sg71
g1012
sg64
(lp1028
g57
(g58
g59
NtRp1029
(dp1030
g62
(dp1031
g70
I4
ssg71
g1025
sg64
(lp1032
S'127.0.0.1-2cea18e0-5909-4943-9745-8ceabc8acf01'
p1033
ag57
(g66
g59
NtRp1034
(dp1035
g62
(dp1036
g70
I3
ssg71
Nsg64
(lp1037
g57
(g73
g59
NtRp1038
(dp1039
g62
(dp1040
sg71
g1034
sg64
(lp1041
g57
(g78
g59
NtRp1042
(dp1043
g62
(dp1044
g82
g83
ssg71
g1038
sg64
(lp1045
g294
asbag57
(g78
g59
NtRp1046
(dp1047
g62
(dp1048
g89
g90
ssg71
g1038
sg64
(lp1049
S':'
asbag57
(g78
g59
NtRp1050
(dp1051
g62
(dp1052
sg71
g1038
sg64
(lp1053
g57
(g58
g59
NtRp1054
(dp1055
g62
(dp1056
g70
I3
ssg71
g1050
sg64
(lp1057
S''
asbasbasbag57
(g73
g59
NtRp1058
(dp1059
g62
(dp1060
sg71
g1034
sg64
(lp1061
g57
(g78
g59
NtRp1062
(dp1063
g62
(dp1064
g82
g83
ssg71
g1058
sg64
(lp1065
g315
asbag57
(g78
g59
NtRp1066
(dp1067
g62
(dp1068
g89
g90
ssg71
g1058
sg64
(lp1069
S':'
asbag57
(g78
g59
NtRp1070
(dp1071
g62
(dp1072
sg71
g1058
sg64
(lp1073
g57
(g58
g59
NtRp1074
(dp1075
g62
(dp1076
g70
I3
ssg71
g1070
sg64
(lp1077
S''
asbasbasbag57
(g73
g59
NtRp1078
(dp1079
g62
(dp1080
sg71
g1034
sg64
(lp1081
g57
(g78
g59
NtRp1082
(dp1083
g62
(dp1084
g82
g83
ssg71
g1078
sg64
(lp1085
g336
asbag57
(g78
g59
NtRp1086
(dp1087
g62
(dp1088
g89
g90
ssg71
g1078
sg64
(lp1089
S':'
asbag57
(g78
g59
NtRp1090
(dp1091
g62
(dp1092
sg71
g1078
sg64
(lp1093
g57
(g58
g59
NtRp1094
(dp1095
g62
(dp1096
g70
I3
ssg71
g1090
sg64
(lp1097
S''
asbasbasbag57
(g73
g59
NtRp1098
(dp1099
g62
(dp1100
sg71
g1034
sg64
(lp1101
g57
(g78
g59
NtRp1102
(dp1103
g62
(dp1104
g82
g83
ssg71
g1098
sg64
(lp1105
g357
asbag57
(g78
g59
NtRp1106
(dp1107
g62
(dp1108
g89
g90
ssg71
g1098
sg64
(lp1109
S':'
asbag57
(g78
g59
NtRp1110
(dp1111
g62
(dp1112
sg71
g1098
sg64
(lp1113
g57
(g58
g59
NtRp1114
(dp1115
g62
(dp1116
g70
I3
ssg71
g1110
sg64
(lp1117
S''
asbasbasbag57
(g73
g59
NtRp1118
(dp1119
g62
(dp1120
sg71
g1034
sg64
(lp1121
g57
(g78
g59
NtRp1122
(dp1123
g62
(dp1124
g82
g83
ssg71
g1118
sg64
(lp1125
g378
asbag57
(g78
g59
NtRp1126
(dp1127
g62
(dp1128
g89
g90
ssg71
g1118
sg64
(lp1129
S':'
asbag57
(g78
g59
NtRp1130
(dp1131
g62
(dp1132
sg71
g1118
sg64
(lp1133
g57
(g58
g59
NtRp1134
(dp1135
g62
(dp1136
g70
I3
ssg71
g1130
sg64
(lp1137
S''
asbasbasbag57
(g73
g59
NtRp1138
(dp1139
g62
(dp1140
sg71
g1034
sg64
(lp1141
g57
(g78
g59
NtRp1142
(dp1143
g62
(dp1144
g82
g83
ssg71
g1138
sg64
(lp1145
g399
asbag57
(g78
g59
NtRp1146
(dp1147
g62
(dp1148
g89
g90
ssg71
g1138
sg64
(lp1149
S':'
asbag57
(g78
g59
NtRp1150
(dp1151
g62
(dp1152
sg71
g1138
sg64
(lp1153
g57
(g58
g59
NtRp1154
(dp1155
g62
(dp1156
g70
I3
ssg71
g1150
sg64
(lp1157
S''
asbasbasbag57
(g73
g59
NtRp1158
(dp1159
g62
(dp1160
sg71
g1034
sg64
(lp1161
g57
(g78
g59
NtRp1162
(dp1163
g62
(dp1164
g82
g83
ssg71
g1158
sg64
(lp1165
g420
asbag57
(g78
g59
NtRp1166
(dp1167
g62
(dp1168
g89
g90
ssg71
g1158
sg64
(lp1169
S':'
asbag57
(g78
g59
NtRp1170
(dp1171
g62
(dp1172
sg71
g1158
sg64
(lp1173
g57
(g58
g59
NtRp1174
(dp1175
g62
(dp1176
g70
I3
ssg71
g1170
sg64
(lp1177
S''
asbasbasbag57
(g73
g59
NtRp1178
(dp1179
g62
(dp1180
sg71
g1034
sg64
(lp1181
g57
(g78
g59
NtRp1182
(dp1183
g62
(dp1184
g82
g83
ssg71
g1178
sg64
(lp1185
g441
asbag57
(g78
g59
NtRp1186
(dp1187
g62
(dp1188
g89
g90
ssg71
g1178
sg64
(lp1189
S':'
asbag57
(g78
g59
NtRp1190
(dp1191
g62
(dp1192
sg71
g1178
sg64
(lp1193
g57
(g58
g59
NtRp1194
(dp1195
g62
(dp1196
g70
I3
ssg71
g1190
sg64
(lp1197
S''
asbasbasbasbasbasbasbasbasbasbasbag57
(g73
g59
NtRp1198
(dp1199
g62
(dp1200
sg71
g67
sg64
(lp1201
g57
(g78
g59
NtRp1202
(dp1203
g62
(dp1204
g82
g83
ssg71
g1198
sg64
(lp1205
S'env'
p1206
asbag57
(g78
g59
NtRp1207
(dp1208
g62
(dp1209
g89
g90
ssg71
g1198
sg64
(lp1210
S':'
asbag57
(g78
g59
NtRp1211
(dp1212
g62
(dp1213
sg71
g1198
sg64
(lp1214
g57
(g58
g59
NtRp1215
(dp1216
g62
(dp1217
g70
I5
ssg71
g1211
sg64
(lp1218
g57
(g66
g59
NtRp1219
(dp1220
g62
(dp1221
g70
I4
ssg71
Nsg64
(lp1222
g57
(g73
g59
NtRp1223
(dp1224
g62
(dp1225
sg71
g1219
sg64
(lp1226
g57
(g78
g59
NtRp1227
(dp1228
g62
(dp1229
g82
g83
ssg71
g1223
sg64
(lp1230
S'app_folders'
p1231
asbag57
(g78
g59
NtRp1232
(dp1233
g62
(dp1234
g89
g90
ssg71
g1223
sg64
(lp1235
S':'
asbag57
(g78
g59
NtRp1236
(dp1237
g62
(dp1238
sg71
g1223
sg64
(lp1239
g57
(g58
g59
NtRp1240
(dp1241
g62
(dp1242
g70
I4
ssg71
g1236
sg64
(lp1243
S"set(['/home/bhanu/web2py/applications/admin/', '/home/bhanu/web2py/applications/sss/', '/home/bhanu/web2py/applications/sssaa/', '/home/bhanu/web2py/applications/sssa/', '/home/bhanu/web2py/applications/sssaaa/'])"
p1244
asbasbasbag57
(g73
g59
NtRp1245
(dp1246
g62
(dp1247
sg71
g1219
sg64
(lp1248
g57
(g78
g59
NtRp1249
(dp1250
g62
(dp1251
g82
g83
ssg71
g1245
sg64
(lp1252
S'applications_parent'
p1253
asbag57
(g78
g59
NtRp1254
(dp1255
g62
(dp1256
g89
g90
ssg71
g1245
sg64
(lp1257
S':'
asbag57
(g78
g59
NtRp1258
(dp1259
g62
(dp1260
sg71
g1245
sg64
(lp1261
g57
(g58
g59
NtRp1262
(dp1263
g62
(dp1264
g70
I4
ssg71
g1258
sg64
(lp1265
S'/home/bhanu/web2py'
p1266
asbasbasbag57
(g73
g59
NtRp1267
(dp1268
g62
(dp1269
sg71
g1219
sg64
(lp1270
g57
(g78
g59
NtRp1271
(dp1272
g62
(dp1273
g82
g83
ssg71
g1267
sg64
(lp1274
S'cmd_args'
p1275
asbag57
(g78
g59
NtRp1276
(dp1277
g62
(dp1278
g89
g90
ssg71
g1267
sg64
(lp1279
S':'
asbag57
(g78
g59
NtRp1280
(dp1281
g62
(dp1282
sg71
g1267
sg64
(lp1283
g57
(g58
g59
NtRp1284
(dp1285
g62
(dp1286
g70
I4
ssg71
g1280
sg64
(lp1287
g57
(g66
g59
NtRp1288
(dp1289
g62
(dp1290
g70
I3
ssg71
Nsg64
(lp1291
sbasbasbasbag57
(g73
g59
NtRp1292
(dp1293
g62
(dp1294
sg71
g1219
sg64
(lp1295
g57
(g78
g59
NtRp1296
(dp1297
g62
(dp1298
g82
g83
ssg71
g1292
sg64
(lp1299
S'cmd_options'
p1300
asbag57
(g78
g59
NtRp1301
(dp1302
g62
(dp1303
g89
g90
ssg71
g1292
sg64
(lp1304
S':'
asbag57
(g78
g59
NtRp1305
(dp1306
g62
(dp1307
sg71
g1292
sg64
(lp1308
g57
(g58
g59
NtRp1309
(dp1310
g62
(dp1311
g70
I4
ssg71
g1305
sg64
(lp1312
S"<Values at 0x15c2f80: {'verbose': False, 'ip': '127.0.0.1', 'with_scheduler': False, 'ips': ['127.0.1.1'], 'shutdown_timeout': 5, 'taskbar': False, 'port': 8000, 'maxthreads': None, 'softcron': False, 'server_name': 'bhanu-Dell-System-XPS-L502X', 'bpython': False, 'nogui': False, 'pid_filename': 'httpserver.pid', 'extcron': False, 'runcron': False, 'run_system_tests': False, 'test': None, 'folder': '/home/bhanu/web2py', 'config': '', 'minthreads': None, 'winservice': '', 'shell': None, 'run': '', 'log_filename': 'httpserver.log', 'debuglevel': 30, 'args': [''], 'socket_timeout': 5, 'ssl_ca_certificate': None, 'scheduler': None, 'profiler_filename': None, 'ssl_private_key': '', 'scheduler_groups': None, 'password': '1', 'request_queue_size': 5, 'ssl_certificate': '', 'cronjob': False, 'numthreads': None, 'quiet': False, 'interfaces': None, 'import_models': False, 'timeout': 10, 'plain': False, 'nobanner': False}>"
p1313
asbasbasbag57
(g73
g59
NtRp1314
(dp1315
g62
(dp1316
sg71
g1219
sg64
(lp1317
g57
(g78
g59
NtRp1318
(dp1319
g62
(dp1320
g82
g83
ssg71
g1314
sg64
(lp1321
S'db_sessions'
p1322
asbag57
(g78
g59
NtRp1323
(dp1324
g62
(dp1325
g89
g90
ssg71
g1314
sg64
(lp1326
S':'
asbag57
(g78
g59
NtRp1327
(dp1328
g62
(dp1329
sg71
g1314
sg64
(lp1330
g57
(g58
g59
NtRp1331
(dp1332
g62
(dp1333
g70
I4
ssg71
g1327
sg64
(lp1334
S'set([])'
p1335
asbasbasbag57
(g73
g59
NtRp1336
(dp1337
g62
(dp1338
sg71
g1219
sg64
(lp1339
g57
(g78
g59
NtRp1340
(dp1341
g62
(dp1342
g82
g83
ssg71
g1336
sg64
(lp1343
S'debugging'
p1344
asbag57
(g78
g59
NtRp1345
(dp1346
g62
(dp1347
g89
g90
ssg71
g1336
sg64
(lp1348
S':'
asbag57
(g78
g59
NtRp1349
(dp1350
g62
(dp1351
sg71
g1336
sg64
(lp1352
g57
(g58
g59
NtRp1353
(dp1354
g62
(dp1355
g70
I4
ssg71
g1349
sg64
(lp1356
g100
asbasbasbag57
(g73
g59
NtRp1357
(dp1358
g62
(dp1359
sg71
g1219
sg64
(lp1360
g57
(g78
g59
NtRp1361
(dp1362
g62
(dp1363
g82
g83
ssg71
g1357
sg64
(lp1364
S'gluon_parent'
p1365
asbag57
(g78
g59
NtRp1366
(dp1367
g62
(dp1368
g89
g90
ssg71
g1357
sg64
(lp1369
S':'
asbag57
(g78
g59
NtRp1370
(dp1371
g62
(dp1372
sg71
g1357
sg64
(lp1373
g57
(g58
g59
NtRp1374
(dp1375
g62
(dp1376
g70
I4
ssg71
g1370
sg64
(lp1377
S'/home/bhanu/web2py'
p1378
asbasbasbag57
(g73
g59
NtRp1379
(dp1380
g62
(dp1381
sg71
g1219
sg64
(lp1382
g57
(g78
g59
NtRp1383
(dp1384
g62
(dp1385
g82
g83
ssg71
g1379
sg64
(lp1386
S'http_accept'
p1387
asbag57
(g78
g59
NtRp1388
(dp1389
g62
(dp1390
g89
g90
ssg71
g1379
sg64
(lp1391
S':'
asbag57
(g78
g59
NtRp1392
(dp1393
g62
(dp1394
sg71
g1379
sg64
(lp1395
g57
(g58
g59
NtRp1396
(dp1397
g62
(dp1398
g70
I4
ssg71
g1392
sg64
(lp1399
S'text/html,application/xhtml+xml,application/xml;q=0.9,*/*;q=0.8'
p1400
asbasbasbag57
(g73
g59
NtRp1401
(dp1402
g62
(dp1403
sg71
g1219
sg64
(lp1404
g57
(g78
g59
NtRp1405
(dp1406
g62
(dp1407
g82
g83
ssg71
g1401
sg64
(lp1408
S'http_accept_encoding'
p1409
asbag57
(g78
g59
NtRp1410
(dp1411
g62
(dp1412
g89
g90
ssg71
g1401
sg64
(lp1413
S':'
asbag57
(g78
g59
NtRp1414
(dp1415
g62
(dp1416
sg71
g1401
sg64
(lp1417
g57
(g58
g59
NtRp1418
(dp1419
g62
(dp1420
g70
I4
ssg71
g1414
sg64
(lp1421
S'gzip, deflate'
p1422
asbasbasbag57
(g73
g59
NtRp1423
(dp1424
g62
(dp1425
sg71
g1219
sg64
(lp1426
g57
(g78
g59
NtRp1427
(dp1428
g62
(dp1429
g82
g83
ssg71
g1423
sg64
(lp1430
S'http_accept_language'
p1431
asbag57
(g78
g59
NtRp1432
(dp1433
g62
(dp1434
g89
g90
ssg71
g1423
sg64
(lp1435
S':'
asbag57
(g78
g59
NtRp1436
(dp1437
g62
(dp1438
sg71
g1423
sg64
(lp1439
g57
(g58
g59
NtRp1440
(dp1441
g62
(dp1442
g70
I4
ssg71
g1436
sg64
(lp1443
S'en-US,en;q=0.5'
p1444
asbasbasbag57
(g73
g59
NtRp1445
(dp1446
g62
(dp1447
sg71
g1219
sg64
(lp1448
g57
(g78
g59
NtRp1449
(dp1450
g62
(dp1451
g82
g83
ssg71
g1445
sg64
(lp1452
S'http_connection'
p1453
asbag57
(g78
g59
NtRp1454
(dp1455
g62
(dp1456
g89
g90
ssg71
g1445
sg64
(lp1457
S':'
asbag57
(g78
g59
NtRp1458
(dp1459
g62
(dp1460
sg71
g1445
sg64
(lp1461
g57
(g58
g59
NtRp1462
(dp1463
g62
(dp1464
g70
I4
ssg71
g1458
sg64
(lp1465
S'keep-alive'
p1466
asbasbasbag57
(g73
g59
NtRp1467
(dp1468
g62
(dp1469
sg71
g1219
sg64
(lp1470
g57
(g78
g59
NtRp1471
(dp1472
g62
(dp1473
g82
g83
ssg71
g1467
sg64
(lp1474
S'http_cookie'
p1475
asbag57
(g78
g59
NtRp1476
(dp1477
g62
(dp1478
g89
g90
ssg71
g1467
sg64
(lp1479
S':'
asbag57
(g78
g59
NtRp1480
(dp1481
g62
(dp1482
sg71
g1467
sg64
(lp1483
g57
(g58
g59
NtRp1484
(dp1485
g62
(dp1486
g70
I4
ssg71
g1480
sg64
(lp1487
S'session_id_sss=127.0.0.1-2bf5f5db-0c4f-4f60-a152-3890f674624a; session_id_admin=127.0.0.1-0e51496a-81aa-452f-ab67-551333ac456b; session_id_sssa=127.0.0.1-950878e8-b104-425d-bdf6-b9173f6dc884; session_id_sssaaa=127.0.0.1-2cea18e0-5909-4943-9745-8ceabc8acf01; session_id_sssaa=127.0.0.1-503dec05-cfa1-4aa1-a176-15773671ffdc'
p1488
asbasbasbag57
(g73
g59
NtRp1489
(dp1490
g62
(dp1491
sg71
g1219
sg64
(lp1492
g57
(g78
g59
NtRp1493
(dp1494
g62
(dp1495
g82
g83
ssg71
g1489
sg64
(lp1496
S'http_host'
p1497
asbag57
(g78
g59
NtRp1498
(dp1499
g62
(dp1500
g89
g90
ssg71
g1489
sg64
(lp1501
S':'
asbag57
(g78
g59
NtRp1502
(dp1503
g62
(dp1504
sg71
g1489
sg64
(lp1505
g57
(g58
g59
NtRp1506
(dp1507
g62
(dp1508
g70
I4
ssg71
g1502
sg64
(lp1509
S'127.0.0.1:8000'
p1510
asbasbasbag57
(g73
g59
NtRp1511
(dp1512
g62
(dp1513
sg71
g1219
sg64
(lp1514
g57
(g78
g59
NtRp1515
(dp1516
g62
(dp1517
g82
g83
ssg71
g1511
sg64
(lp1518
S'http_referer'
p1519
asbag57
(g78
g59
NtRp1520
(dp1521
g62
(dp1522
g89
g90
ssg71
g1511
sg64
(lp1523
S':'
asbag57
(g78
g59
NtRp1524
(dp1525
g62
(dp1526
sg71
g1511
sg64
(lp1527
g57
(g58
g59
NtRp1528
(dp1529
g62
(dp1530
g70
I4
ssg71
g1524
sg64
(lp1531
S'http://127.0.0.1:8000/admin/default/design/sss'
p1532
asbasbasbag57
(g73
g59
NtRp1533
(dp1534
g62
(dp1535
sg71
g1219
sg64
(lp1536
g57
(g78
g59
NtRp1537
(dp1538
g62
(dp1539
g82
g83
ssg71
g1533
sg64
(lp1540
S'http_user_agent'
p1541
asbag57
(g78
g59
NtRp1542
(dp1543
g62
(dp1544
g89
g90
ssg71
g1533
sg64
(lp1545
S':'
asbag57
(g78
g59
NtRp1546
(dp1547
g62
(dp1548
sg71
g1533
sg64
(lp1549
g57
(g58
g59
NtRp1550
(dp1551
g62
(dp1552
g70
I4
ssg71
g1546
sg64
(lp1553
S'Mozilla/5.0 (X11; Ubuntu; Linux x86_64; rv:16.0) Gecko/20100101 Firefox/16.0'
p1554
asbasbasbag57
(g73
g59
NtRp1555
(dp1556
g62
(dp1557
sg71
g1219
sg64
(lp1558
g57
(g78
g59
NtRp1559
(dp1560
g62
(dp1561
g82
g83
ssg71
g1555
sg64
(lp1562
S'is_jython'
p1563
asbag57
(g78
g59
NtRp1564
(dp1565
g62
(dp1566
g89
g90
ssg71
g1555
sg64
(lp1567
S':'
asbag57
(g78
g59
NtRp1568
(dp1569
g62
(dp1570
sg71
g1555
sg64
(lp1571
g57
(g58
g59
NtRp1572
(dp1573
g62
(dp1574
g70
I4
ssg71
g1568
sg64
(lp1575
g100
asbasbasbag57
(g73
g59
NtRp1576
(dp1577
g62
(dp1578
sg71
g1219
sg64
(lp1579
g57
(g78
g59
NtRp1580
(dp1581
g62
(dp1582
g82
g83
ssg71
g1576
sg64
(lp1583
S'is_pypy'
p1584
asbag57
(g78
g59
NtRp1585
(dp1586
g62
(dp1587
g89
g90
ssg71
g1576
sg64
(lp1588
S':'
asbag57
(g78
g59
NtRp1589
(dp1590
g62
(dp1591
sg71
g1576
sg64
(lp1592
g57
(g58
g59
NtRp1593
(dp1594
g62
(dp1595
g70
I4
ssg71
g1589
sg64
(lp1596
g100
asbasbasbag57
(g73
g59
NtRp1597
(dp1598
g62
(dp1599
sg71
g1219
sg64
(lp1600
g57
(g78
g59
NtRp1601
(dp1602
g62
(dp1603
g82
g83
ssg71
g1597
sg64
(lp1604
S'local_hosts'
p1605
asbag57
(g78
g59
NtRp1606
(dp1607
g62
(dp1608
g89
g90
ssg71
g1597
sg64
(lp1609
S':'
asbag57
(g78
g59
NtRp1610
(dp1611
g62
(dp1612
sg71
g1597
sg64
(lp1613
g57
(g58
g59
NtRp1614
(dp1615
g62
(dp1616
g70
I4
ssg71
g1610
sg64
(lp1617
g57
(g66
g59
NtRp1618
(dp1619
g62
(dp1620
g70
I3
ssg71
Nsg64
(lp1621
g57
(g73
g59
NtRp1622
(dp1623
g62
(dp1624
sg71
g1618
sg64
(lp1625
g57
(g78
g59
NtRp1626
(dp1627
g62
(dp1628
sg71
g1622
sg64
(lp1629
g57
(g58
g59
NtRp1630
(dp1631
g62
(dp1632
g70
I3
ssg71
g1626
sg64
(lp1633
S'127.0.0.1'
p1634
asbasbasbag57
(g73
g59
NtRp1635
(dp1636
g62
(dp1637
sg71
g1618
sg64
(lp1638
g57
(g78
g59
NtRp1639
(dp1640
g62
(dp1641
sg71
g1635
sg64
(lp1642
g57
(g58
g59
NtRp1643
(dp1644
g62
(dp1645
g70
I3
ssg71
g1639
sg64
(lp1646
S'::ffff:127.0.0.1'
p1647
asbasbasbag57
(g73
g59
NtRp1648
(dp1649
g62
(dp1650
sg71
g1618
sg64
(lp1651
g57
(g78
g59
NtRp1652
(dp1653
g62
(dp1654
sg71
g1648
sg64
(lp1655
g57
(g58
g59
NtRp1656
(dp1657
g62
(dp1658
g70
I3
ssg71
g1652
sg64
(lp1659
S'bhanu-Dell-System-XPS-L502X'
p1660
asbasbasbag57
(g73
g59
NtRp1661
(dp1662
g62
(dp1663
sg71
g1618
sg64
(lp1664
g57
(g78
g59
NtRp1665
(dp1666
g62
(dp1667
sg71
g1661
sg64
(lp1668
g57
(g58
g59
NtRp1669
(dp1670
g62
(dp1671
g70
I3
ssg71
g1665
sg64
(lp1672
S'bhanu-Dell-System-XPS-L502X'
p1673
asbasbasbag57
(g73
g59
NtRp1674
(dp1675
g62
(dp1676
sg71
g1618
sg64
(lp1677
g57
(g78
g59
NtRp1678
(dp1679
g62
(dp1680
sg71
g1674
sg64
(lp1681
g57
(g58
g59
NtRp1682
(dp1683
g62
(dp1684
g70
I3
ssg71
g1678
sg64
(lp1685
S'127.0.1.1'
p1686
asbasbasbasbasbasbasbag57
(g73
g59
NtRp1687
(dp1688
g62
(dp1689
sg71
g1219
sg64
(lp1690
g57
(g78
g59
NtRp1691
(dp1692
g62
(dp1693
g82
g83
ssg71
g1687
sg64
(lp1694
S'path_info'
p1695
asbag57
(g78
g59
NtRp1696
(dp1697
g62
(dp1698
g89
g90
ssg71
g1687
sg64
(lp1699
S':'
asbag57
(g78
g59
NtRp1700
(dp1701
g62
(dp1702
sg71
g1687
sg64
(lp1703
g57
(g58
g59
NtRp1704
(dp1705
g62
(dp1706
g70
I4
ssg71
g1700
sg64
(lp1707
S'/sss/default/editprofile'
p1708
asbasbasbag57
(g73
g59
NtRp1709
(dp1710
g62
(dp1711
sg71
g1219
sg64
(lp1712
g57
(g78
g59
NtRp1713
(dp1714
g62
(dp1715
g82
g83
ssg71
g1709
sg64
(lp1716
S'query_string'
p1717
asbag57
(g78
g59
NtRp1718
(dp1719
g62
(dp1720
g89
g90
ssg71
g1709
sg64
(lp1721
S':'
asbag57
(g78
g59
NtRp1722
(dp1723
g62
(dp1724
sg71
g1709
sg64
(lp1725
g57
(g58
g59
NtRp1726
(dp1727
g62
(dp1728
g70
I4
ssg71
g1722
sg64
(lp1729
S''
asbasbasbag57
(g73
g59
NtRp1730
(dp1731
g62
(dp1732
sg71
g1219
sg64
(lp1733
g57
(g78
g59
NtRp1734
(dp1735
g62
(dp1736
g82
g83
ssg71
g1730
sg64
(lp1737
S'remote_addr'
p1738
asbag57
(g78
g59
NtRp1739
(dp1740
g62
(dp1741
g89
g90
ssg71
g1730
sg64
(lp1742
S':'
asbag57
(g78
g59
NtRp1743
(dp1744
g62
(dp1745
sg71
g1730
sg64
(lp1746
g57
(g58
g59
NtRp1747
(dp1748
g62
(dp1749
g70
I4
ssg71
g1743
sg64
(lp1750
g212
asbasbasbag57
(g73
g59
NtRp1751
(dp1752
g62
(dp1753
sg71
g1219
sg64
(lp1754
g57
(g78
g59
NtRp1755
(dp1756
g62
(dp1757
g82
g83
ssg71
g1751
sg64
(lp1758
S'remote_port'
p1759
asbag57
(g78
g59
NtRp1760
(dp1761
g62
(dp1762
g89
g90
ssg71
g1751
sg64
(lp1763
S':'
asbag57
(g78
g59
NtRp1764
(dp1765
g62
(dp1766
sg71
g1751
sg64
(lp1767
g57
(g58
g59
NtRp1768
(dp1769
g62
(dp1770
g70
I4
ssg71
g1764
sg64
(lp1771
S'52773'
p1772
asbasbasbag57
(g73
g59
NtRp1773
(dp1774
g62
(dp1775
sg71
g1219
sg64
(lp1776
g57
(g78
g59
NtRp1777
(dp1778
g62
(dp1779
g82
g83
ssg71
g1773
sg64
(lp1780
S'request_method'
p1781
asbag57
(g78
g59
NtRp1782
(dp1783
g62
(dp1784
g89
g90
ssg71
g1773
sg64
(lp1785
S':'
asbag57
(g78
g59
NtRp1786
(dp1787
g62
(dp1788
sg71
g1773
sg64
(lp1789
g57
(g58
g59
NtRp1790
(dp1791
g62
(dp1792
g70
I4
ssg71
g1786
sg64
(lp1793
S'GET'
p1794
asbasbasbag57
(g73
g59
NtRp1795
(dp1796
g62
(dp1797
sg71
g1219
sg64
(lp1798
g57
(g78
g59
NtRp1799
(dp1800
g62
(dp1801
g82
g83
ssg71
g1795
sg64
(lp1802
S'request_uri'
p1803
asbag57
(g78
g59
NtRp1804
(dp1805
g62
(dp1806
g89
g90
ssg71
g1795
sg64
(lp1807
S':'
asbag57
(g78
g59
NtRp1808
(dp1809
g62
(dp1810
sg71
g1795
sg64
(lp1811
g57
(g58
g59
NtRp1812
(dp1813
g62
(dp1814
g70
I4
ssg71
g1808
sg64
(lp1815
g1708
asbasbasbag57
(g73
g59
NtRp1816
(dp1817
g62
(dp1818
sg71
g1219
sg64
(lp1819
g57
(g78
g59
NtRp1820
(dp1821
g62
(dp1822
g82
g83
ssg71
g1816
sg64
(lp1823
S'script_name'
p1824
asbag57
(g78
g59
NtRp1825
(dp1826
g62
(dp1827
g89
g90
ssg71
g1816
sg64
(lp1828
S':'
asbag57
(g78
g59
NtRp1829
(dp1830
g62
(dp1831
sg71
g1816
sg64
(lp1832
g57
(g58
g59
NtRp1833
(dp1834
g62
(dp1835
g70
I4
ssg71
g1829
sg64
(lp1836
S''
asbasbasbag57
(g73
g59
NtRp1837
(dp1838
g62
(dp1839
sg71
g1219
sg64
(lp1840
g57
(g78
g59
NtRp1841
(dp1842
g62
(dp1843
g82
g83
ssg71
g1837
sg64
(lp1844
S'server_name'
p1845
asbag57
(g78
g59
NtRp1846
(dp1847
g62
(dp1848
g89
g90
ssg71
g1837
sg64
(lp1849
S':'
asbag57
(g78
g59
NtRp1850
(dp1851
g62
(dp1852
sg71
g1837
sg64
(lp1853
g57
(g58
g59
NtRp1854
(dp1855
g62
(dp1856
g70
I4
ssg71
g1850
sg64
(lp1857
g1673
asbasbasbag57
(g73
g59
NtRp1858
(dp1859
g62
(dp1860
sg71
g1219
sg64
(lp1861
g57
(g78
g59
NtRp1862
(dp1863
g62
(dp1864
g82
g83
ssg71
g1858
sg64
(lp1865
S'server_port'
p1866
asbag57
(g78
g59
NtRp1867
(dp1868
g62
(dp1869
g89
g90
ssg71
g1858
sg64
(lp1870
S':'
asbag57
(g78
g59
NtRp1871
(dp1872
g62
(dp1873
sg71
g1858
sg64
(lp1874
g57
(g58
g59
NtRp1875
(dp1876
g62
(dp1877
g70
I4
ssg71
g1871
sg64
(lp1878
S'8000'
p1879
asbasbasbag57
(g73
g59
NtRp1880
(dp1881
g62
(dp1882
sg71
g1219
sg64
(lp1883
g57
(g78
g59
NtRp1884
(dp1885
g62
(dp1886
g82
g83
ssg71
g1880
sg64
(lp1887
S'server_protocol'
p1888
asbag57
(g78
g59
NtRp1889
(dp1890
g62
(dp1891
g89
g90
ssg71
g1880
sg64
(lp1892
S':'
asbag57
(g78
g59
NtRp1893
(dp1894
g62
(dp1895
sg71
g1880
sg64
(lp1896
g57
(g58
g59
NtRp1897
(dp1898
g62
(dp1899
g70
I4
ssg71
g1893
sg64
(lp1900
S'HTTP/1.1'
p1901
asbasbasbag57
(g73
g59
NtRp1902
(dp1903
g62
(dp1904
sg71
g1219
sg64
(lp1905
g57
(g78
g59
NtRp1906
(dp1907
g62
(dp1908
g82
g83
ssg71
g1902
sg64
(lp1909
S'server_software'
p1910
asbag57
(g78
g59
NtRp1911
(dp1912
g62
(dp1913
g89
g90
ssg71
g1902
sg64
(lp1914
S':'
asbag57
(g78
g59
NtRp1915
(dp1916
g62
(dp1917
sg71
g1902
sg64
(lp1918
g57
(g58
g59
NtRp1919
(dp1920
g62
(dp1921
g70
I4
ssg71
g1915
sg64
(lp1922
S'Rocket 1.2.5'
p1923
asbasbasbag57
(g73
g59
NtRp1924
(dp1925
g62
(dp1926
sg71
g1219
sg64
(lp1927
g57
(g78
g59
NtRp1928
(dp1929
g62
(dp1930
g82
g83
ssg71
g1924
sg64
(lp1931
S'web2py_path'
p1932
asbag57
(g78
g59
NtRp1933
(dp1934
g62
(dp1935
g89
g90
ssg71
g1924
sg64
(lp1936
S':'
asbag57
(g78
g59
NtRp1937
(dp1938
g62
(dp1939
sg71
g1924
sg64
(lp1940
g57
(g58
g59
NtRp1941
(dp1942
g62
(dp1943
g70
I4
ssg71
g1937
sg64
(lp1944
g1266
asbasbasbag57
(g73
g59
NtRp1945
(dp1946
g62
(dp1947
sg71
g1219
sg64
(lp1948
g57
(g78
g59
NtRp1949
(dp1950
g62
(dp1951
g82
g83
ssg71
g1945
sg64
(lp1952
S'web2py_version'
p1953
asbag57
(g78
g59
NtRp1954
(dp1955
g62
(dp1956
g89
g90
ssg71
g1945
sg64
(lp1957
S':'
asbag57
(g78
g59
NtRp1958
(dp1959
g62
(dp1960
sg71
g1945
sg64
(lp1961
g57
(g58
g59
NtRp1962
(dp1963
g62
(dp1964
g70
I4
ssg71
g1958
sg64
(lp1965
g57
(g66
g59
NtRp1966
(dp1967
g62
(dp1968
g70
I3
ssg71
Nsg64
(lp1969
g57
(g73
g59
NtRp1970
(dp1971
g62
(dp1972
sg71
g1966
sg64
(lp1973
g57
(g78
g59
NtRp1974
(dp1975
g62
(dp1976
sg71
g1970
sg64
(lp1977
g57
(g58
g59
NtRp1978
(dp1979
g62
(dp1980
g70
I3
ssg71
g1974
sg64
(lp1981
S'2'
asbasbasbag57
(g73
g59
NtRp1982
(dp1983
g62
(dp1984
sg71
g1966
sg64
(lp1985
g57
(g78
g59
NtRp1986
(dp1987
g62
(dp1988
sg71
g1982
sg64
(lp1989
g57
(g58
g59
NtRp1990
(dp1991
g62
(dp1992
g70
I3
ssg71
g1986
sg64
(lp1993
S'2'
asbasbasbag57
(g73
g59
NtRp1994
(dp1995
g62
(dp1996
sg71
g1966
sg64
(lp1997
g57
(g78
g59
NtRp1998
(dp1999
g62
(dp2000
sg71
g1994
sg64
(lp2001
g57
(g58
g59
NtRp2002
(dp2003
g62
(dp2004
g70
I3
ssg71
g1998
sg64
(lp2005
S'1'
asbasbasbag57
(g73
g59
NtRp2006
(dp2007
g62
(dp2008
sg71
g1966
sg64
(lp2009
g57
(g78
g59
NtRp2010
(dp2011
g62
(dp2012
sg71
g2006
sg64
(lp2013
g57
(g58
g59
NtRp2014
(dp2015
g62
(dp2016
g70
I3
ssg71
g2010
sg64
(lp2017
S'datetime.datetime(2012, 10, 21, 16, 57, 4)'
p2018
asbasbasbag57
(g73
g59
NtRp2019
(dp2020
g62
(dp2021
sg71
g1966
sg64
(lp2022
g57
(g78
g59
NtRp2023
(dp2024
g62
(dp2025
sg71
g2019
sg64
(lp2026
g57
(g58
g59
NtRp2027
(dp2028
g62
(dp2029
g70
I3
ssg71
g2023
sg64
(lp2030
S'stable'
p2031
asbasbasbasbasbasbasbag57
(g73
g59
NtRp2032
(dp2033
g62
(dp2034
sg71
g1219
sg64
(lp2035
g57
(g78
g59
NtRp2036
(dp2037
g62
(dp2038
g82
g83
ssg71
g2032
sg64
(lp2039
S'wsgi_errors'
p2040
asbag57
(g78
g59
NtRp2041
(dp2042
g62
(dp2043
g89
g90
ssg71
g2032
sg64
(lp2044
S':'
asbag57
(g78
g59
NtRp2045
(dp2046
g62
(dp2047
sg71
g2032
sg64
(lp2048
g57
(g58
g59
NtRp2049
(dp2050
g62
(dp2051
g70
I4
ssg71
g2045
sg64
(lp2052
S"<open file '<stderr>', mode 'w' at 0x7fa81e395270>"
p2053
asbasbasbag57
(g73
g59
NtRp2054
(dp2055
g62
(dp2056
sg71
g1219
sg64
(lp2057
g57
(g78
g59
NtRp2058
(dp2059
g62
(dp2060
g82
g83
ssg71
g2054
sg64
(lp2061
S'wsgi_file_wrapper'
p2062
asbag57
(g78
g59
NtRp2063
(dp2064
g62
(dp2065
g89
g90
ssg71
g2054
sg64
(lp2066
S':'
asbag57
(g78
g59
NtRp2067
(dp2068
g62
(dp2069
sg71
g2054
sg64
(lp2070
g57
(g58
g59
NtRp2071
(dp2072
g62
(dp2073
g70
I4
ssg71
g2067
sg64
(lp2074
S'<class wsgiref.util.FileWrapper at 0x14f6d50>'
p2075
asbasbasbag57
(g73
g59
NtRp2076
(dp2077
g62
(dp2078
sg71
g1219
sg64
(lp2079
g57
(g78
g59
NtRp2080
(dp2081
g62
(dp2082
g82
g83
ssg71
g2076
sg64
(lp2083
S'wsgi_input'
p2084
asbag57
(g78
g59
NtRp2085
(dp2086
g62
(dp2087
g89
g90
ssg71
g2076
sg64
(lp2088
S':'
asbag57
(g78
g59
NtRp2089
(dp2090
g62
(dp2091
sg71
g2076
sg64
(lp2092
g57
(g58
g59
NtRp2093
(dp2094
g62
(dp2095
g70
I4
ssg71
g2089
sg64
(lp2096
S'<socket._fileobject object at 0x7fa80050b2d0>'
p2097
asbasbasbag57
(g73
g59
NtRp2098
(dp2099
g62
(dp2100
sg71
g1219
sg64
(lp2101
g57
(g78
g59
NtRp2102
(dp2103
g62
(dp2104
g82
g83
ssg71
g2098
sg64
(lp2105
S'wsgi_multiprocess'
p2106
asbag57
(g78
g59
NtRp2107
(dp2108
g62
(dp2109
g89
g90
ssg71
g2098
sg64
(lp2110
S':'
asbag57
(g78
g59
NtRp2111
(dp2112
g62
(dp2113
sg71
g2098
sg64
(lp2114
g57
(g58
g59
NtRp2115
(dp2116
g62
(dp2117
g70
I4
ssg71
g2111
sg64
(lp2118
g100
asbasbasbag57
(g73
g59
NtRp2119
(dp2120
g62
(dp2121
sg71
g1219
sg64
(lp2122
g57
(g78
g59
NtRp2123
(dp2124
g62
(dp2125
g82
g83
ssg71
g2119
sg64
(lp2126
S'wsgi_multithread'
p2127
asbag57
(g78
g59
NtRp2128
(dp2129
g62
(dp2130
g89
g90
ssg71
g2119
sg64
(lp2131
S':'
asbag57
(g78
g59
NtRp2132
(dp2133
g62
(dp2134
sg71
g2119
sg64
(lp2135
g57
(g58
g59
NtRp2136
(dp2137
g62
(dp2138
g70
I4
ssg71
g2132
sg64
(lp2139
S'True'
p2140
asbasbasbag57
(g73
g59
NtRp2141
(dp2142
g62
(dp2143
sg71
g1219
sg64
(lp2144
g57
(g78
g59
NtRp2145
(dp2146
g62
(dp2147
g82
g83
ssg71
g2141
sg64
(lp2148
S'wsgi_run_once'
p2149
asbag57
(g78
g59
NtRp2150
(dp2151
g62
(dp2152
g89
g90
ssg71
g2141
sg64
(lp2153
S':'
asbag57
(g78
g59
NtRp2154
(dp2155
g62
(dp2156
sg71
g2141
sg64
(lp2157
g57
(g58
g59
NtRp2158
(dp2159
g62
(dp2160
g70
I4
ssg71
g2154
sg64
(lp2161
g100
asbasbasbag57
(g73
g59
NtRp2162
(dp2163
g62
(dp2164
sg71
g1219
sg64
(lp2165
g57
(g78
g59
NtRp2166
(dp2167
g62
(dp2168
g82
g83
ssg71
g2162
sg64
(lp2169
S'wsgi_url_scheme'
p2170
asbag57
(g78
g59
NtRp2171
(dp2172
g62
(dp2173
g89
g90
ssg71
g2162
sg64
(lp2174
S':'
asbag57
(g78
g59
NtRp2175
(dp2176
g62
(dp2177
sg71
g2162
sg64
(lp2178
g57
(g58
g59
NtRp2179
(dp2180
g62
(dp2181
g70
I4
ssg71
g2175
sg64
(lp2182
S'http'
p2183
asbasbasbag57
(g73
g59
NtRp2184
(dp2185
g62
(dp2186
sg71
g1219
sg64
(lp2187
g57
(g78
g59
NtRp2188
(dp2189
g62
(dp2190
g82
g83
ssg71
g2184
sg64
(lp2191
S'wsgi_version'
p2192
asbag57
(g78
g59
NtRp2193
(dp2194
g62
(dp2195
g89
g90
ssg71
g2184
sg64
(lp2196
S':'
asbag57
(g78
g59
NtRp2197
(dp2198
g62
(dp2199
sg71
g2184
sg64
(lp2200
g57
(g58
g59
NtRp2201
(dp2202
g62
(dp2203
g70
I4
ssg71
g2197
sg64
(lp2204
g57
(g66
g59
NtRp2205
(dp2206
g62
(dp2207
g70
I3
ssg71
Nsg64
(lp2208
g57
(g73
g59
NtRp2209
(dp2210
g62
(dp2211
sg71
g2205
sg64
(lp2212
g57
(g78
g59
NtRp2213
(dp2214
g62
(dp2215
sg71
g2209
sg64
(lp2216
g57
(g58
g59
NtRp2217
(dp2218
g62
(dp2219
g70
I3
ssg71
g2213
sg64
(lp2220
S'1'
asbasbasbag57
(g73
g59
NtRp2221
(dp2222
g62
(dp2223
sg71
g2205
sg64
(lp2224
g57
(g78
g59
NtRp2225
(dp2226
g62
(dp2227
sg71
g2221
sg64
(lp2228
g57
(g58
g59
NtRp2229
(dp2230
g62
(dp2231
g70
I3
ssg71
g2225
sg64
(lp2232
S'0'
asbasbasbasbasbasbasbasbasbasbasbag57
(g73
g59
NtRp2233
(dp2234
g62
(dp2235
sg71
g67
sg64
(lp2236
g57
(g78
g59
NtRp2237
(dp2238
g62
(dp2239
g82
g83
ssg71
g2233
sg64
(lp2240
S'extension'
p2241
asbag57
(g78
g59
NtRp2242
(dp2243
g62
(dp2244
g89
g90
ssg71
g2233
sg64
(lp2245
S':'
asbag57
(g78
g59
NtRp2246
(dp2247
g62
(dp2248
sg71
g2233
sg64
(lp2249
g57
(g58
g59
NtRp2250
(dp2251
g62
(dp2252
g70
I5
ssg71
g2246
sg64
(lp2253
S'html'
p2254
asbasbasbag57
(g73
g59
NtRp2255
(dp2256
g62
(dp2257
sg71
g67
sg64
(lp2258
g57
(g78
g59
NtRp2259
(dp2260
g62
(dp2261
g82
g83
ssg71
g2255
sg64
(lp2262
S'folder'
p2263
asbag57
(g78
g59
NtRp2264
(dp2265
g62
(dp2266
g89
g90
ssg71
g2255
sg64
(lp2267
S':'
asbag57
(g78
g59
NtRp2268
(dp2269
g62
(dp2270
sg71
g2255
sg64
(lp2271
g57
(g58
g59
NtRp2272
(dp2273
g62
(dp2274
g70
I5
ssg71
g2268
sg64
(lp2275
S'/home/bhanu/web2py/applications/sss/'
p2276
asbasbasbag57
(g73
g59
NtRp2277
(dp2278
g62
(dp2279
sg71
g67
sg64
(lp2280
g57
(g78
g59
NtRp2281
(dp2282
g62
(dp2283
g82
g83
ssg71
g2277
sg64
(lp2284
S'function'
p2285
asbag57
(g78
g59
NtRp2286
(dp2287
g62
(dp2288
g89
g90
ssg71
g2277
sg64
(lp2289
S':'
asbag57
(g78
g59
NtRp2290
(dp2291
g62
(dp2292
sg71
g2277
sg64
(lp2293
g57
(g58
g59
NtRp2294
(dp2295
g62
(dp2296
g70
I5
ssg71
g2290
sg64
(lp2297
S'editprofile'
p2298
asbasbasbag57
(g73
g59
NtRp2299
(dp2300
g62
(dp2301
sg71
g67
sg64
(lp2302
g57
(g78
g59
NtRp2303
(dp2304
g62
(dp2305
g82
g83
ssg71
g2299
sg64
(lp2306
S'get_vars'
p2307
asbag57
(g78
g59
NtRp2308
(dp2309
g62
(dp2310
g89
g90
ssg71
g2299
sg64
(lp2311
S':'
asbag57
(g78
g59
NtRp2312
(dp2313
g62
(dp2314
sg71
g2299
sg64
(lp2315
g57
(g58
g59
NtRp2316
(dp2317
g62
(dp2318
g70
I5
ssg71
g2312
sg64
(lp2319
g57
(g66
g59
NtRp2320
(dp2321
g62
(dp2322
g70
I4
ssg71
Nsg64
(lp2323
sbasbasbasbag57
(g73
g59
NtRp2324
(dp2325
g62
(dp2326
sg71
g67
sg64
(lp2327
g57
(g78
g59
NtRp2328
(dp2329
g62
(dp2330
g82
g83
ssg71
g2324
sg64
(lp2331
S'global_settings'
p2332
asbag57
(g78
g59
NtRp2333
(dp2334
g62
(dp2335
g89
g90
ssg71
g2324
sg64
(lp2336
S':'
asbag57
(g78
g59
NtRp2337
(dp2338
g62
(dp2339
sg71
g2324
sg64
(lp2340
g57
(g58
g59
NtRp2341
(dp2342
g62
(dp2343
g70
I5
ssg71
g2337
sg64
(lp2344
g57
(g66
g59
NtRp2345
(dp2346
g62
(dp2347
g70
I4
ssg71
Nsg64
(lp2348
g57
(g73
g59
NtRp2349
(dp2350
g62
(dp2351
sg71
g2345
sg64
(lp2352
g57
(g78
g59
NtRp2353
(dp2354
g62
(dp2355
g82
g83
ssg71
g2349
sg64
(lp2356
g1231
asbag57
(g78
g59
NtRp2357
(dp2358
g62
(dp2359
g89
g90
ssg71
g2349
sg64
(lp2360
S':'
asbag57
(g78
g59
NtRp2361
(dp2362
g62
(dp2363
sg71
g2349
sg64
(lp2364
g57
(g58
g59
NtRp2365
(dp2366
g62
(dp2367
g70
I4
ssg71
g2361
sg64
(lp2368
S"set(['/home/bhanu/web2py/applications/admin/', '/home/bhanu/web2py/applications/sss/', '/home/bhanu/web2py/applications/sssaa/', '/home/bhanu/web2py/applications/sssa/', '/home/bhanu/web2py/applications/sssaaa/'])"
p2369
asbasbasbag57
(g73
g59
NtRp2370
(dp2371
g62
(dp2372
sg71
g2345
sg64
(lp2373
g57
(g78
g59
NtRp2374
(dp2375
g62
(dp2376
g82
g83
ssg71
g2370
sg64
(lp2377
g1253
asbag57
(g78
g59
NtRp2378
(dp2379
g62
(dp2380
g89
g90
ssg71
g2370
sg64
(lp2381
S':'
asbag57
(g78
g59
NtRp2382
(dp2383
g62
(dp2384
sg71
g2370
sg64
(lp2385
g57
(g58
g59
NtRp2386
(dp2387
g62
(dp2388
g70
I4
ssg71
g2382
sg64
(lp2389
g1266
asbasbasbag57
(g73
g59
NtRp2390
(dp2391
g62
(dp2392
sg71
g2345
sg64
(lp2393
g57
(g78
g59
NtRp2394
(dp2395
g62
(dp2396
g82
g83
ssg71
g2390
sg64
(lp2397
g1275
asbag57
(g78
g59
NtRp2398
(dp2399
g62
(dp2400
g89
g90
ssg71
g2390
sg64
(lp2401
S':'
asbag57
(g78
g59
NtRp2402
(dp2403
g62
(dp2404
sg71
g2390
sg64
(lp2405
g57
(g58
g59
NtRp2406
(dp2407
g62
(dp2408
g70
I4
ssg71
g2402
sg64
(lp2409
g57
(g66
g59
NtRp2410
(dp2411
g62
(dp2412
g70
I3
ssg71
Nsg64
(lp2413
sbasbasbasbag57
(g73
g59
NtRp2414
(dp2415
g62
(dp2416
sg71
g2345
sg64
(lp2417
g57
(g78
g59
NtRp2418
(dp2419
g62
(dp2420
g82
g83
ssg71
g2414
sg64
(lp2421
g1300
asbag57
(g78
g59
NtRp2422
(dp2423
g62
(dp2424
g89
g90
ssg71
g2414
sg64
(lp2425
S':'
asbag57
(g78
g59
NtRp2426
(dp2427
g62
(dp2428
sg71
g2414
sg64
(lp2429
g57
(g58
g59
NtRp2430
(dp2431
g62
(dp2432
g70
I4
ssg71
g2426
sg64
(lp2433
S"<Values at 0x15c2f80: {'verbose': False, 'ip': '127.0.0.1', 'with_scheduler': False, 'ips': ['127.0.1.1'], 'shutdown_timeout': 5, 'taskbar': False, 'port': 8000, 'maxthreads': None, 'softcron': False, 'server_name': 'bhanu-Dell-System-XPS-L502X', 'bpython': False, 'nogui': False, 'pid_filename': 'httpserver.pid', 'extcron': False, 'runcron': False, 'run_system_tests': False, 'test': None, 'folder': '/home/bhanu/web2py', 'config': '', 'minthreads': None, 'winservice': '', 'shell': None, 'run': '', 'log_filename': 'httpserver.log', 'debuglevel': 30, 'args': [''], 'socket_timeout': 5, 'ssl_ca_certificate': None, 'scheduler': None, 'profiler_filename': None, 'ssl_private_key': '', 'scheduler_groups': None, 'password': '1', 'request_queue_size': 5, 'ssl_certificate': '', 'cronjob': False, 'numthreads': None, 'quiet': False, 'interfaces': None, 'import_models': False, 'timeout': 10, 'plain': False, 'nobanner': False}>"
p2434
asbasbasbag57
(g73
g59
NtRp2435
(dp2436
g62
(dp2437
sg71
g2345
sg64
(lp2438
g57
(g78
g59
NtRp2439
(dp2440
g62
(dp2441
g82
g83
ssg71
g2435
sg64
(lp2442
g1322
asbag57
(g78
g59
NtRp2443
(dp2444
g62
(dp2445
g89
g90
ssg71
g2435
sg64
(lp2446
S':'
asbag57
(g78
g59
NtRp2447
(dp2448
g62
(dp2449
sg71
g2435
sg64
(lp2450
g57
(g58
g59
NtRp2451
(dp2452
g62
(dp2453
g70
I4
ssg71
g2447
sg64
(lp2454
S'set([])'
p2455
asbasbasbag57
(g73
g59
NtRp2456
(dp2457
g62
(dp2458
sg71
g2345
sg64
(lp2459
g57
(g78
g59
NtRp2460
(dp2461
g62
(dp2462
g82
g83
ssg71
g2456
sg64
(lp2463
g1344
asbag57
(g78
g59
NtRp2464
(dp2465
g62
(dp2466
g89
g90
ssg71
g2456
sg64
(lp2467
S':'
asbag57
(g78
g59
NtRp2468
(dp2469
g62
(dp2470
sg71
g2456
sg64
(lp2471
g57
(g58
g59
NtRp2472
(dp2473
g62
(dp2474
g70
I4
ssg71
g2468
sg64
(lp2475
g100
asbasbasbag57
(g73
g59
NtRp2476
(dp2477
g62
(dp2478
sg71
g2345
sg64
(lp2479
g57
(g78
g59
NtRp2480
(dp2481
g62
(dp2482
g82
g83
ssg71
g2476
sg64
(lp2483
g1365
asbag57
(g78
g59
NtRp2484
(dp2485
g62
(dp2486
g89
g90
ssg71
g2476
sg64
(lp2487
S':'
asbag57
(g78
g59
NtRp2488
(dp2489
g62
(dp2490
sg71
g2476
sg64
(lp2491
g57
(g58
g59
NtRp2492
(dp2493
g62
(dp2494
g70
I4
ssg71
g2488
sg64
(lp2495
g1378
asbasbasbag57
(g73
g59
NtRp2496
(dp2497
g62
(dp2498
sg71
g2345
sg64
(lp2499
g57
(g78
g59
NtRp2500
(dp2501
g62
(dp2502
g82
g83
ssg71
g2496
sg64
(lp2503
g1563
asbag57
(g78
g59
NtRp2504
(dp2505
g62
(dp2506
g89
g90
ssg71
g2496
sg64
(lp2507
S':'
asbag57
(g78
g59
NtRp2508
(dp2509
g62
(dp2510
sg71
g2496
sg64
(lp2511
g57
(g58
g59
NtRp2512
(dp2513
g62
(dp2514
g70
I4
ssg71
g2508
sg64
(lp2515
g100
asbasbasbag57
(g73
g59
NtRp2516
(dp2517
g62
(dp2518
sg71
g2345
sg64
(lp2519
g57
(g78
g59
NtRp2520
(dp2521
g62
(dp2522
g82
g83
ssg71
g2516
sg64
(lp2523
g1584
asbag57
(g78
g59
NtRp2524
(dp2525
g62
(dp2526
g89
g90
ssg71
g2516
sg64
(lp2527
S':'
asbag57
(g78
g59
NtRp2528
(dp2529
g62
(dp2530
sg71
g2516
sg64
(lp2531
g57
(g58
g59
NtRp2532
(dp2533
g62
(dp2534
g70
I4
ssg71
g2528
sg64
(lp2535
g100
asbasbasbag57
(g73
g59
NtRp2536
(dp2537
g62
(dp2538
sg71
g2345
sg64
(lp2539
g57
(g78
g59
NtRp2540
(dp2541
g62
(dp2542
g82
g83
ssg71
g2536
sg64
(lp2543
g1605
asbag57
(g78
g59
NtRp2544
(dp2545
g62
(dp2546
g89
g90
ssg71
g2536
sg64
(lp2547
S':'
asbag57
(g78
g59
NtRp2548
(dp2549
g62
(dp2550
sg71
g2536
sg64
(lp2551
g57
(g58
g59
NtRp2552
(dp2553
g62
(dp2554
g70
I4
ssg71
g2548
sg64
(lp2555
g57
(g66
g59
NtRp2556
(dp2557
g62
(dp2558
g70
I3
ssg71
Nsg64
(lp2559
g57
(g73
g59
NtRp2560
(dp2561
g62
(dp2562
sg71
g2556
sg64
(lp2563
g57
(g78
g59
NtRp2564
(dp2565
g62
(dp2566
sg71
g2560
sg64
(lp2567
g57
(g58
g59
NtRp2568
(dp2569
g62
(dp2570
g70
I3
ssg71
g2564
sg64
(lp2571
g1634
asbasbasbag57
(g73
g59
NtRp2572
(dp2573
g62
(dp2574
sg71
g2556
sg64
(lp2575
g57
(g78
g59
NtRp2576
(dp2577
g62
(dp2578
sg71
g2572
sg64
(lp2579
g57
(g58
g59
NtRp2580
(dp2581
g62
(dp2582
g70
I3
ssg71
g2576
sg64
(lp2583
g1647
asbasbasbag57
(g73
g59
NtRp2584
(dp2585
g62
(dp2586
sg71
g2556
sg64
(lp2587
g57
(g78
g59
NtRp2588
(dp2589
g62
(dp2590
sg71
g2584
sg64
(lp2591
g57
(g58
g59
NtRp2592
(dp2593
g62
(dp2594
g70
I3
ssg71
g2588
sg64
(lp2595
g1660
asbasbasbag57
(g73
g59
NtRp2596
(dp2597
g62
(dp2598
sg71
g2556
sg64
(lp2599
g57
(g78
g59
NtRp2600
(dp2601
g62
(dp2602
sg71
g2596
sg64
(lp2603
g57
(g58
g59
NtRp2604
(dp2605
g62
(dp2606
g70
I3
ssg71
g2600
sg64
(lp2607
g1673
asbasbasbag57
(g73
g59
NtRp2608
(dp2609
g62
(dp2610
sg71
g2556
sg64
(lp2611
g57
(g78
g59
NtRp2612
(dp2613
g62
(dp2614
sg71
g2608
sg64
(lp2615
g57
(g58
g59
NtRp2616
(dp2617
g62
(dp2618
g70
I3
ssg71
g2612
sg64
(lp2619
g1686
asbasbasbasbasbasbasbag57
(g73
g59
NtRp2620
(dp2621
g62
(dp2622
sg71
g2345
sg64
(lp2623
g57
(g78
g59
NtRp2624
(dp2625
g62
(dp2626
g82
g83
ssg71
g2620
sg64
(lp2627
g1953
asbag57
(g78
g59
NtRp2628
(dp2629
g62
(dp2630
g89
g90
ssg71
g2620
sg64
(lp2631
S':'
asbag57
(g78
g59
NtRp2632
(dp2633
g62
(dp2634
sg71
g2620
sg64
(lp2635
g57
(g58
g59
NtRp2636
(dp2637
g62
(dp2638
g70
I4
ssg71
g2632
sg64
(lp2639
g57
(g66
g59
NtRp2640
(dp2641
g62
(dp2642
g70
I3
ssg71
Nsg64
(lp2643
g57
(g73
g59
NtRp2644
(dp2645
g62
(dp2646
sg71
g2640
sg64
(lp2647
g57
(g78
g59
NtRp2648
(dp2649
g62
(dp2650
sg71
g2644
sg64
(lp2651
g57
(g58
g59
NtRp2652
(dp2653
g62
(dp2654
g70
I3
ssg71
g2648
sg64
(lp2655
S'2'
asbasbasbag57
(g73
g59
NtRp2656
(dp2657
g62
(dp2658
sg71
g2640
sg64
(lp2659
g57
(g78
g59
NtRp2660
(dp2661
g62
(dp2662
sg71
g2656
sg64
(lp2663
g57
(g58
g59
NtRp2664
(dp2665
g62
(dp2666
g70
I3
ssg71
g2660
sg64
(lp2667
S'2'
asbasbasbag57
(g73
g59
NtRp2668
(dp2669
g62
(dp2670
sg71
g2640
sg64
(lp2671
g57
(g78
g59
NtRp2672
(dp2673
g62
(dp2674
sg71
g2668
sg64
(lp2675
g57
(g58
g59
NtRp2676
(dp2677
g62
(dp2678
g70
I3
ssg71
g2672
sg64
(lp2679
S'1'
asbasbasbag57
(g73
g59
NtRp2680
(dp2681
g62
(dp2682
sg71
g2640
sg64
(lp2683
g57
(g78
g59
NtRp2684
(dp2685
g62
(dp2686
sg71
g2680
sg64
(lp2687
g57
(g58
g59
NtRp2688
(dp2689
g62
(dp2690
g70
I3
ssg71
g2684
sg64
(lp2691
S'datetime.datetime(2012, 10, 21, 16, 57, 4)'
p2692
asbasbasbag57
(g73
g59
NtRp2693
(dp2694
g62
(dp2695
sg71
g2640
sg64
(lp2696
g57
(g78
g59
NtRp2697
(dp2698
g62
(dp2699
sg71
g2693
sg64
(lp2700
g57
(g58
g59
NtRp2701
(dp2702
g62
(dp2703
g70
I3
ssg71
g2697
sg64
(lp2704
g2031
asbasbasbasbasbasbasbasbasbasbasbag57
(g73
g59
NtRp2705
(dp2706
g62
(dp2707
sg71
g67
sg64
(lp2708
g57
(g78
g59
NtRp2709
(dp2710
g62
(dp2711
g82
g83
ssg71
g2705
sg64
(lp2712
S'is_https'
p2713
asbag57
(g78
g59
NtRp2714
(dp2715
g62
(dp2716
g89
g90
ssg71
g2705
sg64
(lp2717
S':'
asbag57
(g78
g59
NtRp2718
(dp2719
g62
(dp2720
sg71
g2705
sg64
(lp2721
g57
(g58
g59
NtRp2722
(dp2723
g62
(dp2724
g70
I5
ssg71
g2718
sg64
(lp2725
g100
asbasbasbag57
(g73
g59
NtRp2726
(dp2727
g62
(dp2728
sg71
g67
sg64
(lp2729
g57
(g78
g59
NtRp2730
(dp2731
g62
(dp2732
g82
g83
ssg71
g2726
sg64
(lp2733
S'is_local'
p2734
asbag57
(g78
g59
NtRp2735
(dp2736
g62
(dp2737
g89
g90
ssg71
g2726
sg64
(lp2738
S':'
asbag57
(g78
g59
NtRp2739
(dp2740
g62
(dp2741
sg71
g2726
sg64
(lp2742
g57
(g58
g59
NtRp2743
(dp2744
g62
(dp2745
g70
I5
ssg71
g2739
sg64
(lp2746
g2140
asbasbasbag57
(g73
g59
NtRp2747
(dp2748
g62
(dp2749
sg71
g67
sg64
(lp2750
g57
(g78
g59
NtRp2751
(dp2752
g62
(dp2753
g82
g83
ssg71
g2747
sg64
(lp2754
S'is_restful'
p2755
asbag57
(g78
g59
NtRp2756
(dp2757
g62
(dp2758
g89
g90
ssg71
g2747
sg64
(lp2759
S':'
asbag57
(g78
g59
NtRp2760
(dp2761
g62
(dp2762
sg71
g2747
sg64
(lp2763
g57
(g58
g59
NtRp2764
(dp2765
g62
(dp2766
g70
I5
ssg71
g2760
sg64
(lp2767
g100
asbasbasbag57
(g73
g59
NtRp2768
(dp2769
g62
(dp2770
sg71
g67
sg64
(lp2771
g57
(g78
g59
NtRp2772
(dp2773
g62
(dp2774
g82
g83
ssg71
g2768
sg64
(lp2775
S'now'
p2776
asbag57
(g78
g59
NtRp2777
(dp2778
g62
(dp2779
g89
g90
ssg71
g2768
sg64
(lp2780
S':'
asbag57
(g78
g59
NtRp2781
(dp2782
g62
(dp2783
sg71
g2768
sg64
(lp2784
g57
(g58
g59
NtRp2785
(dp2786
g62
(dp2787
g70
I5
ssg71
g2781
sg64
(lp2788
S'datetime.datetime(2012, 11, 15, 14, 55, 11, 460434)'
p2789
asbasbasbag57
(g73
g59
NtRp2790
(dp2791
g62
(dp2792
sg71
g67
sg64
(lp2793
g57
(g78
g59
NtRp2794
(dp2795
g62
(dp2796
g82
g83
ssg71
g2790
sg64
(lp2797
S'post_vars'
p2798
asbag57
(g78
g59
NtRp2799
(dp2800
g62
(dp2801
g89
g90
ssg71
g2790
sg64
(lp2802
S':'
asbag57
(g78
g59
NtRp2803
(dp2804
g62
(dp2805
sg71
g2790
sg64
(lp2806
g57
(g58
g59
NtRp2807
(dp2808
g62
(dp2809
g70
I5
ssg71
g2803
sg64
(lp2810
g57
(g66
g59
NtRp2811
(dp2812
g62
(dp2813
g70
I4
ssg71
Nsg64
(lp2814
sbasbasbasbag57
(g73
g59
NtRp2815
(dp2816
g62
(dp2817
sg71
g67
sg64
(lp2818
g57
(g78
g59
NtRp2819
(dp2820
g62
(dp2821
g82
g83
ssg71
g2815
sg64
(lp2822
S'raw_args'
p2823
asbag57
(g78
g59
NtRp2824
(dp2825
g62
(dp2826
g89
g90
ssg71
g2815
sg64
(lp2827
S':'
asbag57
(g78
g59
NtRp2828
(dp2829
g62
(dp2830
sg71
g2815
sg64
(lp2831
g57
(g58
g59
NtRp2832
(dp2833
g62
(dp2834
g70
I5
ssg71
g2828
sg64
(lp2835
S''
asbasbasbag57
(g73
g59
NtRp2836
(dp2837
g62
(dp2838
sg71
g67
sg64
(lp2839
g57
(g78
g59
NtRp2840
(dp2841
g62
(dp2842
g82
g83
ssg71
g2836
sg64
(lp2843
S'raw_extension'
p2844
asbag57
(g78
g59
NtRp2845
(dp2846
g62
(dp2847
g89
g90
ssg71
g2836
sg64
(lp2848
S':'
asbag57
(g78
g59
NtRp2849
(dp2850
g62
(dp2851
sg71
g2836
sg64
(lp2852
g57
(g58
g59
NtRp2853
(dp2854
g62
(dp2855
g70
I5
ssg71
g2849
sg64
(lp2856
S'None'
p2857
asbasbasbag57
(g73
g59
NtRp2858
(dp2859
g62
(dp2860
sg71
g67
sg64
(lp2861
g57
(g78
g59
NtRp2862
(dp2863
g62
(dp2864
g82
g83
ssg71
g2858
sg64
(lp2865
S'url'
p2866
asbag57
(g78
g59
NtRp2867
(dp2868
g62
(dp2869
g89
g90
ssg71
g2858
sg64
(lp2870
S':'
asbag57
(g78
g59
NtRp2871
(dp2872
g62
(dp2873
sg71
g2858
sg64
(lp2874
g57
(g58
g59
NtRp2875
(dp2876
g62
(dp2877
g70
I5
ssg71
g2871
sg64
(lp2878
g1708
asbasbasbag57
(g73
g59
NtRp2879
(dp2880
g62
(dp2881
sg71
g67
sg64
(lp2882
g57
(g78
g59
NtRp2883
(dp2884
g62
(dp2885
g82
g83
ssg71
g2879
sg64
(lp2886
S'utcnow'
p2887
asbag57
(g78
g59
NtRp2888
(dp2889
g62
(dp2890
g89
g90
ssg71
g2879
sg64
(lp2891
S':'
asbag57
(g78
g59
NtRp2892
(dp2893
g62
(dp2894
sg71
g2879
sg64
(lp2895
g57
(g58
g59
NtRp2896
(dp2897
g62
(dp2898
g70
I5
ssg71
g2892
sg64
(lp2899
S'datetime.datetime(2012, 11, 15, 9, 25, 11, 460461)'
p2900
asbasbasbag57
(g73
g59
NtRp2901
(dp2902
g62
(dp2903
sg71
g67
sg64
(lp2904
g57
(g78
g59
NtRp2905
(dp2906
g62
(dp2907
g82
g83
ssg71
g2901
sg64
(lp2908
S'uuid'
p2909
asbag57
(g78
g59
NtRp2910
(dp2911
g62
(dp2912
g89
g90
ssg71
g2901
sg64
(lp2913
S':'
asbag57
(g78
g59
NtRp2914
(dp2915
g62
(dp2916
sg71
g2901
sg64
(lp2917
g57
(g58
g59
NtRp2918
(dp2919
g62
(dp2920
g70
I5
ssg71
g2914
sg64
(lp2921
S'sss/127.0.0.1.2012-11-15.14-55-11.c9a28c24-8af4-41c7-8ef0-dce3c77b7294'
p2922
asbasbasbag57
(g73
g59
NtRp2923
(dp2924
g62
(dp2925
sg71
g67
sg64
(lp2926
g57
(g78
g59
NtRp2927
(dp2928
g62
(dp2929
g82
g83
ssg71
g2923
sg64
(lp2930
S'vars'
p2931
asbag57
(g78
g59
NtRp2932
(dp2933
g62
(dp2934
g89
g90
ssg71
g2923
sg64
(lp2935
S':'
asbag57
(g78
g59
NtRp2936
(dp2937
g62
(dp2938
sg71
g2923
sg64
(lp2939
g57
(g58
g59
NtRp2940
(dp2941
g62
(dp2942
g70
I5
ssg71
g2936
sg64
(lp2943
g57
(g66
g59
NtRp2944
(dp2945
g62
(dp2946
g70
I4
ssg71
Nsg64
(lp2947
sbasbasbasbag57
(g73
g59
NtRp2948
(dp2949
g62
(dp2950
sg71
g67
sg64
(lp2951
g57
(g78
g59
NtRp2952
(dp2953
g62
(dp2954
g82
g83
ssg71
g2948
sg64
(lp2955
S'wsgi'
p2956
asbag57
(g78
g59
NtRp2957
(dp2958
g62
(dp2959
g89
g90
ssg71
g2948
sg64
(lp2960
S':'
asbag57
(g78
g59
NtRp2961
(dp2962
g62
(dp2963
sg71
g2948
sg64
(lp2964
g57
(g58
g59
NtRp2965
(dp2966
g62
(dp2967
g70
I5
ssg71
g2961
sg64
(lp2968
g57
(g66
g59
NtRp2969
(dp2970
g62
(dp2971
g70
I4
ssg71
Nsg64
(lp2972
g57
(g73
g59
NtRp2973
(dp2974
g62
(dp2975
sg71
g2969
sg64
(lp2976
g57
(g78
g59
NtRp2977
(dp2978
g62
(dp2979
g82
g83
ssg71
g2973
sg64
(lp2980
S'environ'
p2981
asbag57
(g78
g59
NtRp2982
(dp2983
g62
(dp2984
g89
g90
ssg71
g2973
sg64
(lp2985
S':'
asbag57
(g78
g59
NtRp2986
(dp2987
g62
(dp2988
sg71
g2973
sg64
(lp2989
g57
(g58
g59
NtRp2990
(dp2991
g62
(dp2992
g70
I4
ssg71
g2986
sg64
(lp2993
g57
(g66
g59
NtRp2994
(dp2995
g62
(dp2996
g70
I3
ssg71
Nsg64
(lp2997
g57
(g73
g59
NtRp2998
(dp2999
g62
(dp3000
sg71
g2994
sg64
(lp3001
g57
(g78
g59
NtRp3002
(dp3003
g62
(dp3004
g82
g83
ssg71
g2998
sg64
(lp3005
S'HTTP_ACCEPT'
p3006
asbag57
(g78
g59
NtRp3007
(dp3008
g62
(dp3009
g89
g90
ssg71
g2998
sg64
(lp3010
S':'
asbag57
(g78
g59
NtRp3011
(dp3012
g62
(dp3013
sg71
g2998
sg64
(lp3014
g57
(g58
g59
NtRp3015
(dp3016
g62
(dp3017
g70
I3
ssg71
g3011
sg64
(lp3018
g1400
asbasbasbag57
(g73
g59
NtRp3019
(dp3020
g62
(dp3021
sg71
g2994
sg64
(lp3022
g57
(g78
g59
NtRp3023
(dp3024
g62
(dp3025
g82
g83
ssg71
g3019
sg64
(lp3026
S'HTTP_ACCEPT_ENCODING'
p3027
asbag57
(g78
g59
NtRp3028
(dp3029
g62
(dp3030
g89
g90
ssg71
g3019
sg64
(lp3031
S':'
asbag57
(g78
g59
NtRp3032
(dp3033
g62
(dp3034
sg71
g3019
sg64
(lp3035
g57
(g58
g59
NtRp3036
(dp3037
g62
(dp3038
g70
I3
ssg71
g3032
sg64
(lp3039
g1422
asbasbasbag57
(g73
g59
NtRp3040
(dp3041
g62
(dp3042
sg71
g2994
sg64
(lp3043
g57
(g78
g59
NtRp3044
(dp3045
g62
(dp3046
g82
g83
ssg71
g3040
sg64
(lp3047
S'HTTP_ACCEPT_LANGUAGE'
p3048
asbag57
(g78
g59
NtRp3049
(dp3050
g62
(dp3051
g89
g90
ssg71
g3040
sg64
(lp3052
S':'
asbag57
(g78
g59
NtRp3053
(dp3054
g62
(dp3055
sg71
g3040
sg64
(lp3056
g57
(g58
g59
NtRp3057
(dp3058
g62
(dp3059
g70
I3
ssg71
g3053
sg64
(lp3060
g1444
asbasbasbag57
(g73
g59
NtRp3061
(dp3062
g62
(dp3063
sg71
g2994
sg64
(lp3064
g57
(g78
g59
NtRp3065
(dp3066
g62
(dp3067
g82
g83
ssg71
g3061
sg64
(lp3068
S'HTTP_CONNECTION'
p3069
asbag57
(g78
g59
NtRp3070
(dp3071
g62
(dp3072
g89
g90
ssg71
g3061
sg64
(lp3073
S':'
asbag57
(g78
g59
NtRp3074
(dp3075
g62
(dp3076
sg71
g3061
sg64
(lp3077
g57
(g58
g59
NtRp3078
(dp3079
g62
(dp3080
g70
I3
ssg71
g3074
sg64
(lp3081
g1466
asbasbasbag57
(g73
g59
NtRp3082
(dp3083
g62
(dp3084
sg71
g2994
sg64
(lp3085
g57
(g78
g59
NtRp3086
(dp3087
g62
(dp3088
g82
g83
ssg71
g3082
sg64
(lp3089
S'HTTP_COOKIE'
p3090
asbag57
(g78
g59
NtRp3091
(dp3092
g62
(dp3093
g89
g90
ssg71
g3082
sg64
(lp3094
S':'
asbag57
(g78
g59
NtRp3095
(dp3096
g62
(dp3097
sg71
g3082
sg64
(lp3098
g57
(g58
g59
NtRp3099
(dp3100
g62
(dp3101
g70
I3
ssg71
g3095
sg64
(lp3102
g1488
asbasbasbag57
(g73
g59
NtRp3103
(dp3104
g62
(dp3105
sg71
g2994
sg64
(lp3106
g57
(g78
g59
NtRp3107
(dp3108
g62
(dp3109
g82
g83
ssg71
g3103
sg64
(lp3110
S'HTTP_HOST'
p3111
asbag57
(g78
g59
NtRp3112
(dp3113
g62
(dp3114
g89
g90
ssg71
g3103
sg64
(lp3115
S':'
asbag57
(g78
g59
NtRp3116
(dp3117
g62
(dp3118
sg71
g3103
sg64
(lp3119
g57
(g58
g59
NtRp3120
(dp3121
g62
(dp3122
g70
I3
ssg71
g3116
sg64
(lp3123
g1510
asbasbasbag57
(g73
g59
NtRp3124
(dp3125
g62
(dp3126
sg71
g2994
sg64
(lp3127
g57
(g78
g59
NtRp3128
(dp3129
g62
(dp3130
g82
g83
ssg71
g3124
sg64
(lp3131
S'HTTP_REFERER'
p3132
asbag57
(g78
g59
NtRp3133
(dp3134
g62
(dp3135
g89
g90
ssg71
g3124
sg64
(lp3136
S':'
asbag57
(g78
g59
NtRp3137
(dp3138
g62
(dp3139
sg71
g3124
sg64
(lp3140
g57
(g58
g59
NtRp3141
(dp3142
g62
(dp3143
g70
I3
ssg71
g3137
sg64
(lp3144
g1532
asbasbasbag57
(g73
g59
NtRp3145
(dp3146
g62
(dp3147
sg71
g2994
sg64
(lp3148
g57
(g78
g59
NtRp3149
(dp3150
g62
(dp3151
g82
g83
ssg71
g3145
sg64
(lp3152
S'HTTP_USER_AGENT'
p3153
asbag57
(g78
g59
NtRp3154
(dp3155
g62
(dp3156
g89
g90
ssg71
g3145
sg64
(lp3157
S':'
asbag57
(g78
g59
NtRp3158
(dp3159
g62
(dp3160
sg71
g3145
sg64
(lp3161
g57
(g58
g59
NtRp3162
(dp3163
g62
(dp3164
g70
I3
ssg71
g3158
sg64
(lp3165
g1554
asbasbasbag57
(g73
g59
NtRp3166
(dp3167
g62
(dp3168
sg71
g2994
sg64
(lp3169
g57
(g78
g59
NtRp3170
(dp3171
g62
(dp3172
g82
g83
ssg71
g3166
sg64
(lp3173
S'PATH_INFO'
p3174
asbag57
(g78
g59
NtRp3175
(dp3176
g62
(dp3177
g89
g90
ssg71
g3166
sg64
(lp3178
S':'
asbag57
(g78
g59
NtRp3179
(dp3180
g62
(dp3181
sg71
g3166
sg64
(lp3182
g57
(g58
g59
NtRp3183
(dp3184
g62
(dp3185
g70
I3
ssg71
g3179
sg64
(lp3186
g1708
asbasbasbag57
(g73
g59
NtRp3187
(dp3188
g62
(dp3189
sg71
g2994
sg64
(lp3190
g57
(g78
g59
NtRp3191
(dp3192
g62
(dp3193
g82
g83
ssg71
g3187
sg64
(lp3194
S'QUERY_STRING'
p3195
asbag57
(g78
g59
NtRp3196
(dp3197
g62
(dp3198
g89
g90
ssg71
g3187
sg64
(lp3199
S':'
asbag57
(g78
g59
NtRp3200
(dp3201
g62
(dp3202
sg71
g3187
sg64
(lp3203
g57
(g58
g59
NtRp3204
(dp3205
g62
(dp3206
g70
I3
ssg71
g3200
sg64
(lp3207
S''
asbasbasbag57
(g73
g59
NtRp3208
(dp3209
g62
(dp3210
sg71
g2994
sg64
(lp3211
g57
(g78
g59
NtRp3212
(dp3213
g62
(dp3214
g82
g83
ssg71
g3208
sg64
(lp3215
S'REMOTE_ADDR'
p3216
asbag57
(g78
g59
NtRp3217
(dp3218
g62
(dp3219
g89
g90
ssg71
g3208
sg64
(lp3220
S':'
asbag57
(g78
g59
NtRp3221
(dp3222
g62
(dp3223
sg71
g3208
sg64
(lp3224
g57
(g58
g59
NtRp3225
(dp3226
g62
(dp3227
g70
I3
ssg71
g3221
sg64
(lp3228
g212
asbasbasbag57
(g73
g59
NtRp3229
(dp3230
g62
(dp3231
sg71
g2994
sg64
(lp3232
g57
(g78
g59
NtRp3233
(dp3234
g62
(dp3235
g82
g83
ssg71
g3229
sg64
(lp3236
S'REMOTE_PORT'
p3237
asbag57
(g78
g59
NtRp3238
(dp3239
g62
(dp3240
g89
g90
ssg71
g3229
sg64
(lp3241
S':'
asbag57
(g78
g59
NtRp3242
(dp3243
g62
(dp3244
sg71
g3229
sg64
(lp3245
g57
(g58
g59
NtRp3246
(dp3247
g62
(dp3248
g70
I3
ssg71
g3242
sg64
(lp3249
g1772
asbasbasbag57
(g73
g59
NtRp3250
(dp3251
g62
(dp3252
sg71
g2994
sg64
(lp3253
g57
(g78
g59
NtRp3254
(dp3255
g62
(dp3256
g82
g83
ssg71
g3250
sg64
(lp3257
S'REQUEST_METHOD'
p3258
asbag57
(g78
g59
NtRp3259
(dp3260
g62
(dp3261
g89
g90
ssg71
g3250
sg64
(lp3262
S':'
asbag57
(g78
g59
NtRp3263
(dp3264
g62
(dp3265
sg71
g3250
sg64
(lp3266
g57
(g58
g59
NtRp3267
(dp3268
g62
(dp3269
g70
I3
ssg71
g3263
sg64
(lp3270
g1794
asbasbasbag57
(g73
g59
NtRp3271
(dp3272
g62
(dp3273
sg71
g2994
sg64
(lp3274
g57
(g78
g59
NtRp3275
(dp3276
g62
(dp3277
g82
g83
ssg71
g3271
sg64
(lp3278
S'REQUEST_URI'
p3279
asbag57
(g78
g59
NtRp3280
(dp3281
g62
(dp3282
g89
g90
ssg71
g3271
sg64
(lp3283
S':'
asbag57
(g78
g59
NtRp3284
(dp3285
g62
(dp3286
sg71
g3271
sg64
(lp3287
g57
(g58
g59
NtRp3288
(dp3289
g62
(dp3290
g70
I3
ssg71
g3284
sg64
(lp3291
g1708
asbasbasbag57
(g73
g59
NtRp3292
(dp3293
g62
(dp3294
sg71
g2994
sg64
(lp3295
g57
(g78
g59
NtRp3296
(dp3297
g62
(dp3298
g82
g83
ssg71
g3292
sg64
(lp3299
S'SCRIPT_NAME'
p3300
asbag57
(g78
g59
NtRp3301
(dp3302
g62
(dp3303
g89
g90
ssg71
g3292
sg64
(lp3304
S':'
asbag57
(g78
g59
NtRp3305
(dp3306
g62
(dp3307
sg71
g3292
sg64
(lp3308
g57
(g58
g59
NtRp3309
(dp3310
g62
(dp3311
g70
I3
ssg71
g3305
sg64
(lp3312
S''
asbasbasbag57
(g73
g59
NtRp3313
(dp3314
g62
(dp3315
sg71
g2994
sg64
(lp3316
g57
(g78
g59
NtRp3317
(dp3318
g62
(dp3319
g82
g83
ssg71
g3313
sg64
(lp3320
S'SERVER_NAME'
p3321
asbag57
(g78
g59
NtRp3322
(dp3323
g62
(dp3324
g89
g90
ssg71
g3313
sg64
(lp3325
S':'
asbag57
(g78
g59
NtRp3326
(dp3327
g62
(dp3328
sg71
g3313
sg64
(lp3329
g57
(g58
g59
NtRp3330
(dp3331
g62
(dp3332
g70
I3
ssg71
g3326
sg64
(lp3333
g1673
asbasbasbag57
(g73
g59
NtRp3334
(dp3335
g62
(dp3336
sg71
g2994
sg64
(lp3337
g57
(g78
g59
NtRp3338
(dp3339
g62
(dp3340
g82
g83
ssg71
g3334
sg64
(lp3341
S'SERVER_PORT'
p3342
asbag57
(g78
g59
NtRp3343
(dp3344
g62
(dp3345
g89
g90
ssg71
g3334
sg64
(lp3346
S':'
asbag57
(g78
g59
NtRp3347
(dp3348
g62
(dp3349
sg71
g3334
sg64
(lp3350
g57
(g58
g59
NtRp3351
(dp3352
g62
(dp3353
g70
I3
ssg71
g3347
sg64
(lp3354
g1879
asbasbasbag57
(g73
g59
NtRp3355
(dp3356
g62
(dp3357
sg71
g2994
sg64
(lp3358
g57
(g78
g59
NtRp3359
(dp3360
g62
(dp3361
g82
g83
ssg71
g3355
sg64
(lp3362
S'SERVER_PROTOCOL'
p3363
asbag57
(g78
g59
NtRp3364
(dp3365
g62
(dp3366
g89
g90
ssg71
g3355
sg64
(lp3367
S':'
asbag57
(g78
g59
NtRp3368
(dp3369
g62
(dp3370
sg71
g3355
sg64
(lp3371
g57
(g58
g59
NtRp3372
(dp3373
g62
(dp3374
g70
I3
ssg71
g3368
sg64
(lp3375
g1901
asbasbasbag57
(g73
g59
NtRp3376
(dp3377
g62
(dp3378
sg71
g2994
sg64
(lp3379
g57
(g78
g59
NtRp3380
(dp3381
g62
(dp3382
g82
g83
ssg71
g3376
sg64
(lp3383
S'SERVER_SOFTWARE'
p3384
asbag57
(g78
g59
NtRp3385
(dp3386
g62
(dp3387
g89
g90
ssg71
g3376
sg64
(lp3388
S':'
asbag57
(g78
g59
NtRp3389
(dp3390
g62
(dp3391
sg71
g3376
sg64
(lp3392
g57
(g58
g59
NtRp3393
(dp3394
g62
(dp3395
g70
I3
ssg71
g3389
sg64
(lp3396
g1923
asbasbasbag57
(g73
g59
NtRp3397
(dp3398
g62
(dp3399
sg71
g2994
sg64
(lp3400
g57
(g78
g59
NtRp3401
(dp3402
g62
(dp3403
g82
g83
ssg71
g3397
sg64
(lp3404
S'wsgi.errors'
p3405
asbag57
(g78
g59
NtRp3406
(dp3407
g62
(dp3408
g89
g90
ssg71
g3397
sg64
(lp3409
S':'
asbag57
(g78
g59
NtRp3410
(dp3411
g62
(dp3412
sg71
g3397
sg64
(lp3413
g57
(g58
g59
NtRp3414
(dp3415
g62
(dp3416
g70
I3
ssg71
g3410
sg64
(lp3417
S"<open file '<stderr>', mode 'w' at 0x7fa81e395270>"
p3418
asbasbasbag57
(g73
g59
NtRp3419
(dp3420
g62
(dp3421
sg71
g2994
sg64
(lp3422
g57
(g78
g59
NtRp3423
(dp3424
g62
(dp3425
g82
g83
ssg71
g3419
sg64
(lp3426
S'wsgi.file_wrapper'
p3427
asbag57
(g78
g59
NtRp3428
(dp3429
g62
(dp3430
g89
g90
ssg71
g3419
sg64
(lp3431
S':'
asbag57
(g78
g59
NtRp3432
(dp3433
g62
(dp3434
sg71
g3419
sg64
(lp3435
g57
(g58
g59
NtRp3436
(dp3437
g62
(dp3438
g70
I3
ssg71
g3432
sg64
(lp3439
S'<class wsgiref.util.FileWrapper at 0x14f6d50>'
p3440
asbasbasbag57
(g73
g59
NtRp3441
(dp3442
g62
(dp3443
sg71
g2994
sg64
(lp3444
g57
(g78
g59
NtRp3445
(dp3446
g62
(dp3447
g82
g83
ssg71
g3441
sg64
(lp3448
S'wsgi.input'
p3449
asbag57
(g78
g59
NtRp3450
(dp3451
g62
(dp3452
g89
g90
ssg71
g3441
sg64
(lp3453
S':'
asbag57
(g78
g59
NtRp3454
(dp3455
g62
(dp3456
sg71
g3441
sg64
(lp3457
g57
(g58
g59
NtRp3458
(dp3459
g62
(dp3460
g70
I3
ssg71
g3454
sg64
(lp3461
S'<cStringIO.StringO object at 0x7fa814c35c70>'
p3462
asbasbasbag57
(g73
g59
NtRp3463
(dp3464
g62
(dp3465
sg71
g2994
sg64
(lp3466
g57
(g78
g59
NtRp3467
(dp3468
g62
(dp3469
g82
g83
ssg71
g3463
sg64
(lp3470
S'wsgi.multiprocess'
p3471
asbag57
(g78
g59
NtRp3472
(dp3473
g62
(dp3474
g89
g90
ssg71
g3463
sg64
(lp3475
S':'
asbag57
(g78
g59
NtRp3476
(dp3477
g62
(dp3478
sg71
g3463
sg64
(lp3479
g57
(g58
g59
NtRp3480
(dp3481
g62
(dp3482
g70
I3
ssg71
g3476
sg64
(lp3483
g100
asbasbasbag57
(g73
g59
NtRp3484
(dp3485
g62
(dp3486
sg71
g2994
sg64
(lp3487
g57
(g78
g59
NtRp3488
(dp3489
g62
(dp3490
g82
g83
ssg71
g3484
sg64
(lp3491
S'wsgi.multithread'
p3492
asbag57
(g78
g59
NtRp3493
(dp3494
g62
(dp3495
g89
g90
ssg71
g3484
sg64
(lp3496
S':'
asbag57
(g78
g59
NtRp3497
(dp3498
g62
(dp3499
sg71
g3484
sg64
(lp3500
g57
(g58
g59
NtRp3501
(dp3502
g62
(dp3503
g70
I3
ssg71
g3497
sg64
(lp3504
g2140
asbasbasbag57
(g73
g59
NtRp3505
(dp3506
g62
(dp3507
sg71
g2994
sg64
(lp3508
g57
(g78
g59
NtRp3509
(dp3510
g62
(dp3511
g82
g83
ssg71
g3505
sg64
(lp3512
S'wsgi.run_once'
p3513
asbag57
(g78
g59
NtRp3514
(dp3515
g62
(dp3516
g89
g90
ssg71
g3505
sg64
(lp3517
S':'
asbag57
(g78
g59
NtRp3518
(dp3519
g62
(dp3520
sg71
g3505
sg64
(lp3521
g57
(g58
g59
NtRp3522
(dp3523
g62
(dp3524
g70
I3
ssg71
g3518
sg64
(lp3525
g100
asbasbasbag57
(g73
g59
NtRp3526
(dp3527
g62
(dp3528
sg71
g2994
sg64
(lp3529
g57
(g78
g59
NtRp3530
(dp3531
g62
(dp3532
g82
g83
ssg71
g3526
sg64
(lp3533
S'wsgi.url_scheme'
p3534
asbag57
(g78
g59
NtRp3535
(dp3536
g62
(dp3537
g89
g90
ssg71
g3526
sg64
(lp3538
S':'
asbag57
(g78
g59
NtRp3539
(dp3540
g62
(dp3541
sg71
g3526
sg64
(lp3542
g57
(g58
g59
NtRp3543
(dp3544
g62
(dp3545
g70
I3
ssg71
g3539
sg64
(lp3546
g2183
asbasbasbag57
(g73
g59
NtRp3547
(dp3548
g62
(dp3549
sg71
g2994
sg64
(lp3550
g57
(g78
g59
NtRp3551
(dp3552
g62
(dp3553
g82
g83
ssg71
g3547
sg64
(lp3554
S'wsgi.version'
p3555
asbag57
(g78
g59
NtRp3556
(dp3557
g62
(dp3558
g89
g90
ssg71
g3547
sg64
(lp3559
S':'
asbag57
(g78
g59
NtRp3560
(dp3561
g62
(dp3562
sg71
g3547
sg64
(lp3563
g57
(g58
g59
NtRp3564
(dp3565
g62
(dp3566
g70
I3
ssg71
g3560
sg64
(lp3567
S'1'
asbasbasbasbasbasbasbasbasbasbasbasbasbsS'frames'
p3568
(lp3569
(dp3570
S'file'
p3571
S'/home/bhanu/web2py/gluon/restricted.py'
p3572
sS'dump'
p3573
(dp3574
S'environment'
p3575
S"{'A': <class 'gluon.html.A'>, 'Auth': <class 'gluon.tools.Auth'>, 'B': <class 'gluon.html.B'>, 'BEAUTIFY': <class 'gluon.html.BEAUTIFY'>, 'BODY': <class 'gluon.html.BODY'>, 'BR': <class 'gluon.html.BR'>, 'BUTTON': <class 'gluon.html.BUTTON'>, 'CAS': <Storage {'check_url': 'https://login.iiit.ac.in...url': 'http://127.0.0.1:8000/sss/default/login'}>, 'CAT': <class 'gluon.html.CAT'>, 'CENTER': <class 'gluon.html.CENTER'>, ...}"
p3576
sS'ccode'
p3577
S'<code object <module> at 0x7fa7f0125030, file "/...applications/sss/controllers/default.py", line 4>'
p3578
ssS'lnum'
p3579
I212
sS'lines'
p3580
(dp3581
I207
S'    try:'
p3582
sI208
S'        if isinstance(code, types.CodeType):'
p3583
sI209
S'            ccode = code'
p3584
sI210
S'        else:'
p3585
sI211
S'            ccode = compile2(code, layer)'
p3586
sI212
S'        exec ccode in environment'
p3587
sI213
S'    except HTTP:'
p3588
sI214
S'        raise'
p3589
sI215
S'    except RestrictedError:'
p3590
sI216
S'        # do not encapsulate (obfuscate) the original RestrictedError'
p3591
ssS'call'
p3592
S"(code='# -*- coding: utf-8 -*-\\n### required - do no del...e)\\n\\nresponse._vars=response._caller(editprofile)\\n', environment={'A': <class 'gluon.html.A'>, 'Auth': <class 'gluon.tools.Auth'>, 'B': <class 'gluon.html.B'>, 'BEAUTIFY': <class 'gluon.html.BEAUTIFY'>, 'BODY': <class 'gluon.html.BODY'>, 'BR': <class 'gluon.html.BR'>, 'BUTTON': <class 'gluon.html.BUTTON'>, 'CAS': <Storage {'check_url': 'https://login.iiit.ac.in...url': 'http://127.0.0.1:8000/sss/default/login'}>, 'CAT': <class 'gluon.html.CAT'>, 'CENTER': <class 'gluon.html.CENTER'>, ...}, layer='/home/bhanu/web2py/applications/sss/controllers/default.py')"
p3593
sS'func'
p3594
S'restricted'
p3595
sa(dp3596
g3571
S'/home/bhanu/web2py/applications/sss/controllers/default.py'
p3597
sg3573
(dp3598
sg3579
I848
sg3580
(dp3599
I837
S"                txt = 'Page %s of %s' % (self.page_no(), self.alias_nb_pages())"
p3600
sI838
S"                self.cell(0,10,txt,0,0,'C')"
p3601
sI839
S''
sI840
S'        pdf=MyFPDF()'
p3602
sI841
S'        pdf.add_page()'
p3603
sI842
S'        pdf.write_html(str(XML(table, sanitize=True)))'
p3604
sI843
S"        response.headers['Content-Type']='application/pdf'"
p3605
sI844
S"        return pdf.output(dest='S')"
p3606
sI845
S'    else:'
p3607
sI846
S'        return dict(table=table)'
p3608
ssg3592
S'()'
p3609
sg3594
S'<module>'
p3610
sa(dp3611
g3571
S'/home/bhanu/web2py/gluon/globals.py'
p3612
sg3573
(dp3613
S'self'
p3614
S'undefined'
p3615
sS'f'
S'<function editprofile>'
p3616
ssg3579
I188
sg3580
(dp3617
I192
S''
sI183
S'        self.menu = []             # used by the default view layout'
p3618
sI184
S'        self.files = []            # used by web2py_ajax.html'
p3619
sI185
S'        self.generic_patterns = []  # patterns to allow generic views'
p3620
sI186
S"        self.delimiters = ('{{', '}}')"
p3621
sI187
S'        self._vars = None'
p3622
sI188
S'        self._caller = lambda f: f()'
p3623
sI189
S'        self._view_environment = None'
p3624
sI190
S'        self._custom_commit = None'
p3625
sI191
S'        self._custom_rollback = None'
p3626
ssg3592
S'(f=<function editprofile>)'
p3627
sg3594
S'<lambda>'
p3628
sa(dp3629
g3571
S'/home/bhanu/web2py/applications/sss/controllers/default.py'
p3630
sg3573
(dp3631
S'prof'
p3632
S'<Rows (0)>'
p3633
sS'studentid'
p3634
g3615
sS'].id'
p3635
g3615
ssg3579
I593
sg3580
(dp3636
I588
S''
sI589
S'def editprofile():'
p3637
sI590
S'    query=(db.students.roll_no==request.vars.roll)'
p3638
sI591
S'    set=db(query)'
p3639
sI592
S'    prof=set.select()'
p3640
sI593
S'    studentid=prof[0].id'
p3641
sI594
S'    form=SQLFORM(db.students,studentid)'
p3642
sI595
S'    if form.accepts(request.vars,session):'
p3643
sI596
S'          session.flash="Profile edited"'
p3644
sI597
S"          redirect(URL(r=request,f='index'))"
p3645
ssg3592
S'()'
p3646
sg3594
S'editprofile'
p3647
sa(dp3648
g3571
S'/home/bhanu/web2py/gluon/dal.py'
p3649
sg3573
(dp3650
S'i'
S'0'
sS'self'
p3651
S'<Rows (0)>'
p3652
sS'self.records'
p3653
S'[]'
p3654
sS'row'
p3655
g3615
ssg3579
I9051
sg3580
(dp3656
I9046
S''
sI9047
S'    def __getslice__(self, a, b):'
p3657
sI9048
S'        return Rows(self.db,self.records[a:b],self.colnames)'
p3658
sI9049
S''
sI9050
S'    def __getitem__(self, i):'
p3659
sI9051
S'        row = self.records[i]'
p3660
sI9052
S'        keys = row.keys()'
p3661
sI9053
S"        if self.compact and len(keys) == 1 and keys[0] != '_extra':"
p3662
sI9054
S'            return row[row.keys()[0]]'
p3663
sI9055
S'        return row'
p3664
ssg3592
S'(self=<Rows (0)>, i=0)'
p3665
sg3594
g20
sasS'pyver'
p3666
S'Python 2.7.3: /usr/bin/python'
p3667
sS'session'
p3668
g57
(g58
g59
NtRp3669
(dp3670
g62
(dp3671
sg64
(lp3672
g57
(g66
g59
NtRp3673
(dp3674
g62
(dp3675
g70
I5
ssg71
Nsg64
(lp3676
g57
(g73
g59
NtRp3677
(dp3678
g62
(dp3679
sg71
g3673
sg64
(lp3680
g57
(g78
g59
NtRp3681
(dp3682
g62
(dp3683
g82
g83
ssg71
g3677
sg64
(lp3684
S'flash'
p3685
asbag57
(g78
g59
NtRp3686
(dp3687
g62
(dp3688
g89
g90
ssg71
g3677
sg64
(lp3689
S':'
asbag57
(g78
g59
NtRp3690
(dp3691
g62
(dp3692
sg71
g3677
sg64
(lp3693
g57
(g58
g59
NtRp3694
(dp3695
g62
(dp3696
g70
I5
ssg71
g3690
sg64
(lp3697
S'None'
p3698
asbasbasbag57
(g73
g59
NtRp3699
(dp3700
g62
(dp3701
sg71
g3673
sg64
(lp3702
g57
(g78
g59
NtRp3703
(dp3704
g62
(dp3705
g82
g83
ssg71
g3699
sg64
(lp3706
S'last_orderby'
p3707
asbag57
(g78
g59
NtRp3708
(dp3709
g62
(dp3710
g89
g90
ssg71
g3699
sg64
(lp3711
S':'
asbag57
(g78
g59
NtRp3712
(dp3713
g62
(dp3714
sg71
g3699
sg64
(lp3715
g57
(g58
g59
NtRp3716
(dp3717
g62
(dp3718
g70
I5
ssg71
g3712
sg64
(lp3719
S'None'
p3720
asbasbasbag57
(g73
g59
NtRp3721
(dp3722
g62
(dp3723
sg71
g3673
sg64
(lp3724
g57
(g78
g59
NtRp3725
(dp3726
g62
(dp3727
g82
g83
ssg71
g3721
sg64
(lp3728
S'last_query'
p3729
asbag57
(g78
g59
NtRp3730
(dp3731
g62
(dp3732
g89
g90
ssg71
g3721
sg64
(lp3733
S':'
asbag57
(g78
g59
NtRp3734
(dp3735
g62
(dp3736
sg71
g3721
sg64
(lp3737
g57
(g58
g59
NtRp3738
(dp3739
g62
(dp3740
g70
I5
ssg71
g3734
sg64
(lp3741
S'db.poll.id>0'
p3742
asbasbasbag57
(g73
g59
NtRp3743
(dp3744
g62
(dp3745
sg71
g3673
sg64
(lp3746
g57
(g78
g59
NtRp3747
(dp3748
g62
(dp3749
g82
g83
ssg71
g3743
sg64
(lp3750
S'login'
p3751
asbag57
(g78
g59
NtRp3752
(dp3753
g62
(dp3754
g89
g90
ssg71
g3743
sg64
(lp3755
S':'
asbag57
(g78
g59
NtRp3756
(dp3757
g62
(dp3758
sg71
g3743
sg64
(lp3759
g57
(g58
g59
NtRp3760
(dp3761
g62
(dp3762
g70
I5
ssg71
g3756
sg64
(lp3763
S'1'
asbasbasbag57
(g73
g59
NtRp3764
(dp3765
g62
(dp3766
sg71
g3673
sg64
(lp3767
g57
(g78
g59
NtRp3768
(dp3769
g62
(dp3770
g82
g83
ssg71
g3764
sg64
(lp3771
S'pdf1'
p3772
asbag57
(g78
g59
NtRp3773
(dp3774
g62
(dp3775
g89
g90
ssg71
g3764
sg64
(lp3776
S':'
asbag57
(g78
g59
NtRp3777
(dp3778
g62
(dp3779
sg71
g3764
sg64
(lp3780
g57
(g58
g59
NtRp3781
(dp3782
g62
(dp3783
g70
I5
ssg71
g3777
sg64
(lp3784
S'0'
asbasbasbag57
(g73
g59
NtRp3785
(dp3786
g62
(dp3787
sg71
g3673
sg64
(lp3788
g57
(g78
g59
NtRp3789
(dp3790
g62
(dp3791
g82
g83
ssg71
g3785
sg64
(lp3792
S'place'
p3793
asbag57
(g78
g59
NtRp3794
(dp3795
g62
(dp3796
g89
g90
ssg71
g3785
sg64
(lp3797
S':'
asbag57
(g78
g59
NtRp3798
(dp3799
g62
(dp3800
sg71
g3785
sg64
(lp3801
g57
(g58
g59
NtRp3802
(dp3803
g62
(dp3804
g70
I5
ssg71
g3798
sg64
(lp3805
S'All'
p3806
asbasbasbag57
(g73
g59
NtRp3807
(dp3808
g62
(dp3809
sg71
g3673
sg64
(lp3810
g57
(g78
g59
NtRp3811
(dp3812
g62
(dp3813
g82
g83
ssg71
g3807
sg64
(lp3814
S'token'
p3815
asbag57
(g78
g59
NtRp3816
(dp3817
g62
(dp3818
g89
g90
ssg71
g3807
sg64
(lp3819
S':'
asbag57
(g78
g59
NtRp3820
(dp3821
g62
(dp3822
sg71
g3807
sg64
(lp3823
g57
(g58
g59
NtRp3824
(dp3825
g62
(dp3826
g70
I5
ssg71
g3820
sg64
(lp3827
S'chaluvadibhanu.dev@students.iiit.ac.in'
p3828
asbasbasbasbasbsS'etype'
p3829
S"<type 'exceptions.IndexError'>"
p3830
sS'date'
p3831
S'Thu Nov 15 14:55:11 2012'
p3832
sS'response'
p3833
g57
(g58
g59
NtRp3834
(dp3835
g62
(dp3836
sg64
(lp3837
g57
(g66
g59
NtRp3838
(dp3839
g62
(dp3840
g70
I5
ssg71
Nsg64
(lp3841
g57
(g73
g59
NtRp3842
(dp3843
g62
(dp3844
sg71
g3838
sg64
(lp3845
g57
(g78
g59
NtRp3846
(dp3847
g62
(dp3848
g82
g83
ssg71
g3842
sg64
(lp3849
S'admin'
p3850
asbag57
(g78
g59
NtRp3851
(dp3852
g62
(dp3853
g89
g90
ssg71
g3842
sg64
(lp3854
S':'
asbag57
(g78
g59
NtRp3855
(dp3856
g62
(dp3857
sg71
g3842
sg64
(lp3858
g57
(g58
g59
NtRp3859
(dp3860
g62
(dp3861
g70
I5
ssg71
g3855
sg64
(lp3862
g57
(g66
g59
NtRp3863
(dp3864
g62
(dp3865
g70
I4
ssg71
Nsg64
(lp3866
g57
(g73
g59
NtRp3867
(dp3868
g62
(dp3869
sg71
g3863
sg64
(lp3870
g57
(g78
g59
NtRp3871
(dp3872
g62
(dp3873
sg71
g3867
sg64
(lp3874
g57
(g58
g59
NtRp3875
(dp3876
g62
(dp3877
g70
I4
ssg71
g3871
sg64
(lp3878
g57
(g66
g59
NtRp3879
(dp3880
g62
(dp3881
g70
I3
ssg71
Nsg64
(lp3882
g57
(g73
g59
NtRp3883
(dp3884
g62
(dp3885
sg71
g3879
sg64
(lp3886
g57
(g78
g59
NtRp3887
(dp3888
g62
(dp3889
sg71
g3883
sg64
(lp3890
g57
(g58
g59
NtRp3891
(dp3892
g62
(dp3893
g70
I3
ssg71
g3887
sg64
(lp3894
cgluon.languages
lazyT_unpickle
p3895
(S't\x04\x00\x00\x00HOME'
tRp3896
asbasbasbag57
(g73
g59
NtRp3897
(dp3898
g62
(dp3899
sg71
g3879
sg64
(lp3900
g57
(g78
g59
NtRp3901
(dp3902
g62
(dp3903
sg71
g3897
sg64
(lp3904
g57
(g58
g59
NtRp3905
(dp3906
g62
(dp3907
g70
I3
ssg71
g3901
sg64
(lp3908
g100
asbasbasbag57
(g73
g59
NtRp3909
(dp3910
g62
(dp3911
sg71
g3879
sg64
(lp3912
g57
(g78
g59
NtRp3913
(dp3914
g62
(dp3915
sg71
g3909
sg64
(lp3916
g57
(g58
g59
NtRp3917
(dp3918
g62
(dp3919
g70
I3
ssg71
g3913
sg64
(lp3920
S'/sss/default/index'
p3921
asbasbasbag57
(g73
g59
NtRp3922
(dp3923
g62
(dp3924
sg71
g3879
sg64
(lp3925
g57
(g78
g59
NtRp3926
(dp3927
g62
(dp3928
sg71
g3922
sg64
(lp3929
g57
(g58
g59
NtRp3930
(dp3931
g62
(dp3932
g70
I3
ssg71
g3926
sg64
(lp3933
g57
(g66
g59
NtRp3934
(dp3935
g62
(dp3936
g70
I2
ssg71
Nsg64
(lp3937
sbasbasbasbasbasbasbasbag57
(g73
g59
NtRp3938
(dp3939
g62
(dp3940
sg71
g3863
sg64
(lp3941
g57
(g78
g59
NtRp3942
(dp3943
g62
(dp3944
sg71
g3938
sg64
(lp3945
g57
(g58
g59
NtRp3946
(dp3947
g62
(dp3948
g70
I4
ssg71
g3942
sg64
(lp3949
g57
(g66
g59
NtRp3950
(dp3951
g62
(dp3952
g70
I3
ssg71
Nsg64
(lp3953
g57
(g73
g59
NtRp3954
(dp3955
g62
(dp3956
sg71
g3950
sg64
(lp3957
g57
(g78
g59
NtRp3958
(dp3959
g62
(dp3960
sg71
g3954
sg64
(lp3961
g57
(g58
g59
NtRp3962
(dp3963
g62
(dp3964
g70
I3
ssg71
g3958
sg64
(lp3965
g3895
(S's\x0f\x00\x00\x00View Complaints'
tRp3966
asbasbasbag57
(g73
g59
NtRp3967
(dp3968
g62
(dp3969
sg71
g3950
sg64
(lp3970
g57
(g78
g59
NtRp3971
(dp3972
g62
(dp3973
sg71
g3967
sg64
(lp3974
g57
(g58
g59
NtRp3975
(dp3976
g62
(dp3977
g70
I3
ssg71
g3971
sg64
(lp3978
g100
asbasbasbag57
(g73
g59
NtRp3979
(dp3980
g62
(dp3981
sg71
g3950
sg64
(lp3982
g57
(g78
g59
NtRp3983
(dp3984
g62
(dp3985
sg71
g3979
sg64
(lp3986
g57
(g58
g59
NtRp3987
(dp3988
g62
(dp3989
g70
I3
ssg71
g3983
sg64
(lp3990
S'/sss/default/vcomplaint'
p3991
asbasbasbag57
(g73
g59
NtRp3992
(dp3993
g62
(dp3994
sg71
g3950
sg64
(lp3995
g57
(g78
g59
NtRp3996
(dp3997
g62
(dp3998
sg71
g3992
sg64
(lp3999
g57
(g58
g59
NtRp4000
(dp4001
g62
(dp4002
g70
I3
ssg71
g3996
sg64
(lp4003
g57
(g66
g59
NtRp4004
(dp4005
g62
(dp4006
g70
I2
ssg71
Nsg64
(lp4007
sbasbasbasbasbasbasbasbag57
(g73
g59
NtRp4008
(dp4009
g62
(dp4010
sg71
g3863
sg64
(lp4011
g57
(g78
g59
NtRp4012
(dp4013
g62
(dp4014
sg71
g4008
sg64
(lp4015
g57
(g58
g59
NtRp4016
(dp4017
g62
(dp4018
g70
I4
ssg71
g4012
sg64
(lp4019
g57
(g66
g59
NtRp4020
(dp4021
g62
(dp4022
g70
I3
ssg71
Nsg64
(lp4023
g57
(g73
g59
NtRp4024
(dp4025
g62
(dp4026
sg71
g4020
sg64
(lp4027
g57
(g78
g59
NtRp4028
(dp4029
g62
(dp4030
sg71
g4024
sg64
(lp4031
g57
(g58
g59
NtRp4032
(dp4033
g62
(dp4034
g70
I3
ssg71
g4028
sg64
(lp4035
g3895
(S's\x0c\x00\x00\x00Room Vacancy'
tRp4036
asbasbasbag57
(g73
g59
NtRp4037
(dp4038
g62
(dp4039
sg71
g4020
sg64
(lp4040
g57
(g78
g59
NtRp4041
(dp4042
g62
(dp4043
sg71
g4037
sg64
(lp4044
g57
(g58
g59
NtRp4045
(dp4046
g62
(dp4047
g70
I3
ssg71
g4041
sg64
(lp4048
g100
asbasbasbag57
(g73
g59
NtRp4049
(dp4050
g62
(dp4051
sg71
g4020
sg64
(lp4052
g57
(g78
g59
NtRp4053
(dp4054
g62
(dp4055
sg71
g4049
sg64
(lp4056
g57
(g58
g59
NtRp4057
(dp4058
g62
(dp4059
g70
I3
ssg71
g4053
sg64
(lp4060
S'/sss/default/vacant_rooms'
p4061
asbasbasbag57
(g73
g59
NtRp4062
(dp4063
g62
(dp4064
sg71
g4020
sg64
(lp4065
g57
(g78
g59
NtRp4066
(dp4067
g62
(dp4068
sg71
g4062
sg64
(lp4069
g57
(g58
g59
NtRp4070
(dp4071
g62
(dp4072
g70
I3
ssg71
g4066
sg64
(lp4073
g57
(g66
g59
NtRp4074
(dp4075
g62
(dp4076
g70
I2
ssg71
Nsg64
(lp4077
sbasbasbasbasbasbasbasbag57
(g73
g59
NtRp4078
(dp4079
g62
(dp4080
sg71
g3863
sg64
(lp4081
g57
(g78
g59
NtRp4082
(dp4083
g62
(dp4084
sg71
g4078
sg64
(lp4085
g57
(g58
g59
NtRp4086
(dp4087
g62
(dp4088
g70
I4
ssg71
g4082
sg64
(lp4089
g57
(g66
g59
NtRp4090
(dp4091
g62
(dp4092
g70
I3
ssg71
Nsg64
(lp4093
g57
(g73
g59
NtRp4094
(dp4095
g62
(dp4096
sg71
g4090
sg64
(lp4097
g57
(g78
g59
NtRp4098
(dp4099
g62
(dp4100
sg71
g4094
sg64
(lp4101
g57
(g58
g59
NtRp4102
(dp4103
g62
(dp4104
g70
I3
ssg71
g4098
sg64
(lp4105
g3895
(S's\n\x00\x00\x00Edit Rules'
tRp4106
asbasbasbag57
(g73
g59
NtRp4107
(dp4108
g62
(dp4109
sg71
g4090
sg64
(lp4110
g57
(g78
g59
NtRp4111
(dp4112
g62
(dp4113
sg71
g4107
sg64
(lp4114
g57
(g58
g59
NtRp4115
(dp4116
g62
(dp4117
g70
I3
ssg71
g4111
sg64
(lp4118
g100
asbasbasbag57
(g73
g59
NtRp4119
(dp4120
g62
(dp4121
sg71
g4090
sg64
(lp4122
g57
(g78
g59
NtRp4123
(dp4124
g62
(dp4125
sg71
g4119
sg64
(lp4126
g57
(g58
g59
NtRp4127
(dp4128
g62
(dp4129
g70
I3
ssg71
g4123
sg64
(lp4130
S'/sss/default/rules'
p4131
asbasbasbag57
(g73
g59
NtRp4132
(dp4133
g62
(dp4134
sg71
g4090
sg64
(lp4135
g57
(g78
g59
NtRp4136
(dp4137
g62
(dp4138
sg71
g4132
sg64
(lp4139
g57
(g58
g59
NtRp4140
(dp4141
g62
(dp4142
g70
I3
ssg71
g4136
sg64
(lp4143
g57
(g66
g59
NtRp4144
(dp4145
g62
(dp4146
g70
I2
ssg71
Nsg64
(lp4147
sbasbasbasbasbasbasbasbag57
(g73
g59
NtRp4148
(dp4149
g62
(dp4150
sg71
g3863
sg64
(lp4151
g57
(g78
g59
NtRp4152
(dp4153
g62
(dp4154
sg71
g4148
sg64
(lp4155
g57
(g58
g59
NtRp4156
(dp4157
g62
(dp4158
g70
I4
ssg71
g4152
sg64
(lp4159
g57
(g66
g59
NtRp4160
(dp4161
g62
(dp4162
g70
I3
ssg71
Nsg64
(lp4163
g57
(g73
g59
NtRp4164
(dp4165
g62
(dp4166
sg71
g4160
sg64
(lp4167
g57
(g78
g59
NtRp4168
(dp4169
g62
(dp4170
sg71
g4164
sg64
(lp4171
g57
(g58
g59
NtRp4172
(dp4173
g62
(dp4174
g70
I3
ssg71
g4168
sg64
(lp4175
g3895
(S's\x14\x00\x00\x00Edit Doctor Details '
tRp4176
asbasbasbag57
(g73
g59
NtRp4177
(dp4178
g62
(dp4179
sg71
g4160
sg64
(lp4180
g57
(g78
g59
NtRp4181
(dp4182
g62
(dp4183
sg71
g4177
sg64
(lp4184
g57
(g58
g59
NtRp4185
(dp4186
g62
(dp4187
g70
I3
ssg71
g4181
sg64
(lp4188
g100
asbasbasbag57
(g73
g59
NtRp4189
(dp4190
g62
(dp4191
sg71
g4160
sg64
(lp4192
g57
(g78
g59
NtRp4193
(dp4194
g62
(dp4195
sg71
g4189
sg64
(lp4196
g57
(g58
g59
NtRp4197
(dp4198
g62
(dp4199
g70
I3
ssg71
g4193
sg64
(lp4200
S'/sss/default/amedreq'
p4201
asbasbasbag57
(g73
g59
NtRp4202
(dp4203
g62
(dp4204
sg71
g4160
sg64
(lp4205
g57
(g78
g59
NtRp4206
(dp4207
g62
(dp4208
sg71
g4202
sg64
(lp4209
g57
(g58
g59
NtRp4210
(dp4211
g62
(dp4212
g70
I3
ssg71
g4206
sg64
(lp4213
g57
(g66
g59
NtRp4214
(dp4215
g62
(dp4216
g70
I2
ssg71
Nsg64
(lp4217
sbasbasbasbasbasbasbasbasbasbasbasbag57
(g73
g59
NtRp4218
(dp4219
g62
(dp4220
sg71
g3838
sg64
(lp4221
g57
(g78
g59
NtRp4222
(dp4223
g62
(dp4224
g82
g83
ssg71
g4218
sg64
(lp4225
g155
asbag57
(g78
g59
NtRp4226
(dp4227
g62
(dp4228
g89
g90
ssg71
g4218
sg64
(lp4229
S':'
asbag57
(g78
g59
NtRp4230
(dp4231
g62
(dp4232
sg71
g4218
sg64
(lp4233
g57
(g58
g59
NtRp4234
(dp4235
g62
(dp4236
g70
I5
ssg71
g4230
sg64
(lp4237
S'<cStringIO.StringO object at 0x7fa7f852c0a0>'
p4238
asbasbasbag57
(g73
g59
NtRp4239
(dp4240
g62
(dp4241
sg71
g3838
sg64
(lp4242
g57
(g78
g59
NtRp4243
(dp4244
g62
(dp4245
g82
g83
ssg71
g4239
sg64
(lp4246
S'change_rooms'
p4247
asbag57
(g78
g59
NtRp4248
(dp4249
g62
(dp4250
g89
g90
ssg71
g4239
sg64
(lp4251
S':'
asbag57
(g78
g59
NtRp4252
(dp4253
g62
(dp4254
sg71
g4239
sg64
(lp4255
g57
(g58
g59
NtRp4256
(dp4257
g62
(dp4258
g70
I5
ssg71
g4252
sg64
(lp4259
g57
(g66
g59
NtRp4260
(dp4261
g62
(dp4262
g70
I4
ssg71
Nsg64
(lp4263
g57
(g73
g59
NtRp4264
(dp4265
g62
(dp4266
sg71
g4260
sg64
(lp4267
g57
(g78
g59
NtRp4268
(dp4269
g62
(dp4270
sg71
g4264
sg64
(lp4271
g57
(g58
g59
NtRp4272
(dp4273
g62
(dp4274
g70
I4
ssg71
g4268
sg64
(lp4275
g57
(g66
g59
NtRp4276
(dp4277
g62
(dp4278
g70
I3
ssg71
Nsg64
(lp4279
g57
(g73
g59
NtRp4280
(dp4281
g62
(dp4282
sg71
g4276
sg64
(lp4283
g57
(g78
g59
NtRp4284
(dp4285
g62
(dp4286
sg71
g4280
sg64
(lp4287
g57
(g58
g59
NtRp4288
(dp4289
g62
(dp4290
g70
I3
ssg71
g4284
sg64
(lp4291
g4036
asbasbasbag57
(g73
g59
NtRp4292
(dp4293
g62
(dp4294
sg71
g4276
sg64
(lp4295
g57
(g78
g59
NtRp4296
(dp4297
g62
(dp4298
sg71
g4292
sg64
(lp4299
g57
(g58
g59
NtRp4300
(dp4301
g62
(dp4302
g70
I3
ssg71
g4296
sg64
(lp4303
g100
asbasbasbag57
(g73
g59
NtRp4304
(dp4305
g62
(dp4306
sg71
g4276
sg64
(lp4307
g57
(g78
g59
NtRp4308
(dp4309
g62
(dp4310
sg71
g4304
sg64
(lp4311
g57
(g58
g59
NtRp4312
(dp4313
g62
(dp4314
g70
I3
ssg71
g4308
sg64
(lp4315
g4061
asbasbasbag57
(g73
g59
NtRp4316
(dp4317
g62
(dp4318
sg71
g4276
sg64
(lp4319
g57
(g78
g59
NtRp4320
(dp4321
g62
(dp4322
sg71
g4316
sg64
(lp4323
g57
(g58
g59
NtRp4324
(dp4325
g62
(dp4326
g70
I3
ssg71
g4320
sg64
(lp4327
g57
(g66
g59
NtRp4328
(dp4329
g62
(dp4330
g70
I2
ssg71
Nsg64
(lp4331
sbasbasbasbasbasbasbasbasbasbasbasbag57
(g73
g59
NtRp4332
(dp4333
g62
(dp4334
sg71
g3838
sg64
(lp4335
g57
(g78
g59
NtRp4336
(dp4337
g62
(dp4338
g82
g83
ssg71
g4332
sg64
(lp4339
S'complaint'
p4340
asbag57
(g78
g59
NtRp4341
(dp4342
g62
(dp4343
g89
g90
ssg71
g4332
sg64
(lp4344
S':'
asbag57
(g78
g59
NtRp4345
(dp4346
g62
(dp4347
sg71
g4332
sg64
(lp4348
g57
(g58
g59
NtRp4349
(dp4350
g62
(dp4351
g70
I5
ssg71
g4345
sg64
(lp4352
g57
(g66
g59
NtRp4353
(dp4354
g62
(dp4355
g70
I4
ssg71
Nsg64
(lp4356
g57
(g73
g59
NtRp4357
(dp4358
g62
(dp4359
sg71
g4353
sg64
(lp4360
g57
(g78
g59
NtRp4361
(dp4362
g62
(dp4363
sg71
g4357
sg64
(lp4364
g57
(g58
g59
NtRp4365
(dp4366
g62
(dp4367
g70
I4
ssg71
g4361
sg64
(lp4368
g57
(g66
g59
NtRp4369
(dp4370
g62
(dp4371
g70
I3
ssg71
Nsg64
(lp4372
g57
(g73
g59
NtRp4373
(dp4374
g62
(dp4375
sg71
g4369
sg64
(lp4376
g57
(g78
g59
NtRp4377
(dp4378
g62
(dp4379
sg71
g4373
sg64
(lp4380
g57
(g58
g59
NtRp4381
(dp4382
g62
(dp4383
g70
I3
ssg71
g4377
sg64
(lp4384
g3895
(S't\t\x00\x00\x00COMPLAINT'
tRp4385
asbasbasbag57
(g73
g59
NtRp4386
(dp4387
g62
(dp4388
sg71
g4369
sg64
(lp4389
g57
(g78
g59
NtRp4390
(dp4391
g62
(dp4392
sg71
g4386
sg64
(lp4393
g57
(g58
g59
NtRp4394
(dp4395
g62
(dp4396
g70
I3
ssg71
g4390
sg64
(lp4397
g100
asbasbasbag57
(g73
g59
NtRp4398
(dp4399
g62
(dp4400
sg71
g4369
sg64
(lp4401
g57
(g78
g59
NtRp4402
(dp4403
g62
(dp4404
sg71
g4398
sg64
(lp4405
g57
(g58
g59
NtRp4406
(dp4407
g62
(dp4408
g70
I3
ssg71
g4402
sg64
(lp4409
S'/sss/default/complaint'
p4410
asbasbasbag57
(g73
g59
NtRp4411
(dp4412
g62
(dp4413
sg71
g4369
sg64
(lp4414
g57
(g78
g59
NtRp4415
(dp4416
g62
(dp4417
sg71
g4411
sg64
(lp4418
g57
(g58
g59
NtRp4419
(dp4420
g62
(dp4421
g70
I3
ssg71
g4415
sg64
(lp4422
g57
(g66
g59
NtRp4423
(dp4424
g62
(dp4425
g70
I2
ssg71
Nsg64
(lp4426
sbasbasbasbasbasbasbasbasbasbasbasbag57
(g73
g59
NtRp4427
(dp4428
g62
(dp4429
sg71
g3838
sg64
(lp4430
g57
(g78
g59
NtRp4431
(dp4432
g62
(dp4433
g82
g83
ssg71
g4427
sg64
(lp4434
g243
asbag57
(g78
g59
NtRp4435
(dp4436
g62
(dp4437
g89
g90
ssg71
g4427
sg64
(lp4438
S':'
asbag57
(g78
g59
NtRp4439
(dp4440
g62
(dp4441
sg71
g4427
sg64
(lp4442
g57
(g58
g59
NtRp4443
(dp4444
g62
(dp4445
g70
I5
ssg71
g4439
sg64
(lp4446
g57
(g66
g59
NtRp4447
(dp4448
g62
(dp4449
g70
I4
ssg71
Nsg64
(lp4450
g57
(g73
g59
NtRp4451
(dp4452
g62
(dp4453
sg71
g4447
sg64
(lp4454
g57
(g78
g59
NtRp4455
(dp4456
g62
(dp4457
g82
g83
ssg71
g4451
sg64
(lp4458
S'session_id_sss'
p4459
asbag57
(g78
g59
NtRp4460
(dp4461
g62
(dp4462
g89
g90
ssg71
g4451
sg64
(lp4463
S':'
asbag57
(g78
g59
NtRp4464
(dp4465
g62
(dp4466
sg71
g4451
sg64
(lp4467
g57
(g58
g59
NtRp4468
(dp4469
g62
(dp4470
g70
I4
ssg71
g4464
sg64
(lp4471
g475
ag57
(g66
g59
NtRp4472
(dp4473
g62
(dp4474
g70
I3
ssg71
Nsg64
(lp4475
g57
(g73
g59
NtRp4476
(dp4477
g62
(dp4478
sg71
g4472
sg64
(lp4479
g57
(g78
g59
NtRp4480
(dp4481
g62
(dp4482
g82
g83
ssg71
g4476
sg64
(lp4483
g294
asbag57
(g78
g59
NtRp4484
(dp4485
g62
(dp4486
g89
g90
ssg71
g4476
sg64
(lp4487
S':'
asbag57
(g78
g59
NtRp4488
(dp4489
g62
(dp4490
sg71
g4476
sg64
(lp4491
g57
(g58
g59
NtRp4492
(dp4493
g62
(dp4494
g70
I3
ssg71
g4488
sg64
(lp4495
S''
asbasbasbag57
(g73
g59
NtRp4496
(dp4497
g62
(dp4498
sg71
g4472
sg64
(lp4499
g57
(g78
g59
NtRp4500
(dp4501
g62
(dp4502
g82
g83
ssg71
g4496
sg64
(lp4503
g315
asbag57
(g78
g59
NtRp4504
(dp4505
g62
(dp4506
g89
g90
ssg71
g4496
sg64
(lp4507
S':'
asbag57
(g78
g59
NtRp4508
(dp4509
g62
(dp4510
sg71
g4496
sg64
(lp4511
g57
(g58
g59
NtRp4512
(dp4513
g62
(dp4514
g70
I3
ssg71
g4508
sg64
(lp4515
S''
asbasbasbag57
(g73
g59
NtRp4516
(dp4517
g62
(dp4518
sg71
g4472
sg64
(lp4519
g57
(g78
g59
NtRp4520
(dp4521
g62
(dp4522
g82
g83
ssg71
g4516
sg64
(lp4523
g336
asbag57
(g78
g59
NtRp4524
(dp4525
g62
(dp4526
g89
g90
ssg71
g4516
sg64
(lp4527
S':'
asbag57
(g78
g59
NtRp4528
(dp4529
g62
(dp4530
sg71
g4516
sg64
(lp4531
g57
(g58
g59
NtRp4532
(dp4533
g62
(dp4534
g70
I3
ssg71
g4528
sg64
(lp4535
S''
asbasbasbag57
(g73
g59
NtRp4536
(dp4537
g62
(dp4538
sg71
g4472
sg64
(lp4539
g57
(g78
g59
NtRp4540
(dp4541
g62
(dp4542
g82
g83
ssg71
g4536
sg64
(lp4543
g357
asbag57
(g78
g59
NtRp4544
(dp4545
g62
(dp4546
g89
g90
ssg71
g4536
sg64
(lp4547
S':'
asbag57
(g78
g59
NtRp4548
(dp4549
g62
(dp4550
sg71
g4536
sg64
(lp4551
g57
(g58
g59
NtRp4552
(dp4553
g62
(dp4554
g70
I3
ssg71
g4548
sg64
(lp4555
S''
asbasbasbag57
(g73
g59
NtRp4556
(dp4557
g62
(dp4558
sg71
g4472
sg64
(lp4559
g57
(g78
g59
NtRp4560
(dp4561
g62
(dp4562
g82
g83
ssg71
g4556
sg64
(lp4563
g378
asbag57
(g78
g59
NtRp4564
(dp4565
g62
(dp4566
g89
g90
ssg71
g4556
sg64
(lp4567
S':'
asbag57
(g78
g59
NtRp4568
(dp4569
g62
(dp4570
sg71
g4556
sg64
(lp4571
g57
(g58
g59
NtRp4572
(dp4573
g62
(dp4574
g70
I3
ssg71
g4568
sg64
(lp4575
S''
asbasbasbag57
(g73
g59
NtRp4576
(dp4577
g62
(dp4578
sg71
g4472
sg64
(lp4579
g57
(g78
g59
NtRp4580
(dp4581
g62
(dp4582
g82
g83
ssg71
g4576
sg64
(lp4583
g399
asbag57
(g78
g59
NtRp4584
(dp4585
g62
(dp4586
g89
g90
ssg71
g4576
sg64
(lp4587
S':'
asbag57
(g78
g59
NtRp4588
(dp4589
g62
(dp4590
sg71
g4576
sg64
(lp4591
g57
(g58
g59
NtRp4592
(dp4593
g62
(dp4594
g70
I3
ssg71
g4588
sg64
(lp4595
S'/'
asbasbasbag57
(g73
g59
NtRp4596
(dp4597
g62
(dp4598
sg71
g4472
sg64
(lp4599
g57
(g78
g59
NtRp4600
(dp4601
g62
(dp4602
g82
g83
ssg71
g4596
sg64
(lp4603
g420
asbag57
(g78
g59
NtRp4604
(dp4605
g62
(dp4606
g89
g90
ssg71
g4596
sg64
(lp4607
S':'
asbag57
(g78
g59
NtRp4608
(dp4609
g62
(dp4610
sg71
g4596
sg64
(lp4611
g57
(g58
g59
NtRp4612
(dp4613
g62
(dp4614
g70
I3
ssg71
g4608
sg64
(lp4615
S''
asbasbasbag57
(g73
g59
NtRp4616
(dp4617
g62
(dp4618
sg71
g4472
sg64
(lp4619
g57
(g78
g59
NtRp4620
(dp4621
g62
(dp4622
g82
g83
ssg71
g4616
sg64
(lp4623
g441
asbag57
(g78
g59
NtRp4624
(dp4625
g62
(dp4626
g89
g90
ssg71
g4616
sg64
(lp4627
S':'
asbag57
(g78
g59
NtRp4628
(dp4629
g62
(dp4630
sg71
g4616
sg64
(lp4631
g57
(g58
g59
NtRp4632
(dp4633
g62
(dp4634
g70
I3
ssg71
g4628
sg64
(lp4635
S''
asbasbasbasbasbasbasbasbasbasbasbag57
(g73
g59
NtRp4636
(dp4637
g62
(dp4638
sg71
g3838
sg64
(lp4639
g57
(g78
g59
NtRp4640
(dp4641
g62
(dp4642
g82
g83
ssg71
g4636
sg64
(lp4643
S'delimiters'
p4644
asbag57
(g78
g59
NtRp4645
(dp4646
g62
(dp4647
g89
g90
ssg71
g4636
sg64
(lp4648
S':'
asbag57
(g78
g59
NtRp4649
(dp4650
g62
(dp4651
sg71
g4636
sg64
(lp4652
g57
(g58
g59
NtRp4653
(dp4654
g62
(dp4655
g70
I5
ssg71
g4649
sg64
(lp4656
g57
(g66
g59
NtRp4657
(dp4658
g62
(dp4659
g70
I4
ssg71
Nsg64
(lp4660
g57
(g73
g59
NtRp4661
(dp4662
g62
(dp4663
sg71
g4657
sg64
(lp4664
g57
(g78
g59
NtRp4665
(dp4666
g62
(dp4667
sg71
g4661
sg64
(lp4668
g57
(g58
g59
NtRp4669
(dp4670
g62
(dp4671
g70
I4
ssg71
g4665
sg64
(lp4672
S'{{'
p4673
asbasbasbag57
(g73
g59
NtRp4674
(dp4675
g62
(dp4676
sg71
g4657
sg64
(lp4677
g57
(g78
g59
NtRp4678
(dp4679
g62
(dp4680
sg71
g4674
sg64
(lp4681
g57
(g58
g59
NtRp4682
(dp4683
g62
(dp4684
g70
I4
ssg71
g4678
sg64
(lp4685
S'}}'
p4686
asbasbasbasbasbasbasbag57
(g73
g59
NtRp4687
(dp4688
g62
(dp4689
sg71
g3838
sg64
(lp4690
g57
(g78
g59
NtRp4691
(dp4692
g62
(dp4693
g82
g83
ssg71
g4687
sg64
(lp4694
S'editmedical'
p4695
asbag57
(g78
g59
NtRp4696
(dp4697
g62
(dp4698
g89
g90
ssg71
g4687
sg64
(lp4699
S':'
asbag57
(g78
g59
NtRp4700
(dp4701
g62
(dp4702
sg71
g4687
sg64
(lp4703
g57
(g58
g59
NtRp4704
(dp4705
g62
(dp4706
g70
I5
ssg71
g4700
sg64
(lp4707
g57
(g66
g59
NtRp4708
(dp4709
g62
(dp4710
g70
I4
ssg71
Nsg64
(lp4711
g57
(g73
g59
NtRp4712
(dp4713
g62
(dp4714
sg71
g4708
sg64
(lp4715
g57
(g78
g59
NtRp4716
(dp4717
g62
(dp4718
sg71
g4712
sg64
(lp4719
g57
(g58
g59
NtRp4720
(dp4721
g62
(dp4722
g70
I4
ssg71
g4716
sg64
(lp4723
g57
(g66
g59
NtRp4724
(dp4725
g62
(dp4726
g70
I3
ssg71
Nsg64
(lp4727
g57
(g73
g59
NtRp4728
(dp4729
g62
(dp4730
sg71
g4724
sg64
(lp4731
g57
(g78
g59
NtRp4732
(dp4733
g62
(dp4734
sg71
g4728
sg64
(lp4735
g57
(g58
g59
NtRp4736
(dp4737
g62
(dp4738
g70
I3
ssg71
g4732
sg64
(lp4739
g4176
asbasbasbag57
(g73
g59
NtRp4740
(dp4741
g62
(dp4742
sg71
g4724
sg64
(lp4743
g57
(g78
g59
NtRp4744
(dp4745
g62
(dp4746
sg71
g4740
sg64
(lp4747
g57
(g58
g59
NtRp4748
(dp4749
g62
(dp4750
g70
I3
ssg71
g4744
sg64
(lp4751
g100
asbasbasbag57
(g73
g59
NtRp4752
(dp4753
g62
(dp4754
sg71
g4724
sg64
(lp4755
g57
(g78
g59
NtRp4756
(dp4757
g62
(dp4758
sg71
g4752
sg64
(lp4759
g57
(g58
g59
NtRp4760
(dp4761
g62
(dp4762
g70
I3
ssg71
g4756
sg64
(lp4763
g4201
asbasbasbag57
(g73
g59
NtRp4764
(dp4765
g62
(dp4766
sg71
g4724
sg64
(lp4767
g57
(g78
g59
NtRp4768
(dp4769
g62
(dp4770
sg71
g4764
sg64
(lp4771
g57
(g58
g59
NtRp4772
(dp4773
g62
(dp4774
g70
I3
ssg71
g4768
sg64
(lp4775
g57
(g66
g59
NtRp4776
(dp4777
g62
(dp4778
g70
I2
ssg71
Nsg64
(lp4779
sbasbasbasbasbasbasbasbasbasbasbasbag57
(g73
g59
NtRp4780
(dp4781
g62
(dp4782
sg71
g3838
sg64
(lp4783
g57
(g78
g59
NtRp4784
(dp4785
g62
(dp4786
g82
g83
ssg71
g4780
sg64
(lp4787
S'enter_laptop_details'
p4788
asbag57
(g78
g59
NtRp4789
(dp4790
g62
(dp4791
g89
g90
ssg71
g4780
sg64
(lp4792
S':'
asbag57
(g78
g59
NtRp4793
(dp4794
g62
(dp4795
sg71
g4780
sg64
(lp4796
g57
(g58
g59
NtRp4797
(dp4798
g62
(dp4799
g70
I5
ssg71
g4793
sg64
(lp4800
g57
(g66
g59
NtRp4801
(dp4802
g62
(dp4803
g70
I4
ssg71
Nsg64
(lp4804
g57
(g73
g59
NtRp4805
(dp4806
g62
(dp4807
sg71
g4801
sg64
(lp4808
g57
(g78
g59
NtRp4809
(dp4810
g62
(dp4811
sg71
g4805
sg64
(lp4812
g57
(g58
g59
NtRp4813
(dp4814
g62
(dp4815
g70
I4
ssg71
g4809
sg64
(lp4816
g57
(g66
g59
NtRp4817
(dp4818
g62
(dp4819
g70
I3
ssg71
Nsg64
(lp4820
g57
(g73
g59
NtRp4821
(dp4822
g62
(dp4823
sg71
g4817
sg64
(lp4824
g57
(g78
g59
NtRp4825
(dp4826
g62
(dp4827
sg71
g4821
sg64
(lp4828
g57
(g58
g59
NtRp4829
(dp4830
g62
(dp4831
g70
I3
ssg71
g4825
sg64
(lp4832
g3895
(S's\x0e\x00\x00\x00Laptop Records'
tRp4833
asbasbasbag57
(g73
g59
NtRp4834
(dp4835
g62
(dp4836
sg71
g4817
sg64
(lp4837
g57
(g78
g59
NtRp4838
(dp4839
g62
(dp4840
sg71
g4834
sg64
(lp4841
g57
(g58
g59
NtRp4842
(dp4843
g62
(dp4844
g70
I3
ssg71
g4838
sg64
(lp4845
g100
asbasbasbag57
(g73
g59
NtRp4846
(dp4847
g62
(dp4848
sg71
g4817
sg64
(lp4849
g57
(g78
g59
NtRp4850
(dp4851
g62
(dp4852
sg71
g4846
sg64
(lp4853
g57
(g58
g59
NtRp4854
(dp4855
g62
(dp4856
g70
I3
ssg71
g4850
sg64
(lp4857
S'/sss/default/enter_laptop_details'
p4858
asbasbasbag57
(g73
g59
NtRp4859
(dp4860
g62
(dp4861
sg71
g4817
sg64
(lp4862
g57
(g78
g59
NtRp4863
(dp4864
g62
(dp4865
sg71
g4859
sg64
(lp4866
g57
(g58
g59
NtRp4867
(dp4868
g62
(dp4869
g70
I3
ssg71
g4863
sg64
(lp4870
g57
(g66
g59
NtRp4871
(dp4872
g62
(dp4873
g70
I2
ssg71
Nsg64
(lp4874
sbasbasbasbasbasbasbasbasbasbasbasbag57
(g73
g59
NtRp4875
(dp4876
g62
(dp4877
sg71
g3838
sg64
(lp4878
g57
(g78
g59
NtRp4879
(dp4880
g62
(dp4881
g82
g83
ssg71
g4875
sg64
(lp4882
S'files'
p4883
asbag57
(g78
g59
NtRp4884
(dp4885
g62
(dp4886
g89
g90
ssg71
g4875
sg64
(lp4887
S':'
asbag57
(g78
g59
NtRp4888
(dp4889
g62
(dp4890
sg71
g4875
sg64
(lp4891
g57
(g58
g59
NtRp4892
(dp4893
g62
(dp4894
g70
I5
ssg71
g4888
sg64
(lp4895
g57
(g66
g59
NtRp4896
(dp4897
g62
(dp4898
g70
I4
ssg71
Nsg64
(lp4899
sbasbasbasbag57
(g73
g59
NtRp4900
(dp4901
g62
(dp4902
sg71
g3838
sg64
(lp4903
g57
(g78
g59
NtRp4904
(dp4905
g62
(dp4906
g82
g83
ssg71
g4900
sg64
(lp4907
S'flash'
p4908
asbag57
(g78
g59
NtRp4909
(dp4910
g62
(dp4911
g89
g90
ssg71
g4900
sg64
(lp4912
S':'
asbag57
(g78
g59
NtRp4913
(dp4914
g62
(dp4915
sg71
g4900
sg64
(lp4916
g57
(g58
g59
NtRp4917
(dp4918
g62
(dp4919
g70
I5
ssg71
g4913
sg64
(lp4920
S''
asbasbasbag57
(g73
g59
NtRp4921
(dp4922
g62
(dp4923
sg71
g3838
sg64
(lp4924
g57
(g78
g59
NtRp4925
(dp4926
g62
(dp4927
g82
g83
ssg71
g4921
sg64
(lp4928
S'generic_patterns'
p4929
asbag57
(g78
g59
NtRp4930
(dp4931
g62
(dp4932
g89
g90
ssg71
g4921
sg64
(lp4933
S':'
asbag57
(g78
g59
NtRp4934
(dp4935
g62
(dp4936
sg71
g4921
sg64
(lp4937
g57
(g58
g59
NtRp4938
(dp4939
g62
(dp4940
g70
I5
ssg71
g4934
sg64
(lp4941
g57
(g66
g59
NtRp4942
(dp4943
g62
(dp4944
g70
I4
ssg71
Nsg64
(lp4945
g57
(g73
g59
NtRp4946
(dp4947
g62
(dp4948
sg71
g4942
sg64
(lp4949
g57
(g78
g59
NtRp4950
(dp4951
g62
(dp4952
sg71
g4946
sg64
(lp4953
g57
(g58
g59
NtRp4954
(dp4955
g62
(dp4956
g70
I4
ssg71
g4950
sg64
(lp4957
S'*'
asbasbasbasbasbasbasbag57
(g73
g59
NtRp4958
(dp4959
g62
(dp4960
sg71
g3838
sg64
(lp4961
g57
(g78
g59
NtRp4962
(dp4963
g62
(dp4964
g82
g83
ssg71
g4958
sg64
(lp4965
S'headers'
p4966
asbag57
(g78
g59
NtRp4967
(dp4968
g62
(dp4969
g89
g90
ssg71
g4958
sg64
(lp4970
S':'
asbag57
(g78
g59
NtRp4971
(dp4972
g62
(dp4973
sg71
g4958
sg64
(lp4974
g57
(g58
g59
NtRp4975
(dp4976
g62
(dp4977
g70
I5
ssg71
g4971
sg64
(lp4978
g57
(g66
g59
NtRp4979
(dp4980
g62
(dp4981
g70
I4
ssg71
Nsg64
(lp4982
g57
(g73
g59
NtRp4983
(dp4984
g62
(dp4985
sg71
g4979
sg64
(lp4986
g57
(g78
g59
NtRp4987
(dp4988
g62
(dp4989
g82
g83
ssg71
g4983
sg64
(lp4990
S'X-Powered-By'
p4991
asbag57
(g78
g59
NtRp4992
(dp4993
g62
(dp4994
g89
g90
ssg71
g4983
sg64
(lp4995
S':'
asbag57
(g78
g59
NtRp4996
(dp4997
g62
(dp4998
sg71
g4983
sg64
(lp4999
g57
(g58
g59
NtRp5000
(dp5001
g62
(dp5002
g70
I4
ssg71
g4996
sg64
(lp5003
S'web2py'
p5004
asbasbasbasbasbasbasbag57
(g73
g59
NtRp5005
(dp5006
g62
(dp5007
sg71
g3838
sg64
(lp5008
g57
(g78
g59
NtRp5009
(dp5010
g62
(dp5011
g82
g83
ssg71
g5005
sg64
(lp5012
S'laptop_out_details'
p5013
asbag57
(g78
g59
NtRp5014
(dp5015
g62
(dp5016
g89
g90
ssg71
g5005
sg64
(lp5017
S':'
asbag57
(g78
g59
NtRp5018
(dp5019
g62
(dp5020
sg71
g5005
sg64
(lp5021
g57
(g58
g59
NtRp5022
(dp5023
g62
(dp5024
g70
I5
ssg71
g5018
sg64
(lp5025
g57
(g66
g59
NtRp5026
(dp5027
g62
(dp5028
g70
I4
ssg71
Nsg64
(lp5029
g57
(g73
g59
NtRp5030
(dp5031
g62
(dp5032
sg71
g5026
sg64
(lp5033
g57
(g78
g59
NtRp5034
(dp5035
g62
(dp5036
sg71
g5030
sg64
(lp5037
g57
(g58
g59
NtRp5038
(dp5039
g62
(dp5040
g70
I4
ssg71
g5034
sg64
(lp5041
g57
(g66
g59
NtRp5042
(dp5043
g62
(dp5044
g70
I3
ssg71
Nsg64
(lp5045
g57
(g73
g59
NtRp5046
(dp5047
g62
(dp5048
sg71
g5042
sg64
(lp5049
g57
(g78
g59
NtRp5050
(dp5051
g62
(dp5052
sg71
g5046
sg64
(lp5053
g57
(g58
g59
NtRp5054
(dp5055
g62
(dp5056
g70
I3
ssg71
g5050
sg64
(lp5057
g3895
(S's\x0f\x00\x00\x00Laptop Movement'
tRp5058
asbasbasbag57
(g73
g59
NtRp5059
(dp5060
g62
(dp5061
sg71
g5042
sg64
(lp5062
g57
(g78
g59
NtRp5063
(dp5064
g62
(dp5065
sg71
g5059
sg64
(lp5066
g57
(g58
g59
NtRp5067
(dp5068
g62
(dp5069
g70
I3
ssg71
g5063
sg64
(lp5070
g100
asbasbasbag57
(g73
g59
NtRp5071
(dp5072
g62
(dp5073
sg71
g5042
sg64
(lp5074
g57
(g78
g59
NtRp5075
(dp5076
g62
(dp5077
sg71
g5071
sg64
(lp5078
g57
(g58
g59
NtRp5079
(dp5080
g62
(dp5081
g70
I3
ssg71
g5075
sg64
(lp5082
S'/sss/default/laptop_out_details'
p5083
asbasbasbag57
(g73
g59
NtRp5084
(dp5085
g62
(dp5086
sg71
g5042
sg64
(lp5087
g57
(g78
g59
NtRp5088
(dp5089
g62
(dp5090
sg71
g5084
sg64
(lp5091
g57
(g58
g59
NtRp5092
(dp5093
g62
(dp5094
g70
I3
ssg71
g5088
sg64
(lp5095
g57
(g66
g59
NtRp5096
(dp5097
g62
(dp5098
g70
I2
ssg71
Nsg64
(lp5099
sbasbasbasbasbasbasbasbasbasbasbasbag57
(g73
g59
NtRp5100
(dp5101
g62
(dp5102
sg71
g3838
sg64
(lp5103
g57
(g78
g59
NtRp5104
(dp5105
g62
(dp5106
g82
g83
ssg71
g5100
sg64
(lp5107
S'medical'
p5108
asbag57
(g78
g59
NtRp5109
(dp5110
g62
(dp5111
g89
g90
ssg71
g5100
sg64
(lp5112
S':'
asbag57
(g78
g59
NtRp5113
(dp5114
g62
(dp5115
sg71
g5100
sg64
(lp5116
g57
(g58
g59
NtRp5117
(dp5118
g62
(dp5119
g70
I5
ssg71
g5113
sg64
(lp5120
g57
(g66
g59
NtRp5121
(dp5122
g62
(dp5123
g70
I4
ssg71
Nsg64
(lp5124
g57
(g73
g59
NtRp5125
(dp5126
g62
(dp5127
sg71
g5121
sg64
(lp5128
g57
(g78
g59
NtRp5129
(dp5130
g62
(dp5131
sg71
g5125
sg64
(lp5132
g57
(g58
g59
NtRp5133
(dp5134
g62
(dp5135
g70
I4
ssg71
g5129
sg64
(lp5136
g57
(g66
g59
NtRp5137
(dp5138
g62
(dp5139
g70
I3
ssg71
Nsg64
(lp5140
g57
(g73
g59
NtRp5141
(dp5142
g62
(dp5143
sg71
g5137
sg64
(lp5144
g57
(g78
g59
NtRp5145
(dp5146
g62
(dp5147
sg71
g5141
sg64
(lp5148
g57
(g58
g59
NtRp5149
(dp5150
g62
(dp5151
g70
I3
ssg71
g5145
sg64
(lp5152
g3895
(S's\x10\x00\x00\x00Medical Requests'
tRp5153
asbasbasbag57
(g73
g59
NtRp5154
(dp5155
g62
(dp5156
sg71
g5137
sg64
(lp5157
g57
(g78
g59
NtRp5158
(dp5159
g62
(dp5160
sg71
g5154
sg64
(lp5161
g57
(g58
g59
NtRp5162
(dp5163
g62
(dp5164
g70
I3
ssg71
g5158
sg64
(lp5165
g100
asbasbasbag57
(g73
g59
NtRp5166
(dp5167
g62
(dp5168
sg71
g5137
sg64
(lp5169
g57
(g78
g59
NtRp5170
(dp5171
g62
(dp5172
sg71
g5166
sg64
(lp5173
g57
(g58
g59
NtRp5174
(dp5175
g62
(dp5176
g70
I3
ssg71
g5170
sg64
(lp5177
S'/sss/default/byroll'
p5178
asbasbasbag57
(g73
g59
NtRp5179
(dp5180
g62
(dp5181
sg71
g5137
sg64
(lp5182
g57
(g78
g59
NtRp5183
(dp5184
g62
(dp5185
sg71
g5179
sg64
(lp5186
g57
(g58
g59
NtRp5187
(dp5188
g62
(dp5189
g70
I3
ssg71
g5183
sg64
(lp5190
g57
(g66
g59
NtRp5191
(dp5192
g62
(dp5193
g70
I2
ssg71
Nsg64
(lp5194
sbasbasbasbasbasbasbasbasbasbasbasbag57
(g73
g59
NtRp5195
(dp5196
g62
(dp5197
sg71
g3838
sg64
(lp5198
g57
(g78
g59
NtRp5199
(dp5200
g62
(dp5201
g82
g83
ssg71
g5195
sg64
(lp5202
S'menu'
p5203
asbag57
(g78
g59
NtRp5204
(dp5205
g62
(dp5206
g89
g90
ssg71
g5195
sg64
(lp5207
S':'
asbag57
(g78
g59
NtRp5208
(dp5209
g62
(dp5210
sg71
g5195
sg64
(lp5211
g57
(g58
g59
NtRp5212
(dp5213
g62
(dp5214
g70
I5
ssg71
g5208
sg64
(lp5215
g57
(g66
g59
NtRp5216
(dp5217
g62
(dp5218
g70
I4
ssg71
Nsg64
(lp5219
g57
(g73
g59
NtRp5220
(dp5221
g62
(dp5222
sg71
g5216
sg64
(lp5223
g57
(g78
g59
NtRp5224
(dp5225
g62
(dp5226
sg71
g5220
sg64
(lp5227
g57
(g58
g59
NtRp5228
(dp5229
g62
(dp5230
g70
I4
ssg71
g5224
sg64
(lp5231
g57
(g66
g59
NtRp5232
(dp5233
g62
(dp5234
g70
I3
ssg71
Nsg64
(lp5235
g57
(g73
g59
NtRp5236
(dp5237
g62
(dp5238
sg71
g5232
sg64
(lp5239
g57
(g78
g59
NtRp5240
(dp5241
g62
(dp5242
sg71
g5236
sg64
(lp5243
g57
(g58
g59
NtRp5244
(dp5245
g62
(dp5246
g70
I3
ssg71
g5240
sg64
(lp5247
g3896
asbasbasbag57
(g73
g59
NtRp5248
(dp5249
g62
(dp5250
sg71
g5232
sg64
(lp5251
g57
(g78
g59
NtRp5252
(dp5253
g62
(dp5254
sg71
g5248
sg64
(lp5255
g57
(g58
g59
NtRp5256
(dp5257
g62
(dp5258
g70
I3
ssg71
g5252
sg64
(lp5259
g100
asbasbasbag57
(g73
g59
NtRp5260
(dp5261
g62
(dp5262
sg71
g5232
sg64
(lp5263
g57
(g78
g59
NtRp5264
(dp5265
g62
(dp5266
sg71
g5260
sg64
(lp5267
g57
(g58
g59
NtRp5268
(dp5269
g62
(dp5270
g70
I3
ssg71
g5264
sg64
(lp5271
g3921
asbasbasbag57
(g73
g59
NtRp5272
(dp5273
g62
(dp5274
sg71
g5232
sg64
(lp5275
g57
(g78
g59
NtRp5276
(dp5277
g62
(dp5278
sg71
g5272
sg64
(lp5279
g57
(g58
g59
NtRp5280
(dp5281
g62
(dp5282
g70
I3
ssg71
g5276
sg64
(lp5283
g57
(g66
g59
NtRp5284
(dp5285
g62
(dp5286
g70
I2
ssg71
Nsg64
(lp5287
sbasbasbasbasbasbasbasbasbasbasbasbag57
(g73
g59
NtRp5288
(dp5289
g62
(dp5290
sg71
g3838
sg64
(lp5291
g57
(g78
g59
NtRp5292
(dp5293
g62
(dp5294
g82
g83
ssg71
g5288
sg64
(lp5295
S'meta'
p5296
asbag57
(g78
g59
NtRp5297
(dp5298
g62
(dp5299
g89
g90
ssg71
g5288
sg64
(lp5300
S':'
asbag57
(g78
g59
NtRp5301
(dp5302
g62
(dp5303
sg71
g5288
sg64
(lp5304
g57
(g58
g59
NtRp5305
(dp5306
g62
(dp5307
g70
I5
ssg71
g5301
sg64
(lp5308
g57
(g66
g59
NtRp5309
(dp5310
g62
(dp5311
g70
I4
ssg71
Nsg64
(lp5312
g57
(g73
g59
NtRp5313
(dp5314
g62
(dp5315
sg71
g5309
sg64
(lp5316
g57
(g78
g59
NtRp5317
(dp5318
g62
(dp5319
g82
g83
ssg71
g5313
sg64
(lp5320
S'author'
p5321
asbag57
(g78
g59
NtRp5322
(dp5323
g62
(dp5324
g89
g90
ssg71
g5313
sg64
(lp5325
S':'
asbag57
(g78
g59
NtRp5326
(dp5327
g62
(dp5328
sg71
g5313
sg64
(lp5329
g57
(g58
g59
NtRp5330
(dp5331
g62
(dp5332
g70
I4
ssg71
g5326
sg64
(lp5333
S'you <you@example.com>'
p5334
asbasbasbag57
(g73
g59
NtRp5335
(dp5336
g62
(dp5337
sg71
g5309
sg64
(lp5338
g57
(g78
g59
NtRp5339
(dp5340
g62
(dp5341
g82
g83
ssg71
g5335
sg64
(lp5342
S'description'
p5343
asbag57
(g78
g59
NtRp5344
(dp5345
g62
(dp5346
g89
g90
ssg71
g5335
sg64
(lp5347
S':'
asbag57
(g78
g59
NtRp5348
(dp5349
g62
(dp5350
sg71
g5335
sg64
(lp5351
g57
(g58
g59
NtRp5352
(dp5353
g62
(dp5354
g70
I4
ssg71
g5348
sg64
(lp5355
S''
asbasbasbag57
(g73
g59
NtRp5356
(dp5357
g62
(dp5358
sg71
g5309
sg64
(lp5359
g57
(g78
g59
NtRp5360
(dp5361
g62
(dp5362
g82
g83
ssg71
g5356
sg64
(lp5363
S'keywords'
p5364
asbag57
(g78
g59
NtRp5365
(dp5366
g62
(dp5367
g89
g90
ssg71
g5356
sg64
(lp5368
S':'
asbag57
(g78
g59
NtRp5369
(dp5370
g62
(dp5371
sg71
g5356
sg64
(lp5372
g57
(g58
g59
NtRp5373
(dp5374
g62
(dp5375
g70
I4
ssg71
g5369
sg64
(lp5376
S''
asbasbasbasbasbasbasbag57
(g73
g59
NtRp5377
(dp5378
g62
(dp5379
sg71
g3838
sg64
(lp5380
g57
(g78
g59
NtRp5381
(dp5382
g62
(dp5383
g82
g83
ssg71
g5377
sg64
(lp5384
S'models_to_run'
p5385
asbag57
(g78
g59
NtRp5386
(dp5387
g62
(dp5388
g89
g90
ssg71
g5377
sg64
(lp5389
S':'
asbag57
(g78
g59
NtRp5390
(dp5391
g62
(dp5392
sg71
g5377
sg64
(lp5393
g57
(g58
g59
NtRp5394
(dp5395
g62
(dp5396
g70
I5
ssg71
g5390
sg64
(lp5397
g57
(g66
g59
NtRp5398
(dp5399
g62
(dp5400
g70
I4
ssg71
Nsg64
(lp5401
g57
(g73
g59
NtRp5402
(dp5403
g62
(dp5404
sg71
g5398
sg64
(lp5405
g57
(g78
g59
NtRp5406
(dp5407
g62
(dp5408
sg71
g5402
sg64
(lp5409
g57
(g58
g59
NtRp5410
(dp5411
g62
(dp5412
g70
I4
ssg71
g5406
sg64
(lp5413
S'^\\w+\\.py$'
p5414
asbasbasbag57
(g73
g59
NtRp5415
(dp5416
g62
(dp5417
sg71
g5398
sg64
(lp5418
g57
(g78
g59
NtRp5419
(dp5420
g62
(dp5421
sg71
g5415
sg64
(lp5422
g57
(g58
g59
NtRp5423
(dp5424
g62
(dp5425
g70
I4
ssg71
g5419
sg64
(lp5426
S'^default/\\w+\\.py$'
p5427
asbasbasbag57
(g73
g59
NtRp5428
(dp5429
g62
(dp5430
sg71
g5398
sg64
(lp5431
g57
(g78
g59
NtRp5432
(dp5433
g62
(dp5434
sg71
g5428
sg64
(lp5435
g57
(g58
g59
NtRp5436
(dp5437
g62
(dp5438
g70
I4
ssg71
g5432
sg64
(lp5439
S'^default/editprofile/\\w+\\.py$'
p5440
asbasbasbasbasbasbasbag57
(g73
g59
NtRp5441
(dp5442
g62
(dp5443
sg71
g3838
sg64
(lp5444
g57
(g78
g59
NtRp5445
(dp5446
g62
(dp5447
g82
g83
ssg71
g5441
sg64
(lp5448
S'postprocessing'
p5449
asbag57
(g78
g59
NtRp5450
(dp5451
g62
(dp5452
g89
g90
ssg71
g5441
sg64
(lp5453
S':'
asbag57
(g78
g59
NtRp5454
(dp5455
g62
(dp5456
sg71
g5441
sg64
(lp5457
g57
(g58
g59
NtRp5458
(dp5459
g62
(dp5460
g70
I5
ssg71
g5454
sg64
(lp5461
g57
(g66
g59
NtRp5462
(dp5463
g62
(dp5464
g70
I4
ssg71
Nsg64
(lp5465
sbasbasbasbag57
(g73
g59
NtRp5466
(dp5467
g62
(dp5468
sg71
g3838
sg64
(lp5469
g57
(g78
g59
NtRp5470
(dp5471
g62
(dp5472
g82
g83
ssg71
g5466
sg64
(lp5473
S'rules'
p5474
asbag57
(g78
g59
NtRp5475
(dp5476
g62
(dp5477
g89
g90
ssg71
g5466
sg64
(lp5478
S':'
asbag57
(g78
g59
NtRp5479
(dp5480
g62
(dp5481
sg71
g5466
sg64
(lp5482
g57
(g58
g59
NtRp5483
(dp5484
g62
(dp5485
g70
I5
ssg71
g5479
sg64
(lp5486
g57
(g66
g59
NtRp5487
(dp5488
g62
(dp5489
g70
I4
ssg71
Nsg64
(lp5490
g57
(g73
g59
NtRp5491
(dp5492
g62
(dp5493
sg71
g5487
sg64
(lp5494
g57
(g78
g59
NtRp5495
(dp5496
g62
(dp5497
sg71
g5491
sg64
(lp5498
g57
(g58
g59
NtRp5499
(dp5500
g62
(dp5501
g70
I4
ssg71
g5495
sg64
(lp5502
g57
(g66
g59
NtRp5503
(dp5504
g62
(dp5505
g70
I3
ssg71
Nsg64
(lp5506
g57
(g73
g59
NtRp5507
(dp5508
g62
(dp5509
sg71
g5503
sg64
(lp5510
g57
(g78
g59
NtRp5511
(dp5512
g62
(dp5513
sg71
g5507
sg64
(lp5514
g57
(g58
g59
NtRp5515
(dp5516
g62
(dp5517
g70
I3
ssg71
g5511
sg64
(lp5518
g4106
asbasbasbag57
(g73
g59
NtRp5519
(dp5520
g62
(dp5521
sg71
g5503
sg64
(lp5522
g57
(g78
g59
NtRp5523
(dp5524
g62
(dp5525
sg71
g5519
sg64
(lp5526
g57
(g58
g59
NtRp5527
(dp5528
g62
(dp5529
g70
I3
ssg71
g5523
sg64
(lp5530
g100
asbasbasbag57
(g73
g59
NtRp5531
(dp5532
g62
(dp5533
sg71
g5503
sg64
(lp5534
g57
(g78
g59
NtRp5535
(dp5536
g62
(dp5537
sg71
g5531
sg64
(lp5538
g57
(g58
g59
NtRp5539
(dp5540
g62
(dp5541
g70
I3
ssg71
g5535
sg64
(lp5542
g4131
asbasbasbag57
(g73
g59
NtRp5543
(dp5544
g62
(dp5545
sg71
g5503
sg64
(lp5546
g57
(g78
g59
NtRp5547
(dp5548
g62
(dp5549
sg71
g5543
sg64
(lp5550
g57
(g58
g59
NtRp5551
(dp5552
g62
(dp5553
g70
I3
ssg71
g5547
sg64
(lp5554
g57
(g66
g59
NtRp5555
(dp5556
g62
(dp5557
g70
I2
ssg71
Nsg64
(lp5558
sbasbasbasbasbasbasbasbasbasbasbasbag57
(g73
g59
NtRp5559
(dp5560
g62
(dp5561
sg71
g3838
sg64
(lp5562
g57
(g78
g59
NtRp5563
(dp5564
g62
(dp5565
g82
g83
ssg71
g5559
sg64
(lp5566
S'search'
p5567
asbag57
(g78
g59
NtRp5568
(dp5569
g62
(dp5570
g89
g90
ssg71
g5559
sg64
(lp5571
S':'
asbag57
(g78
g59
NtRp5572
(dp5573
g62
(dp5574
sg71
g5559
sg64
(lp5575
g57
(g58
g59
NtRp5576
(dp5577
g62
(dp5578
g70
I5
ssg71
g5572
sg64
(lp5579
g57
(g66
g59
NtRp5580
(dp5581
g62
(dp5582
g70
I4
ssg71
Nsg64
(lp5583
g57
(g73
g59
NtRp5584
(dp5585
g62
(dp5586
sg71
g5580
sg64
(lp5587
g57
(g78
g59
NtRp5588
(dp5589
g62
(dp5590
sg71
g5584
sg64
(lp5591
g57
(g58
g59
NtRp5592
(dp5593
g62
(dp5594
g70
I4
ssg71
g5588
sg64
(lp5595
g57
(g66
g59
NtRp5596
(dp5597
g62
(dp5598
g70
I3
ssg71
Nsg64
(lp5599
g57
(g73
g59
NtRp5600
(dp5601
g62
(dp5602
sg71
g5596
sg64
(lp5603
g57
(g78
g59
NtRp5604
(dp5605
g62
(dp5606
sg71
g5600
sg64
(lp5607
g57
(g58
g59
NtRp5608
(dp5609
g62
(dp5610
g70
I3
ssg71
g5604
sg64
(lp5611
g3895
(S't\x06\x00\x00\x00SEARCH'
tRp5612
asbasbasbag57
(g73
g59
NtRp5613
(dp5614
g62
(dp5615
sg71
g5596
sg64
(lp5616
g57
(g78
g59
NtRp5617
(dp5618
g62
(dp5619
sg71
g5613
sg64
(lp5620
g57
(g58
g59
NtRp5621
(dp5622
g62
(dp5623
g70
I3
ssg71
g5617
sg64
(lp5624
g100
asbasbasbag57
(g73
g59
NtRp5625
(dp5626
g62
(dp5627
sg71
g5596
sg64
(lp5628
g57
(g78
g59
NtRp5629
(dp5630
g62
(dp5631
sg71
g5625
sg64
(lp5632
g57
(g58
g59
NtRp5633
(dp5634
g62
(dp5635
g70
I3
ssg71
g5629
sg64
(lp5636
S'/sss/default/search'
p5637
asbasbasbag57
(g73
g59
NtRp5638
(dp5639
g62
(dp5640
sg71
g5596
sg64
(lp5641
g57
(g78
g59
NtRp5642
(dp5643
g62
(dp5644
sg71
g5638
sg64
(lp5645
g57
(g58
g59
NtRp5646
(dp5647
g62
(dp5648
g70
I3
ssg71
g5642
sg64
(lp5649
g57
(g66
g59
NtRp5650
(dp5651
g62
(dp5652
g70
I2
ssg71
Nsg64
(lp5653
sbasbasbasbasbasbasbasbasbasbasbasbag57
(g73
g59
NtRp5654
(dp5655
g62
(dp5656
sg71
g3838
sg64
(lp5657
g57
(g78
g59
NtRp5658
(dp5659
g62
(dp5660
g82
g83
ssg71
g5654
sg64
(lp5661
S'session_cookie_expires'
p5662
asbag57
(g78
g59
NtRp5663
(dp5664
g62
(dp5665
g89
g90
ssg71
g5654
sg64
(lp5666
S':'
asbag57
(g78
g59
NtRp5667
(dp5668
g62
(dp5669
sg71
g5654
sg64
(lp5670
g57
(g58
g59
NtRp5671
(dp5672
g62
(dp5673
g70
I5
ssg71
g5667
sg64
(lp5674
S'None'
p5675
asbasbasbag57
(g73
g59
NtRp5676
(dp5677
g62
(dp5678
sg71
g3838
sg64
(lp5679
g57
(g78
g59
NtRp5680
(dp5681
g62
(dp5682
g82
g83
ssg71
g5676
sg64
(lp5683
S'session_data_name'
p5684
asbag57
(g78
g59
NtRp5685
(dp5686
g62
(dp5687
g89
g90
ssg71
g5676
sg64
(lp5688
S':'
asbag57
(g78
g59
NtRp5689
(dp5690
g62
(dp5691
sg71
g5676
sg64
(lp5692
g57
(g58
g59
NtRp5693
(dp5694
g62
(dp5695
g70
I5
ssg71
g5689
sg64
(lp5696
S'session_data_sss'
p5697
asbasbasbag57
(g73
g59
NtRp5698
(dp5699
g62
(dp5700
sg71
g3838
sg64
(lp5701
g57
(g78
g59
NtRp5702
(dp5703
g62
(dp5704
g82
g83
ssg71
g5698
sg64
(lp5705
S'session_file'
p5706
asbag57
(g78
g59
NtRp5707
(dp5708
g62
(dp5709
g89
g90
ssg71
g5698
sg64
(lp5710
S':'
asbag57
(g78
g59
NtRp5711
(dp5712
g62
(dp5713
sg71
g5698
sg64
(lp5714
g57
(g58
g59
NtRp5715
(dp5716
g62
(dp5717
g70
I5
ssg71
g5711
sg64
(lp5718
S"<open file '/home/bhanu/web2py/applications/sss/sessions/127.0.0.1-2bf5f5db-0c4f-4f60-a152-3890f674624a', mode 'rb+' at 0x7fa7f853eb70>"
p5719
asbasbasbag57
(g73
g59
NtRp5720
(dp5721
g62
(dp5722
sg71
g3838
sg64
(lp5723
g57
(g78
g59
NtRp5724
(dp5725
g62
(dp5726
g82
g83
ssg71
g5720
sg64
(lp5727
S'session_filename'
p5728
asbag57
(g78
g59
NtRp5729
(dp5730
g62
(dp5731
g89
g90
ssg71
g5720
sg64
(lp5732
S':'
asbag57
(g78
g59
NtRp5733
(dp5734
g62
(dp5735
sg71
g5720
sg64
(lp5736
g57
(g58
g59
NtRp5737
(dp5738
g62
(dp5739
g70
I5
ssg71
g5733
sg64
(lp5740
S'/home/bhanu/web2py/applications/sss/sessions/127.0.0.1-2bf5f5db-0c4f-4f60-a152-3890f674624a'
p5741
asbasbasbag57
(g73
g59
NtRp5742
(dp5743
g62
(dp5744
sg71
g3838
sg64
(lp5745
g57
(g78
g59
NtRp5746
(dp5747
g62
(dp5748
g82
g83
ssg71
g5742
sg64
(lp5749
S'session_id'
p5750
asbag57
(g78
g59
NtRp5751
(dp5752
g62
(dp5753
g89
g90
ssg71
g5742
sg64
(lp5754
S':'
asbag57
(g78
g59
NtRp5755
(dp5756
g62
(dp5757
sg71
g5742
sg64
(lp5758
g57
(g58
g59
NtRp5759
(dp5760
g62
(dp5761
g70
I5
ssg71
g5755
sg64
(lp5762
g475
asbasbasbag57
(g73
g59
NtRp5763
(dp5764
g62
(dp5765
sg71
g3838
sg64
(lp5766
g57
(g78
g59
NtRp5767
(dp5768
g62
(dp5769
g82
g83
ssg71
g5763
sg64
(lp5770
S'session_id_name'
p5771
asbag57
(g78
g59
NtRp5772
(dp5773
g62
(dp5774
g89
g90
ssg71
g5763
sg64
(lp5775
S':'
asbag57
(g78
g59
NtRp5776
(dp5777
g62
(dp5778
sg71
g5763
sg64
(lp5779
g57
(g58
g59
NtRp5780
(dp5781
g62
(dp5782
g70
I5
ssg71
g5776
sg64
(lp5783
g4459
asbasbasbag57
(g73
g59
NtRp5784
(dp5785
g62
(dp5786
sg71
g3838
sg64
(lp5787
g57
(g78
g59
NtRp5788
(dp5789
g62
(dp5790
g82
g83
ssg71
g5784
sg64
(lp5791
S'session_locked'
p5792
asbag57
(g78
g59
NtRp5793
(dp5794
g62
(dp5795
g89
g90
ssg71
g5784
sg64
(lp5796
S':'
asbag57
(g78
g59
NtRp5797
(dp5798
g62
(dp5799
sg71
g5784
sg64
(lp5800
g57
(g58
g59
NtRp5801
(dp5802
g62
(dp5803
g70
I5
ssg71
g5797
sg64
(lp5804
g2140
asbasbasbag57
(g73
g59
NtRp5805
(dp5806
g62
(dp5807
sg71
g3838
sg64
(lp5808
g57
(g78
g59
NtRp5809
(dp5810
g62
(dp5811
g82
g83
ssg71
g5805
sg64
(lp5812
S'session_new'
p5813
asbag57
(g78
g59
NtRp5814
(dp5815
g62
(dp5816
g89
g90
ssg71
g5805
sg64
(lp5817
S':'
asbag57
(g78
g59
NtRp5818
(dp5819
g62
(dp5820
sg71
g5805
sg64
(lp5821
g57
(g58
g59
NtRp5822
(dp5823
g62
(dp5824
g70
I5
ssg71
g5818
sg64
(lp5825
g100
asbasbasbag57
(g73
g59
NtRp5826
(dp5827
g62
(dp5828
sg71
g3838
sg64
(lp5829
g57
(g78
g59
NtRp5830
(dp5831
g62
(dp5832
g82
g83
ssg71
g5826
sg64
(lp5833
S'session_storage_type'
p5834
asbag57
(g78
g59
NtRp5835
(dp5836
g62
(dp5837
g89
g90
ssg71
g5826
sg64
(lp5838
S':'
asbag57
(g78
g59
NtRp5839
(dp5840
g62
(dp5841
sg71
g5826
sg64
(lp5842
g57
(g58
g59
NtRp5843
(dp5844
g62
(dp5845
g70
I5
ssg71
g5839
sg64
(lp5846
g3571
asbasbasbag57
(g73
g59
NtRp5847
(dp5848
g62
(dp5849
sg71
g3838
sg64
(lp5850
g57
(g78
g59
NtRp5851
(dp5852
g62
(dp5853
g82
g83
ssg71
g5847
sg64
(lp5854
S'staff'
p5855
asbag57
(g78
g59
NtRp5856
(dp5857
g62
(dp5858
g89
g90
ssg71
g5847
sg64
(lp5859
S':'
asbag57
(g78
g59
NtRp5860
(dp5861
g62
(dp5862
sg71
g5847
sg64
(lp5863
g57
(g58
g59
NtRp5864
(dp5865
g62
(dp5866
g70
I5
ssg71
g5860
sg64
(lp5867
g57
(g66
g59
NtRp5868
(dp5869
g62
(dp5870
g70
I4
ssg71
Nsg64
(lp5871
g57
(g73
g59
NtRp5872
(dp5873
g62
(dp5874
sg71
g5868
sg64
(lp5875
g57
(g78
g59
NtRp5876
(dp5877
g62
(dp5878
sg71
g5872
sg64
(lp5879
g57
(g58
g59
NtRp5880
(dp5881
g62
(dp5882
g70
I4
ssg71
g5876
sg64
(lp5883
g57
(g66
g59
NtRp5884
(dp5885
g62
(dp5886
g70
I3
ssg71
Nsg64
(lp5887
g57
(g73
g59
NtRp5888
(dp5889
g62
(dp5890
sg71
g5884
sg64
(lp5891
g57
(g78
g59
NtRp5892
(dp5893
g62
(dp5894
sg71
g5888
sg64
(lp5895
g57
(g58
g59
NtRp5896
(dp5897
g62
(dp5898
g70
I3
ssg71
g5892
sg64
(lp5899
g3896
asbasbasbag57
(g73
g59
NtRp5900
(dp5901
g62
(dp5902
sg71
g5884
sg64
(lp5903
g57
(g78
g59
NtRp5904
(dp5905
g62
(dp5906
sg71
g5900
sg64
(lp5907
g57
(g58
g59
NtRp5908
(dp5909
g62
(dp5910
g70
I3
ssg71
g5904
sg64
(lp5911
g100
asbasbasbag57
(g73
g59
NtRp5912
(dp5913
g62
(dp5914
sg71
g5884
sg64
(lp5915
g57
(g78
g59
NtRp5916
(dp5917
g62
(dp5918
sg71
g5912
sg64
(lp5919
g57
(g58
g59
NtRp5920
(dp5921
g62
(dp5922
g70
I3
ssg71
g5916
sg64
(lp5923
g3921
asbasbasbag57
(g73
g59
NtRp5924
(dp5925
g62
(dp5926
sg71
g5884
sg64
(lp5927
g57
(g78
g59
NtRp5928
(dp5929
g62
(dp5930
sg71
g5924
sg64
(lp5931
g57
(g58
g59
NtRp5932
(dp5933
g62
(dp5934
g70
I3
ssg71
g5928
sg64
(lp5935
g57
(g66
g59
NtRp5936
(dp5937
g62
(dp5938
g70
I2
ssg71
Nsg64
(lp5939
sbasbasbasbasbasbasbasbag57
(g73
g59
NtRp5940
(dp5941
g62
(dp5942
sg71
g5868
sg64
(lp5943
g57
(g78
g59
NtRp5944
(dp5945
g62
(dp5946
sg71
g5940
sg64
(lp5947
g57
(g58
g59
NtRp5948
(dp5949
g62
(dp5950
g70
I4
ssg71
g5944
sg64
(lp5951
g57
(g66
g59
NtRp5952
(dp5953
g62
(dp5954
g70
I3
ssg71
Nsg64
(lp5955
g57
(g73
g59
NtRp5956
(dp5957
g62
(dp5958
sg71
g5952
sg64
(lp5959
g57
(g78
g59
NtRp5960
(dp5961
g62
(dp5962
sg71
g5956
sg64
(lp5963
g57
(g58
g59
NtRp5964
(dp5965
g62
(dp5966
g70
I3
ssg71
g5960
sg64
(lp5967
g3895
(S's\x0f\x00\x00\x00View Complaints'
tRp5968
asbasbasbag57
(g73
g59
NtRp5969
(dp5970
g62
(dp5971
sg71
g5952
sg64
(lp5972
g57
(g78
g59
NtRp5973
(dp5974
g62
(dp5975
sg71
g5969
sg64
(lp5976
g57
(g58
g59
NtRp5977
(dp5978
g62
(dp5979
g70
I3
ssg71
g5973
sg64
(lp5980
g100
asbasbasbag57
(g73
g59
NtRp5981
(dp5982
g62
(dp5983
sg71
g5952
sg64
(lp5984
g57
(g78
g59
NtRp5985
(dp5986
g62
(dp5987
sg71
g5981
sg64
(lp5988
g57
(g58
g59
NtRp5989
(dp5990
g62
(dp5991
g70
I3
ssg71
g5985
sg64
(lp5992
S'/sss/default/staff_vcomplaint'
p5993
asbasbasbag57
(g73
g59
NtRp5994
(dp5995
g62
(dp5996
sg71
g5952
sg64
(lp5997
g57
(g78
g59
NtRp5998
(dp5999
g62
(dp6000
sg71
g5994
sg64
(lp6001
g57
(g58
g59
NtRp6002
(dp6003
g62
(dp6004
g70
I3
ssg71
g5998
sg64
(lp6005
g57
(g66
g59
NtRp6006
(dp6007
g62
(dp6008
g70
I2
ssg71
Nsg64
(lp6009
sbasbasbasbasbasbasbasbag57
(g73
g59
NtRp6010
(dp6011
g62
(dp6012
sg71
g5868
sg64
(lp6013
g57
(g78
g59
NtRp6014
(dp6015
g62
(dp6016
sg71
g6010
sg64
(lp6017
g57
(g58
g59
NtRp6018
(dp6019
g62
(dp6020
g70
I4
ssg71
g6014
sg64
(lp6021
g57
(g66
g59
NtRp6022
(dp6023
g62
(dp6024
g70
I3
ssg71
Nsg64
(lp6025
g57
(g73
g59
NtRp6026
(dp6027
g62
(dp6028
sg71
g6022
sg64
(lp6029
g57
(g78
g59
NtRp6030
(dp6031
g62
(dp6032
sg71
g6026
sg64
(lp6033
g57
(g58
g59
NtRp6034
(dp6035
g62
(dp6036
g70
I3
ssg71
g6030
sg64
(lp6037
g3895
(S's\x10\x00\x00\x00Medical Requests'
tRp6038
asbasbasbag57
(g73
g59
NtRp6039
(dp6040
g62
(dp6041
sg71
g6022
sg64
(lp6042
g57
(g78
g59
NtRp6043
(dp6044
g62
(dp6045
sg71
g6039
sg64
(lp6046
g57
(g58
g59
NtRp6047
(dp6048
g62
(dp6049
g70
I3
ssg71
g6043
sg64
(lp6050
g100
asbasbasbag57
(g73
g59
NtRp6051
(dp6052
g62
(dp6053
sg71
g6022
sg64
(lp6054
g57
(g78
g59
NtRp6055
(dp6056
g62
(dp6057
sg71
g6051
sg64
(lp6058
g57
(g58
g59
NtRp6059
(dp6060
g62
(dp6061
g70
I3
ssg71
g6055
sg64
(lp6062
S'/sss/default/vmedical'
p6063
asbasbasbag57
(g73
g59
NtRp6064
(dp6065
g62
(dp6066
sg71
g6022
sg64
(lp6067
g57
(g78
g59
NtRp6068
(dp6069
g62
(dp6070
sg71
g6064
sg64
(lp6071
g57
(g58
g59
NtRp6072
(dp6073
g62
(dp6074
g70
I3
ssg71
g6068
sg64
(lp6075
g57
(g66
g59
NtRp6076
(dp6077
g62
(dp6078
g70
I2
ssg71
Nsg64
(lp6079
sbasbasbasbasbasbasbasbag57
(g73
g59
NtRp6080
(dp6081
g62
(dp6082
sg71
g5868
sg64
(lp6083
g57
(g78
g59
NtRp6084
(dp6085
g62
(dp6086
sg71
g6080
sg64
(lp6087
g57
(g58
g59
NtRp6088
(dp6089
g62
(dp6090
g70
I4
ssg71
g6084
sg64
(lp6091
g57
(g66
g59
NtRp6092
(dp6093
g62
(dp6094
g70
I3
ssg71
Nsg64
(lp6095
g57
(g73
g59
NtRp6096
(dp6097
g62
(dp6098
sg71
g6092
sg64
(lp6099
g57
(g78
g59
NtRp6100
(dp6101
g62
(dp6102
sg71
g6096
sg64
(lp6103
g57
(g58
g59
NtRp6104
(dp6105
g62
(dp6106
g70
I3
ssg71
g6100
sg64
(lp6107
g4036
asbasbasbag57
(g73
g59
NtRp6108
(dp6109
g62
(dp6110
sg71
g6092
sg64
(lp6111
g57
(g78
g59
NtRp6112
(dp6113
g62
(dp6114
sg71
g6108
sg64
(lp6115
g57
(g58
g59
NtRp6116
(dp6117
g62
(dp6118
g70
I3
ssg71
g6112
sg64
(lp6119
g100
asbasbasbag57
(g73
g59
NtRp6120
(dp6121
g62
(dp6122
sg71
g6092
sg64
(lp6123
g57
(g78
g59
NtRp6124
(dp6125
g62
(dp6126
sg71
g6120
sg64
(lp6127
g57
(g58
g59
NtRp6128
(dp6129
g62
(dp6130
g70
I3
ssg71
g6124
sg64
(lp6131
g4061
asbasbasbag57
(g73
g59
NtRp6132
(dp6133
g62
(dp6134
sg71
g6092
sg64
(lp6135
g57
(g78
g59
NtRp6136
(dp6137
g62
(dp6138
sg71
g6132
sg64
(lp6139
g57
(g58
g59
NtRp6140
(dp6141
g62
(dp6142
g70
I3
ssg71
g6136
sg64
(lp6143
g57
(g66
g59
NtRp6144
(dp6145
g62
(dp6146
g70
I2
ssg71
Nsg64
(lp6147
sbasbasbasbasbasbasbasbag57
(g73
g59
NtRp6148
(dp6149
g62
(dp6150
sg71
g5868
sg64
(lp6151
g57
(g78
g59
NtRp6152
(dp6153
g62
(dp6154
sg71
g6148
sg64
(lp6155
g57
(g58
g59
NtRp6156
(dp6157
g62
(dp6158
g70
I4
ssg71
g6152
sg64
(lp6159
g57
(g66
g59
NtRp6160
(dp6161
g62
(dp6162
g70
I3
ssg71
Nsg64
(lp6163
g57
(g73
g59
NtRp6164
(dp6165
g62
(dp6166
sg71
g6160
sg64
(lp6167
g57
(g78
g59
NtRp6168
(dp6169
g62
(dp6170
sg71
g6164
sg64
(lp6171
g57
(g58
g59
NtRp6172
(dp6173
g62
(dp6174
g70
I3
ssg71
g6168
sg64
(lp6175
g4833
asbasbasbag57
(g73
g59
NtRp6176
(dp6177
g62
(dp6178
sg71
g6160
sg64
(lp6179
g57
(g78
g59
NtRp6180
(dp6181
g62
(dp6182
sg71
g6176
sg64
(lp6183
g57
(g58
g59
NtRp6184
(dp6185
g62
(dp6186
g70
I3
ssg71
g6180
sg64
(lp6187
g100
asbasbasbag57
(g73
g59
NtRp6188
(dp6189
g62
(dp6190
sg71
g6160
sg64
(lp6191
g57
(g78
g59
NtRp6192
(dp6193
g62
(dp6194
sg71
g6188
sg64
(lp6195
g57
(g58
g59
NtRp6196
(dp6197
g62
(dp6198
g70
I3
ssg71
g6192
sg64
(lp6199
g4858
asbasbasbag57
(g73
g59
NtRp6200
(dp6201
g62
(dp6202
sg71
g6160
sg64
(lp6203
g57
(g78
g59
NtRp6204
(dp6205
g62
(dp6206
sg71
g6200
sg64
(lp6207
g57
(g58
g59
NtRp6208
(dp6209
g62
(dp6210
g70
I3
ssg71
g6204
sg64
(lp6211
g57
(g66
g59
NtRp6212
(dp6213
g62
(dp6214
g70
I2
ssg71
Nsg64
(lp6215
sbasbasbasbasbasbasbasbag57
(g73
g59
NtRp6216
(dp6217
g62
(dp6218
sg71
g5868
sg64
(lp6219
g57
(g78
g59
NtRp6220
(dp6221
g62
(dp6222
sg71
g6216
sg64
(lp6223
g57
(g58
g59
NtRp6224
(dp6225
g62
(dp6226
g70
I4
ssg71
g6220
sg64
(lp6227
g57
(g66
g59
NtRp6228
(dp6229
g62
(dp6230
g70
I3
ssg71
Nsg64
(lp6231
g57
(g73
g59
NtRp6232
(dp6233
g62
(dp6234
sg71
g6228
sg64
(lp6235
g57
(g78
g59
NtRp6236
(dp6237
g62
(dp6238
sg71
g6232
sg64
(lp6239
g57
(g58
g59
NtRp6240
(dp6241
g62
(dp6242
g70
I3
ssg71
g6236
sg64
(lp6243
g3895
(S's\x0e\x00\x00\x00Outing Details'
tRp6244
asbasbasbag57
(g73
g59
NtRp6245
(dp6246
g62
(dp6247
sg71
g6228
sg64
(lp6248
g57
(g78
g59
NtRp6249
(dp6250
g62
(dp6251
sg71
g6245
sg64
(lp6252
g57
(g58
g59
NtRp6253
(dp6254
g62
(dp6255
g70
I3
ssg71
g6249
sg64
(lp6256
g100
asbasbasbag57
(g73
g59
NtRp6257
(dp6258
g62
(dp6259
sg71
g6228
sg64
(lp6260
g57
(g78
g59
NtRp6261
(dp6262
g62
(dp6263
sg71
g6257
sg64
(lp6264
g57
(g58
g59
NtRp6265
(dp6266
g62
(dp6267
g70
I3
ssg71
g6261
sg64
(lp6268
S'/sss/default/student_out_details'
p6269
asbasbasbag57
(g73
g59
NtRp6270
(dp6271
g62
(dp6272
sg71
g6228
sg64
(lp6273
g57
(g78
g59
NtRp6274
(dp6275
g62
(dp6276
sg71
g6270
sg64
(lp6277
g57
(g58
g59
NtRp6278
(dp6279
g62
(dp6280
g70
I3
ssg71
g6274
sg64
(lp6281
g57
(g66
g59
NtRp6282
(dp6283
g62
(dp6284
g70
I2
ssg71
Nsg64
(lp6285
sbasbasbasbasbasbasbasbasbasbasbasbag57
(g73
g59
NtRp6286
(dp6287
g62
(dp6288
sg71
g3838
sg64
(lp6289
g57
(g78
g59
NtRp6290
(dp6291
g62
(dp6292
g82
g83
ssg71
g6286
sg64
(lp6293
S'staff_vcomplaint'
p6294
asbag57
(g78
g59
NtRp6295
(dp6296
g62
(dp6297
g89
g90
ssg71
g6286
sg64
(lp6298
S':'
asbag57
(g78
g59
NtRp6299
(dp6300
g62
(dp6301
sg71
g6286
sg64
(lp6302
g57
(g58
g59
NtRp6303
(dp6304
g62
(dp6305
g70
I5
ssg71
g6299
sg64
(lp6306
g57
(g66
g59
NtRp6307
(dp6308
g62
(dp6309
g70
I4
ssg71
Nsg64
(lp6310
g57
(g73
g59
NtRp6311
(dp6312
g62
(dp6313
sg71
g6307
sg64
(lp6314
g57
(g78
g59
NtRp6315
(dp6316
g62
(dp6317
sg71
g6311
sg64
(lp6318
g57
(g58
g59
NtRp6319
(dp6320
g62
(dp6321
g70
I4
ssg71
g6315
sg64
(lp6322
g57
(g66
g59
NtRp6323
(dp6324
g62
(dp6325
g70
I3
ssg71
Nsg64
(lp6326
g57
(g73
g59
NtRp6327
(dp6328
g62
(dp6329
sg71
g6323
sg64
(lp6330
g57
(g78
g59
NtRp6331
(dp6332
g62
(dp6333
sg71
g6327
sg64
(lp6334
g57
(g58
g59
NtRp6335
(dp6336
g62
(dp6337
g70
I3
ssg71
g6331
sg64
(lp6338
g5968
asbasbasbag57
(g73
g59
NtRp6339
(dp6340
g62
(dp6341
sg71
g6323
sg64
(lp6342
g57
(g78
g59
NtRp6343
(dp6344
g62
(dp6345
sg71
g6339
sg64
(lp6346
g57
(g58
g59
NtRp6347
(dp6348
g62
(dp6349
g70
I3
ssg71
g6343
sg64
(lp6350
g100
asbasbasbag57
(g73
g59
NtRp6351
(dp6352
g62
(dp6353
sg71
g6323
sg64
(lp6354
g57
(g78
g59
NtRp6355
(dp6356
g62
(dp6357
sg71
g6351
sg64
(lp6358
g57
(g58
g59
NtRp6359
(dp6360
g62
(dp6361
g70
I3
ssg71
g6355
sg64
(lp6362
g5993
asbasbasbag57
(g73
g59
NtRp6363
(dp6364
g62
(dp6365
sg71
g6323
sg64
(lp6366
g57
(g78
g59
NtRp6367
(dp6368
g62
(dp6369
sg71
g6363
sg64
(lp6370
g57
(g58
g59
NtRp6371
(dp6372
g62
(dp6373
g70
I3
ssg71
g6367
sg64
(lp6374
g57
(g66
g59
NtRp6375
(dp6376
g62
(dp6377
g70
I2
ssg71
Nsg64
(lp6378
sbasbasbasbasbasbasbasbasbasbasbasbag57
(g73
g59
NtRp6379
(dp6380
g62
(dp6381
sg71
g3838
sg64
(lp6382
g57
(g78
g59
NtRp6383
(dp6384
g62
(dp6385
g82
g83
ssg71
g6379
sg64
(lp6386
S'status'
p6387
asbag57
(g78
g59
NtRp6388
(dp6389
g62
(dp6390
g89
g90
ssg71
g6379
sg64
(lp6391
S':'
asbag57
(g78
g59
NtRp6392
(dp6393
g62
(dp6394
sg71
g6379
sg64
(lp6395
g57
(g58
g59
NtRp6396
(dp6397
g62
(dp6398
g70
I5
ssg71
g6392
sg64
(lp6399
S'200'
p6400
asbasbasbag57
(g73
g59
NtRp6401
(dp6402
g62
(dp6403
sg71
g3838
sg64
(lp6404
g57
(g78
g59
NtRp6405
(dp6406
g62
(dp6407
g82
g83
ssg71
g6401
sg64
(lp6408
S'student'
p6409
asbag57
(g78
g59
NtRp6410
(dp6411
g62
(dp6412
g89
g90
ssg71
g6401
sg64
(lp6413
S':'
asbag57
(g78
g59
NtRp6414
(dp6415
g62
(dp6416
sg71
g6401
sg64
(lp6417
g57
(g58
g59
NtRp6418
(dp6419
g62
(dp6420
g70
I5
ssg71
g6414
sg64
(lp6421
g57
(g66
g59
NtRp6422
(dp6423
g62
(dp6424
g70
I4
ssg71
Nsg64
(lp6425
g57
(g73
g59
NtRp6426
(dp6427
g62
(dp6428
sg71
g6422
sg64
(lp6429
g57
(g78
g59
NtRp6430
(dp6431
g62
(dp6432
sg71
g6426
sg64
(lp6433
g57
(g58
g59
NtRp6434
(dp6435
g62
(dp6436
g70
I4
ssg71
g6430
sg64
(lp6437
g57
(g66
g59
NtRp6438
(dp6439
g62
(dp6440
g70
I3
ssg71
Nsg64
(lp6441
g57
(g73
g59
NtRp6442
(dp6443
g62
(dp6444
sg71
g6438
sg64
(lp6445
g57
(g78
g59
NtRp6446
(dp6447
g62
(dp6448
sg71
g6442
sg64
(lp6449
g57
(g58
g59
NtRp6450
(dp6451
g62
(dp6452
g70
I3
ssg71
g6446
sg64
(lp6453
g3896
asbasbasbag57
(g73
g59
NtRp6454
(dp6455
g62
(dp6456
sg71
g6438
sg64
(lp6457
g57
(g78
g59
NtRp6458
(dp6459
g62
(dp6460
sg71
g6454
sg64
(lp6461
g57
(g58
g59
NtRp6462
(dp6463
g62
(dp6464
g70
I3
ssg71
g6458
sg64
(lp6465
g100
asbasbasbag57
(g73
g59
NtRp6466
(dp6467
g62
(dp6468
sg71
g6438
sg64
(lp6469
g57
(g78
g59
NtRp6470
(dp6471
g62
(dp6472
sg71
g6466
sg64
(lp6473
g57
(g58
g59
NtRp6474
(dp6475
g62
(dp6476
g70
I3
ssg71
g6470
sg64
(lp6477
g3921
asbasbasbag57
(g73
g59
NtRp6478
(dp6479
g62
(dp6480
sg71
g6438
sg64
(lp6481
g57
(g78
g59
NtRp6482
(dp6483
g62
(dp6484
sg71
g6478
sg64
(lp6485
g57
(g58
g59
NtRp6486
(dp6487
g62
(dp6488
g70
I3
ssg71
g6482
sg64
(lp6489
g57
(g66
g59
NtRp6490
(dp6491
g62
(dp6492
g70
I2
ssg71
Nsg64
(lp6493
sbasbasbasbasbasbasbasbag57
(g73
g59
NtRp6494
(dp6495
g62
(dp6496
sg71
g6422
sg64
(lp6497
g57
(g78
g59
NtRp6498
(dp6499
g62
(dp6500
sg71
g6494
sg64
(lp6501
g57
(g58
g59
NtRp6502
(dp6503
g62
(dp6504
g70
I4
ssg71
g6498
sg64
(lp6505
g57
(g66
g59
NtRp6506
(dp6507
g62
(dp6508
g70
I3
ssg71
Nsg64
(lp6509
g57
(g73
g59
NtRp6510
(dp6511
g62
(dp6512
sg71
g6506
sg64
(lp6513
g57
(g78
g59
NtRp6514
(dp6515
g62
(dp6516
sg71
g6510
sg64
(lp6517
g57
(g58
g59
NtRp6518
(dp6519
g62
(dp6520
g70
I3
ssg71
g6514
sg64
(lp6521
g4385
asbasbasbag57
(g73
g59
NtRp6522
(dp6523
g62
(dp6524
sg71
g6506
sg64
(lp6525
g57
(g78
g59
NtRp6526
(dp6527
g62
(dp6528
sg71
g6522
sg64
(lp6529
g57
(g58
g59
NtRp6530
(dp6531
g62
(dp6532
g70
I3
ssg71
g6526
sg64
(lp6533
g100
asbasbasbag57
(g73
g59
NtRp6534
(dp6535
g62
(dp6536
sg71
g6506
sg64
(lp6537
g57
(g78
g59
NtRp6538
(dp6539
g62
(dp6540
sg71
g6534
sg64
(lp6541
g57
(g58
g59
NtRp6542
(dp6543
g62
(dp6544
g70
I3
ssg71
g6538
sg64
(lp6545
g4410
asbasbasbag57
(g73
g59
NtRp6546
(dp6547
g62
(dp6548
sg71
g6506
sg64
(lp6549
g57
(g78
g59
NtRp6550
(dp6551
g62
(dp6552
sg71
g6546
sg64
(lp6553
g57
(g58
g59
NtRp6554
(dp6555
g62
(dp6556
g70
I3
ssg71
g6550
sg64
(lp6557
g57
(g66
g59
NtRp6558
(dp6559
g62
(dp6560
g70
I2
ssg71
Nsg64
(lp6561
sbasbasbasbasbasbasbasbag57
(g73
g59
NtRp6562
(dp6563
g62
(dp6564
sg71
g6422
sg64
(lp6565
g57
(g78
g59
NtRp6566
(dp6567
g62
(dp6568
sg71
g6562
sg64
(lp6569
g57
(g58
g59
NtRp6570
(dp6571
g62
(dp6572
g70
I4
ssg71
g6566
sg64
(lp6573
g57
(g66
g59
NtRp6574
(dp6575
g62
(dp6576
g70
I3
ssg71
Nsg64
(lp6577
g57
(g73
g59
NtRp6578
(dp6579
g62
(dp6580
sg71
g6574
sg64
(lp6581
g57
(g78
g59
NtRp6582
(dp6583
g62
(dp6584
sg71
g6578
sg64
(lp6585
g57
(g58
g59
NtRp6586
(dp6587
g62
(dp6588
g70
I3
ssg71
g6582
sg64
(lp6589
g3895
(S's\x0c\x00\x00\x00Room Vacancy'
tRp6590
asbasbasbag57
(g73
g59
NtRp6591
(dp6592
g62
(dp6593
sg71
g6574
sg64
(lp6594
g57
(g78
g59
NtRp6595
(dp6596
g62
(dp6597
sg71
g6591
sg64
(lp6598
g57
(g58
g59
NtRp6599
(dp6600
g62
(dp6601
g70
I3
ssg71
g6595
sg64
(lp6602
g100
asbasbasbag57
(g73
g59
NtRp6603
(dp6604
g62
(dp6605
sg71
g6574
sg64
(lp6606
g57
(g78
g59
NtRp6607
(dp6608
g62
(dp6609
sg71
g6603
sg64
(lp6610
g57
(g58
g59
NtRp6611
(dp6612
g62
(dp6613
g70
I3
ssg71
g6607
sg64
(lp6614
S'/sss/default/view_vacant_rooms'
p6615
asbasbasbag57
(g73
g59
NtRp6616
(dp6617
g62
(dp6618
sg71
g6574
sg64
(lp6619
g57
(g78
g59
NtRp6620
(dp6621
g62
(dp6622
sg71
g6616
sg64
(lp6623
g57
(g58
g59
NtRp6624
(dp6625
g62
(dp6626
g70
I3
ssg71
g6620
sg64
(lp6627
g57
(g66
g59
NtRp6628
(dp6629
g62
(dp6630
g70
I2
ssg71
Nsg64
(lp6631
sbasbasbasbasbasbasbasbag57
(g73
g59
NtRp6632
(dp6633
g62
(dp6634
sg71
g6422
sg64
(lp6635
g57
(g78
g59
NtRp6636
(dp6637
g62
(dp6638
sg71
g6632
sg64
(lp6639
g57
(g58
g59
NtRp6640
(dp6641
g62
(dp6642
g70
I4
ssg71
g6636
sg64
(lp6643
g57
(g66
g59
NtRp6644
(dp6645
g62
(dp6646
g70
I3
ssg71
Nsg64
(lp6647
g57
(g73
g59
NtRp6648
(dp6649
g62
(dp6650
sg71
g6644
sg64
(lp6651
g57
(g78
g59
NtRp6652
(dp6653
g62
(dp6654
sg71
g6648
sg64
(lp6655
g57
(g58
g59
NtRp6656
(dp6657
g62
(dp6658
g70
I3
ssg71
g6652
sg64
(lp6659
g5153
asbasbasbag57
(g73
g59
NtRp6660
(dp6661
g62
(dp6662
sg71
g6644
sg64
(lp6663
g57
(g78
g59
NtRp6664
(dp6665
g62
(dp6666
sg71
g6660
sg64
(lp6667
g57
(g58
g59
NtRp6668
(dp6669
g62
(dp6670
g70
I3
ssg71
g6664
sg64
(lp6671
g100
asbasbasbag57
(g73
g59
NtRp6672
(dp6673
g62
(dp6674
sg71
g6644
sg64
(lp6675
g57
(g78
g59
NtRp6676
(dp6677
g62
(dp6678
sg71
g6672
sg64
(lp6679
g57
(g58
g59
NtRp6680
(dp6681
g62
(dp6682
g70
I3
ssg71
g6676
sg64
(lp6683
g5178
asbasbasbag57
(g73
g59
NtRp6684
(dp6685
g62
(dp6686
sg71
g6644
sg64
(lp6687
g57
(g78
g59
NtRp6688
(dp6689
g62
(dp6690
sg71
g6684
sg64
(lp6691
g57
(g58
g59
NtRp6692
(dp6693
g62
(dp6694
g70
I3
ssg71
g6688
sg64
(lp6695
g57
(g66
g59
NtRp6696
(dp6697
g62
(dp6698
g70
I2
ssg71
Nsg64
(lp6699
sbasbasbasbasbasbasbasbag57
(g73
g59
NtRp6700
(dp6701
g62
(dp6702
sg71
g6422
sg64
(lp6703
g57
(g78
g59
NtRp6704
(dp6705
g62
(dp6706
sg71
g6700
sg64
(lp6707
g57
(g58
g59
NtRp6708
(dp6709
g62
(dp6710
g70
I4
ssg71
g6704
sg64
(lp6711
g57
(g66
g59
NtRp6712
(dp6713
g62
(dp6714
g70
I3
ssg71
Nsg64
(lp6715
g57
(g73
g59
NtRp6716
(dp6717
g62
(dp6718
sg71
g6712
sg64
(lp6719
g57
(g78
g59
NtRp6720
(dp6721
g62
(dp6722
sg71
g6716
sg64
(lp6723
g57
(g58
g59
NtRp6724
(dp6725
g62
(dp6726
g70
I3
ssg71
g6720
sg64
(lp6727
g3895
(S't\x05\x00\x00\x00Rules'
tRp6728
asbasbasbag57
(g73
g59
NtRp6729
(dp6730
g62
(dp6731
sg71
g6712
sg64
(lp6732
g57
(g78
g59
NtRp6733
(dp6734
g62
(dp6735
sg71
g6729
sg64
(lp6736
g57
(g58
g59
NtRp6737
(dp6738
g62
(dp6739
g70
I3
ssg71
g6733
sg64
(lp6740
g100
asbasbasbag57
(g73
g59
NtRp6741
(dp6742
g62
(dp6743
sg71
g6712
sg64
(lp6744
g57
(g78
g59
NtRp6745
(dp6746
g62
(dp6747
sg71
g6741
sg64
(lp6748
g57
(g58
g59
NtRp6749
(dp6750
g62
(dp6751
g70
I3
ssg71
g6745
sg64
(lp6752
S'/sss/default/studentrules'
p6753
asbasbasbag57
(g73
g59
NtRp6754
(dp6755
g62
(dp6756
sg71
g6712
sg64
(lp6757
g57
(g78
g59
NtRp6758
(dp6759
g62
(dp6760
sg71
g6754
sg64
(lp6761
g57
(g58
g59
NtRp6762
(dp6763
g62
(dp6764
g70
I3
ssg71
g6758
sg64
(lp6765
g57
(g66
g59
NtRp6766
(dp6767
g62
(dp6768
g70
I2
ssg71
Nsg64
(lp6769
sbasbasbasbasbasbasbasbasbasbasbasbag57
(g73
g59
NtRp6770
(dp6771
g62
(dp6772
sg71
g3838
sg64
(lp6773
g57
(g78
g59
NtRp6774
(dp6775
g62
(dp6776
g82
g83
ssg71
g6770
sg64
(lp6777
S'student_out_details'
p6778
asbag57
(g78
g59
NtRp6779
(dp6780
g62
(dp6781
g89
g90
ssg71
g6770
sg64
(lp6782
S':'
asbag57
(g78
g59
NtRp6783
(dp6784
g62
(dp6785
sg71
g6770
sg64
(lp6786
g57
(g58
g59
NtRp6787
(dp6788
g62
(dp6789
g70
I5
ssg71
g6783
sg64
(lp6790
g57
(g66
g59
NtRp6791
(dp6792
g62
(dp6793
g70
I4
ssg71
Nsg64
(lp6794
g57
(g73
g59
NtRp6795
(dp6796
g62
(dp6797
sg71
g6791
sg64
(lp6798
g57
(g78
g59
NtRp6799
(dp6800
g62
(dp6801
sg71
g6795
sg64
(lp6802
g57
(g58
g59
NtRp6803
(dp6804
g62
(dp6805
g70
I4
ssg71
g6799
sg64
(lp6806
g57
(g66
g59
NtRp6807
(dp6808
g62
(dp6809
g70
I3
ssg71
Nsg64
(lp6810
g57
(g73
g59
NtRp6811
(dp6812
g62
(dp6813
sg71
g6807
sg64
(lp6814
g57
(g78
g59
NtRp6815
(dp6816
g62
(dp6817
sg71
g6811
sg64
(lp6818
g57
(g58
g59
NtRp6819
(dp6820
g62
(dp6821
g70
I3
ssg71
g6815
sg64
(lp6822
g6244
asbasbasbag57
(g73
g59
NtRp6823
(dp6824
g62
(dp6825
sg71
g6807
sg64
(lp6826
g57
(g78
g59
NtRp6827
(dp6828
g62
(dp6829
sg71
g6823
sg64
(lp6830
g57
(g58
g59
NtRp6831
(dp6832
g62
(dp6833
g70
I3
ssg71
g6827
sg64
(lp6834
g100
asbasbasbag57
(g73
g59
NtRp6835
(dp6836
g62
(dp6837
sg71
g6807
sg64
(lp6838
g57
(g78
g59
NtRp6839
(dp6840
g62
(dp6841
sg71
g6835
sg64
(lp6842
g57
(g58
g59
NtRp6843
(dp6844
g62
(dp6845
g70
I3
ssg71
g6839
sg64
(lp6846
g6269
asbasbasbag57
(g73
g59
NtRp6847
(dp6848
g62
(dp6849
sg71
g6807
sg64
(lp6850
g57
(g78
g59
NtRp6851
(dp6852
g62
(dp6853
sg71
g6847
sg64
(lp6854
g57
(g58
g59
NtRp6855
(dp6856
g62
(dp6857
g70
I3
ssg71
g6851
sg64
(lp6858
g57
(g66
g59
NtRp6859
(dp6860
g62
(dp6861
g70
I2
ssg71
Nsg64
(lp6862
sbasbasbasbasbasbasbasbasbasbasbasbag57
(g73
g59
NtRp6863
(dp6864
g62
(dp6865
sg71
g3838
sg64
(lp6866
g57
(g78
g59
NtRp6867
(dp6868
g62
(dp6869
g82
g83
ssg71
g6863
sg64
(lp6870
S'studentrules'
p6871
asbag57
(g78
g59
NtRp6872
(dp6873
g62
(dp6874
g89
g90
ssg71
g6863
sg64
(lp6875
S':'
asbag57
(g78
g59
NtRp6876
(dp6877
g62
(dp6878
sg71
g6863
sg64
(lp6879
g57
(g58
g59
NtRp6880
(dp6881
g62
(dp6882
g70
I5
ssg71
g6876
sg64
(lp6883
g57
(g66
g59
NtRp6884
(dp6885
g62
(dp6886
g70
I4
ssg71
Nsg64
(lp6887
g57
(g73
g59
NtRp6888
(dp6889
g62
(dp6890
sg71
g6884
sg64
(lp6891
g57
(g78
g59
NtRp6892
(dp6893
g62
(dp6894
sg71
g6888
sg64
(lp6895
g57
(g58
g59
NtRp6896
(dp6897
g62
(dp6898
g70
I4
ssg71
g6892
sg64
(lp6899
g57
(g66
g59
NtRp6900
(dp6901
g62
(dp6902
g70
I3
ssg71
Nsg64
(lp6903
g57
(g73
g59
NtRp6904
(dp6905
g62
(dp6906
sg71
g6900
sg64
(lp6907
g57
(g78
g59
NtRp6908
(dp6909
g62
(dp6910
sg71
g6904
sg64
(lp6911
g57
(g58
g59
NtRp6912
(dp6913
g62
(dp6914
g70
I3
ssg71
g6908
sg64
(lp6915
g6728
asbasbasbag57
(g73
g59
NtRp6916
(dp6917
g62
(dp6918
sg71
g6900
sg64
(lp6919
g57
(g78
g59
NtRp6920
(dp6921
g62
(dp6922
sg71
g6916
sg64
(lp6923
g57
(g58
g59
NtRp6924
(dp6925
g62
(dp6926
g70
I3
ssg71
g6920
sg64
(lp6927
g100
asbasbasbag57
(g73
g59
NtRp6928
(dp6929
g62
(dp6930
sg71
g6900
sg64
(lp6931
g57
(g78
g59
NtRp6932
(dp6933
g62
(dp6934
sg71
g6928
sg64
(lp6935
g57
(g58
g59
NtRp6936
(dp6937
g62
(dp6938
g70
I3
ssg71
g6932
sg64
(lp6939
g6753
asbasbasbag57
(g73
g59
NtRp6940
(dp6941
g62
(dp6942
sg71
g6900
sg64
(lp6943
g57
(g78
g59
NtRp6944
(dp6945
g62
(dp6946
sg71
g6940
sg64
(lp6947
g57
(g58
g59
NtRp6948
(dp6949
g62
(dp6950
g70
I3
ssg71
g6944
sg64
(lp6951
g57
(g66
g59
NtRp6952
(dp6953
g62
(dp6954
g70
I2
ssg71
Nsg64
(lp6955
sbasbasbasbasbasbasbasbasbasbasbasbag57
(g73
g59
NtRp6956
(dp6957
g62
(dp6958
sg71
g3838
sg64
(lp6959
g57
(g78
g59
NtRp6960
(dp6961
g62
(dp6962
g82
g83
ssg71
g6956
sg64
(lp6963
S'subtitle'
p6964
asbag57
(g78
g59
NtRp6965
(dp6966
g62
(dp6967
g89
g90
ssg71
g6956
sg64
(lp6968
S':'
asbag57
(g78
g59
NtRp6969
(dp6970
g62
(dp6971
sg71
g6956
sg64
(lp6972
g57
(g58
g59
NtRp6973
(dp6974
g62
(dp6975
g70
I5
ssg71
g6969
sg64
(lp6976
S'powered by web2py'
p6977
asbasbasbag57
(g73
g59
NtRp6978
(dp6979
g62
(dp6980
sg71
g3838
sg64
(lp6981
g57
(g78
g59
NtRp6982
(dp6983
g62
(dp6984
g82
g83
ssg71
g6978
sg64
(lp6985
S'title'
p6986
asbag57
(g78
g59
NtRp6987
(dp6988
g62
(dp6989
g89
g90
ssg71
g6978
sg64
(lp6990
S':'
asbag57
(g78
g59
NtRp6991
(dp6992
g62
(dp6993
sg71
g6978
sg64
(lp6994
g57
(g58
g59
NtRp6995
(dp6996
g62
(dp6997
g70
I5
ssg71
g6991
sg64
(lp6998
S'IIIT-H Hostel Management Portal'
p6999
asbasbasbag57
(g73
g59
NtRp7000
(dp7001
g62
(dp7002
sg71
g3838
sg64
(lp7003
g57
(g78
g59
NtRp7004
(dp7005
g62
(dp7006
g82
g83
ssg71
g7000
sg64
(lp7007
S'vcomplaint'
p7008
asbag57
(g78
g59
NtRp7009
(dp7010
g62
(dp7011
g89
g90
ssg71
g7000
sg64
(lp7012
S':'
asbag57
(g78
g59
NtRp7013
(dp7014
g62
(dp7015
sg71
g7000
sg64
(lp7016
g57
(g58
g59
NtRp7017
(dp7018
g62
(dp7019
g70
I5
ssg71
g7013
sg64
(lp7020
g57
(g66
g59
NtRp7021
(dp7022
g62
(dp7023
g70
I4
ssg71
Nsg64
(lp7024
g57
(g73
g59
NtRp7025
(dp7026
g62
(dp7027
sg71
g7021
sg64
(lp7028
g57
(g78
g59
NtRp7029
(dp7030
g62
(dp7031
sg71
g7025
sg64
(lp7032
g57
(g58
g59
NtRp7033
(dp7034
g62
(dp7035
g70
I4
ssg71
g7029
sg64
(lp7036
g57
(g66
g59
NtRp7037
(dp7038
g62
(dp7039
g70
I3
ssg71
Nsg64
(lp7040
g57
(g73
g59
NtRp7041
(dp7042
g62
(dp7043
sg71
g7037
sg64
(lp7044
g57
(g78
g59
NtRp7045
(dp7046
g62
(dp7047
sg71
g7041
sg64
(lp7048
g57
(g58
g59
NtRp7049
(dp7050
g62
(dp7051
g70
I3
ssg71
g7045
sg64
(lp7052
g3966
asbasbasbag57
(g73
g59
NtRp7053
(dp7054
g62
(dp7055
sg71
g7037
sg64
(lp7056
g57
(g78
g59
NtRp7057
(dp7058
g62
(dp7059
sg71
g7053
sg64
(lp7060
g57
(g58
g59
NtRp7061
(dp7062
g62
(dp7063
g70
I3
ssg71
g7057
sg64
(lp7064
g100
asbasbasbag57
(g73
g59
NtRp7065
(dp7066
g62
(dp7067
sg71
g7037
sg64
(lp7068
g57
(g78
g59
NtRp7069
(dp7070
g62
(dp7071
sg71
g7065
sg64
(lp7072
g57
(g58
g59
NtRp7073
(dp7074
g62
(dp7075
g70
I3
ssg71
g7069
sg64
(lp7076
g3991
asbasbasbag57
(g73
g59
NtRp7077
(dp7078
g62
(dp7079
sg71
g7037
sg64
(lp7080
g57
(g78
g59
NtRp7081
(dp7082
g62
(dp7083
sg71
g7077
sg64
(lp7084
g57
(g58
g59
NtRp7085
(dp7086
g62
(dp7087
g70
I3
ssg71
g7081
sg64
(lp7088
g57
(g66
g59
NtRp7089
(dp7090
g62
(dp7091
g70
I2
ssg71
Nsg64
(lp7092
sbasbasbasbasbasbasbasbasbasbasbasbag57
(g73
g59
NtRp7093
(dp7094
g62
(dp7095
sg71
g3838
sg64
(lp7096
g57
(g78
g59
NtRp7097
(dp7098
g62
(dp7099
g82
g83
ssg71
g7093
sg64
(lp7100
S'view'
p7101
asbag57
(g78
g59
NtRp7102
(dp7103
g62
(dp7104
g89
g90
ssg71
g7093
sg64
(lp7105
S':'
asbag57
(g78
g59
NtRp7106
(dp7107
g62
(dp7108
sg71
g7093
sg64
(lp7109
g57
(g58
g59
NtRp7110
(dp7111
g62
(dp7112
g70
I5
ssg71
g7106
sg64
(lp7113
S'default/editprofile.html'
p7114
asbasbasbag57
(g73
g59
NtRp7115
(dp7116
g62
(dp7117
sg71
g3838
sg64
(lp7118
g57
(g78
g59
NtRp7119
(dp7120
g62
(dp7121
g82
g83
ssg71
g7115
sg64
(lp7122
S'view_rooms'
p7123
asbag57
(g78
g59
NtRp7124
(dp7125
g62
(dp7126
g89
g90
ssg71
g7115
sg64
(lp7127
S':'
asbag57
(g78
g59
NtRp7128
(dp7129
g62
(dp7130
sg71
g7115
sg64
(lp7131
g57
(g58
g59
NtRp7132
(dp7133
g62
(dp7134
g70
I5
ssg71
g7128
sg64
(lp7135
g57
(g66
g59
NtRp7136
(dp7137
g62
(dp7138
g70
I4
ssg71
Nsg64
(lp7139
g57
(g73
g59
NtRp7140
(dp7141
g62
(dp7142
sg71
g7136
sg64
(lp7143
g57
(g78
g59
NtRp7144
(dp7145
g62
(dp7146
sg71
g7140
sg64
(lp7147
g57
(g58
g59
NtRp7148
(dp7149
g62
(dp7150
g70
I4
ssg71
g7144
sg64
(lp7151
g57
(g66
g59
NtRp7152
(dp7153
g62
(dp7154
g70
I3
ssg71
Nsg64
(lp7155
g57
(g73
g59
NtRp7156
(dp7157
g62
(dp7158
sg71
g7152
sg64
(lp7159
g57
(g78
g59
NtRp7160
(dp7161
g62
(dp7162
sg71
g7156
sg64
(lp7163
g57
(g58
g59
NtRp7164
(dp7165
g62
(dp7166
g70
I3
ssg71
g7160
sg64
(lp7167
g6590
asbasbasbag57
(g73
g59
NtRp7168
(dp7169
g62
(dp7170
sg71
g7152
sg64
(lp7171
g57
(g78
g59
NtRp7172
(dp7173
g62
(dp7174
sg71
g7168
sg64
(lp7175
g57
(g58
g59
NtRp7176
(dp7177
g62
(dp7178
g70
I3
ssg71
g7172
sg64
(lp7179
g100
asbasbasbag57
(g73
g59
NtRp7180
(dp7181
g62
(dp7182
sg71
g7152
sg64
(lp7183
g57
(g78
g59
NtRp7184
(dp7185
g62
(dp7186
sg71
g7180
sg64
(lp7187
g57
(g58
g59
NtRp7188
(dp7189
g62
(dp7190
g70
I3
ssg71
g7184
sg64
(lp7191
g6615
asbasbasbag57
(g73
g59
NtRp7192
(dp7193
g62
(dp7194
sg71
g7152
sg64
(lp7195
g57
(g78
g59
NtRp7196
(dp7197
g62
(dp7198
sg71
g7192
sg64
(lp7199
g57
(g58
g59
NtRp7200
(dp7201
g62
(dp7202
g70
I3
ssg71
g7196
sg64
(lp7203
g57
(g66
g59
NtRp7204
(dp7205
g62
(dp7206
g70
I2
ssg71
Nsg64
(lp7207
sbasbasbasbasbasbasbasbasbasbasbasbag57
(g73
g59
NtRp7208
(dp7209
g62
(dp7210
sg71
g3838
sg64
(lp7211
g57
(g78
g59
NtRp7212
(dp7213
g62
(dp7214
g82
g83
ssg71
g7208
sg64
(lp7215
S'vmedical'
p7216
asbag57
(g78
g59
NtRp7217
(dp7218
g62
(dp7219
g89
g90
ssg71
g7208
sg64
(lp7220
S':'
asbag57
(g78
g59
NtRp7221
(dp7222
g62
(dp7223
sg71
g7208
sg64
(lp7224
g57
(g58
g59
NtRp7225
(dp7226
g62
(dp7227
g70
I5
ssg71
g7221
sg64
(lp7228
g57
(g66
g59
NtRp7229
(dp7230
g62
(dp7231
g70
I4
ssg71
Nsg64
(lp7232
g57
(g73
g59
NtRp7233
(dp7234
g62
(dp7235
sg71
g7229
sg64
(lp7236
g57
(g78
g59
NtRp7237
(dp7238
g62
(dp7239
sg71
g7233
sg64
(lp7240
g57
(g58
g59
NtRp7241
(dp7242
g62
(dp7243
g70
I4
ssg71
g7237
sg64
(lp7244
g57
(g66
g59
NtRp7245
(dp7246
g62
(dp7247
g70
I3
ssg71
Nsg64
(lp7248
g57
(g73
g59
NtRp7249
(dp7250
g62
(dp7251
sg71
g7245
sg64
(lp7252
g57
(g78
g59
NtRp7253
(dp7254
g62
(dp7255
sg71
g7249
sg64
(lp7256
g57
(g58
g59
NtRp7257
(dp7258
g62
(dp7259
g70
I3
ssg71
g7253
sg64
(lp7260
g6038
asbasbasbag57
(g73
g59
NtRp7261
(dp7262
g62
(dp7263
sg71
g7245
sg64
(lp7264
g57
(g78
g59
NtRp7265
(dp7266
g62
(dp7267
sg71
g7261
sg64
(lp7268
g57
(g58
g59
NtRp7269
(dp7270
g62
(dp7271
g70
I3
ssg71
g7265
sg64
(lp7272
g100
asbasbasbag57
(g73
g59
NtRp7273
(dp7274
g62
(dp7275
sg71
g7245
sg64
(lp7276
g57
(g78
g59
NtRp7277
(dp7278
g62
(dp7279
sg71
g7273
sg64
(lp7280
g57
(g58
g59
NtRp7281
(dp7282
g62
(dp7283
g70
I3
ssg71
g7277
sg64
(lp7284
g6063
asbasbasbag57
(g73
g59
NtRp7285
(dp7286
g62
(dp7287
sg71
g7245
sg64
(lp7288
g57
(g78
g59
NtRp7289
(dp7290
g62
(dp7291
sg71
g7285
sg64
(lp7292
g57
(g58
g59
NtRp7293
(dp7294
g62
(dp7295
g70
I3
ssg71
g7289
sg64
(lp7296
g57
(g66
g59
NtRp7297
(dp7298
g62
(dp7299
g70
I2
ssg71
Nsg64
(lp7300
sbasbasbasbasbasbasbasbasbasbasbasbasbasbsS'locals'
p7301
(dp7302
S'i'
S'0'
sS'self'
p7303
S'<Rows (0)>'
p7304
sssS'traceback'
p7305
S'Traceback (most recent call last):\n  File "/home/bhanu/web2py/gluon/restricted.py", line 212, in restricted\n    exec ccode in environment\n  File "/home/bhanu/web2py/applications/sss/controllers/default.py", line 848, in <module>\n  File "/home/bhanu/web2py/gluon/globals.py", line 188, in <lambda>\n    self._caller = lambda f: f()\n  File "/home/bhanu/web2py/applications/sss/controllers/default.py", line 593, in editprofile\n    studentid=prof[0].id\n  File "/home/bhanu/web2py/gluon/dal.py", line 9051, in __getitem__\n    row = self.records[i]\nIndexError: list index out of range\n'
p7306
s.